ARM GAS  C:\Users\WANGBI~1\AppData\Local\Temp\ccNVqL5c.s 			page 1


   1              		.syntax unified
   2              		.cpu cortex-m0plus
   3              		.fpu softvfp
   4              		.eabi_attribute 20, 1
   5              		.eabi_attribute 21, 1
   6              		.eabi_attribute 23, 3
   7              		.eabi_attribute 24, 1
   8              		.eabi_attribute 25, 1
   9              		.eabi_attribute 26, 1
  10              		.eabi_attribute 30, 1
  11              		.eabi_attribute 34, 0
  12              		.eabi_attribute 18, 4
  13              		.thumb
  14              		.syntax unified
  15              		.file	"cmsis_liteos.c"
  16              		.text
  17              	.Ltext0:
  18              		.cfi_sections	.debug_frame
  19              		.section	.text.osKernelInitialize,"ax",%progbits
  20              		.align	2
  21              		.global	osKernelInitialize
  22              		.code	16
  23              		.thumb_func
  25              	osKernelInitialize:
  26              	.LFB45:
  27              		.file 1 "e:\\liteos\\liteos\\components\\cmsis\\2.0/cmsis_liteos2.c"
   1:e:\liteos\liteos\components\cmsis\2.0\cmsis_liteos2.c **** /*----------------------------------------------------------------------------
   2:e:\liteos\liteos\components\cmsis\2.0\cmsis_liteos2.c ****  * Copyright (c) <2013-2015>, <Huawei Technologies Co., Ltd>
   3:e:\liteos\liteos\components\cmsis\2.0\cmsis_liteos2.c ****  * All rights reserved.
   4:e:\liteos\liteos\components\cmsis\2.0\cmsis_liteos2.c ****  * Redistribution and use in source and binary forms, with or without modification,
   5:e:\liteos\liteos\components\cmsis\2.0\cmsis_liteos2.c ****  * are permitted provided that the following conditions are met:
   6:e:\liteos\liteos\components\cmsis\2.0\cmsis_liteos2.c ****  * 1. Redistributions of source code must retain the above copyright notice, this list of
   7:e:\liteos\liteos\components\cmsis\2.0\cmsis_liteos2.c ****  * conditions and the following disclaimer.
   8:e:\liteos\liteos\components\cmsis\2.0\cmsis_liteos2.c ****  * 2. Redistributions in binary form must reproduce the above copyright notice, this list
   9:e:\liteos\liteos\components\cmsis\2.0\cmsis_liteos2.c ****  * of conditions and the following disclaimer in the documentation and/or other materials
  10:e:\liteos\liteos\components\cmsis\2.0\cmsis_liteos2.c ****  * provided with the distribution.
  11:e:\liteos\liteos\components\cmsis\2.0\cmsis_liteos2.c ****  * 3. Neither the name of the copyright holder nor the names of its contributors may be used
  12:e:\liteos\liteos\components\cmsis\2.0\cmsis_liteos2.c ****  * to endorse or promote products derived from this software without specific prior written
  13:e:\liteos\liteos\components\cmsis\2.0\cmsis_liteos2.c ****  * permission.
  14:e:\liteos\liteos\components\cmsis\2.0\cmsis_liteos2.c ****  * THIS SOFTWARE IS PROVIDED BY THE COPYRIGHT HOLDERS AND CONTRIBUTORS
  15:e:\liteos\liteos\components\cmsis\2.0\cmsis_liteos2.c ****  * "AS IS" AND ANY EXPRESS OR IMPLIED WARRANTIES, INCLUDING, BUT NOT LIMITED TO,
  16:e:\liteos\liteos\components\cmsis\2.0\cmsis_liteos2.c ****  * THE IMPLIED WARRANTIES OF MERCHANTABILITY AND FITNESS FOR A PARTICULAR
  17:e:\liteos\liteos\components\cmsis\2.0\cmsis_liteos2.c ****  * PURPOSE ARE DISCLAIMED. IN NO EVENT SHALL THE COPYRIGHT HOLDER OR
  18:e:\liteos\liteos\components\cmsis\2.0\cmsis_liteos2.c ****  * CONTRIBUTORS BE LIABLE FOR ANY DIRECT, INDIRECT, INCIDENTAL, SPECIAL,
  19:e:\liteos\liteos\components\cmsis\2.0\cmsis_liteos2.c ****  * EXEMPLARY, OR CONSEQUENTIAL DAMAGES (INCLUDING, BUT NOT LIMITED TO,
  20:e:\liteos\liteos\components\cmsis\2.0\cmsis_liteos2.c ****  * PROCUREMENT OF SUBSTITUTE GOODS OR SERVICES; LOSS OF USE, DATA, OR PROFITS;
  21:e:\liteos\liteos\components\cmsis\2.0\cmsis_liteos2.c ****  * OR BUSINESS INTERRUPTION) HOWEVER CAUSED AND ON ANY THEORY OF LIABILITY,
  22:e:\liteos\liteos\components\cmsis\2.0\cmsis_liteos2.c ****  * WHETHER IN CONTRACT, STRICT LIABILITY, OR TORT (INCLUDING NEGLIGENCE OR
  23:e:\liteos\liteos\components\cmsis\2.0\cmsis_liteos2.c ****  * OTHERWISE) ARISING IN ANY WAY OUT OF THE USE OF THIS SOFTWARE, EVEN IF
  24:e:\liteos\liteos\components\cmsis\2.0\cmsis_liteos2.c ****  * ADVISED OF THE POSSIBILITY OF SUCH DAMAGE.
  25:e:\liteos\liteos\components\cmsis\2.0\cmsis_liteos2.c ****  *---------------------------------------------------------------------------*/
  26:e:\liteos\liteos\components\cmsis\2.0\cmsis_liteos2.c **** /*----------------------------------------------------------------------------
  27:e:\liteos\liteos\components\cmsis\2.0\cmsis_liteos2.c ****  * Notice of Export Control Law
  28:e:\liteos\liteos\components\cmsis\2.0\cmsis_liteos2.c ****  * ===============================================
  29:e:\liteos\liteos\components\cmsis\2.0\cmsis_liteos2.c ****  * Huawei LiteOS may be subject to applicable export control laws and regulations, which might
  30:e:\liteos\liteos\components\cmsis\2.0\cmsis_liteos2.c ****  * include those applicable to Huawei LiteOS of U.S. and the country in which you are located.
  31:e:\liteos\liteos\components\cmsis\2.0\cmsis_liteos2.c ****  * Import, export and usage of Huawei LiteOS in any manner by you shall be in compliance with such
ARM GAS  C:\Users\WANGBI~1\AppData\Local\Temp\ccNVqL5c.s 			page 2


  32:e:\liteos\liteos\components\cmsis\2.0\cmsis_liteos2.c ****  * applicable export control laws and regulations.
  33:e:\liteos\liteos\components\cmsis\2.0\cmsis_liteos2.c ****  *---------------------------------------------------------------------------*/
  34:e:\liteos\liteos\components\cmsis\2.0\cmsis_liteos2.c **** #include "cmsis_os.h"
  35:e:\liteos\liteos\components\cmsis\2.0\cmsis_liteos2.c **** #include "los_typedef.h"
  36:e:\liteos\liteos\components\cmsis\2.0\cmsis_liteos2.c **** #include "los_printf.h"
  37:e:\liteos\liteos\components\cmsis\2.0\cmsis_liteos2.c **** 
  38:e:\liteos\liteos\components\cmsis\2.0\cmsis_liteos2.c **** #include "los_event.h"
  39:e:\liteos\liteos\components\cmsis\2.0\cmsis_liteos2.c **** #include "los_membox.h"
  40:e:\liteos\liteos\components\cmsis\2.0\cmsis_liteos2.c **** #include "los_hwi.h"
  41:e:\liteos\liteos\components\cmsis\2.0\cmsis_liteos2.c **** 
  42:e:\liteos\liteos\components\cmsis\2.0\cmsis_liteos2.c **** #include "los_mux.ph"
  43:e:\liteos\liteos\components\cmsis\2.0\cmsis_liteos2.c **** #include "los_queue.ph"
  44:e:\liteos\liteos\components\cmsis\2.0\cmsis_liteos2.c **** #include "los_sem.ph"
  45:e:\liteos\liteos\components\cmsis\2.0\cmsis_liteos2.c **** #include "los_memory.ph"
  46:e:\liteos\liteos\components\cmsis\2.0\cmsis_liteos2.c **** #include "los_swtmr.ph"
  47:e:\liteos\liteos\components\cmsis\2.0\cmsis_liteos2.c **** #include "los_sys.ph"
  48:e:\liteos\liteos\components\cmsis\2.0\cmsis_liteos2.c **** #include "los_task.ph"
  49:e:\liteos\liteos\components\cmsis\2.0\cmsis_liteos2.c **** #include "los_tick.ph"
  50:e:\liteos\liteos\components\cmsis\2.0\cmsis_liteos2.c **** //#include "los_sleep.h"
  51:e:\liteos\liteos\components\cmsis\2.0\cmsis_liteos2.c **** 
  52:e:\liteos\liteos\components\cmsis\2.0\cmsis_liteos2.c **** //#include "hal_clocks.h"
  53:e:\liteos\liteos\components\cmsis\2.0\cmsis_liteos2.c **** #include "string.h"
  54:e:\liteos\liteos\components\cmsis\2.0\cmsis_liteos2.c **** 
  55:e:\liteos\liteos\components\cmsis\2.0\cmsis_liteos2.c **** #ifdef __cplusplus
  56:e:\liteos\liteos\components\cmsis\2.0\cmsis_liteos2.c **** #if __cplusplus
  57:e:\liteos\liteos\components\cmsis\2.0\cmsis_liteos2.c **** extern "C" {
  58:e:\liteos\liteos\components\cmsis\2.0\cmsis_liteos2.c **** #endif /* __cplusplus */
  59:e:\liteos\liteos\components\cmsis\2.0\cmsis_liteos2.c **** #endif /* __cplusplus */
  60:e:\liteos\liteos\components\cmsis\2.0\cmsis_liteos2.c **** #if (CMSIS_OS_VER == 2)
  61:e:\liteos\liteos\components\cmsis\2.0\cmsis_liteos2.c **** 
  62:e:\liteos\liteos\components\cmsis\2.0\cmsis_liteos2.c **** /* Kernel initialization state */
  63:e:\liteos\liteos\components\cmsis\2.0\cmsis_liteos2.c **** static osKernelState_t KernelState;
  64:e:\liteos\liteos\components\cmsis\2.0\cmsis_liteos2.c **** 
  65:e:\liteos\liteos\components\cmsis\2.0\cmsis_liteos2.c **** extern BOOL g_bTaskScheduled;
  66:e:\liteos\liteos\components\cmsis\2.0\cmsis_liteos2.c **** 
  67:e:\liteos\liteos\components\cmsis\2.0\cmsis_liteos2.c **** #ifdef LOS_RUNSTOP
  68:e:\liteos\liteos\components\cmsis\2.0\cmsis_liteos2.c **** cb_uart_is_need_awake_fn uart_is_need_awake_callback = NULL;
  69:e:\liteos\liteos\components\cmsis\2.0\cmsis_liteos2.c **** #endif
  70:e:\liteos\liteos\components\cmsis\2.0\cmsis_liteos2.c **** #define LOS_PRIORITY_WIN 8
  71:e:\liteos\liteos\components\cmsis\2.0\cmsis_liteos2.c **** 
  72:e:\liteos\liteos\components\cmsis\2.0\cmsis_liteos2.c **** const osVersion_t g_stLosVersion = {001, 001};
  73:e:\liteos\liteos\components\cmsis\2.0\cmsis_liteos2.c **** 
  74:e:\liteos\liteos\components\cmsis\2.0\cmsis_liteos2.c **** #define LITEOS_VERSION_MAJOR    1
  75:e:\liteos\liteos\components\cmsis\2.0\cmsis_liteos2.c **** #define LITEOS_VERSION_MINOR    0
  76:e:\liteos\liteos\components\cmsis\2.0\cmsis_liteos2.c **** #define LITEOS_VERSION_BUILD    0
  77:e:\liteos\liteos\components\cmsis\2.0\cmsis_liteos2.c **** 
  78:e:\liteos\liteos\components\cmsis\2.0\cmsis_liteos2.c **** /* Kernel version and identification string definition */
  79:e:\liteos\liteos\components\cmsis\2.0\cmsis_liteos2.c **** #define KERNEL_VERSION            (((UINT32)LITEOS_VERSION_MAJOR * 10000000UL) | \
  80:e:\liteos\liteos\components\cmsis\2.0\cmsis_liteos2.c ****                                    ((UINT32)LITEOS_VERSION_MINOR *    10000UL) | \
  81:e:\liteos\liteos\components\cmsis\2.0\cmsis_liteos2.c ****                                    ((UINT32)LITEOS_VERSION_BUILD *        1UL))
  82:e:\liteos\liteos\components\cmsis\2.0\cmsis_liteos2.c **** 
  83:e:\liteos\liteos\components\cmsis\2.0\cmsis_liteos2.c **** #define KERNEL_ID   "HUAWEI-LiteOS"
  84:e:\liteos\liteos\components\cmsis\2.0\cmsis_liteos2.c **** 
  85:e:\liteos\liteos\components\cmsis\2.0\cmsis_liteos2.c **** #ifndef UNUSED
  86:e:\liteos\liteos\components\cmsis\2.0\cmsis_liteos2.c **** #define UNUSED(var) do { (void)var; } while(0)
  87:e:\liteos\liteos\components\cmsis\2.0\cmsis_liteos2.c **** #endif
  88:e:\liteos\liteos\components\cmsis\2.0\cmsis_liteos2.c **** //  ==== Kernel Management Functions ====
ARM GAS  C:\Users\WANGBI~1\AppData\Local\Temp\ccNVqL5c.s 			page 3


  89:e:\liteos\liteos\components\cmsis\2.0\cmsis_liteos2.c **** uint32_t osTaskStackWaterMarkGet(UINT32 uwTaskID);
  90:e:\liteos\liteos\components\cmsis\2.0\cmsis_liteos2.c **** 
  91:e:\liteos\liteos\components\cmsis\2.0\cmsis_liteos2.c **** extern VOID LOS_GetSystickCycle(UINT32 *puwCntHi, UINT32 *puwCntLo);
  92:e:\liteos\liteos\components\cmsis\2.0\cmsis_liteos2.c **** 
  93:e:\liteos\liteos\components\cmsis\2.0\cmsis_liteos2.c **** osStatus_t osKernelInitialize (void)
  94:e:\liteos\liteos\components\cmsis\2.0\cmsis_liteos2.c **** {
  28              		.loc 1 94 0
  29              		.cfi_startproc
  30              		@ args = 0, pretend = 0, frame = 0
  31              		@ frame_needed = 0, uses_anonymous_args = 0
  32 0000 10B5     		push	{r4, lr}
  33              	.LCFI0:
  34              		.cfi_def_cfa_offset 8
  35              		.cfi_offset 4, -8
  36              		.cfi_offset 14, -4
  95:e:\liteos\liteos\components\cmsis\2.0\cmsis_liteos2.c ****     if (OS_INT_ACTIVE)
  37              		.loc 1 95 0
  38 0002 FFF7FEFF 		bl	osIntNumGet
  39              	.LVL0:
  40 0006 0028     		cmp	r0, #0
  41 0008 0BD1     		bne	.L3
  96:e:\liteos\liteos\components\cmsis\2.0\cmsis_liteos2.c ****     {
  97:e:\liteos\liteos\components\cmsis\2.0\cmsis_liteos2.c ****         return osErrorISR;
  98:e:\liteos\liteos\components\cmsis\2.0\cmsis_liteos2.c ****     }
  99:e:\liteos\liteos\components\cmsis\2.0\cmsis_liteos2.c **** 
 100:e:\liteos\liteos\components\cmsis\2.0\cmsis_liteos2.c ****     if (KernelState != osKernelInactive)
  42              		.loc 1 100 0
  43 000a 0A4B     		ldr	r3, .L6
  44 000c 1B68     		ldr	r3, [r3]
  45 000e 002B     		cmp	r3, #0
  46 0010 0AD1     		bne	.L4
 101:e:\liteos\liteos\components\cmsis\2.0\cmsis_liteos2.c ****     {
 102:e:\liteos\liteos\components\cmsis\2.0\cmsis_liteos2.c ****         return osError;
 103:e:\liteos\liteos\components\cmsis\2.0\cmsis_liteos2.c ****     }
 104:e:\liteos\liteos\components\cmsis\2.0\cmsis_liteos2.c **** 
 105:e:\liteos\liteos\components\cmsis\2.0\cmsis_liteos2.c ****     if(LOS_OK == LOS_KernelInit())
  47              		.loc 1 105 0
  48 0012 FFF7FEFF 		bl	LOS_KernelInit
  49              	.LVL1:
  50 0016 0028     		cmp	r0, #0
  51 0018 09D1     		bne	.L5
 106:e:\liteos\liteos\components\cmsis\2.0\cmsis_liteos2.c ****     {
 107:e:\liteos\liteos\components\cmsis\2.0\cmsis_liteos2.c ****         KernelState = osKernelReady;
  52              		.loc 1 107 0
  53 001a 0122     		movs	r2, #1
  54 001c 054B     		ldr	r3, .L6
  55 001e 1A60     		str	r2, [r3]
 108:e:\liteos\liteos\components\cmsis\2.0\cmsis_liteos2.c ****         return osOK;
  56              		.loc 1 108 0
  57 0020 07E0     		b	.L2
  58              	.L3:
  97:e:\liteos\liteos\components\cmsis\2.0\cmsis_liteos2.c ****     }
  59              		.loc 1 97 0
  60 0022 0620     		movs	r0, #6
  61 0024 4042     		rsbs	r0, r0, #0
  62 0026 04E0     		b	.L2
  63              	.L4:
ARM GAS  C:\Users\WANGBI~1\AppData\Local\Temp\ccNVqL5c.s 			page 4


 102:e:\liteos\liteos\components\cmsis\2.0\cmsis_liteos2.c ****     }
  64              		.loc 1 102 0
  65 0028 0120     		movs	r0, #1
  66 002a 4042     		rsbs	r0, r0, #0
  67 002c 01E0     		b	.L2
  68              	.L5:
 109:e:\liteos\liteos\components\cmsis\2.0\cmsis_liteos2.c ****     }
 110:e:\liteos\liteos\components\cmsis\2.0\cmsis_liteos2.c ****     else
 111:e:\liteos\liteos\components\cmsis\2.0\cmsis_liteos2.c ****     {
 112:e:\liteos\liteos\components\cmsis\2.0\cmsis_liteos2.c ****         return osError;
  69              		.loc 1 112 0
  70 002e 0120     		movs	r0, #1
  71 0030 4042     		rsbs	r0, r0, #0
  72              	.L2:
 113:e:\liteos\liteos\components\cmsis\2.0\cmsis_liteos2.c ****     }
 114:e:\liteos\liteos\components\cmsis\2.0\cmsis_liteos2.c **** }
  73              		.loc 1 114 0
  74              		@ sp needed
  75 0032 10BD     		pop	{r4, pc}
  76              	.L7:
  77              		.align	2
  78              	.L6:
  79 0034 00000000 		.word	.LANCHOR0
  80              		.cfi_endproc
  81              	.LFE45:
  83              		.section	.text.osKernelGetInfo,"ax",%progbits
  84              		.align	2
  85              		.global	osKernelGetInfo
  86              		.code	16
  87              		.thumb_func
  89              	osKernelGetInfo:
  90              	.LFB46:
 115:e:\liteos\liteos\components\cmsis\2.0\cmsis_liteos2.c **** 
 116:e:\liteos\liteos\components\cmsis\2.0\cmsis_liteos2.c **** 
 117:e:\liteos\liteos\components\cmsis\2.0\cmsis_liteos2.c **** osStatus_t osKernelGetInfo (osVersion_t *version, char *id_buf, uint32_t id_size)
 118:e:\liteos\liteos\components\cmsis\2.0\cmsis_liteos2.c **** {
  91              		.loc 1 118 0
  92              		.cfi_startproc
  93              		@ args = 0, pretend = 0, frame = 0
  94              		@ frame_needed = 0, uses_anonymous_args = 0
  95              	.LVL2:
  96 0000 70B5     		push	{r4, r5, r6, lr}
  97              	.LCFI1:
  98              		.cfi_def_cfa_offset 16
  99              		.cfi_offset 4, -16
 100              		.cfi_offset 5, -12
 101              		.cfi_offset 6, -8
 102              		.cfi_offset 14, -4
 103 0002 0400     		movs	r4, r0
 104 0004 0E00     		movs	r6, r1
 105 0006 1500     		movs	r5, r2
 119:e:\liteos\liteos\components\cmsis\2.0\cmsis_liteos2.c ****     if (OS_INT_ACTIVE)
 106              		.loc 1 119 0
 107 0008 FFF7FEFF 		bl	osIntNumGet
 108              	.LVL3:
 109 000c 0028     		cmp	r0, #0
 110 000e 12D1     		bne	.L12
ARM GAS  C:\Users\WANGBI~1\AppData\Local\Temp\ccNVqL5c.s 			page 5


 120:e:\liteos\liteos\components\cmsis\2.0\cmsis_liteos2.c ****     {
 121:e:\liteos\liteos\components\cmsis\2.0\cmsis_liteos2.c ****         return osErrorISR;
 122:e:\liteos\liteos\components\cmsis\2.0\cmsis_liteos2.c ****     }
 123:e:\liteos\liteos\components\cmsis\2.0\cmsis_liteos2.c **** 
 124:e:\liteos\liteos\components\cmsis\2.0\cmsis_liteos2.c ****     if (version != NULL)
 111              		.loc 1 124 0
 112 0010 002C     		cmp	r4, #0
 113 0012 02D0     		beq	.L10
 125:e:\liteos\liteos\components\cmsis\2.0\cmsis_liteos2.c ****     {
 126:e:\liteos\liteos\components\cmsis\2.0\cmsis_liteos2.c ****         version->api = g_stLosVersion.api;
 114              		.loc 1 126 0
 115 0014 0123     		movs	r3, #1
 116 0016 2360     		str	r3, [r4]
 127:e:\liteos\liteos\components\cmsis\2.0\cmsis_liteos2.c ****         version->kernel = g_stLosVersion.kernel;
 117              		.loc 1 127 0
 118 0018 6360     		str	r3, [r4, #4]
 119              	.L10:
 128:e:\liteos\liteos\components\cmsis\2.0\cmsis_liteos2.c ****     }
 129:e:\liteos\liteos\components\cmsis\2.0\cmsis_liteos2.c **** 
 130:e:\liteos\liteos\components\cmsis\2.0\cmsis_liteos2.c ****     if ((id_buf != NULL) && (id_size != 0U))
 120              		.loc 1 130 0
 121 001a 002E     		cmp	r6, #0
 122 001c 0ED0     		beq	.L13
 123              		.loc 1 130 0 is_stmt 0 discriminator 1
 124 001e 002D     		cmp	r5, #0
 125 0020 0ED0     		beq	.L14
 131:e:\liteos\liteos\components\cmsis\2.0\cmsis_liteos2.c ****     {
 132:e:\liteos\liteos\components\cmsis\2.0\cmsis_liteos2.c ****         if (id_size > sizeof(KERNEL_ID))
 126              		.loc 1 132 0 is_stmt 1
 127 0022 0E2D     		cmp	r5, #14
 128 0024 00D9     		bls	.L11
 133:e:\liteos\liteos\components\cmsis\2.0\cmsis_liteos2.c ****         {
 134:e:\liteos\liteos\components\cmsis\2.0\cmsis_liteos2.c ****             id_size = sizeof(KERNEL_ID);
 129              		.loc 1 134 0
 130 0026 0E25     		movs	r5, #14
 131              	.LVL4:
 132              	.L11:
 135:e:\liteos\liteos\components\cmsis\2.0\cmsis_liteos2.c ****         }
 136:e:\liteos\liteos\components\cmsis\2.0\cmsis_liteos2.c ****         memcpy(id_buf, KERNEL_ID, id_size);
 133              		.loc 1 136 0
 134 0028 2A00     		movs	r2, r5
 135 002a 0649     		ldr	r1, .L16
 136 002c 3000     		movs	r0, r6
 137 002e FFF7FEFF 		bl	memcpy
 138              	.LVL5:
 137:e:\liteos\liteos\components\cmsis\2.0\cmsis_liteos2.c ****     }
 138:e:\liteos\liteos\components\cmsis\2.0\cmsis_liteos2.c **** 
 139:e:\liteos\liteos\components\cmsis\2.0\cmsis_liteos2.c ****     return osOK;
 139              		.loc 1 139 0
 140 0032 0020     		movs	r0, #0
 141 0034 05E0     		b	.L9
 142              	.L12:
 121:e:\liteos\liteos\components\cmsis\2.0\cmsis_liteos2.c ****     }
 143              		.loc 1 121 0
 144 0036 0620     		movs	r0, #6
 145 0038 4042     		rsbs	r0, r0, #0
 146 003a 02E0     		b	.L9
ARM GAS  C:\Users\WANGBI~1\AppData\Local\Temp\ccNVqL5c.s 			page 6


 147              	.L13:
 148              		.loc 1 139 0
 149 003c 0020     		movs	r0, #0
 150 003e 00E0     		b	.L9
 151              	.L14:
 152 0040 0020     		movs	r0, #0
 153              	.L9:
 140:e:\liteos\liteos\components\cmsis\2.0\cmsis_liteos2.c **** }
 154              		.loc 1 140 0
 155              		@ sp needed
 156              	.LVL6:
 157              	.LVL7:
 158              	.LVL8:
 159 0042 70BD     		pop	{r4, r5, r6, pc}
 160              	.L17:
 161              		.align	2
 162              	.L16:
 163 0044 00000000 		.word	.LC1
 164              		.cfi_endproc
 165              	.LFE46:
 167              		.section	.text.osKernelGetState,"ax",%progbits
 168              		.align	2
 169              		.global	osKernelGetState
 170              		.code	16
 171              		.thumb_func
 173              	osKernelGetState:
 174              	.LFB47:
 141:e:\liteos\liteos\components\cmsis\2.0\cmsis_liteos2.c **** 
 142:e:\liteos\liteos\components\cmsis\2.0\cmsis_liteos2.c **** 
 143:e:\liteos\liteos\components\cmsis\2.0\cmsis_liteos2.c **** osKernelState_t osKernelGetState (void)
 144:e:\liteos\liteos\components\cmsis\2.0\cmsis_liteos2.c **** {
 175              		.loc 1 144 0
 176              		.cfi_startproc
 177              		@ args = 0, pretend = 0, frame = 0
 178              		@ frame_needed = 0, uses_anonymous_args = 0
 179 0000 10B5     		push	{r4, lr}
 180              	.LCFI2:
 181              		.cfi_def_cfa_offset 8
 182              		.cfi_offset 4, -8
 183              		.cfi_offset 14, -4
 145:e:\liteos\liteos\components\cmsis\2.0\cmsis_liteos2.c ****     if (OS_INT_ACTIVE)
 184              		.loc 1 145 0
 185 0002 FFF7FEFF 		bl	osIntNumGet
 186              	.LVL9:
 187 0006 0028     		cmp	r0, #0
 188 0008 0ED1     		bne	.L21
 146:e:\liteos\liteos\components\cmsis\2.0\cmsis_liteos2.c ****     {
 147:e:\liteos\liteos\components\cmsis\2.0\cmsis_liteos2.c ****         return osKernelError;
 148:e:\liteos\liteos\components\cmsis\2.0\cmsis_liteos2.c ****     }
 149:e:\liteos\liteos\components\cmsis\2.0\cmsis_liteos2.c **** 
 150:e:\liteos\liteos\components\cmsis\2.0\cmsis_liteos2.c ****     if(!g_bTaskScheduled)
 189              		.loc 1 150 0
 190 000a 0B4B     		ldr	r3, .L24
 191 000c 1B68     		ldr	r3, [r3]
 192 000e 002B     		cmp	r3, #0
 193 0010 04D1     		bne	.L20
 151:e:\liteos\liteos\components\cmsis\2.0\cmsis_liteos2.c ****     {
ARM GAS  C:\Users\WANGBI~1\AppData\Local\Temp\ccNVqL5c.s 			page 7


 152:e:\liteos\liteos\components\cmsis\2.0\cmsis_liteos2.c ****         if (KernelState == osKernelReady)
 194              		.loc 1 152 0
 195 0012 0A4B     		ldr	r3, .L24+4
 196 0014 1868     		ldr	r0, [r3]
 197 0016 0128     		cmp	r0, #1
 198 0018 09D1     		bne	.L22
 199 001a 0BE0     		b	.L19
 200              	.L20:
 153:e:\liteos\liteos\components\cmsis\2.0\cmsis_liteos2.c ****         {
 154:e:\liteos\liteos\components\cmsis\2.0\cmsis_liteos2.c ****             return osKernelReady;
 155:e:\liteos\liteos\components\cmsis\2.0\cmsis_liteos2.c ****         }
 156:e:\liteos\liteos\components\cmsis\2.0\cmsis_liteos2.c ****         else
 157:e:\liteos\liteos\components\cmsis\2.0\cmsis_liteos2.c ****         {
 158:e:\liteos\liteos\components\cmsis\2.0\cmsis_liteos2.c ****             return osKernelInactive;
 159:e:\liteos\liteos\components\cmsis\2.0\cmsis_liteos2.c ****         }
 160:e:\liteos\liteos\components\cmsis\2.0\cmsis_liteos2.c ****     }
 161:e:\liteos\liteos\components\cmsis\2.0\cmsis_liteos2.c ****     else if(g_usLosTaskLock > 0)
 201              		.loc 1 161 0
 202 001c 084B     		ldr	r3, .L24+8
 203 001e 1B88     		ldrh	r3, [r3]
 204 0020 002B     		cmp	r3, #0
 205 0022 06D0     		beq	.L23
 162:e:\liteos\liteos\components\cmsis\2.0\cmsis_liteos2.c ****     {
 163:e:\liteos\liteos\components\cmsis\2.0\cmsis_liteos2.c ****         return osKernelLocked;
 206              		.loc 1 163 0
 207 0024 0320     		movs	r0, #3
 208 0026 05E0     		b	.L19
 209              	.L21:
 147:e:\liteos\liteos\components\cmsis\2.0\cmsis_liteos2.c ****     }
 210              		.loc 1 147 0
 211 0028 0120     		movs	r0, #1
 212 002a 4042     		rsbs	r0, r0, #0
 213 002c 02E0     		b	.L19
 214              	.L22:
 158:e:\liteos\liteos\components\cmsis\2.0\cmsis_liteos2.c ****         }
 215              		.loc 1 158 0
 216 002e 0020     		movs	r0, #0
 217 0030 00E0     		b	.L19
 218              	.L23:
 164:e:\liteos\liteos\components\cmsis\2.0\cmsis_liteos2.c ****     }
 165:e:\liteos\liteos\components\cmsis\2.0\cmsis_liteos2.c ****     else
 166:e:\liteos\liteos\components\cmsis\2.0\cmsis_liteos2.c ****     {
 167:e:\liteos\liteos\components\cmsis\2.0\cmsis_liteos2.c ****         return osKernelRunning;
 219              		.loc 1 167 0
 220 0032 0220     		movs	r0, #2
 221              	.L19:
 168:e:\liteos\liteos\components\cmsis\2.0\cmsis_liteos2.c ****     }
 169:e:\liteos\liteos\components\cmsis\2.0\cmsis_liteos2.c **** }
 222              		.loc 1 169 0
 223              		@ sp needed
 224 0034 10BD     		pop	{r4, pc}
 225              	.L25:
 226 0036 C046     		.align	2
 227              	.L24:
 228 0038 00000000 		.word	g_bTaskScheduled
 229 003c 00000000 		.word	.LANCHOR0
 230 0040 00000000 		.word	g_usLosTaskLock
ARM GAS  C:\Users\WANGBI~1\AppData\Local\Temp\ccNVqL5c.s 			page 8


 231              		.cfi_endproc
 232              	.LFE47:
 234              		.section	.text.osKernelStart,"ax",%progbits
 235              		.align	2
 236              		.global	osKernelStart
 237              		.code	16
 238              		.thumb_func
 240              	osKernelStart:
 241              	.LFB48:
 170:e:\liteos\liteos\components\cmsis\2.0\cmsis_liteos2.c **** 
 171:e:\liteos\liteos\components\cmsis\2.0\cmsis_liteos2.c **** 
 172:e:\liteos\liteos\components\cmsis\2.0\cmsis_liteos2.c **** osStatus_t osKernelStart (void)
 173:e:\liteos\liteos\components\cmsis\2.0\cmsis_liteos2.c **** {
 242              		.loc 1 173 0
 243              		.cfi_startproc
 244              		@ args = 0, pretend = 0, frame = 0
 245              		@ frame_needed = 0, uses_anonymous_args = 0
 246 0000 10B5     		push	{r4, lr}
 247              	.LCFI3:
 248              		.cfi_def_cfa_offset 8
 249              		.cfi_offset 4, -8
 250              		.cfi_offset 14, -4
 174:e:\liteos\liteos\components\cmsis\2.0\cmsis_liteos2.c ****     if(OS_INT_ACTIVE)
 251              		.loc 1 174 0
 252 0002 FFF7FEFF 		bl	osIntNumGet
 253              	.LVL10:
 254 0006 0028     		cmp	r0, #0
 255 0008 0BD1     		bne	.L28
 175:e:\liteos\liteos\components\cmsis\2.0\cmsis_liteos2.c ****     {
 176:e:\liteos\liteos\components\cmsis\2.0\cmsis_liteos2.c ****         return osErrorISR;
 177:e:\liteos\liteos\components\cmsis\2.0\cmsis_liteos2.c ****     }
 178:e:\liteos\liteos\components\cmsis\2.0\cmsis_liteos2.c **** 
 179:e:\liteos\liteos\components\cmsis\2.0\cmsis_liteos2.c ****     if(KernelState == osKernelReady)
 256              		.loc 1 179 0
 257 000a 0A4B     		ldr	r3, .L31
 258 000c 1B68     		ldr	r3, [r3]
 259 000e 012B     		cmp	r3, #1
 260 0010 0AD1     		bne	.L29
 180:e:\liteos\liteos\components\cmsis\2.0\cmsis_liteos2.c ****     {
 181:e:\liteos\liteos\components\cmsis\2.0\cmsis_liteos2.c ****         if(LOS_OK == LOS_Start())
 261              		.loc 1 181 0
 262 0012 FFF7FEFF 		bl	LOS_Start
 263              	.LVL11:
 264 0016 0028     		cmp	r0, #0
 265 0018 09D1     		bne	.L30
 182:e:\liteos\liteos\components\cmsis\2.0\cmsis_liteos2.c ****         {
 183:e:\liteos\liteos\components\cmsis\2.0\cmsis_liteos2.c ****             KernelState = osKernelRunning;
 266              		.loc 1 183 0
 267 001a 0222     		movs	r2, #2
 268 001c 054B     		ldr	r3, .L31
 269 001e 1A60     		str	r2, [r3]
 184:e:\liteos\liteos\components\cmsis\2.0\cmsis_liteos2.c ****             return osOK;
 270              		.loc 1 184 0
 271 0020 07E0     		b	.L27
 272              	.L28:
 176:e:\liteos\liteos\components\cmsis\2.0\cmsis_liteos2.c ****     }
 273              		.loc 1 176 0
ARM GAS  C:\Users\WANGBI~1\AppData\Local\Temp\ccNVqL5c.s 			page 9


 274 0022 0620     		movs	r0, #6
 275 0024 4042     		rsbs	r0, r0, #0
 276 0026 04E0     		b	.L27
 277              	.L29:
 185:e:\liteos\liteos\components\cmsis\2.0\cmsis_liteos2.c ****         }
 186:e:\liteos\liteos\components\cmsis\2.0\cmsis_liteos2.c ****         else
 187:e:\liteos\liteos\components\cmsis\2.0\cmsis_liteos2.c ****         {
 188:e:\liteos\liteos\components\cmsis\2.0\cmsis_liteos2.c ****             return osError;
 189:e:\liteos\liteos\components\cmsis\2.0\cmsis_liteos2.c ****         }
 190:e:\liteos\liteos\components\cmsis\2.0\cmsis_liteos2.c ****     }
 191:e:\liteos\liteos\components\cmsis\2.0\cmsis_liteos2.c ****     else
 192:e:\liteos\liteos\components\cmsis\2.0\cmsis_liteos2.c ****     {
 193:e:\liteos\liteos\components\cmsis\2.0\cmsis_liteos2.c ****         return osError;
 278              		.loc 1 193 0
 279 0028 0120     		movs	r0, #1
 280 002a 4042     		rsbs	r0, r0, #0
 281 002c 01E0     		b	.L27
 282              	.L30:
 188:e:\liteos\liteos\components\cmsis\2.0\cmsis_liteos2.c ****         }
 283              		.loc 1 188 0
 284 002e 0120     		movs	r0, #1
 285 0030 4042     		rsbs	r0, r0, #0
 286              	.L27:
 194:e:\liteos\liteos\components\cmsis\2.0\cmsis_liteos2.c ****     }
 195:e:\liteos\liteos\components\cmsis\2.0\cmsis_liteos2.c **** }
 287              		.loc 1 195 0
 288              		@ sp needed
 289 0032 10BD     		pop	{r4, pc}
 290              	.L32:
 291              		.align	2
 292              	.L31:
 293 0034 00000000 		.word	.LANCHOR0
 294              		.cfi_endproc
 295              	.LFE48:
 297              		.section	.text.osKernelLock,"ax",%progbits
 298              		.align	2
 299              		.global	osKernelLock
 300              		.code	16
 301              		.thumb_func
 303              	osKernelLock:
 304              	.LFB49:
 196:e:\liteos\liteos\components\cmsis\2.0\cmsis_liteos2.c **** 
 197:e:\liteos\liteos\components\cmsis\2.0\cmsis_liteos2.c **** 
 198:e:\liteos\liteos\components\cmsis\2.0\cmsis_liteos2.c **** int32_t osKernelLock (void)
 199:e:\liteos\liteos\components\cmsis\2.0\cmsis_liteos2.c **** {
 305              		.loc 1 199 0
 306              		.cfi_startproc
 307              		@ args = 0, pretend = 0, frame = 0
 308              		@ frame_needed = 0, uses_anonymous_args = 0
 309 0000 10B5     		push	{r4, lr}
 310              	.LCFI4:
 311              		.cfi_def_cfa_offset 8
 312              		.cfi_offset 4, -8
 313              		.cfi_offset 14, -4
 200:e:\liteos\liteos\components\cmsis\2.0\cmsis_liteos2.c ****     int32_t lock;
 201:e:\liteos\liteos\components\cmsis\2.0\cmsis_liteos2.c **** 
 202:e:\liteos\liteos\components\cmsis\2.0\cmsis_liteos2.c ****     if(OS_INT_ACTIVE)
ARM GAS  C:\Users\WANGBI~1\AppData\Local\Temp\ccNVqL5c.s 			page 10


 314              		.loc 1 202 0
 315 0002 FFF7FEFF 		bl	osIntNumGet
 316              	.LVL12:
 317 0006 0028     		cmp	r0, #0
 318 0008 0BD1     		bne	.L35
 203:e:\liteos\liteos\components\cmsis\2.0\cmsis_liteos2.c ****     {
 204:e:\liteos\liteos\components\cmsis\2.0\cmsis_liteos2.c ****         return (int32_t)osErrorISR;
 205:e:\liteos\liteos\components\cmsis\2.0\cmsis_liteos2.c ****     }
 206:e:\liteos\liteos\components\cmsis\2.0\cmsis_liteos2.c **** 
 207:e:\liteos\liteos\components\cmsis\2.0\cmsis_liteos2.c ****     if(!g_bTaskScheduled)
 319              		.loc 1 207 0
 320 000a 0A4B     		ldr	r3, .L38
 321 000c 1B68     		ldr	r3, [r3]
 322 000e 002B     		cmp	r3, #0
 323 0010 0AD0     		beq	.L36
 208:e:\liteos\liteos\components\cmsis\2.0\cmsis_liteos2.c ****     {
 209:e:\liteos\liteos\components\cmsis\2.0\cmsis_liteos2.c ****         return (int32_t)osError;
 210:e:\liteos\liteos\components\cmsis\2.0\cmsis_liteos2.c ****     }
 211:e:\liteos\liteos\components\cmsis\2.0\cmsis_liteos2.c **** 
 212:e:\liteos\liteos\components\cmsis\2.0\cmsis_liteos2.c ****     if(g_usLosTaskLock > 0)
 324              		.loc 1 212 0
 325 0012 094B     		ldr	r3, .L38+4
 326 0014 1B88     		ldrh	r3, [r3]
 327 0016 002B     		cmp	r3, #0
 328 0018 09D1     		bne	.L37
 213:e:\liteos\liteos\components\cmsis\2.0\cmsis_liteos2.c ****     {
 214:e:\liteos\liteos\components\cmsis\2.0\cmsis_liteos2.c ****         lock = 1;
 215:e:\liteos\liteos\components\cmsis\2.0\cmsis_liteos2.c ****     }
 216:e:\liteos\liteos\components\cmsis\2.0\cmsis_liteos2.c ****     else
 217:e:\liteos\liteos\components\cmsis\2.0\cmsis_liteos2.c ****     {
 218:e:\liteos\liteos\components\cmsis\2.0\cmsis_liteos2.c ****         LOS_TaskLock();
 329              		.loc 1 218 0
 330 001a FFF7FEFF 		bl	LOS_TaskLock
 331              	.LVL13:
 219:e:\liteos\liteos\components\cmsis\2.0\cmsis_liteos2.c ****         lock = 0;
 332              		.loc 1 219 0
 333 001e 0020     		movs	r0, #0
 334 0020 06E0     		b	.L34
 335              	.LVL14:
 336              	.L35:
 204:e:\liteos\liteos\components\cmsis\2.0\cmsis_liteos2.c ****     }
 337              		.loc 1 204 0
 338 0022 0620     		movs	r0, #6
 339 0024 4042     		rsbs	r0, r0, #0
 340 0026 03E0     		b	.L34
 341              	.L36:
 209:e:\liteos\liteos\components\cmsis\2.0\cmsis_liteos2.c ****     }
 342              		.loc 1 209 0
 343 0028 0120     		movs	r0, #1
 344 002a 4042     		rsbs	r0, r0, #0
 345 002c 00E0     		b	.L34
 346              	.L37:
 214:e:\liteos\liteos\components\cmsis\2.0\cmsis_liteos2.c ****     }
 347              		.loc 1 214 0
 348 002e 0120     		movs	r0, #1
 349              	.L34:
 220:e:\liteos\liteos\components\cmsis\2.0\cmsis_liteos2.c ****     }
ARM GAS  C:\Users\WANGBI~1\AppData\Local\Temp\ccNVqL5c.s 			page 11


 221:e:\liteos\liteos\components\cmsis\2.0\cmsis_liteos2.c **** 
 222:e:\liteos\liteos\components\cmsis\2.0\cmsis_liteos2.c ****     return lock;
 223:e:\liteos\liteos\components\cmsis\2.0\cmsis_liteos2.c **** }
 350              		.loc 1 223 0
 351              		@ sp needed
 352 0030 10BD     		pop	{r4, pc}
 353              	.L39:
 354 0032 C046     		.align	2
 355              	.L38:
 356 0034 00000000 		.word	g_bTaskScheduled
 357 0038 00000000 		.word	g_usLosTaskLock
 358              		.cfi_endproc
 359              	.LFE49:
 361              		.section	.text.osKernelUnlock,"ax",%progbits
 362              		.align	2
 363              		.global	osKernelUnlock
 364              		.code	16
 365              		.thumb_func
 367              	osKernelUnlock:
 368              	.LFB50:
 224:e:\liteos\liteos\components\cmsis\2.0\cmsis_liteos2.c **** 
 225:e:\liteos\liteos\components\cmsis\2.0\cmsis_liteos2.c **** 
 226:e:\liteos\liteos\components\cmsis\2.0\cmsis_liteos2.c **** int32_t osKernelUnlock (void)
 227:e:\liteos\liteos\components\cmsis\2.0\cmsis_liteos2.c **** {
 369              		.loc 1 227 0
 370              		.cfi_startproc
 371              		@ args = 0, pretend = 0, frame = 0
 372              		@ frame_needed = 0, uses_anonymous_args = 0
 373 0000 10B5     		push	{r4, lr}
 374              	.LCFI5:
 375              		.cfi_def_cfa_offset 8
 376              		.cfi_offset 4, -8
 377              		.cfi_offset 14, -4
 228:e:\liteos\liteos\components\cmsis\2.0\cmsis_liteos2.c ****     int32_t lock;
 229:e:\liteos\liteos\components\cmsis\2.0\cmsis_liteos2.c **** 
 230:e:\liteos\liteos\components\cmsis\2.0\cmsis_liteos2.c ****     if(OS_INT_ACTIVE)
 378              		.loc 1 230 0
 379 0002 FFF7FEFF 		bl	osIntNumGet
 380              	.LVL15:
 381 0006 0028     		cmp	r0, #0
 382 0008 10D1     		bne	.L42
 231:e:\liteos\liteos\components\cmsis\2.0\cmsis_liteos2.c ****     {
 232:e:\liteos\liteos\components\cmsis\2.0\cmsis_liteos2.c ****         return (int32_t)osErrorISR;
 233:e:\liteos\liteos\components\cmsis\2.0\cmsis_liteos2.c ****     }
 234:e:\liteos\liteos\components\cmsis\2.0\cmsis_liteos2.c **** 
 235:e:\liteos\liteos\components\cmsis\2.0\cmsis_liteos2.c ****     if(!g_bTaskScheduled)
 383              		.loc 1 235 0
 384 000a 0D4B     		ldr	r3, .L46
 385 000c 1B68     		ldr	r3, [r3]
 386 000e 002B     		cmp	r3, #0
 387 0010 0FD0     		beq	.L43
 236:e:\liteos\liteos\components\cmsis\2.0\cmsis_liteos2.c ****     {
 237:e:\liteos\liteos\components\cmsis\2.0\cmsis_liteos2.c ****         return (int32_t)osError;
 238:e:\liteos\liteos\components\cmsis\2.0\cmsis_liteos2.c ****     }
 239:e:\liteos\liteos\components\cmsis\2.0\cmsis_liteos2.c **** 
 240:e:\liteos\liteos\components\cmsis\2.0\cmsis_liteos2.c ****     if(g_usLosTaskLock > 0)
 388              		.loc 1 240 0
ARM GAS  C:\Users\WANGBI~1\AppData\Local\Temp\ccNVqL5c.s 			page 12


 389 0012 0C4B     		ldr	r3, .L46+4
 390 0014 1B88     		ldrh	r3, [r3]
 391 0016 002B     		cmp	r3, #0
 392 0018 0ED0     		beq	.L44
 241:e:\liteos\liteos\components\cmsis\2.0\cmsis_liteos2.c ****     {
 242:e:\liteos\liteos\components\cmsis\2.0\cmsis_liteos2.c ****         LOS_TaskUnlock();
 393              		.loc 1 242 0
 394 001a FFF7FEFF 		bl	LOS_TaskUnlock
 395              	.LVL16:
 243:e:\liteos\liteos\components\cmsis\2.0\cmsis_liteos2.c ****         if (g_usLosTaskLock != 0)
 396              		.loc 1 243 0
 397 001e 094B     		ldr	r3, .L46+4
 398 0020 1B88     		ldrh	r3, [r3]
 399 0022 002B     		cmp	r3, #0
 400 0024 0AD0     		beq	.L45
 244:e:\liteos\liteos\components\cmsis\2.0\cmsis_liteos2.c ****         {
 245:e:\liteos\liteos\components\cmsis\2.0\cmsis_liteos2.c ****             return (int32_t)osError;
 401              		.loc 1 245 0
 402 0026 0120     		movs	r0, #1
 403 0028 4042     		rsbs	r0, r0, #0
 404 002a 08E0     		b	.L41
 405              	.L42:
 232:e:\liteos\liteos\components\cmsis\2.0\cmsis_liteos2.c ****     }
 406              		.loc 1 232 0
 407 002c 0620     		movs	r0, #6
 408 002e 4042     		rsbs	r0, r0, #0
 409 0030 05E0     		b	.L41
 410              	.L43:
 237:e:\liteos\liteos\components\cmsis\2.0\cmsis_liteos2.c ****     }
 411              		.loc 1 237 0
 412 0032 0120     		movs	r0, #1
 413 0034 4042     		rsbs	r0, r0, #0
 414 0036 02E0     		b	.L41
 415              	.L44:
 246:e:\liteos\liteos\components\cmsis\2.0\cmsis_liteos2.c ****         }
 247:e:\liteos\liteos\components\cmsis\2.0\cmsis_liteos2.c ****         lock = 1;
 248:e:\liteos\liteos\components\cmsis\2.0\cmsis_liteos2.c ****     }
 249:e:\liteos\liteos\components\cmsis\2.0\cmsis_liteos2.c ****     else
 250:e:\liteos\liteos\components\cmsis\2.0\cmsis_liteos2.c ****     {
 251:e:\liteos\liteos\components\cmsis\2.0\cmsis_liteos2.c ****         lock = 0;
 416              		.loc 1 251 0
 417 0038 0020     		movs	r0, #0
 418 003a 00E0     		b	.L41
 419              	.L45:
 247:e:\liteos\liteos\components\cmsis\2.0\cmsis_liteos2.c ****     }
 420              		.loc 1 247 0
 421 003c 0120     		movs	r0, #1
 422              	.L41:
 252:e:\liteos\liteos\components\cmsis\2.0\cmsis_liteos2.c ****     }
 253:e:\liteos\liteos\components\cmsis\2.0\cmsis_liteos2.c **** 
 254:e:\liteos\liteos\components\cmsis\2.0\cmsis_liteos2.c ****     return lock;
 255:e:\liteos\liteos\components\cmsis\2.0\cmsis_liteos2.c **** }
 423              		.loc 1 255 0
 424              		@ sp needed
 425 003e 10BD     		pop	{r4, pc}
 426              	.L47:
 427              		.align	2
ARM GAS  C:\Users\WANGBI~1\AppData\Local\Temp\ccNVqL5c.s 			page 13


 428              	.L46:
 429 0040 00000000 		.word	g_bTaskScheduled
 430 0044 00000000 		.word	g_usLosTaskLock
 431              		.cfi_endproc
 432              	.LFE50:
 434              		.section	.text.osKernelRestoreLock,"ax",%progbits
 435              		.align	2
 436              		.global	osKernelRestoreLock
 437              		.code	16
 438              		.thumb_func
 440              	osKernelRestoreLock:
 441              	.LFB51:
 256:e:\liteos\liteos\components\cmsis\2.0\cmsis_liteos2.c **** 
 257:e:\liteos\liteos\components\cmsis\2.0\cmsis_liteos2.c **** 
 258:e:\liteos\liteos\components\cmsis\2.0\cmsis_liteos2.c **** int32_t osKernelRestoreLock (int32_t lock)
 259:e:\liteos\liteos\components\cmsis\2.0\cmsis_liteos2.c **** {
 442              		.loc 1 259 0
 443              		.cfi_startproc
 444              		@ args = 0, pretend = 0, frame = 0
 445              		@ frame_needed = 0, uses_anonymous_args = 0
 446              	.LVL17:
 447 0000 10B5     		push	{r4, lr}
 448              	.LCFI6:
 449              		.cfi_def_cfa_offset 8
 450              		.cfi_offset 4, -8
 451              		.cfi_offset 14, -4
 452 0002 0400     		movs	r4, r0
 260:e:\liteos\liteos\components\cmsis\2.0\cmsis_liteos2.c ****     if(OS_INT_ACTIVE)
 453              		.loc 1 260 0
 454 0004 FFF7FEFF 		bl	osIntNumGet
 455              	.LVL18:
 456 0008 0028     		cmp	r0, #0
 457 000a 14D1     		bne	.L52
 261:e:\liteos\liteos\components\cmsis\2.0\cmsis_liteos2.c ****     {
 262:e:\liteos\liteos\components\cmsis\2.0\cmsis_liteos2.c ****         return (int32_t)osErrorISR;
 263:e:\liteos\liteos\components\cmsis\2.0\cmsis_liteos2.c ****     }
 264:e:\liteos\liteos\components\cmsis\2.0\cmsis_liteos2.c **** 
 265:e:\liteos\liteos\components\cmsis\2.0\cmsis_liteos2.c ****     if(!g_bTaskScheduled)
 458              		.loc 1 265 0
 459 000c 104B     		ldr	r3, .L57
 460 000e 1B68     		ldr	r3, [r3]
 461 0010 002B     		cmp	r3, #0
 462 0012 13D0     		beq	.L53
 266:e:\liteos\liteos\components\cmsis\2.0\cmsis_liteos2.c ****     {
 267:e:\liteos\liteos\components\cmsis\2.0\cmsis_liteos2.c ****         return (int32_t)osError;
 268:e:\liteos\liteos\components\cmsis\2.0\cmsis_liteos2.c ****     }
 269:e:\liteos\liteos\components\cmsis\2.0\cmsis_liteos2.c **** 
 270:e:\liteos\liteos\components\cmsis\2.0\cmsis_liteos2.c ****     switch (lock)
 463              		.loc 1 270 0
 464 0014 002C     		cmp	r4, #0
 465 0016 02D0     		beq	.L50
 466 0018 012C     		cmp	r4, #1
 467 001a 08D0     		beq	.L51
 468 001c 11E0     		b	.L56
 469              	.L50:
 271:e:\liteos\liteos\components\cmsis\2.0\cmsis_liteos2.c ****     {
 272:e:\liteos\liteos\components\cmsis\2.0\cmsis_liteos2.c ****     case 0:
ARM GAS  C:\Users\WANGBI~1\AppData\Local\Temp\ccNVqL5c.s 			page 14


 273:e:\liteos\liteos\components\cmsis\2.0\cmsis_liteos2.c ****         LOS_TaskUnlock();
 470              		.loc 1 273 0
 471 001e FFF7FEFF 		bl	LOS_TaskUnlock
 472              	.LVL19:
 274:e:\liteos\liteos\components\cmsis\2.0\cmsis_liteos2.c ****         if (g_usLosTaskLock != 0)
 473              		.loc 1 274 0
 474 0022 0C4B     		ldr	r3, .L57+4
 475 0024 1B88     		ldrh	r3, [r3]
 476 0026 002B     		cmp	r3, #0
 477 0028 0ED1     		bne	.L55
 275:e:\liteos\liteos\components\cmsis\2.0\cmsis_liteos2.c ****         {
 276:e:\liteos\liteos\components\cmsis\2.0\cmsis_liteos2.c ****             break;
 277:e:\liteos\liteos\components\cmsis\2.0\cmsis_liteos2.c ****         }
 278:e:\liteos\liteos\components\cmsis\2.0\cmsis_liteos2.c ****         return 0;
 478              		.loc 1 278 0
 479 002a 0020     		movs	r0, #0
 480 002c 0EE0     		b	.L49
 481              	.L51:
 279:e:\liteos\liteos\components\cmsis\2.0\cmsis_liteos2.c ****     case 1:
 280:e:\liteos\liteos\components\cmsis\2.0\cmsis_liteos2.c ****         LOS_TaskLock();
 482              		.loc 1 280 0
 483 002e FFF7FEFF 		bl	LOS_TaskLock
 484              	.LVL20:
 281:e:\liteos\liteos\components\cmsis\2.0\cmsis_liteos2.c ****         return 1;
 485              		.loc 1 281 0
 486 0032 0120     		movs	r0, #1
 487 0034 0AE0     		b	.L49
 488              	.L52:
 262:e:\liteos\liteos\components\cmsis\2.0\cmsis_liteos2.c ****     }
 489              		.loc 1 262 0
 490 0036 0620     		movs	r0, #6
 491 0038 4042     		rsbs	r0, r0, #0
 492 003a 07E0     		b	.L49
 493              	.L53:
 267:e:\liteos\liteos\components\cmsis\2.0\cmsis_liteos2.c ****     }
 494              		.loc 1 267 0
 495 003c 0120     		movs	r0, #1
 496 003e 4042     		rsbs	r0, r0, #0
 497 0040 04E0     		b	.L49
 498              	.L56:
 282:e:\liteos\liteos\components\cmsis\2.0\cmsis_liteos2.c ****     default:
 283:e:\liteos\liteos\components\cmsis\2.0\cmsis_liteos2.c ****         break;
 284:e:\liteos\liteos\components\cmsis\2.0\cmsis_liteos2.c ****     }
 285:e:\liteos\liteos\components\cmsis\2.0\cmsis_liteos2.c **** 
 286:e:\liteos\liteos\components\cmsis\2.0\cmsis_liteos2.c ****     return (int32_t)osError;
 499              		.loc 1 286 0
 500 0042 0120     		movs	r0, #1
 501 0044 4042     		rsbs	r0, r0, #0
 502 0046 01E0     		b	.L49
 503              	.L55:
 504 0048 0120     		movs	r0, #1
 505 004a 4042     		rsbs	r0, r0, #0
 506              	.L49:
 287:e:\liteos\liteos\components\cmsis\2.0\cmsis_liteos2.c **** 
 288:e:\liteos\liteos\components\cmsis\2.0\cmsis_liteos2.c **** }
 507              		.loc 1 288 0
 508              		@ sp needed
ARM GAS  C:\Users\WANGBI~1\AppData\Local\Temp\ccNVqL5c.s 			page 15


 509              	.LVL21:
 510 004c 10BD     		pop	{r4, pc}
 511              	.L58:
 512 004e C046     		.align	2
 513              	.L57:
 514 0050 00000000 		.word	g_bTaskScheduled
 515 0054 00000000 		.word	g_usLosTaskLock
 516              		.cfi_endproc
 517              	.LFE51:
 519              		.section	.text.osKernelGetTickCount,"ax",%progbits
 520              		.align	2
 521              		.global	osKernelGetTickCount
 522              		.code	16
 523              		.thumb_func
 525              	osKernelGetTickCount:
 526              	.LFB52:
 289:e:\liteos\liteos\components\cmsis\2.0\cmsis_liteos2.c **** 
 290:e:\liteos\liteos\components\cmsis\2.0\cmsis_liteos2.c **** 
 291:e:\liteos\liteos\components\cmsis\2.0\cmsis_liteos2.c **** uint64_t osKernelGetTickCount (void)
 292:e:\liteos\liteos\components\cmsis\2.0\cmsis_liteos2.c **** {
 527              		.loc 1 292 0
 528              		.cfi_startproc
 529              		@ args = 0, pretend = 0, frame = 0
 530              		@ frame_needed = 0, uses_anonymous_args = 0
 531 0000 70B5     		push	{r4, r5, r6, lr}
 532              	.LCFI7:
 533              		.cfi_def_cfa_offset 16
 534              		.cfi_offset 4, -16
 535              		.cfi_offset 5, -12
 536              		.cfi_offset 6, -8
 537              		.cfi_offset 14, -4
 293:e:\liteos\liteos\components\cmsis\2.0\cmsis_liteos2.c ****     uint64_t ticks;
 294:e:\liteos\liteos\components\cmsis\2.0\cmsis_liteos2.c ****     UINTPTR uvIntSave;
 295:e:\liteos\liteos\components\cmsis\2.0\cmsis_liteos2.c **** 
 296:e:\liteos\liteos\components\cmsis\2.0\cmsis_liteos2.c ****     if(OS_INT_ACTIVE)
 538              		.loc 1 296 0
 539 0002 FFF7FEFF 		bl	osIntNumGet
 540              	.LVL22:
 541 0006 0028     		cmp	r0, #0
 542 0008 07D1     		bne	.L61
 297:e:\liteos\liteos\components\cmsis\2.0\cmsis_liteos2.c ****     {
 298:e:\liteos\liteos\components\cmsis\2.0\cmsis_liteos2.c ****         ticks = 0U;
 299:e:\liteos\liteos\components\cmsis\2.0\cmsis_liteos2.c ****     }
 300:e:\liteos\liteos\components\cmsis\2.0\cmsis_liteos2.c ****     else
 301:e:\liteos\liteos\components\cmsis\2.0\cmsis_liteos2.c ****     {
 302:e:\liteos\liteos\components\cmsis\2.0\cmsis_liteos2.c ****         uvIntSave = LOS_IntLock();
 543              		.loc 1 302 0
 544 000a FFF7FEFF 		bl	LOS_IntLock
 545              	.LVL23:
 303:e:\liteos\liteos\components\cmsis\2.0\cmsis_liteos2.c ****         ticks = g_ullTickCount;
 546              		.loc 1 303 0
 547 000e 054B     		ldr	r3, .L62
 548 0010 1C68     		ldr	r4, [r3]
 549 0012 5D68     		ldr	r5, [r3, #4]
 550              	.LVL24:
 304:e:\liteos\liteos\components\cmsis\2.0\cmsis_liteos2.c ****         LOS_IntRestore(uvIntSave);
 551              		.loc 1 304 0
ARM GAS  C:\Users\WANGBI~1\AppData\Local\Temp\ccNVqL5c.s 			page 16


 552 0014 FFF7FEFF 		bl	LOS_IntRestore
 553              	.LVL25:
 554 0018 01E0     		b	.L60
 555              	.LVL26:
 556              	.L61:
 298:e:\liteos\liteos\components\cmsis\2.0\cmsis_liteos2.c ****     }
 557              		.loc 1 298 0
 558 001a 0024     		movs	r4, #0
 559 001c 0025     		movs	r5, #0
 560              	.L60:
 561              	.LVL27:
 305:e:\liteos\liteos\components\cmsis\2.0\cmsis_liteos2.c ****     }
 306:e:\liteos\liteos\components\cmsis\2.0\cmsis_liteos2.c **** 
 307:e:\liteos\liteos\components\cmsis\2.0\cmsis_liteos2.c ****     return ticks;
 308:e:\liteos\liteos\components\cmsis\2.0\cmsis_liteos2.c **** }
 562              		.loc 1 308 0
 563 001e 2000     		movs	r0, r4
 564 0020 2900     		movs	r1, r5
 565              		@ sp needed
 566              	.LVL28:
 567 0022 70BD     		pop	{r4, r5, r6, pc}
 568              	.L63:
 569              		.align	2
 570              	.L62:
 571 0024 00000000 		.word	g_ullTickCount
 572              		.cfi_endproc
 573              	.LFE52:
 575              		.section	.text.osKernelGetTick2ms,"ax",%progbits
 576              		.align	2
 577              		.global	osKernelGetTick2ms
 578              		.code	16
 579              		.thumb_func
 581              	osKernelGetTick2ms:
 582              	.LFB53:
 309:e:\liteos\liteos\components\cmsis\2.0\cmsis_liteos2.c **** 
 310:e:\liteos\liteos\components\cmsis\2.0\cmsis_liteos2.c **** 
 311:e:\liteos\liteos\components\cmsis\2.0\cmsis_liteos2.c **** uint64_t osKernelGetTick2ms(void)
 312:e:\liteos\liteos\components\cmsis\2.0\cmsis_liteos2.c **** {
 583              		.loc 1 312 0
 584              		.cfi_startproc
 585              		@ args = 0, pretend = 0, frame = 0
 586              		@ frame_needed = 0, uses_anonymous_args = 0
 587 0000 10B5     		push	{r4, lr}
 588              	.LCFI8:
 589              		.cfi_def_cfa_offset 8
 590              		.cfi_offset 4, -8
 591              		.cfi_offset 14, -4
 313:e:\liteos\liteos\components\cmsis\2.0\cmsis_liteos2.c ****     return osKernelGetTickCount() * (OS_SYS_MS_PER_SECOND / LOSCFG_BASE_CORE_TICK_PER_SECOND);
 592              		.loc 1 313 0
 593 0002 FFF7FEFF 		bl	osKernelGetTickCount
 594              	.LVL29:
 314:e:\liteos\liteos\components\cmsis\2.0\cmsis_liteos2.c **** }
 595              		.loc 1 314 0
 596              		@ sp needed
 597 0006 10BD     		pop	{r4, pc}
 598              		.cfi_endproc
 599              	.LFE53:
ARM GAS  C:\Users\WANGBI~1\AppData\Local\Temp\ccNVqL5c.s 			page 17


 601              		.section	.text.osMs2Tick,"ax",%progbits
 602              		.align	2
 603              		.global	osMs2Tick
 604              		.code	16
 605              		.thumb_func
 607              	osMs2Tick:
 608              	.LFB54:
 315:e:\liteos\liteos\components\cmsis\2.0\cmsis_liteos2.c **** 
 316:e:\liteos\liteos\components\cmsis\2.0\cmsis_liteos2.c **** 
 317:e:\liteos\liteos\components\cmsis\2.0\cmsis_liteos2.c **** uint64_t osMs2Tick(uint64_t ms)
 318:e:\liteos\liteos\components\cmsis\2.0\cmsis_liteos2.c **** {
 609              		.loc 1 318 0
 610              		.cfi_startproc
 611              		@ args = 0, pretend = 0, frame = 0
 612              		@ frame_needed = 0, uses_anonymous_args = 0
 613              		@ link register save eliminated.
 614              	.LVL30:
 319:e:\liteos\liteos\components\cmsis\2.0\cmsis_liteos2.c **** 
 320:e:\liteos\liteos\components\cmsis\2.0\cmsis_liteos2.c ****     return ms * (LOSCFG_BASE_CORE_TICK_PER_SECOND / OS_SYS_MS_PER_SECOND);
 321:e:\liteos\liteos\components\cmsis\2.0\cmsis_liteos2.c **** }
 615              		.loc 1 321 0
 616              		@ sp needed
 617 0000 7047     		bx	lr
 618              		.cfi_endproc
 619              	.LFE54:
 621 0002 C046     		.section	.text.osKernelGetTickFreq,"ax",%progbits
 622              		.align	2
 623              		.global	osKernelGetTickFreq
 624              		.code	16
 625              		.thumb_func
 627              	osKernelGetTickFreq:
 628              	.LFB55:
 322:e:\liteos\liteos\components\cmsis\2.0\cmsis_liteos2.c **** 
 323:e:\liteos\liteos\components\cmsis\2.0\cmsis_liteos2.c **** 
 324:e:\liteos\liteos\components\cmsis\2.0\cmsis_liteos2.c **** uint32_t osKernelGetTickFreq (void)
 325:e:\liteos\liteos\components\cmsis\2.0\cmsis_liteos2.c **** {
 629              		.loc 1 325 0
 630              		.cfi_startproc
 631              		@ args = 0, pretend = 0, frame = 0
 632              		@ frame_needed = 0, uses_anonymous_args = 0
 633 0000 10B5     		push	{r4, lr}
 634              	.LCFI9:
 635              		.cfi_def_cfa_offset 8
 636              		.cfi_offset 4, -8
 637              		.cfi_offset 14, -4
 326:e:\liteos\liteos\components\cmsis\2.0\cmsis_liteos2.c ****     uint32_t freq;
 327:e:\liteos\liteos\components\cmsis\2.0\cmsis_liteos2.c **** 
 328:e:\liteos\liteos\components\cmsis\2.0\cmsis_liteos2.c ****     if (OS_INT_ACTIVE)
 638              		.loc 1 328 0
 639 0002 FFF7FEFF 		bl	osIntNumGet
 640              	.LVL31:
 641 0006 0028     		cmp	r0, #0
 642 0008 01D0     		beq	.L68
 329:e:\liteos\liteos\components\cmsis\2.0\cmsis_liteos2.c ****     {
 330:e:\liteos\liteos\components\cmsis\2.0\cmsis_liteos2.c ****         freq = 0U;
 643              		.loc 1 330 0
 644 000a 0020     		movs	r0, #0
ARM GAS  C:\Users\WANGBI~1\AppData\Local\Temp\ccNVqL5c.s 			page 18


 645 000c 01E0     		b	.L67
 646              	.L68:
 331:e:\liteos\liteos\components\cmsis\2.0\cmsis_liteos2.c ****     }
 332:e:\liteos\liteos\components\cmsis\2.0\cmsis_liteos2.c ****     else
 333:e:\liteos\liteos\components\cmsis\2.0\cmsis_liteos2.c ****     {
 334:e:\liteos\liteos\components\cmsis\2.0\cmsis_liteos2.c ****         freq = LOSCFG_BASE_CORE_TICK_PER_SECOND;
 647              		.loc 1 334 0
 648 000e FA20     		movs	r0, #250
 649 0010 8000     		lsls	r0, r0, #2
 650              	.L67:
 651              	.LVL32:
 335:e:\liteos\liteos\components\cmsis\2.0\cmsis_liteos2.c ****     }
 336:e:\liteos\liteos\components\cmsis\2.0\cmsis_liteos2.c **** 
 337:e:\liteos\liteos\components\cmsis\2.0\cmsis_liteos2.c ****     return (freq);
 338:e:\liteos\liteos\components\cmsis\2.0\cmsis_liteos2.c **** }
 652              		.loc 1 338 0
 653              		@ sp needed
 654 0012 10BD     		pop	{r4, pc}
 655              		.cfi_endproc
 656              	.LFE55:
 658              		.section	.text.osKernelGetSysTimerCount,"ax",%progbits
 659              		.align	2
 660              		.global	osKernelGetSysTimerCount
 661              		.code	16
 662              		.thumb_func
 664              	osKernelGetSysTimerCount:
 665              	.LFB56:
 339:e:\liteos\liteos\components\cmsis\2.0\cmsis_liteos2.c **** 
 340:e:\liteos\liteos\components\cmsis\2.0\cmsis_liteos2.c **** 
 341:e:\liteos\liteos\components\cmsis\2.0\cmsis_liteos2.c **** uint32_t osKernelGetSysTimerCount (void)
 342:e:\liteos\liteos\components\cmsis\2.0\cmsis_liteos2.c **** {
 666              		.loc 1 342 0
 667              		.cfi_startproc
 668              		@ args = 0, pretend = 0, frame = 8
 669              		@ frame_needed = 0, uses_anonymous_args = 0
 670 0000 00B5     		push	{lr}
 671              	.LCFI10:
 672              		.cfi_def_cfa_offset 4
 673              		.cfi_offset 14, -4
 674 0002 83B0     		sub	sp, sp, #12
 675              	.LCFI11:
 676              		.cfi_def_cfa_offset 16
 343:e:\liteos\liteos\components\cmsis\2.0\cmsis_liteos2.c ****     uint32_t count_high = 0;
 677              		.loc 1 343 0
 678 0004 0023     		movs	r3, #0
 679 0006 0193     		str	r3, [sp, #4]
 344:e:\liteos\liteos\components\cmsis\2.0\cmsis_liteos2.c ****     uint32_t count_low = 0;
 680              		.loc 1 344 0
 681 0008 0093     		str	r3, [sp]
 345:e:\liteos\liteos\components\cmsis\2.0\cmsis_liteos2.c ****     if (OS_INT_ACTIVE)
 682              		.loc 1 345 0
 683 000a FFF7FEFF 		bl	osIntNumGet
 684              	.LVL33:
 685 000e 0028     		cmp	r0, #0
 686 0010 02D0     		beq	.L70
 346:e:\liteos\liteos\components\cmsis\2.0\cmsis_liteos2.c ****     {
 347:e:\liteos\liteos\components\cmsis\2.0\cmsis_liteos2.c ****         count_low = 0U;
ARM GAS  C:\Users\WANGBI~1\AppData\Local\Temp\ccNVqL5c.s 			page 19


 687              		.loc 1 347 0
 688 0012 0023     		movs	r3, #0
 689 0014 0093     		str	r3, [sp]
 690 0016 03E0     		b	.L71
 691              	.L70:
 348:e:\liteos\liteos\components\cmsis\2.0\cmsis_liteos2.c ****     }
 349:e:\liteos\liteos\components\cmsis\2.0\cmsis_liteos2.c ****     else
 350:e:\liteos\liteos\components\cmsis\2.0\cmsis_liteos2.c ****     {
 351:e:\liteos\liteos\components\cmsis\2.0\cmsis_liteos2.c ****         LOS_GetSystickCycle((UINT32 *)&count_high, (UINT32 *)&count_low);
 692              		.loc 1 351 0
 693 0018 6946     		mov	r1, sp
 694 001a 01A8     		add	r0, sp, #4
 695 001c FFF7FEFF 		bl	LOS_GetSystickCycle
 696              	.LVL34:
 697              	.L71:
 352:e:\liteos\liteos\components\cmsis\2.0\cmsis_liteos2.c ****     }
 353:e:\liteos\liteos\components\cmsis\2.0\cmsis_liteos2.c ****     return count_low;
 354:e:\liteos\liteos\components\cmsis\2.0\cmsis_liteos2.c **** }
 698              		.loc 1 354 0
 699 0020 0098     		ldr	r0, [sp]
 700 0022 03B0     		add	sp, sp, #12
 701              		@ sp needed
 702 0024 00BD     		pop	{pc}
 703              		.cfi_endproc
 704              	.LFE56:
 706 0026 C046     		.section	.text.osKernelGetSysTimerFreq,"ax",%progbits
 707              		.align	2
 708              		.global	osKernelGetSysTimerFreq
 709              		.code	16
 710              		.thumb_func
 712              	osKernelGetSysTimerFreq:
 713              	.LFB57:
 355:e:\liteos\liteos\components\cmsis\2.0\cmsis_liteos2.c **** 
 356:e:\liteos\liteos\components\cmsis\2.0\cmsis_liteos2.c **** 
 357:e:\liteos\liteos\components\cmsis\2.0\cmsis_liteos2.c **** uint32_t osKernelGetSysTimerFreq (void)
 358:e:\liteos\liteos\components\cmsis\2.0\cmsis_liteos2.c **** {
 714              		.loc 1 358 0
 715              		.cfi_startproc
 716              		@ args = 0, pretend = 0, frame = 0
 717              		@ frame_needed = 0, uses_anonymous_args = 0
 718              		@ link register save eliminated.
 359:e:\liteos\liteos\components\cmsis\2.0\cmsis_liteos2.c ****     return OS_SYS_CLOCK;
 719              		.loc 1 359 0
 720 0000 014B     		ldr	r3, .L73
 721 0002 1868     		ldr	r0, [r3]
 360:e:\liteos\liteos\components\cmsis\2.0\cmsis_liteos2.c **** }
 722              		.loc 1 360 0
 723              		@ sp needed
 724 0004 7047     		bx	lr
 725              	.L74:
 726 0006 C046     		.align	2
 727              	.L73:
 728 0008 00000000 		.word	SystemCoreClock
 729              		.cfi_endproc
 730              	.LFE57:
 732              		.section	.text.osThreadNew,"ax",%progbits
 733              		.align	2
ARM GAS  C:\Users\WANGBI~1\AppData\Local\Temp\ccNVqL5c.s 			page 20


 734              		.global	osThreadNew
 735              		.code	16
 736              		.thumb_func
 738              	osThreadNew:
 739              	.LFB58:
 361:e:\liteos\liteos\components\cmsis\2.0\cmsis_liteos2.c **** 
 362:e:\liteos\liteos\components\cmsis\2.0\cmsis_liteos2.c **** 
 363:e:\liteos\liteos\components\cmsis\2.0\cmsis_liteos2.c **** //  ==== Thread Management Functions ====
 364:e:\liteos\liteos\components\cmsis\2.0\cmsis_liteos2.c **** 
 365:e:\liteos\liteos\components\cmsis\2.0\cmsis_liteos2.c **** osThreadId_t osThreadNew (osThreadFunc_t func, void *argument, const osThreadAttr_t *attr)
 366:e:\liteos\liteos\components\cmsis\2.0\cmsis_liteos2.c **** {
 740              		.loc 1 366 0
 741              		.cfi_startproc
 742              		@ args = 0, pretend = 0, frame = 32
 743              		@ frame_needed = 0, uses_anonymous_args = 0
 744              	.LVL35:
 745 0000 F0B5     		push	{r4, r5, r6, r7, lr}
 746              	.LCFI12:
 747              		.cfi_def_cfa_offset 20
 748              		.cfi_offset 4, -20
 749              		.cfi_offset 5, -16
 750              		.cfi_offset 6, -12
 751              		.cfi_offset 7, -8
 752              		.cfi_offset 14, -4
 753 0002 89B0     		sub	sp, sp, #36
 754              	.LCFI13:
 755              		.cfi_def_cfa_offset 56
 756 0004 0700     		movs	r7, r0
 757 0006 1500     		movs	r5, r2
 758              	.LVL36:
 367:e:\liteos\liteos\components\cmsis\2.0\cmsis_liteos2.c ****     UNUSED(argument);
 368:e:\liteos\liteos\components\cmsis\2.0\cmsis_liteos2.c **** 
 369:e:\liteos\liteos\components\cmsis\2.0\cmsis_liteos2.c ****     UINT32 uwTid;
 370:e:\liteos\liteos\components\cmsis\2.0\cmsis_liteos2.c ****     UINT32 uwRet;
 371:e:\liteos\liteos\components\cmsis\2.0\cmsis_liteos2.c ****     LOS_TASK_CB *pstTaskCB = NULL;
 372:e:\liteos\liteos\components\cmsis\2.0\cmsis_liteos2.c ****     TSK_INIT_PARAM_S stTskInitParam;
 373:e:\liteos\liteos\components\cmsis\2.0\cmsis_liteos2.c **** 
 374:e:\liteos\liteos\components\cmsis\2.0\cmsis_liteos2.c ****     if (OS_INT_ACTIVE)
 759              		.loc 1 374 0
 760 0008 FFF7FEFF 		bl	osIntNumGet
 761              	.LVL37:
 762 000c 0028     		cmp	r0, #0
 763 000e 25D1     		bne	.L77
 375:e:\liteos\liteos\components\cmsis\2.0\cmsis_liteos2.c ****     {
 376:e:\liteos\liteos\components\cmsis\2.0\cmsis_liteos2.c ****         return NULL;
 377:e:\liteos\liteos\components\cmsis\2.0\cmsis_liteos2.c ****     }
 378:e:\liteos\liteos\components\cmsis\2.0\cmsis_liteos2.c **** 
 379:e:\liteos\liteos\components\cmsis\2.0\cmsis_liteos2.c ****     if ((attr == NULL) ||
 764              		.loc 1 379 0
 765 0010 002D     		cmp	r5, #0
 766 0012 25D0     		beq	.L78
 767              		.loc 1 379 0 is_stmt 0 discriminator 1
 768 0014 002F     		cmp	r7, #0
 769 0016 25D0     		beq	.L79
 380:e:\liteos\liteos\components\cmsis\2.0\cmsis_liteos2.c ****             (func == NULL) ||
 381:e:\liteos\liteos\components\cmsis\2.0\cmsis_liteos2.c ****             (attr->priority < osPriorityLow1) ||
 770              		.loc 1 381 0 is_stmt 1
ARM GAS  C:\Users\WANGBI~1\AppData\Local\Temp\ccNVqL5c.s 			page 21


 771 0018 AC69     		ldr	r4, [r5, #24]
 380:e:\liteos\liteos\components\cmsis\2.0\cmsis_liteos2.c ****             (func == NULL) ||
 772              		.loc 1 380 0
 773 001a 082C     		cmp	r4, #8
 774 001c 24DD     		ble	.L80
 775              		.loc 1 381 0
 776 001e 262C     		cmp	r4, #38
 777 0020 24DC     		bgt	.L81
 382:e:\liteos\liteos\components\cmsis\2.0\cmsis_liteos2.c ****             (attr->priority > osPriorityAboveNormal6))
 383:e:\liteos\liteos\components\cmsis\2.0\cmsis_liteos2.c ****     {
 384:e:\liteos\liteos\components\cmsis\2.0\cmsis_liteos2.c ****         return (osThreadId_t)NULL;
 385:e:\liteos\liteos\components\cmsis\2.0\cmsis_liteos2.c ****     }
 386:e:\liteos\liteos\components\cmsis\2.0\cmsis_liteos2.c **** 
 387:e:\liteos\liteos\components\cmsis\2.0\cmsis_liteos2.c ****     memset(&stTskInitParam, 0, sizeof(TSK_INIT_PARAM_S));
 778              		.loc 1 387 0
 779 0022 01AE     		add	r6, sp, #4
 780 0024 1822     		movs	r2, #24
 781 0026 0021     		movs	r1, #0
 782 0028 3000     		movs	r0, r6
 783 002a FFF7FEFF 		bl	memset
 784              	.LVL38:
 388:e:\liteos\liteos\components\cmsis\2.0\cmsis_liteos2.c ****     stTskInitParam.pfnTaskEntry = (TSK_ENTRY_FUNC)func;
 785              		.loc 1 388 0
 786 002e 0197     		str	r7, [sp, #4]
 389:e:\liteos\liteos\components\cmsis\2.0\cmsis_liteos2.c ****     stTskInitParam.uwStackSize  = attr->stack_size * 4;
 787              		.loc 1 389 0
 788 0030 6B69     		ldr	r3, [r5, #20]
 789 0032 9B00     		lsls	r3, r3, #2
 790 0034 F360     		str	r3, [r6, #12]
 390:e:\liteos\liteos\components\cmsis\2.0\cmsis_liteos2.c ****     stTskInitParam.pcName       = (CHAR *)attr->name;
 791              		.loc 1 390 0
 792 0036 2B68     		ldr	r3, [r5]
 793 0038 3361     		str	r3, [r6, #16]
 391:e:\liteos\liteos\components\cmsis\2.0\cmsis_liteos2.c ****     stTskInitParam.usTaskPrio   = OS_TASK_PRIORITY_LOWEST - ((UINT16)(attr->priority) - LOS_PRIORIT
 794              		.loc 1 391 0
 795 003a A4B2     		uxth	r4, r4
 796 003c 2723     		movs	r3, #39
 797 003e 1C1B     		subs	r4, r3, r4
 798 0040 B480     		strh	r4, [r6, #4]
 392:e:\liteos\liteos\components\cmsis\2.0\cmsis_liteos2.c **** 
 393:e:\liteos\liteos\components\cmsis\2.0\cmsis_liteos2.c ****     uwRet = LOS_TaskCreate(&uwTid, &stTskInitParam);
 799              		.loc 1 393 0
 800 0042 3100     		movs	r1, r6
 801 0044 07A8     		add	r0, sp, #28
 802 0046 FFF7FEFF 		bl	LOS_TaskCreate
 803              	.LVL39:
 394:e:\liteos\liteos\components\cmsis\2.0\cmsis_liteos2.c **** 
 395:e:\liteos\liteos\components\cmsis\2.0\cmsis_liteos2.c ****     if (LOS_OK != uwRet)
 804              		.loc 1 395 0
 805 004a 0028     		cmp	r0, #0
 806 004c 10D1     		bne	.L82
 396:e:\liteos\liteos\components\cmsis\2.0\cmsis_liteos2.c ****     {
 397:e:\liteos\liteos\components\cmsis\2.0\cmsis_liteos2.c ****         return (osThreadId_t)NULL;
 398:e:\liteos\liteos\components\cmsis\2.0\cmsis_liteos2.c ****     }
 399:e:\liteos\liteos\components\cmsis\2.0\cmsis_liteos2.c **** 
 400:e:\liteos\liteos\components\cmsis\2.0\cmsis_liteos2.c ****     pstTaskCB = OS_TCB_FROM_TID(uwTid);
 807              		.loc 1 400 0
ARM GAS  C:\Users\WANGBI~1\AppData\Local\Temp\ccNVqL5c.s 			page 22


 808 004e 0A4B     		ldr	r3, .L83
 809 0050 1B68     		ldr	r3, [r3]
 810 0052 5430     		adds	r0, r0, #84
 811              	.LVL40:
 812 0054 079A     		ldr	r2, [sp, #28]
 813 0056 5043     		muls	r0, r2
 814              	.LVL41:
 815 0058 1818     		adds	r0, r3, r0
 816              	.LVL42:
 401:e:\liteos\liteos\components\cmsis\2.0\cmsis_liteos2.c **** 
 402:e:\liteos\liteos\components\cmsis\2.0\cmsis_liteos2.c ****     return (osThreadId_t)pstTaskCB;
 817              		.loc 1 402 0
 818 005a 0AE0     		b	.L76
 819              	.LVL43:
 820              	.L77:
 376:e:\liteos\liteos\components\cmsis\2.0\cmsis_liteos2.c ****     }
 821              		.loc 1 376 0
 822 005c 0020     		movs	r0, #0
 823 005e 08E0     		b	.L76
 824              	.L78:
 384:e:\liteos\liteos\components\cmsis\2.0\cmsis_liteos2.c ****     }
 825              		.loc 1 384 0
 826 0060 0020     		movs	r0, #0
 827 0062 06E0     		b	.L76
 828              	.L79:
 829 0064 0020     		movs	r0, #0
 830 0066 04E0     		b	.L76
 831              	.L80:
 832 0068 0020     		movs	r0, #0
 833 006a 02E0     		b	.L76
 834              	.L81:
 835 006c 0020     		movs	r0, #0
 836 006e 00E0     		b	.L76
 837              	.LVL44:
 838              	.L82:
 397:e:\liteos\liteos\components\cmsis\2.0\cmsis_liteos2.c ****     }
 839              		.loc 1 397 0
 840 0070 0020     		movs	r0, #0
 841              	.LVL45:
 842              	.L76:
 403:e:\liteos\liteos\components\cmsis\2.0\cmsis_liteos2.c **** }
 843              		.loc 1 403 0
 844 0072 09B0     		add	sp, sp, #36
 845              		@ sp needed
 846              	.LVL46:
 847              	.LVL47:
 848 0074 F0BD     		pop	{r4, r5, r6, r7, pc}
 849              	.L84:
 850 0076 C046     		.align	2
 851              	.L83:
 852 0078 00000000 		.word	g_pstTaskCBArray
 853              		.cfi_endproc
 854              	.LFE58:
 856              		.section	.text.osThreadGetName,"ax",%progbits
 857              		.align	2
 858              		.global	osThreadGetName
 859              		.code	16
ARM GAS  C:\Users\WANGBI~1\AppData\Local\Temp\ccNVqL5c.s 			page 23


 860              		.thumb_func
 862              	osThreadGetName:
 863              	.LFB59:
 404:e:\liteos\liteos\components\cmsis\2.0\cmsis_liteos2.c **** 
 405:e:\liteos\liteos\components\cmsis\2.0\cmsis_liteos2.c **** 
 406:e:\liteos\liteos\components\cmsis\2.0\cmsis_liteos2.c **** const char *osThreadGetName (osThreadId_t thread_id)
 407:e:\liteos\liteos\components\cmsis\2.0\cmsis_liteos2.c **** {
 864              		.loc 1 407 0
 865              		.cfi_startproc
 866              		@ args = 0, pretend = 0, frame = 0
 867              		@ frame_needed = 0, uses_anonymous_args = 0
 868              	.LVL48:
 869 0000 10B5     		push	{r4, lr}
 870              	.LCFI14:
 871              		.cfi_def_cfa_offset 8
 872              		.cfi_offset 4, -8
 873              		.cfi_offset 14, -4
 874 0002 0400     		movs	r4, r0
 875              	.LVL49:
 408:e:\liteos\liteos\components\cmsis\2.0\cmsis_liteos2.c ****     LOS_TASK_CB *pstTaskCB = NULL;
 409:e:\liteos\liteos\components\cmsis\2.0\cmsis_liteos2.c **** 
 410:e:\liteos\liteos\components\cmsis\2.0\cmsis_liteos2.c ****     if (OS_INT_ACTIVE || thread_id == NULL)
 876              		.loc 1 410 0
 877 0004 FFF7FEFF 		bl	osIntNumGet
 878              	.LVL50:
 879 0008 0028     		cmp	r0, #0
 880 000a 03D1     		bne	.L87
 881              		.loc 1 410 0 is_stmt 0 discriminator 1
 882 000c 002C     		cmp	r4, #0
 883 000e 03D0     		beq	.L88
 884              	.LVL51:
 411:e:\liteos\liteos\components\cmsis\2.0\cmsis_liteos2.c ****     {
 412:e:\liteos\liteos\components\cmsis\2.0\cmsis_liteos2.c ****         return NULL;
 413:e:\liteos\liteos\components\cmsis\2.0\cmsis_liteos2.c ****     }
 414:e:\liteos\liteos\components\cmsis\2.0\cmsis_liteos2.c **** 
 415:e:\liteos\liteos\components\cmsis\2.0\cmsis_liteos2.c ****     pstTaskCB = (LOS_TASK_CB *)thread_id;
 416:e:\liteos\liteos\components\cmsis\2.0\cmsis_liteos2.c **** 
 417:e:\liteos\liteos\components\cmsis\2.0\cmsis_liteos2.c ****     return pstTaskCB->pcTaskName;
 885              		.loc 1 417 0 is_stmt 1
 886 0010 606A     		ldr	r0, [r4, #36]
 887 0012 02E0     		b	.L86
 888              	.LVL52:
 889              	.L87:
 412:e:\liteos\liteos\components\cmsis\2.0\cmsis_liteos2.c ****     }
 890              		.loc 1 412 0
 891 0014 0020     		movs	r0, #0
 892 0016 00E0     		b	.L86
 893              	.L88:
 894 0018 0020     		movs	r0, #0
 895              	.LVL53:
 896              	.L86:
 418:e:\liteos\liteos\components\cmsis\2.0\cmsis_liteos2.c **** }
 897              		.loc 1 418 0
 898              		@ sp needed
 899              	.LVL54:
 900 001a 10BD     		pop	{r4, pc}
 901              		.cfi_endproc
ARM GAS  C:\Users\WANGBI~1\AppData\Local\Temp\ccNVqL5c.s 			page 24


 902              	.LFE59:
 904              		.section	.text.osThreadGetId,"ax",%progbits
 905              		.align	2
 906              		.global	osThreadGetId
 907              		.code	16
 908              		.thumb_func
 910              	osThreadGetId:
 911              	.LFB60:
 419:e:\liteos\liteos\components\cmsis\2.0\cmsis_liteos2.c **** 
 420:e:\liteos\liteos\components\cmsis\2.0\cmsis_liteos2.c **** 
 421:e:\liteos\liteos\components\cmsis\2.0\cmsis_liteos2.c **** osThreadId_t osThreadGetId (void)
 422:e:\liteos\liteos\components\cmsis\2.0\cmsis_liteos2.c **** {
 912              		.loc 1 422 0
 913              		.cfi_startproc
 914              		@ args = 0, pretend = 0, frame = 0
 915              		@ frame_needed = 0, uses_anonymous_args = 0
 916 0000 10B5     		push	{r4, lr}
 917              	.LCFI15:
 918              		.cfi_def_cfa_offset 8
 919              		.cfi_offset 4, -8
 920              		.cfi_offset 14, -4
 423:e:\liteos\liteos\components\cmsis\2.0\cmsis_liteos2.c ****     if (OS_INT_ACTIVE)
 921              		.loc 1 423 0
 922 0002 FFF7FEFF 		bl	osIntNumGet
 923              	.LVL55:
 924 0006 0028     		cmp	r0, #0
 925 0008 02D1     		bne	.L91
 424:e:\liteos\liteos\components\cmsis\2.0\cmsis_liteos2.c ****     {
 425:e:\liteos\liteos\components\cmsis\2.0\cmsis_liteos2.c ****         return NULL;
 426:e:\liteos\liteos\components\cmsis\2.0\cmsis_liteos2.c ****     }
 427:e:\liteos\liteos\components\cmsis\2.0\cmsis_liteos2.c **** 
 428:e:\liteos\liteos\components\cmsis\2.0\cmsis_liteos2.c ****     return (osThreadId_t)(g_stLosTask.pstRunTask);
 926              		.loc 1 428 0
 927 000a 024B     		ldr	r3, .L92
 928 000c 1868     		ldr	r0, [r3]
 929 000e 00E0     		b	.L90
 930              	.L91:
 425:e:\liteos\liteos\components\cmsis\2.0\cmsis_liteos2.c ****     }
 931              		.loc 1 425 0
 932 0010 0020     		movs	r0, #0
 933              	.L90:
 429:e:\liteos\liteos\components\cmsis\2.0\cmsis_liteos2.c **** }
 934              		.loc 1 429 0
 935              		@ sp needed
 936 0012 10BD     		pop	{r4, pc}
 937              	.L93:
 938              		.align	2
 939              	.L92:
 940 0014 00000000 		.word	g_stLosTask
 941              		.cfi_endproc
 942              	.LFE60:
 944              		.section	.text.osThreadGetState,"ax",%progbits
 945              		.align	2
 946              		.global	osThreadGetState
 947              		.code	16
 948              		.thumb_func
 950              	osThreadGetState:
ARM GAS  C:\Users\WANGBI~1\AppData\Local\Temp\ccNVqL5c.s 			page 25


 951              	.LFB61:
 430:e:\liteos\liteos\components\cmsis\2.0\cmsis_liteos2.c **** 
 431:e:\liteos\liteos\components\cmsis\2.0\cmsis_liteos2.c **** 
 432:e:\liteos\liteos\components\cmsis\2.0\cmsis_liteos2.c **** osThreadState_t osThreadGetState (osThreadId_t thread_id)
 433:e:\liteos\liteos\components\cmsis\2.0\cmsis_liteos2.c **** {
 952              		.loc 1 433 0
 953              		.cfi_startproc
 954              		@ args = 0, pretend = 0, frame = 0
 955              		@ frame_needed = 0, uses_anonymous_args = 0
 956              	.LVL56:
 957 0000 10B5     		push	{r4, lr}
 958              	.LCFI16:
 959              		.cfi_def_cfa_offset 8
 960              		.cfi_offset 4, -8
 961              		.cfi_offset 14, -4
 962 0002 0400     		movs	r4, r0
 963              	.LVL57:
 434:e:\liteos\liteos\components\cmsis\2.0\cmsis_liteos2.c ****     UINT16 usTaskStatus;
 435:e:\liteos\liteos\components\cmsis\2.0\cmsis_liteos2.c ****     osThreadState_t stState;
 436:e:\liteos\liteos\components\cmsis\2.0\cmsis_liteos2.c ****     LOS_TASK_CB *pstTaskCB = NULL;
 437:e:\liteos\liteos\components\cmsis\2.0\cmsis_liteos2.c **** 
 438:e:\liteos\liteos\components\cmsis\2.0\cmsis_liteos2.c ****     if (OS_INT_ACTIVE || thread_id == NULL)
 964              		.loc 1 438 0
 965 0004 FFF7FEFF 		bl	osIntNumGet
 966              	.LVL58:
 967 0008 0028     		cmp	r0, #0
 968 000a 0CD1     		bne	.L96
 969              		.loc 1 438 0 is_stmt 0 discriminator 1
 970 000c 002C     		cmp	r4, #0
 971 000e 0DD0     		beq	.L97
 972              	.LVL59:
 439:e:\liteos\liteos\components\cmsis\2.0\cmsis_liteos2.c ****     {
 440:e:\liteos\liteos\components\cmsis\2.0\cmsis_liteos2.c ****         return osThreadError;
 441:e:\liteos\liteos\components\cmsis\2.0\cmsis_liteos2.c ****     }
 442:e:\liteos\liteos\components\cmsis\2.0\cmsis_liteos2.c **** 
 443:e:\liteos\liteos\components\cmsis\2.0\cmsis_liteos2.c ****     pstTaskCB = (LOS_TASK_CB *)thread_id;
 444:e:\liteos\liteos\components\cmsis\2.0\cmsis_liteos2.c ****     usTaskStatus = pstTaskCB->usTaskStatus;
 973              		.loc 1 444 0 is_stmt 1
 974 0010 A388     		ldrh	r3, [r4, #4]
 975              	.LVL60:
 445:e:\liteos\liteos\components\cmsis\2.0\cmsis_liteos2.c **** 
 446:e:\liteos\liteos\components\cmsis\2.0\cmsis_liteos2.c ****     if (usTaskStatus & OS_TASK_STATUS_RUNNING)
 976              		.loc 1 446 0
 977 0012 DA06     		lsls	r2, r3, #27
 978 0014 0DD4     		bmi	.L98
 447:e:\liteos\liteos\components\cmsis\2.0\cmsis_liteos2.c ****     {
 448:e:\liteos\liteos\components\cmsis\2.0\cmsis_liteos2.c ****         stState = osThreadRunning;
 449:e:\liteos\liteos\components\cmsis\2.0\cmsis_liteos2.c ****     }
 450:e:\liteos\liteos\components\cmsis\2.0\cmsis_liteos2.c ****     else if (usTaskStatus & OS_TASK_STATUS_READY)
 979              		.loc 1 450 0
 980 0016 5A07     		lsls	r2, r3, #29
 981 0018 0DD4     		bmi	.L99
 451:e:\liteos\liteos\components\cmsis\2.0\cmsis_liteos2.c ****     {
 452:e:\liteos\liteos\components\cmsis\2.0\cmsis_liteos2.c ****         stState = osThreadReady;
 453:e:\liteos\liteos\components\cmsis\2.0\cmsis_liteos2.c ****     }
 454:e:\liteos\liteos\components\cmsis\2.0\cmsis_liteos2.c ****     else if (usTaskStatus &
 982              		.loc 1 454 0
ARM GAS  C:\Users\WANGBI~1\AppData\Local\Temp\ccNVqL5c.s 			page 26


 983 001a 0A4A     		ldr	r2, .L102
 984 001c 1342     		tst	r3, r2
 985 001e 0CD1     		bne	.L100
 455:e:\liteos\liteos\components\cmsis\2.0\cmsis_liteos2.c ****              (OS_TASK_STATUS_DELAY | OS_TASK_STATUS_PEND |
 456:e:\liteos\liteos\components\cmsis\2.0\cmsis_liteos2.c ****               OS_TASK_STATUS_SUSPEND | OS_TASK_STATUS_PEND_QUEUE))
 457:e:\liteos\liteos\components\cmsis\2.0\cmsis_liteos2.c ****     {
 458:e:\liteos\liteos\components\cmsis\2.0\cmsis_liteos2.c ****         stState = osThreadBlocked;
 459:e:\liteos\liteos\components\cmsis\2.0\cmsis_liteos2.c ****     }
 460:e:\liteos\liteos\components\cmsis\2.0\cmsis_liteos2.c ****     else if (usTaskStatus & OS_TASK_STATUS_UNUSED)
 986              		.loc 1 460 0
 987 0020 DB07     		lsls	r3, r3, #31
 988 0022 0CD5     		bpl	.L101
 989              	.LVL61:
 990 0024 0DE0     		b	.L95
 991              	.LVL62:
 992              	.L96:
 440:e:\liteos\liteos\components\cmsis\2.0\cmsis_liteos2.c ****     }
 993              		.loc 1 440 0
 994 0026 0120     		movs	r0, #1
 995 0028 4042     		rsbs	r0, r0, #0
 996 002a 0AE0     		b	.L95
 997              	.L97:
 998 002c 0120     		movs	r0, #1
 999 002e 4042     		rsbs	r0, r0, #0
 1000 0030 07E0     		b	.L95
 1001              	.LVL63:
 1002              	.L98:
 448:e:\liteos\liteos\components\cmsis\2.0\cmsis_liteos2.c ****     }
 1003              		.loc 1 448 0
 1004 0032 0220     		movs	r0, #2
 1005 0034 05E0     		b	.L95
 1006              	.L99:
 452:e:\liteos\liteos\components\cmsis\2.0\cmsis_liteos2.c ****     }
 1007              		.loc 1 452 0
 1008 0036 0120     		movs	r0, #1
 1009 0038 03E0     		b	.L95
 1010              	.L100:
 458:e:\liteos\liteos\components\cmsis\2.0\cmsis_liteos2.c ****     }
 1011              		.loc 1 458 0
 1012 003a 0320     		movs	r0, #3
 1013 003c 01E0     		b	.L95
 1014              	.LVL64:
 1015              	.L101:
 461:e:\liteos\liteos\components\cmsis\2.0\cmsis_liteos2.c ****     {
 462:e:\liteos\liteos\components\cmsis\2.0\cmsis_liteos2.c ****         stState = osThreadInactive;
 463:e:\liteos\liteos\components\cmsis\2.0\cmsis_liteos2.c ****     }
 464:e:\liteos\liteos\components\cmsis\2.0\cmsis_liteos2.c ****     else
 465:e:\liteos\liteos\components\cmsis\2.0\cmsis_liteos2.c ****     {
 466:e:\liteos\liteos\components\cmsis\2.0\cmsis_liteos2.c ****         stState = osThreadError;
 1016              		.loc 1 466 0
 1017 003e 0120     		movs	r0, #1
 1018 0040 4042     		rsbs	r0, r0, #0
 1019              	.LVL65:
 1020              	.L95:
 467:e:\liteos\liteos\components\cmsis\2.0\cmsis_liteos2.c ****     }
 468:e:\liteos\liteos\components\cmsis\2.0\cmsis_liteos2.c **** 
 469:e:\liteos\liteos\components\cmsis\2.0\cmsis_liteos2.c ****     return stState;
ARM GAS  C:\Users\WANGBI~1\AppData\Local\Temp\ccNVqL5c.s 			page 27


 470:e:\liteos\liteos\components\cmsis\2.0\cmsis_liteos2.c **** }
 1021              		.loc 1 470 0
 1022              		@ sp needed
 1023              	.LVL66:
 1024 0042 10BD     		pop	{r4, pc}
 1025              	.L103:
 1026              		.align	2
 1027              	.L102:
 1028 0044 2A200000 		.word	8234
 1029              		.cfi_endproc
 1030              	.LFE61:
 1032              		.section	.text.osThreadGetStackSize,"ax",%progbits
 1033              		.align	2
 1034              		.global	osThreadGetStackSize
 1035              		.code	16
 1036              		.thumb_func
 1038              	osThreadGetStackSize:
 1039              	.LFB62:
 471:e:\liteos\liteos\components\cmsis\2.0\cmsis_liteos2.c **** 
 472:e:\liteos\liteos\components\cmsis\2.0\cmsis_liteos2.c **** 
 473:e:\liteos\liteos\components\cmsis\2.0\cmsis_liteos2.c **** uint32_t osThreadGetStackSize (osThreadId_t thread_id)
 474:e:\liteos\liteos\components\cmsis\2.0\cmsis_liteos2.c **** {
 1040              		.loc 1 474 0
 1041              		.cfi_startproc
 1042              		@ args = 0, pretend = 0, frame = 0
 1043              		@ frame_needed = 0, uses_anonymous_args = 0
 1044              	.LVL67:
 1045 0000 10B5     		push	{r4, lr}
 1046              	.LCFI17:
 1047              		.cfi_def_cfa_offset 8
 1048              		.cfi_offset 4, -8
 1049              		.cfi_offset 14, -4
 1050 0002 0400     		movs	r4, r0
 1051              	.LVL68:
 475:e:\liteos\liteos\components\cmsis\2.0\cmsis_liteos2.c ****     LOS_TASK_CB *pstTaskCB = NULL;
 476:e:\liteos\liteos\components\cmsis\2.0\cmsis_liteos2.c **** 
 477:e:\liteos\liteos\components\cmsis\2.0\cmsis_liteos2.c ****     if (OS_INT_ACTIVE || thread_id == NULL)
 1052              		.loc 1 477 0
 1053 0004 FFF7FEFF 		bl	osIntNumGet
 1054              	.LVL69:
 1055 0008 0028     		cmp	r0, #0
 1056 000a 03D1     		bne	.L106
 1057              		.loc 1 477 0 is_stmt 0 discriminator 1
 1058 000c 002C     		cmp	r4, #0
 1059 000e 03D0     		beq	.L107
 1060              	.LVL70:
 478:e:\liteos\liteos\components\cmsis\2.0\cmsis_liteos2.c ****     {
 479:e:\liteos\liteos\components\cmsis\2.0\cmsis_liteos2.c ****         return 0U;
 480:e:\liteos\liteos\components\cmsis\2.0\cmsis_liteos2.c ****     }
 481:e:\liteos\liteos\components\cmsis\2.0\cmsis_liteos2.c **** 
 482:e:\liteos\liteos\components\cmsis\2.0\cmsis_liteos2.c ****     pstTaskCB = (LOS_TASK_CB *)thread_id;
 483:e:\liteos\liteos\components\cmsis\2.0\cmsis_liteos2.c **** 
 484:e:\liteos\liteos\components\cmsis\2.0\cmsis_liteos2.c ****     return pstTaskCB->uwStackSize;
 1061              		.loc 1 484 0 is_stmt 1
 1062 0010 A068     		ldr	r0, [r4, #8]
 1063 0012 02E0     		b	.L105
 1064              	.LVL71:
ARM GAS  C:\Users\WANGBI~1\AppData\Local\Temp\ccNVqL5c.s 			page 28


 1065              	.L106:
 479:e:\liteos\liteos\components\cmsis\2.0\cmsis_liteos2.c ****     }
 1066              		.loc 1 479 0
 1067 0014 0020     		movs	r0, #0
 1068 0016 00E0     		b	.L105
 1069              	.L107:
 1070 0018 0020     		movs	r0, #0
 1071              	.LVL72:
 1072              	.L105:
 485:e:\liteos\liteos\components\cmsis\2.0\cmsis_liteos2.c **** }
 1073              		.loc 1 485 0
 1074              		@ sp needed
 1075              	.LVL73:
 1076 001a 10BD     		pop	{r4, pc}
 1077              		.cfi_endproc
 1078              	.LFE62:
 1080              		.section	.text.osTaskStackWaterMarkGet,"ax",%progbits
 1081              		.align	2
 1082              		.global	osTaskStackWaterMarkGet
 1083              		.code	16
 1084              		.thumb_func
 1086              	osTaskStackWaterMarkGet:
 1087              	.LFB63:
 486:e:\liteos\liteos\components\cmsis\2.0\cmsis_liteos2.c **** 
 487:e:\liteos\liteos\components\cmsis\2.0\cmsis_liteos2.c **** 
 488:e:\liteos\liteos\components\cmsis\2.0\cmsis_liteos2.c **** uint32_t osTaskStackWaterMarkGet(UINT32 uwTaskID)
 489:e:\liteos\liteos\components\cmsis\2.0\cmsis_liteos2.c **** {
 1088              		.loc 1 489 0
 1089              		.cfi_startproc
 1090              		@ args = 0, pretend = 0, frame = 0
 1091              		@ frame_needed = 0, uses_anonymous_args = 0
 1092              	.LVL74:
 1093 0000 10B5     		push	{r4, lr}
 1094              	.LCFI18:
 1095              		.cfi_def_cfa_offset 8
 1096              		.cfi_offset 4, -8
 1097              		.cfi_offset 14, -4
 1098 0002 0400     		movs	r4, r0
 1099              	.LVL75:
 490:e:\liteos\liteos\components\cmsis\2.0\cmsis_liteos2.c ****     UINT32 uwCount = 0;
 491:e:\liteos\liteos\components\cmsis\2.0\cmsis_liteos2.c ****     UINT32 *puwTopOfStack;
 492:e:\liteos\liteos\components\cmsis\2.0\cmsis_liteos2.c ****     UINTPTR uvIntSave;
 493:e:\liteos\liteos\components\cmsis\2.0\cmsis_liteos2.c ****     LOS_TASK_CB *pstTaskCB = NULL;
 494:e:\liteos\liteos\components\cmsis\2.0\cmsis_liteos2.c **** 
 495:e:\liteos\liteos\components\cmsis\2.0\cmsis_liteos2.c ****     if (uwTaskID > LOSCFG_BASE_CORE_TSK_LIMIT)
 1100              		.loc 1 495 0
 1101 0004 0F28     		cmp	r0, #15
 1102 0006 1CD8     		bhi	.L113
 496:e:\liteos\liteos\components\cmsis\2.0\cmsis_liteos2.c ****     {
 497:e:\liteos\liteos\components\cmsis\2.0\cmsis_liteos2.c ****         return 0;
 498:e:\liteos\liteos\components\cmsis\2.0\cmsis_liteos2.c ****     }
 499:e:\liteos\liteos\components\cmsis\2.0\cmsis_liteos2.c **** 
 500:e:\liteos\liteos\components\cmsis\2.0\cmsis_liteos2.c ****     uvIntSave = LOS_IntLock();
 1103              		.loc 1 500 0
 1104 0008 FFF7FEFF 		bl	LOS_IntLock
 1105              	.LVL76:
 501:e:\liteos\liteos\components\cmsis\2.0\cmsis_liteos2.c **** 
ARM GAS  C:\Users\WANGBI~1\AppData\Local\Temp\ccNVqL5c.s 			page 29


 502:e:\liteos\liteos\components\cmsis\2.0\cmsis_liteos2.c ****     pstTaskCB = OS_TCB_FROM_TID(uwTaskID);
 1106              		.loc 1 502 0
 1107 000c 0E4B     		ldr	r3, .L114
 1108 000e 1A68     		ldr	r2, [r3]
 1109 0010 5423     		movs	r3, #84
 1110 0012 6343     		muls	r3, r4
 1111 0014 D318     		adds	r3, r2, r3
 1112              	.LVL77:
 503:e:\liteos\liteos\components\cmsis\2.0\cmsis_liteos2.c ****     if (OS_TASK_STATUS_UNUSED & (pstTaskCB->usTaskStatus))
 1113              		.loc 1 503 0
 1114 0016 9A88     		ldrh	r2, [r3, #4]
 1115 0018 D207     		lsls	r2, r2, #31
 1116 001a 03D5     		bpl	.L110
 504:e:\liteos\liteos\components\cmsis\2.0\cmsis_liteos2.c ****     {
 505:e:\liteos\liteos\components\cmsis\2.0\cmsis_liteos2.c ****         (VOID)LOS_IntRestore(uvIntSave);
 1117              		.loc 1 505 0
 1118 001c FFF7FEFF 		bl	LOS_IntRestore
 1119              	.LVL78:
 506:e:\liteos\liteos\components\cmsis\2.0\cmsis_liteos2.c ****         return 0;
 1120              		.loc 1 506 0
 1121 0020 0020     		movs	r0, #0
 1122 0022 0FE0     		b	.L109
 1123              	.LVL79:
 1124              	.L110:
 507:e:\liteos\liteos\components\cmsis\2.0\cmsis_liteos2.c ****     }
 508:e:\liteos\liteos\components\cmsis\2.0\cmsis_liteos2.c **** 
 509:e:\liteos\liteos\components\cmsis\2.0\cmsis_liteos2.c ****     // first 4 bytes is OS_TASK_MAGIC_WORD, skip
 510:e:\liteos\liteos\components\cmsis\2.0\cmsis_liteos2.c ****     puwTopOfStack = (UINT32 *)pstTaskCB->uwTopOfStack + 1;
 1125              		.loc 1 510 0
 1126 0024 DB68     		ldr	r3, [r3, #12]
 1127              	.LVL80:
 1128 0026 0433     		adds	r3, r3, #4
 1129              	.LVL81:
 490:e:\liteos\liteos\components\cmsis\2.0\cmsis_liteos2.c ****     UINT32 *puwTopOfStack;
 1130              		.loc 1 490 0
 1131 0028 0022     		movs	r2, #0
 511:e:\liteos\liteos\components\cmsis\2.0\cmsis_liteos2.c **** 
 512:e:\liteos\liteos\components\cmsis\2.0\cmsis_liteos2.c ****     while (*puwTopOfStack == (UINT32)OS_TASK_STACK_INIT)
 1132              		.loc 1 512 0
 1133 002a 01E0     		b	.L111
 1134              	.LVL82:
 1135              	.L112:
 513:e:\liteos\liteos\components\cmsis\2.0\cmsis_liteos2.c ****     {
 514:e:\liteos\liteos\components\cmsis\2.0\cmsis_liteos2.c ****         ++puwTopOfStack;
 1136              		.loc 1 514 0
 1137 002c 0433     		adds	r3, r3, #4
 1138              	.LVL83:
 515:e:\liteos\liteos\components\cmsis\2.0\cmsis_liteos2.c ****         ++uwCount;
 1139              		.loc 1 515 0
 1140 002e 0132     		adds	r2, r2, #1
 1141              	.LVL84:
 1142              	.L111:
 512:e:\liteos\liteos\components\cmsis\2.0\cmsis_liteos2.c ****     {
 1143              		.loc 1 512 0
 1144 0030 0649     		ldr	r1, .L114+4
 1145 0032 1C68     		ldr	r4, [r3]
 1146 0034 8C42     		cmp	r4, r1
ARM GAS  C:\Users\WANGBI~1\AppData\Local\Temp\ccNVqL5c.s 			page 30


 1147 0036 F9D0     		beq	.L112
 516:e:\liteos\liteos\components\cmsis\2.0\cmsis_liteos2.c ****     }
 517:e:\liteos\liteos\components\cmsis\2.0\cmsis_liteos2.c **** 
 518:e:\liteos\liteos\components\cmsis\2.0\cmsis_liteos2.c ****     uwCount *= sizeof(UINT32);
 1148              		.loc 1 518 0
 1149 0038 9400     		lsls	r4, r2, #2
 1150              	.LVL85:
 519:e:\liteos\liteos\components\cmsis\2.0\cmsis_liteos2.c **** 
 520:e:\liteos\liteos\components\cmsis\2.0\cmsis_liteos2.c ****     (VOID)LOS_IntRestore(uvIntSave);
 1151              		.loc 1 520 0
 1152 003a FFF7FEFF 		bl	LOS_IntRestore
 1153              	.LVL86:
 521:e:\liteos\liteos\components\cmsis\2.0\cmsis_liteos2.c ****     return uwCount;
 1154              		.loc 1 521 0
 1155 003e 2000     		movs	r0, r4
 1156 0040 00E0     		b	.L109
 1157              	.LVL87:
 1158              	.L113:
 497:e:\liteos\liteos\components\cmsis\2.0\cmsis_liteos2.c ****     }
 1159              		.loc 1 497 0
 1160 0042 0020     		movs	r0, #0
 1161              	.LVL88:
 1162              	.L109:
 522:e:\liteos\liteos\components\cmsis\2.0\cmsis_liteos2.c **** }
 1163              		.loc 1 522 0
 1164              		@ sp needed
 1165 0044 10BD     		pop	{r4, pc}
 1166              	.L115:
 1167 0046 C046     		.align	2
 1168              	.L114:
 1169 0048 00000000 		.word	g_pstTaskCBArray
 1170 004c CACACACA 		.word	-892679478
 1171              		.cfi_endproc
 1172              	.LFE63:
 1174              		.section	.text.osThreadGetStackSpace,"ax",%progbits
 1175              		.align	2
 1176              		.global	osThreadGetStackSpace
 1177              		.code	16
 1178              		.thumb_func
 1180              	osThreadGetStackSpace:
 1181              	.LFB64:
 523:e:\liteos\liteos\components\cmsis\2.0\cmsis_liteos2.c **** 
 524:e:\liteos\liteos\components\cmsis\2.0\cmsis_liteos2.c **** 
 525:e:\liteos\liteos\components\cmsis\2.0\cmsis_liteos2.c **** uint32_t osThreadGetStackSpace (osThreadId_t thread_id)
 526:e:\liteos\liteos\components\cmsis\2.0\cmsis_liteos2.c **** {
 1182              		.loc 1 526 0
 1183              		.cfi_startproc
 1184              		@ args = 0, pretend = 0, frame = 0
 1185              		@ frame_needed = 0, uses_anonymous_args = 0
 1186              	.LVL89:
 1187 0000 10B5     		push	{r4, lr}
 1188              	.LCFI19:
 1189              		.cfi_def_cfa_offset 8
 1190              		.cfi_offset 4, -8
 1191              		.cfi_offset 14, -4
 1192 0002 0400     		movs	r4, r0
 1193              	.LVL90:
ARM GAS  C:\Users\WANGBI~1\AppData\Local\Temp\ccNVqL5c.s 			page 31


 527:e:\liteos\liteos\components\cmsis\2.0\cmsis_liteos2.c ****     LOS_TASK_CB *pstTaskCB = NULL;
 528:e:\liteos\liteos\components\cmsis\2.0\cmsis_liteos2.c **** 
 529:e:\liteos\liteos\components\cmsis\2.0\cmsis_liteos2.c ****     if (OS_INT_ACTIVE || thread_id == NULL)
 1194              		.loc 1 529 0
 1195 0004 FFF7FEFF 		bl	osIntNumGet
 1196              	.LVL91:
 1197 0008 0028     		cmp	r0, #0
 1198 000a 05D1     		bne	.L118
 1199              		.loc 1 529 0 is_stmt 0 discriminator 1
 1200 000c 002C     		cmp	r4, #0
 1201 000e 05D0     		beq	.L119
 1202              	.LVL92:
 530:e:\liteos\liteos\components\cmsis\2.0\cmsis_liteos2.c ****     {
 531:e:\liteos\liteos\components\cmsis\2.0\cmsis_liteos2.c ****         return 0U;
 532:e:\liteos\liteos\components\cmsis\2.0\cmsis_liteos2.c ****     }
 533:e:\liteos\liteos\components\cmsis\2.0\cmsis_liteos2.c **** 
 534:e:\liteos\liteos\components\cmsis\2.0\cmsis_liteos2.c ****     pstTaskCB = (LOS_TASK_CB *)thread_id;
 535:e:\liteos\liteos\components\cmsis\2.0\cmsis_liteos2.c **** 
 536:e:\liteos\liteos\components\cmsis\2.0\cmsis_liteos2.c ****     return osTaskStackWaterMarkGet(pstTaskCB->uwTaskID);
 1203              		.loc 1 536 0 is_stmt 1
 1204 0010 2069     		ldr	r0, [r4, #16]
 1205 0012 FFF7FEFF 		bl	osTaskStackWaterMarkGet
 1206              	.LVL93:
 1207 0016 02E0     		b	.L117
 1208              	.LVL94:
 1209              	.L118:
 531:e:\liteos\liteos\components\cmsis\2.0\cmsis_liteos2.c ****     }
 1210              		.loc 1 531 0
 1211 0018 0020     		movs	r0, #0
 1212 001a 00E0     		b	.L117
 1213              	.L119:
 1214 001c 0020     		movs	r0, #0
 1215              	.LVL95:
 1216              	.L117:
 537:e:\liteos\liteos\components\cmsis\2.0\cmsis_liteos2.c **** }
 1217              		.loc 1 537 0
 1218              		@ sp needed
 1219              	.LVL96:
 1220 001e 10BD     		pop	{r4, pc}
 1221              		.cfi_endproc
 1222              	.LFE64:
 1224              		.section	.text.osThreadSetPriority,"ax",%progbits
 1225              		.align	2
 1226              		.global	osThreadSetPriority
 1227              		.code	16
 1228              		.thumb_func
 1230              	osThreadSetPriority:
 1231              	.LFB65:
 538:e:\liteos\liteos\components\cmsis\2.0\cmsis_liteos2.c **** 
 539:e:\liteos\liteos\components\cmsis\2.0\cmsis_liteos2.c **** 
 540:e:\liteos\liteos\components\cmsis\2.0\cmsis_liteos2.c **** osStatus_t osThreadSetPriority (osThreadId_t thread_id, osPriority_t priority)
 541:e:\liteos\liteos\components\cmsis\2.0\cmsis_liteos2.c **** {
 1232              		.loc 1 541 0
 1233              		.cfi_startproc
 1234              		@ args = 0, pretend = 0, frame = 0
 1235              		@ frame_needed = 0, uses_anonymous_args = 0
 1236              	.LVL97:
ARM GAS  C:\Users\WANGBI~1\AppData\Local\Temp\ccNVqL5c.s 			page 32


 1237 0000 70B5     		push	{r4, r5, r6, lr}
 1238              	.LCFI20:
 1239              		.cfi_def_cfa_offset 16
 1240              		.cfi_offset 4, -16
 1241              		.cfi_offset 5, -12
 1242              		.cfi_offset 6, -8
 1243              		.cfi_offset 14, -4
 1244 0002 0500     		movs	r5, r0
 1245 0004 0C00     		movs	r4, r1
 1246              	.LVL98:
 542:e:\liteos\liteos\components\cmsis\2.0\cmsis_liteos2.c ****     UINT32  uwRet;
 543:e:\liteos\liteos\components\cmsis\2.0\cmsis_liteos2.c ****     UINT16  usPriority;
 544:e:\liteos\liteos\components\cmsis\2.0\cmsis_liteos2.c ****     LOS_TASK_CB *pstTaskCB = NULL;
 545:e:\liteos\liteos\components\cmsis\2.0\cmsis_liteos2.c **** 
 546:e:\liteos\liteos\components\cmsis\2.0\cmsis_liteos2.c ****     if (OS_INT_ACTIVE)
 1247              		.loc 1 546 0
 1248 0006 FFF7FEFF 		bl	osIntNumGet
 1249              	.LVL99:
 1250 000a 0028     		cmp	r0, #0
 1251 000c 1FD1     		bne	.L125
 547:e:\liteos\liteos\components\cmsis\2.0\cmsis_liteos2.c ****     {
 548:e:\liteos\liteos\components\cmsis\2.0\cmsis_liteos2.c ****         return osErrorISR;
 549:e:\liteos\liteos\components\cmsis\2.0\cmsis_liteos2.c ****     }
 550:e:\liteos\liteos\components\cmsis\2.0\cmsis_liteos2.c **** 
 551:e:\liteos\liteos\components\cmsis\2.0\cmsis_liteos2.c ****     if (thread_id == NULL)
 1252              		.loc 1 551 0
 1253 000e 002D     		cmp	r5, #0
 1254 0010 20D0     		beq	.L126
 552:e:\liteos\liteos\components\cmsis\2.0\cmsis_liteos2.c ****     {
 553:e:\liteos\liteos\components\cmsis\2.0\cmsis_liteos2.c ****         return osErrorParameter;
 554:e:\liteos\liteos\components\cmsis\2.0\cmsis_liteos2.c ****     }
 555:e:\liteos\liteos\components\cmsis\2.0\cmsis_liteos2.c **** 
 556:e:\liteos\liteos\components\cmsis\2.0\cmsis_liteos2.c ****     if (priority < osPriorityLow1 || priority > osPriorityAboveNormal6)
 1255              		.loc 1 556 0
 1256 0012 2300     		movs	r3, r4
 1257 0014 093B     		subs	r3, r3, #9
 1258 0016 1D2B     		cmp	r3, #29
 1259 0018 1FD8     		bhi	.L127
 1260              	.LVL100:
 557:e:\liteos\liteos\components\cmsis\2.0\cmsis_liteos2.c ****     {
 558:e:\liteos\liteos\components\cmsis\2.0\cmsis_liteos2.c ****         return osErrorParameter;
 559:e:\liteos\liteos\components\cmsis\2.0\cmsis_liteos2.c ****     }
 560:e:\liteos\liteos\components\cmsis\2.0\cmsis_liteos2.c **** 
 561:e:\liteos\liteos\components\cmsis\2.0\cmsis_liteos2.c ****     pstTaskCB   = (LOS_TASK_CB *)thread_id;
 562:e:\liteos\liteos\components\cmsis\2.0\cmsis_liteos2.c ****     usPriority  = OS_TASK_PRIORITY_LOWEST - ((UINT16)priority - LOS_PRIORITY_WIN);
 1261              		.loc 1 562 0
 1262 001a A1B2     		uxth	r1, r4
 1263 001c 2723     		movs	r3, #39
 1264 001e 591A     		subs	r1, r3, r1
 1265 0020 89B2     		uxth	r1, r1
 1266              	.LVL101:
 563:e:\liteos\liteos\components\cmsis\2.0\cmsis_liteos2.c ****     uwRet       = LOS_TaskPriSet(pstTaskCB->uwTaskID, usPriority);
 1267              		.loc 1 563 0
 1268 0022 2869     		ldr	r0, [r5, #16]
 1269 0024 FFF7FEFF 		bl	LOS_TaskPriSet
 1270              	.LVL102:
 564:e:\liteos\liteos\components\cmsis\2.0\cmsis_liteos2.c ****     switch (uwRet)
ARM GAS  C:\Users\WANGBI~1\AppData\Local\Temp\ccNVqL5c.s 			page 33


 1271              		.loc 1 564 0
 1272 0028 0F4B     		ldr	r3, .L129
 1273 002a 9842     		cmp	r0, r3
 1274 002c 0AD0     		beq	.L123
 1275 002e 03D8     		bhi	.L124
 1276 0030 0E4B     		ldr	r3, .L129+4
 1277 0032 9842     		cmp	r0, r3
 1278 0034 09D1     		bne	.L122
 1279 0036 05E0     		b	.L123
 1280              	.L124:
 1281 0038 0D4B     		ldr	r3, .L129+8
 1282 003a 9842     		cmp	r0, r3
 1283 003c 10D0     		beq	.L128
 1284 003e 0D4B     		ldr	r3, .L129+12
 1285 0040 9842     		cmp	r0, r3
 1286 0042 02D1     		bne	.L122
 1287              	.L123:
 565:e:\liteos\liteos\components\cmsis\2.0\cmsis_liteos2.c ****     {
 566:e:\liteos\liteos\components\cmsis\2.0\cmsis_liteos2.c ****     case LOS_ERRNO_TSK_PRIOR_ERROR:
 567:e:\liteos\liteos\components\cmsis\2.0\cmsis_liteos2.c ****     case LOS_ERRNO_TSK_OPERATE_IDLE:
 568:e:\liteos\liteos\components\cmsis\2.0\cmsis_liteos2.c ****     case LOS_ERRNO_TSK_ID_INVALID:
 569:e:\liteos\liteos\components\cmsis\2.0\cmsis_liteos2.c ****         return osErrorParameter;
 1288              		.loc 1 569 0
 1289 0044 0420     		movs	r0, #4
 1290              	.LVL103:
 1291 0046 4042     		rsbs	r0, r0, #0
 1292 0048 0CE0     		b	.L121
 1293              	.LVL104:
 1294              	.L122:
 570:e:\liteos\liteos\components\cmsis\2.0\cmsis_liteos2.c **** 
 571:e:\liteos\liteos\components\cmsis\2.0\cmsis_liteos2.c ****     case LOS_ERRNO_TSK_NOT_CREATED:
 572:e:\liteos\liteos\components\cmsis\2.0\cmsis_liteos2.c ****         return osErrorResource;
 573:e:\liteos\liteos\components\cmsis\2.0\cmsis_liteos2.c **** 
 574:e:\liteos\liteos\components\cmsis\2.0\cmsis_liteos2.c ****     default:
 575:e:\liteos\liteos\components\cmsis\2.0\cmsis_liteos2.c ****         return osOK;
 1295              		.loc 1 575 0
 1296 004a 0020     		movs	r0, #0
 1297              	.LVL105:
 1298 004c 0AE0     		b	.L121
 1299              	.LVL106:
 1300              	.L125:
 548:e:\liteos\liteos\components\cmsis\2.0\cmsis_liteos2.c ****     }
 1301              		.loc 1 548 0
 1302 004e 0620     		movs	r0, #6
 1303 0050 4042     		rsbs	r0, r0, #0
 1304 0052 07E0     		b	.L121
 1305              	.L126:
 553:e:\liteos\liteos\components\cmsis\2.0\cmsis_liteos2.c ****     }
 1306              		.loc 1 553 0
 1307 0054 0420     		movs	r0, #4
 1308 0056 4042     		rsbs	r0, r0, #0
 1309 0058 04E0     		b	.L121
 1310              	.L127:
 558:e:\liteos\liteos\components\cmsis\2.0\cmsis_liteos2.c ****     }
 1311              		.loc 1 558 0
 1312 005a 0420     		movs	r0, #4
 1313 005c 4042     		rsbs	r0, r0, #0
ARM GAS  C:\Users\WANGBI~1\AppData\Local\Temp\ccNVqL5c.s 			page 34


 1314 005e 01E0     		b	.L121
 1315              	.LVL107:
 1316              	.L128:
 572:e:\liteos\liteos\components\cmsis\2.0\cmsis_liteos2.c **** 
 1317              		.loc 1 572 0
 1318 0060 0320     		movs	r0, #3
 1319              	.LVL108:
 1320 0062 4042     		rsbs	r0, r0, #0
 1321              	.LVL109:
 1322              	.L121:
 576:e:\liteos\liteos\components\cmsis\2.0\cmsis_liteos2.c ****     }
 577:e:\liteos\liteos\components\cmsis\2.0\cmsis_liteos2.c **** }
 1323              		.loc 1 577 0
 1324              		@ sp needed
 1325              	.LVL110:
 1326              	.LVL111:
 1327 0064 70BD     		pop	{r4, r5, r6, pc}
 1328              	.L130:
 1329 0066 C046     		.align	2
 1330              	.L129:
 1331 0068 07020002 		.word	33554951
 1332 006c 03020002 		.word	33554947
 1333 0070 0A020002 		.word	33554954
 1334 0074 14020002 		.word	33554964
 1335              		.cfi_endproc
 1336              	.LFE65:
 1338              		.section	.text.osThreadGetPriority,"ax",%progbits
 1339              		.align	2
 1340              		.global	osThreadGetPriority
 1341              		.code	16
 1342              		.thumb_func
 1344              	osThreadGetPriority:
 1345              	.LFB66:
 578:e:\liteos\liteos\components\cmsis\2.0\cmsis_liteos2.c **** 
 579:e:\liteos\liteos\components\cmsis\2.0\cmsis_liteos2.c **** 
 580:e:\liteos\liteos\components\cmsis\2.0\cmsis_liteos2.c **** osPriority_t osThreadGetPriority (osThreadId_t thread_id)
 581:e:\liteos\liteos\components\cmsis\2.0\cmsis_liteos2.c **** {
 1346              		.loc 1 581 0
 1347              		.cfi_startproc
 1348              		@ args = 0, pretend = 0, frame = 0
 1349              		@ frame_needed = 0, uses_anonymous_args = 0
 1350              	.LVL112:
 1351 0000 10B5     		push	{r4, lr}
 1352              	.LCFI21:
 1353              		.cfi_def_cfa_offset 8
 1354              		.cfi_offset 4, -8
 1355              		.cfi_offset 14, -4
 1356 0002 0400     		movs	r4, r0
 1357              	.LVL113:
 582:e:\liteos\liteos\components\cmsis\2.0\cmsis_liteos2.c ****     UINT16 usRet;
 583:e:\liteos\liteos\components\cmsis\2.0\cmsis_liteos2.c ****     LOS_TASK_CB *pstTaskCB = NULL;
 584:e:\liteos\liteos\components\cmsis\2.0\cmsis_liteos2.c **** 
 585:e:\liteos\liteos\components\cmsis\2.0\cmsis_liteos2.c ****     if (OS_INT_ACTIVE || thread_id == NULL)
 1358              		.loc 1 585 0
 1359 0004 FFF7FEFF 		bl	osIntNumGet
 1360              	.LVL114:
 1361 0008 0028     		cmp	r0, #0
ARM GAS  C:\Users\WANGBI~1\AppData\Local\Temp\ccNVqL5c.s 			page 35


 1362 000a 0AD1     		bne	.L133
 1363              		.loc 1 585 0 is_stmt 0 discriminator 1
 1364 000c 002C     		cmp	r4, #0
 1365 000e 0BD0     		beq	.L134
 1366              	.LVL115:
 586:e:\liteos\liteos\components\cmsis\2.0\cmsis_liteos2.c ****     {
 587:e:\liteos\liteos\components\cmsis\2.0\cmsis_liteos2.c ****         return osPriorityError;
 588:e:\liteos\liteos\components\cmsis\2.0\cmsis_liteos2.c ****     }
 589:e:\liteos\liteos\components\cmsis\2.0\cmsis_liteos2.c **** 
 590:e:\liteos\liteos\components\cmsis\2.0\cmsis_liteos2.c ****     pstTaskCB = (LOS_TASK_CB *)thread_id;
 591:e:\liteos\liteos\components\cmsis\2.0\cmsis_liteos2.c ****     usRet = LOS_TaskPriGet(pstTaskCB->uwTaskID);
 1367              		.loc 1 591 0 is_stmt 1
 1368 0010 2069     		ldr	r0, [r4, #16]
 1369 0012 FFF7FEFF 		bl	LOS_TaskPriGet
 1370              	.LVL116:
 592:e:\liteos\liteos\components\cmsis\2.0\cmsis_liteos2.c **** 
 593:e:\liteos\liteos\components\cmsis\2.0\cmsis_liteos2.c ****     if (usRet == (UINT16)OS_INVALID)
 1371              		.loc 1 593 0
 1372 0016 074B     		ldr	r3, .L136
 1373 0018 9842     		cmp	r0, r3
 1374 001a 08D0     		beq	.L135
 594:e:\liteos\liteos\components\cmsis\2.0\cmsis_liteos2.c ****     {
 595:e:\liteos\liteos\components\cmsis\2.0\cmsis_liteos2.c ****         return osPriorityError;
 596:e:\liteos\liteos\components\cmsis\2.0\cmsis_liteos2.c ****     }
 597:e:\liteos\liteos\components\cmsis\2.0\cmsis_liteos2.c **** 
 598:e:\liteos\liteos\components\cmsis\2.0\cmsis_liteos2.c ****     return (osPriority_t)(OS_TASK_PRIORITY_LOWEST - (usRet - LOS_PRIORITY_WIN));
 1375              		.loc 1 598 0
 1376 001c 2723     		movs	r3, #39
 1377 001e 181A     		subs	r0, r3, r0
 1378              	.LVL117:
 1379 0020 07E0     		b	.L132
 1380              	.LVL118:
 1381              	.L133:
 587:e:\liteos\liteos\components\cmsis\2.0\cmsis_liteos2.c ****     }
 1382              		.loc 1 587 0
 1383 0022 0120     		movs	r0, #1
 1384 0024 4042     		rsbs	r0, r0, #0
 1385 0026 04E0     		b	.L132
 1386              	.L134:
 1387 0028 0120     		movs	r0, #1
 1388 002a 4042     		rsbs	r0, r0, #0
 1389 002c 01E0     		b	.L132
 1390              	.LVL119:
 1391              	.L135:
 595:e:\liteos\liteos\components\cmsis\2.0\cmsis_liteos2.c ****     }
 1392              		.loc 1 595 0
 1393 002e 0120     		movs	r0, #1
 1394              	.LVL120:
 1395 0030 4042     		rsbs	r0, r0, #0
 1396              	.LVL121:
 1397              	.L132:
 599:e:\liteos\liteos\components\cmsis\2.0\cmsis_liteos2.c **** }
 1398              		.loc 1 599 0
 1399              		@ sp needed
 1400              	.LVL122:
 1401 0032 10BD     		pop	{r4, pc}
 1402              	.L137:
ARM GAS  C:\Users\WANGBI~1\AppData\Local\Temp\ccNVqL5c.s 			page 36


 1403              		.align	2
 1404              	.L136:
 1405 0034 FFFF0000 		.word	65535
 1406              		.cfi_endproc
 1407              	.LFE66:
 1409              		.section	.text.osThreadYield,"ax",%progbits
 1410              		.align	2
 1411              		.global	osThreadYield
 1412              		.code	16
 1413              		.thumb_func
 1415              	osThreadYield:
 1416              	.LFB67:
 600:e:\liteos\liteos\components\cmsis\2.0\cmsis_liteos2.c **** 
 601:e:\liteos\liteos\components\cmsis\2.0\cmsis_liteos2.c **** 
 602:e:\liteos\liteos\components\cmsis\2.0\cmsis_liteos2.c **** osStatus_t osThreadYield (void)
 603:e:\liteos\liteos\components\cmsis\2.0\cmsis_liteos2.c **** {
 1417              		.loc 1 603 0
 1418              		.cfi_startproc
 1419              		@ args = 0, pretend = 0, frame = 0
 1420              		@ frame_needed = 0, uses_anonymous_args = 0
 1421 0000 10B5     		push	{r4, lr}
 1422              	.LCFI22:
 1423              		.cfi_def_cfa_offset 8
 1424              		.cfi_offset 4, -8
 1425              		.cfi_offset 14, -4
 604:e:\liteos\liteos\components\cmsis\2.0\cmsis_liteos2.c ****     UINT32 uwRet;
 605:e:\liteos\liteos\components\cmsis\2.0\cmsis_liteos2.c **** 
 606:e:\liteos\liteos\components\cmsis\2.0\cmsis_liteos2.c ****     if (OS_INT_ACTIVE)
 1426              		.loc 1 606 0
 1427 0002 FFF7FEFF 		bl	osIntNumGet
 1428              	.LVL123:
 1429 0006 0028     		cmp	r0, #0
 1430 0008 04D1     		bne	.L140
 607:e:\liteos\liteos\components\cmsis\2.0\cmsis_liteos2.c ****     {
 608:e:\liteos\liteos\components\cmsis\2.0\cmsis_liteos2.c ****         return osErrorISR;
 609:e:\liteos\liteos\components\cmsis\2.0\cmsis_liteos2.c ****     }
 610:e:\liteos\liteos\components\cmsis\2.0\cmsis_liteos2.c **** 
 611:e:\liteos\liteos\components\cmsis\2.0\cmsis_liteos2.c ****     uwRet = LOS_TaskYield();
 1431              		.loc 1 611 0
 1432 000a FFF7FEFF 		bl	LOS_TaskYield
 1433              	.LVL124:
 612:e:\liteos\liteos\components\cmsis\2.0\cmsis_liteos2.c **** 
 613:e:\liteos\liteos\components\cmsis\2.0\cmsis_liteos2.c ****     if (uwRet == LOS_OK)
 1434              		.loc 1 613 0
 1435 000e 0028     		cmp	r0, #0
 1436 0010 03D1     		bne	.L141
 1437 0012 04E0     		b	.L139
 1438              	.LVL125:
 1439              	.L140:
 608:e:\liteos\liteos\components\cmsis\2.0\cmsis_liteos2.c ****     }
 1440              		.loc 1 608 0
 1441 0014 0620     		movs	r0, #6
 1442 0016 4042     		rsbs	r0, r0, #0
 1443 0018 01E0     		b	.L139
 1444              	.LVL126:
 1445              	.L141:
 614:e:\liteos\liteos\components\cmsis\2.0\cmsis_liteos2.c ****     {
ARM GAS  C:\Users\WANGBI~1\AppData\Local\Temp\ccNVqL5c.s 			page 37


 615:e:\liteos\liteos\components\cmsis\2.0\cmsis_liteos2.c ****         return osOK;
 616:e:\liteos\liteos\components\cmsis\2.0\cmsis_liteos2.c ****     }
 617:e:\liteos\liteos\components\cmsis\2.0\cmsis_liteos2.c **** 
 618:e:\liteos\liteos\components\cmsis\2.0\cmsis_liteos2.c ****     return osError;
 1446              		.loc 1 618 0
 1447 001a 0120     		movs	r0, #1
 1448              	.LVL127:
 1449 001c 4042     		rsbs	r0, r0, #0
 1450              	.L139:
 619:e:\liteos\liteos\components\cmsis\2.0\cmsis_liteos2.c **** }
 1451              		.loc 1 619 0
 1452              		@ sp needed
 1453 001e 10BD     		pop	{r4, pc}
 1454              		.cfi_endproc
 1455              	.LFE67:
 1457              		.section	.text.osThreadSuspend,"ax",%progbits
 1458              		.align	2
 1459              		.global	osThreadSuspend
 1460              		.code	16
 1461              		.thumb_func
 1463              	osThreadSuspend:
 1464              	.LFB68:
 620:e:\liteos\liteos\components\cmsis\2.0\cmsis_liteos2.c **** 
 621:e:\liteos\liteos\components\cmsis\2.0\cmsis_liteos2.c **** 
 622:e:\liteos\liteos\components\cmsis\2.0\cmsis_liteos2.c **** osStatus_t osThreadSuspend (osThreadId_t thread_id)
 623:e:\liteos\liteos\components\cmsis\2.0\cmsis_liteos2.c **** {
 1465              		.loc 1 623 0
 1466              		.cfi_startproc
 1467              		@ args = 0, pretend = 0, frame = 0
 1468              		@ frame_needed = 0, uses_anonymous_args = 0
 1469              	.LVL128:
 1470 0000 10B5     		push	{r4, lr}
 1471              	.LCFI23:
 1472              		.cfi_def_cfa_offset 8
 1473              		.cfi_offset 4, -8
 1474              		.cfi_offset 14, -4
 1475 0002 0400     		movs	r4, r0
 1476              	.LVL129:
 624:e:\liteos\liteos\components\cmsis\2.0\cmsis_liteos2.c ****     UINT32 uwRet;
 625:e:\liteos\liteos\components\cmsis\2.0\cmsis_liteos2.c ****     LOS_TASK_CB *pstTaskCB = NULL;
 626:e:\liteos\liteos\components\cmsis\2.0\cmsis_liteos2.c **** 
 627:e:\liteos\liteos\components\cmsis\2.0\cmsis_liteos2.c ****     if (OS_INT_ACTIVE)
 1477              		.loc 1 627 0
 1478 0004 FFF7FEFF 		bl	osIntNumGet
 1479              	.LVL130:
 1480 0008 0028     		cmp	r0, #0
 1481 000a 1DD1     		bne	.L147
 628:e:\liteos\liteos\components\cmsis\2.0\cmsis_liteos2.c ****     {
 629:e:\liteos\liteos\components\cmsis\2.0\cmsis_liteos2.c ****         return osErrorISR;
 630:e:\liteos\liteos\components\cmsis\2.0\cmsis_liteos2.c ****     }
 631:e:\liteos\liteos\components\cmsis\2.0\cmsis_liteos2.c **** 
 632:e:\liteos\liteos\components\cmsis\2.0\cmsis_liteos2.c ****     if (thread_id == NULL)
 1482              		.loc 1 632 0
 1483 000c 002C     		cmp	r4, #0
 1484 000e 1ED0     		beq	.L148
 1485              	.LVL131:
 633:e:\liteos\liteos\components\cmsis\2.0\cmsis_liteos2.c ****     {
ARM GAS  C:\Users\WANGBI~1\AppData\Local\Temp\ccNVqL5c.s 			page 38


 634:e:\liteos\liteos\components\cmsis\2.0\cmsis_liteos2.c ****         return osErrorParameter;
 635:e:\liteos\liteos\components\cmsis\2.0\cmsis_liteos2.c ****     }
 636:e:\liteos\liteos\components\cmsis\2.0\cmsis_liteos2.c **** 
 637:e:\liteos\liteos\components\cmsis\2.0\cmsis_liteos2.c ****     pstTaskCB = (LOS_TASK_CB *)thread_id;
 638:e:\liteos\liteos\components\cmsis\2.0\cmsis_liteos2.c ****     uwRet = LOS_TaskSuspend(pstTaskCB->uwTaskID);
 1486              		.loc 1 638 0
 1487 0010 2069     		ldr	r0, [r4, #16]
 1488 0012 FFF7FEFF 		bl	LOS_TaskSuspend
 1489              	.LVL132:
 639:e:\liteos\liteos\components\cmsis\2.0\cmsis_liteos2.c ****     switch (uwRet)
 1490              		.loc 1 639 0
 1491 0016 114B     		ldr	r3, .L150
 1492 0018 9842     		cmp	r0, r3
 1493 001a 1BD0     		beq	.L149
 1494 001c 06D8     		bhi	.L145
 1495 001e 104B     		ldr	r3, .L150+4
 1496 0020 9842     		cmp	r0, r3
 1497 0022 0CD0     		beq	.L146
 1498 0024 0F4B     		ldr	r3, .L150+8
 1499 0026 9842     		cmp	r0, r3
 1500 0028 0CD1     		bne	.L144
 1501 002a 13E0     		b	.L149
 1502              	.L145:
 1503 002c 0E4B     		ldr	r3, .L150+12
 1504 002e 9842     		cmp	r0, r3
 1505 0030 05D0     		beq	.L146
 1506 0032 0E4B     		ldr	r3, .L150+16
 1507 0034 9842     		cmp	r0, r3
 1508 0036 0DD0     		beq	.L149
 1509 0038 0D4B     		ldr	r3, .L150+20
 1510 003a 9842     		cmp	r0, r3
 1511 003c 02D1     		bne	.L144
 1512              	.L146:
 640:e:\liteos\liteos\components\cmsis\2.0\cmsis_liteos2.c ****     {
 641:e:\liteos\liteos\components\cmsis\2.0\cmsis_liteos2.c ****     case LOS_ERRNO_TSK_OPERATE_IDLE:
 642:e:\liteos\liteos\components\cmsis\2.0\cmsis_liteos2.c ****     case LOS_ERRNO_TSK_SUSPEND_SWTMR_NOT_ALLOWED:
 643:e:\liteos\liteos\components\cmsis\2.0\cmsis_liteos2.c ****     case LOS_ERRNO_TSK_ID_INVALID:
 644:e:\liteos\liteos\components\cmsis\2.0\cmsis_liteos2.c ****         return osErrorParameter;
 1513              		.loc 1 644 0
 1514 003e 0420     		movs	r0, #4
 1515              	.LVL133:
 1516 0040 4042     		rsbs	r0, r0, #0
 1517 0042 09E0     		b	.L143
 1518              	.LVL134:
 1519              	.L144:
 645:e:\liteos\liteos\components\cmsis\2.0\cmsis_liteos2.c **** 
 646:e:\liteos\liteos\components\cmsis\2.0\cmsis_liteos2.c ****     case LOS_ERRNO_TSK_NOT_CREATED:
 647:e:\liteos\liteos\components\cmsis\2.0\cmsis_liteos2.c ****     case LOS_ERRNO_TSK_ALREADY_SUSPENDED:
 648:e:\liteos\liteos\components\cmsis\2.0\cmsis_liteos2.c ****     case LOS_ERRNO_TSK_SUSPEND_LOCKED:
 649:e:\liteos\liteos\components\cmsis\2.0\cmsis_liteos2.c ****         return osErrorResource;
 650:e:\liteos\liteos\components\cmsis\2.0\cmsis_liteos2.c **** 
 651:e:\liteos\liteos\components\cmsis\2.0\cmsis_liteos2.c ****     default:
 652:e:\liteos\liteos\components\cmsis\2.0\cmsis_liteos2.c ****         return osOK;
 1520              		.loc 1 652 0
 1521 0044 0020     		movs	r0, #0
 1522              	.LVL135:
 1523 0046 07E0     		b	.L143
ARM GAS  C:\Users\WANGBI~1\AppData\Local\Temp\ccNVqL5c.s 			page 39


 1524              	.LVL136:
 1525              	.L147:
 629:e:\liteos\liteos\components\cmsis\2.0\cmsis_liteos2.c ****     }
 1526              		.loc 1 629 0
 1527 0048 0620     		movs	r0, #6
 1528 004a 4042     		rsbs	r0, r0, #0
 1529 004c 04E0     		b	.L143
 1530              	.L148:
 634:e:\liteos\liteos\components\cmsis\2.0\cmsis_liteos2.c ****     }
 1531              		.loc 1 634 0
 1532 004e 0420     		movs	r0, #4
 1533 0050 4042     		rsbs	r0, r0, #0
 1534 0052 01E0     		b	.L143
 1535              	.LVL137:
 1536              	.L149:
 649:e:\liteos\liteos\components\cmsis\2.0\cmsis_liteos2.c **** 
 1537              		.loc 1 649 0
 1538 0054 0320     		movs	r0, #3
 1539              	.LVL138:
 1540 0056 4042     		rsbs	r0, r0, #0
 1541              	.LVL139:
 1542              	.L143:
 653:e:\liteos\liteos\components\cmsis\2.0\cmsis_liteos2.c ****     }
 654:e:\liteos\liteos\components\cmsis\2.0\cmsis_liteos2.c **** }
 1543              		.loc 1 654 0
 1544              		@ sp needed
 1545              	.LVL140:
 1546 0058 10BD     		pop	{r4, pc}
 1547              	.L151:
 1548 005a C046     		.align	2
 1549              	.L150:
 1550 005c 0A020002 		.word	33554954
 1551 0060 07020002 		.word	33554951
 1552 0064 08020002 		.word	33554952
 1553 0068 21020002 		.word	33554977
 1554 006c 15020003 		.word	50332181
 1555 0070 14020002 		.word	33554964
 1556              		.cfi_endproc
 1557              	.LFE68:
 1559              		.section	.text.osThreadResume,"ax",%progbits
 1560              		.align	2
 1561              		.global	osThreadResume
 1562              		.code	16
 1563              		.thumb_func
 1565              	osThreadResume:
 1566              	.LFB69:
 655:e:\liteos\liteos\components\cmsis\2.0\cmsis_liteos2.c **** 
 656:e:\liteos\liteos\components\cmsis\2.0\cmsis_liteos2.c **** 
 657:e:\liteos\liteos\components\cmsis\2.0\cmsis_liteos2.c **** osStatus_t osThreadResume (osThreadId_t thread_id)
 658:e:\liteos\liteos\components\cmsis\2.0\cmsis_liteos2.c **** {
 1567              		.loc 1 658 0
 1568              		.cfi_startproc
 1569              		@ args = 0, pretend = 0, frame = 0
 1570              		@ frame_needed = 0, uses_anonymous_args = 0
 1571              	.LVL141:
 1572 0000 10B5     		push	{r4, lr}
 1573              	.LCFI24:
ARM GAS  C:\Users\WANGBI~1\AppData\Local\Temp\ccNVqL5c.s 			page 40


 1574              		.cfi_def_cfa_offset 8
 1575              		.cfi_offset 4, -8
 1576              		.cfi_offset 14, -4
 1577 0002 0400     		movs	r4, r0
 1578              	.LVL142:
 659:e:\liteos\liteos\components\cmsis\2.0\cmsis_liteos2.c ****     UINT32 uwRet;
 660:e:\liteos\liteos\components\cmsis\2.0\cmsis_liteos2.c ****     LOS_TASK_CB *pstTaskCB = NULL;
 661:e:\liteos\liteos\components\cmsis\2.0\cmsis_liteos2.c **** 
 662:e:\liteos\liteos\components\cmsis\2.0\cmsis_liteos2.c ****     if (OS_INT_ACTIVE)
 1579              		.loc 1 662 0
 1580 0004 FFF7FEFF 		bl	osIntNumGet
 1581              	.LVL143:
 1582 0008 0028     		cmp	r0, #0
 1583 000a 13D1     		bne	.L156
 663:e:\liteos\liteos\components\cmsis\2.0\cmsis_liteos2.c ****     {
 664:e:\liteos\liteos\components\cmsis\2.0\cmsis_liteos2.c ****         return osErrorISR;
 665:e:\liteos\liteos\components\cmsis\2.0\cmsis_liteos2.c ****     }
 666:e:\liteos\liteos\components\cmsis\2.0\cmsis_liteos2.c **** 
 667:e:\liteos\liteos\components\cmsis\2.0\cmsis_liteos2.c ****     if (thread_id == NULL)
 1584              		.loc 1 667 0
 1585 000c 002C     		cmp	r4, #0
 1586 000e 14D0     		beq	.L157
 1587              	.LVL144:
 668:e:\liteos\liteos\components\cmsis\2.0\cmsis_liteos2.c ****     {
 669:e:\liteos\liteos\components\cmsis\2.0\cmsis_liteos2.c ****         return osErrorParameter;
 670:e:\liteos\liteos\components\cmsis\2.0\cmsis_liteos2.c ****     }
 671:e:\liteos\liteos\components\cmsis\2.0\cmsis_liteos2.c **** 
 672:e:\liteos\liteos\components\cmsis\2.0\cmsis_liteos2.c ****     pstTaskCB = (LOS_TASK_CB *)thread_id;
 673:e:\liteos\liteos\components\cmsis\2.0\cmsis_liteos2.c ****     uwRet = LOS_TaskResume(pstTaskCB->uwTaskID);
 1588              		.loc 1 673 0
 1589 0010 2069     		ldr	r0, [r4, #16]
 1590 0012 FFF7FEFF 		bl	LOS_TaskResume
 1591              	.LVL145:
 674:e:\liteos\liteos\components\cmsis\2.0\cmsis_liteos2.c **** 
 675:e:\liteos\liteos\components\cmsis\2.0\cmsis_liteos2.c ****     switch (uwRet)
 1592              		.loc 1 675 0
 1593 0016 0C4B     		ldr	r3, .L160
 1594 0018 9842     		cmp	r0, r3
 1595 001a 06D0     		beq	.L155
 1596 001c 08D3     		bcc	.L154
 1597 001e 0B4B     		ldr	r3, .L160+4
 1598 0020 9C46     		mov	ip, r3
 1599 0022 6044     		add	r0, r0, ip
 1600              	.LVL146:
 1601 0024 0128     		cmp	r0, #1
 1602 0026 0BD9     		bls	.L159
 1603 0028 02E0     		b	.L154
 1604              	.LVL147:
 1605              	.L155:
 676:e:\liteos\liteos\components\cmsis\2.0\cmsis_liteos2.c ****     {
 677:e:\liteos\liteos\components\cmsis\2.0\cmsis_liteos2.c ****     case LOS_ERRNO_TSK_ID_INVALID:
 678:e:\liteos\liteos\components\cmsis\2.0\cmsis_liteos2.c ****         return osErrorParameter;
 1606              		.loc 1 678 0
 1607 002a 0420     		movs	r0, #4
 1608              	.LVL148:
 1609 002c 4042     		rsbs	r0, r0, #0
 1610 002e 09E0     		b	.L153
ARM GAS  C:\Users\WANGBI~1\AppData\Local\Temp\ccNVqL5c.s 			page 41


 1611              	.L154:
 679:e:\liteos\liteos\components\cmsis\2.0\cmsis_liteos2.c **** 
 680:e:\liteos\liteos\components\cmsis\2.0\cmsis_liteos2.c ****     case LOS_ERRNO_TSK_NOT_CREATED:
 681:e:\liteos\liteos\components\cmsis\2.0\cmsis_liteos2.c ****     case LOS_ERRNO_TSK_NOT_SUSPENDED:
 682:e:\liteos\liteos\components\cmsis\2.0\cmsis_liteos2.c ****         return osErrorResource;
 683:e:\liteos\liteos\components\cmsis\2.0\cmsis_liteos2.c **** 
 684:e:\liteos\liteos\components\cmsis\2.0\cmsis_liteos2.c ****     default:
 685:e:\liteos\liteos\components\cmsis\2.0\cmsis_liteos2.c ****         return osOK;
 1612              		.loc 1 685 0
 1613 0030 0020     		movs	r0, #0
 1614 0032 07E0     		b	.L153
 1615              	.LVL149:
 1616              	.L156:
 664:e:\liteos\liteos\components\cmsis\2.0\cmsis_liteos2.c ****     }
 1617              		.loc 1 664 0
 1618 0034 0620     		movs	r0, #6
 1619 0036 4042     		rsbs	r0, r0, #0
 1620 0038 04E0     		b	.L153
 1621              	.L157:
 669:e:\liteos\liteos\components\cmsis\2.0\cmsis_liteos2.c ****     }
 1622              		.loc 1 669 0
 1623 003a 0420     		movs	r0, #4
 1624 003c 4042     		rsbs	r0, r0, #0
 1625 003e 01E0     		b	.L153
 1626              	.LVL150:
 1627              	.L159:
 682:e:\liteos\liteos\components\cmsis\2.0\cmsis_liteos2.c **** 
 1628              		.loc 1 682 0
 1629 0040 0320     		movs	r0, #3
 1630              	.LVL151:
 1631 0042 4042     		rsbs	r0, r0, #0
 1632              	.LVL152:
 1633              	.L153:
 686:e:\liteos\liteos\components\cmsis\2.0\cmsis_liteos2.c ****     }
 687:e:\liteos\liteos\components\cmsis\2.0\cmsis_liteos2.c **** 
 688:e:\liteos\liteos\components\cmsis\2.0\cmsis_liteos2.c **** }
 1634              		.loc 1 688 0
 1635              		@ sp needed
 1636              	.LVL153:
 1637 0044 10BD     		pop	{r4, pc}
 1638              	.L161:
 1639 0046 C046     		.align	2
 1640              	.L160:
 1641 0048 07020002 		.word	33554951
 1642 004c F7FDFFFD 		.word	-33554953
 1643              		.cfi_endproc
 1644              	.LFE69:
 1646              		.section	.text.osThreadTerminate,"ax",%progbits
 1647              		.align	2
 1648              		.global	osThreadTerminate
 1649              		.code	16
 1650              		.thumb_func
 1652              	osThreadTerminate:
 1653              	.LFB70:
 689:e:\liteos\liteos\components\cmsis\2.0\cmsis_liteos2.c **** 
 690:e:\liteos\liteos\components\cmsis\2.0\cmsis_liteos2.c **** 
 691:e:\liteos\liteos\components\cmsis\2.0\cmsis_liteos2.c **** osStatus_t osThreadTerminate (osThreadId_t thread_id)
ARM GAS  C:\Users\WANGBI~1\AppData\Local\Temp\ccNVqL5c.s 			page 42


 692:e:\liteos\liteos\components\cmsis\2.0\cmsis_liteos2.c **** {
 1654              		.loc 1 692 0
 1655              		.cfi_startproc
 1656              		@ args = 0, pretend = 0, frame = 0
 1657              		@ frame_needed = 0, uses_anonymous_args = 0
 1658              	.LVL154:
 1659 0000 10B5     		push	{r4, lr}
 1660              	.LCFI25:
 1661              		.cfi_def_cfa_offset 8
 1662              		.cfi_offset 4, -8
 1663              		.cfi_offset 14, -4
 1664 0002 0400     		movs	r4, r0
 1665              	.LVL155:
 693:e:\liteos\liteos\components\cmsis\2.0\cmsis_liteos2.c ****     UINT32 uwRet;
 694:e:\liteos\liteos\components\cmsis\2.0\cmsis_liteos2.c ****     LOS_TASK_CB *pstTaskCB = NULL;
 695:e:\liteos\liteos\components\cmsis\2.0\cmsis_liteos2.c **** 
 696:e:\liteos\liteos\components\cmsis\2.0\cmsis_liteos2.c ****     if (OS_INT_ACTIVE)
 1666              		.loc 1 696 0
 1667 0004 FFF7FEFF 		bl	osIntNumGet
 1668              	.LVL156:
 1669 0008 0028     		cmp	r0, #0
 1670 000a 17D1     		bne	.L167
 697:e:\liteos\liteos\components\cmsis\2.0\cmsis_liteos2.c ****     {
 698:e:\liteos\liteos\components\cmsis\2.0\cmsis_liteos2.c ****         return osErrorISR;
 699:e:\liteos\liteos\components\cmsis\2.0\cmsis_liteos2.c ****     }
 700:e:\liteos\liteos\components\cmsis\2.0\cmsis_liteos2.c **** 
 701:e:\liteos\liteos\components\cmsis\2.0\cmsis_liteos2.c ****     if (thread_id == NULL)
 1671              		.loc 1 701 0
 1672 000c 002C     		cmp	r4, #0
 1673 000e 18D0     		beq	.L168
 1674              	.LVL157:
 702:e:\liteos\liteos\components\cmsis\2.0\cmsis_liteos2.c ****     {
 703:e:\liteos\liteos\components\cmsis\2.0\cmsis_liteos2.c ****         return osErrorParameter;
 704:e:\liteos\liteos\components\cmsis\2.0\cmsis_liteos2.c ****     }
 705:e:\liteos\liteos\components\cmsis\2.0\cmsis_liteos2.c **** 
 706:e:\liteos\liteos\components\cmsis\2.0\cmsis_liteos2.c ****     pstTaskCB = (LOS_TASK_CB *)thread_id;
 707:e:\liteos\liteos\components\cmsis\2.0\cmsis_liteos2.c ****     uwRet = LOS_TaskDelete(pstTaskCB->uwTaskID);
 1675              		.loc 1 707 0
 1676 0010 2069     		ldr	r0, [r4, #16]
 1677 0012 FFF7FEFF 		bl	LOS_TaskDelete
 1678              	.LVL158:
 708:e:\liteos\liteos\components\cmsis\2.0\cmsis_liteos2.c **** 
 709:e:\liteos\liteos\components\cmsis\2.0\cmsis_liteos2.c ****     switch (uwRet)
 1679              		.loc 1 709 0
 1680 0016 0E4B     		ldr	r3, .L170
 1681 0018 9842     		cmp	r0, r3
 1682 001a 15D0     		beq	.L169
 1683 001c 03D8     		bhi	.L165
 1684 001e 0D4B     		ldr	r3, .L170+4
 1685 0020 9842     		cmp	r0, r3
 1686 0022 09D1     		bne	.L164
 1687 0024 05E0     		b	.L166
 1688              	.L165:
 1689 0026 0C4B     		ldr	r3, .L170+8
 1690 0028 9842     		cmp	r0, r3
 1691 002a 02D0     		beq	.L166
 1692 002c 0B4B     		ldr	r3, .L170+12
ARM GAS  C:\Users\WANGBI~1\AppData\Local\Temp\ccNVqL5c.s 			page 43


 1693 002e 9842     		cmp	r0, r3
 1694 0030 02D1     		bne	.L164
 1695              	.L166:
 710:e:\liteos\liteos\components\cmsis\2.0\cmsis_liteos2.c ****     {
 711:e:\liteos\liteos\components\cmsis\2.0\cmsis_liteos2.c ****     case LOS_ERRNO_TSK_OPERATE_IDLE:
 712:e:\liteos\liteos\components\cmsis\2.0\cmsis_liteos2.c ****     case LOS_ERRNO_TSK_SUSPEND_SWTMR_NOT_ALLOWED:
 713:e:\liteos\liteos\components\cmsis\2.0\cmsis_liteos2.c ****     case LOS_ERRNO_TSK_ID_INVALID:
 714:e:\liteos\liteos\components\cmsis\2.0\cmsis_liteos2.c ****         return osErrorParameter;
 1696              		.loc 1 714 0
 1697 0032 0420     		movs	r0, #4
 1698              	.LVL159:
 1699 0034 4042     		rsbs	r0, r0, #0
 1700 0036 09E0     		b	.L163
 1701              	.LVL160:
 1702              	.L164:
 715:e:\liteos\liteos\components\cmsis\2.0\cmsis_liteos2.c **** 
 716:e:\liteos\liteos\components\cmsis\2.0\cmsis_liteos2.c ****     case LOS_ERRNO_TSK_NOT_CREATED:
 717:e:\liteos\liteos\components\cmsis\2.0\cmsis_liteos2.c ****         return osErrorResource;
 718:e:\liteos\liteos\components\cmsis\2.0\cmsis_liteos2.c **** 
 719:e:\liteos\liteos\components\cmsis\2.0\cmsis_liteos2.c ****     default:
 720:e:\liteos\liteos\components\cmsis\2.0\cmsis_liteos2.c ****         return osOK;
 1703              		.loc 1 720 0
 1704 0038 0020     		movs	r0, #0
 1705              	.LVL161:
 1706 003a 07E0     		b	.L163
 1707              	.LVL162:
 1708              	.L167:
 698:e:\liteos\liteos\components\cmsis\2.0\cmsis_liteos2.c ****     }
 1709              		.loc 1 698 0
 1710 003c 0620     		movs	r0, #6
 1711 003e 4042     		rsbs	r0, r0, #0
 1712 0040 04E0     		b	.L163
 1713              	.L168:
 703:e:\liteos\liteos\components\cmsis\2.0\cmsis_liteos2.c ****     }
 1714              		.loc 1 703 0
 1715 0042 0420     		movs	r0, #4
 1716 0044 4042     		rsbs	r0, r0, #0
 1717 0046 01E0     		b	.L163
 1718              	.LVL163:
 1719              	.L169:
 717:e:\liteos\liteos\components\cmsis\2.0\cmsis_liteos2.c **** 
 1720              		.loc 1 717 0
 1721 0048 0320     		movs	r0, #3
 1722              	.LVL164:
 1723 004a 4042     		rsbs	r0, r0, #0
 1724              	.LVL165:
 1725              	.L163:
 721:e:\liteos\liteos\components\cmsis\2.0\cmsis_liteos2.c ****     }
 722:e:\liteos\liteos\components\cmsis\2.0\cmsis_liteos2.c **** }
 1726              		.loc 1 722 0
 1727              		@ sp needed
 1728              	.LVL166:
 1729 004c 10BD     		pop	{r4, pc}
 1730              	.L171:
 1731 004e C046     		.align	2
 1732              	.L170:
 1733 0050 0A020002 		.word	33554954
ARM GAS  C:\Users\WANGBI~1\AppData\Local\Temp\ccNVqL5c.s 			page 44


 1734 0054 07020002 		.word	33554951
 1735 0058 14020002 		.word	33554964
 1736 005c 21020002 		.word	33554977
 1737              		.cfi_endproc
 1738              	.LFE70:
 1740              		.section	.text.osThreadGetCount,"ax",%progbits
 1741              		.align	2
 1742              		.global	osThreadGetCount
 1743              		.code	16
 1744              		.thumb_func
 1746              	osThreadGetCount:
 1747              	.LFB71:
 723:e:\liteos\liteos\components\cmsis\2.0\cmsis_liteos2.c **** 
 724:e:\liteos\liteos\components\cmsis\2.0\cmsis_liteos2.c **** 
 725:e:\liteos\liteos\components\cmsis\2.0\cmsis_liteos2.c **** uint32_t osThreadGetCount (void)
 726:e:\liteos\liteos\components\cmsis\2.0\cmsis_liteos2.c **** {
 1748              		.loc 1 726 0
 1749              		.cfi_startproc
 1750              		@ args = 0, pretend = 0, frame = 0
 1751              		@ frame_needed = 0, uses_anonymous_args = 0
 1752 0000 10B5     		push	{r4, lr}
 1753              	.LCFI26:
 1754              		.cfi_def_cfa_offset 8
 1755              		.cfi_offset 4, -8
 1756              		.cfi_offset 14, -4
 1757              	.LVL167:
 727:e:\liteos\liteos\components\cmsis\2.0\cmsis_liteos2.c ****     uint32_t uwCount = 0;
 728:e:\liteos\liteos\components\cmsis\2.0\cmsis_liteos2.c ****     int index = 0;
 729:e:\liteos\liteos\components\cmsis\2.0\cmsis_liteos2.c **** 
 730:e:\liteos\liteos\components\cmsis\2.0\cmsis_liteos2.c ****     if (OS_INT_ACTIVE)
 1758              		.loc 1 730 0
 1759 0002 FFF7FEFF 		bl	osIntNumGet
 1760              	.LVL168:
 1761 0006 0028     		cmp	r0, #0
 1762 0008 0ED1     		bne	.L177
 1763 000a 0022     		movs	r2, #0
 1764 000c 09E0     		b	.L174
 1765              	.LVL169:
 1766              	.L176:
 731:e:\liteos\liteos\components\cmsis\2.0\cmsis_liteos2.c ****     {
 732:e:\liteos\liteos\components\cmsis\2.0\cmsis_liteos2.c ****         return 0U;
 733:e:\liteos\liteos\components\cmsis\2.0\cmsis_liteos2.c ****     }
 734:e:\liteos\liteos\components\cmsis\2.0\cmsis_liteos2.c **** 
 735:e:\liteos\liteos\components\cmsis\2.0\cmsis_liteos2.c ****     for(; index <= LOSCFG_BASE_CORE_TSK_LIMIT; index++)
 736:e:\liteos\liteos\components\cmsis\2.0\cmsis_liteos2.c ****     {
 737:e:\liteos\liteos\components\cmsis\2.0\cmsis_liteos2.c ****         if (!((g_pstTaskCBArray + index)->usTaskStatus & OS_TASK_STATUS_UNUSED))
 1767              		.loc 1 737 0
 1768 000e 5423     		movs	r3, #84
 1769 0010 5343     		muls	r3, r2
 1770 0012 0649     		ldr	r1, .L178
 1771 0014 0968     		ldr	r1, [r1]
 1772 0016 CB18     		adds	r3, r1, r3
 1773 0018 9B88     		ldrh	r3, [r3, #4]
 1774 001a DB07     		lsls	r3, r3, #31
 1775 001c 00D4     		bmi	.L175
 738:e:\liteos\liteos\components\cmsis\2.0\cmsis_liteos2.c ****         {
 739:e:\liteos\liteos\components\cmsis\2.0\cmsis_liteos2.c ****             uwCount++;
ARM GAS  C:\Users\WANGBI~1\AppData\Local\Temp\ccNVqL5c.s 			page 45


 1776              		.loc 1 739 0
 1777 001e 0130     		adds	r0, r0, #1
 1778              	.LVL170:
 1779              	.L175:
 735:e:\liteos\liteos\components\cmsis\2.0\cmsis_liteos2.c ****     {
 1780              		.loc 1 735 0
 1781 0020 0132     		adds	r2, r2, #1
 1782              	.LVL171:
 1783              	.L174:
 735:e:\liteos\liteos\components\cmsis\2.0\cmsis_liteos2.c ****     {
 1784              		.loc 1 735 0 is_stmt 0 discriminator 1
 1785 0022 0F2A     		cmp	r2, #15
 1786 0024 F3DD     		ble	.L176
 1787 0026 00E0     		b	.L173
 1788              	.LVL172:
 1789              	.L177:
 732:e:\liteos\liteos\components\cmsis\2.0\cmsis_liteos2.c ****     }
 1790              		.loc 1 732 0 is_stmt 1
 1791 0028 0020     		movs	r0, #0
 1792              	.LVL173:
 1793              	.L173:
 740:e:\liteos\liteos\components\cmsis\2.0\cmsis_liteos2.c ****         }
 741:e:\liteos\liteos\components\cmsis\2.0\cmsis_liteos2.c ****     }
 742:e:\liteos\liteos\components\cmsis\2.0\cmsis_liteos2.c **** 
 743:e:\liteos\liteos\components\cmsis\2.0\cmsis_liteos2.c ****     return uwCount;
 744:e:\liteos\liteos\components\cmsis\2.0\cmsis_liteos2.c **** }
 1794              		.loc 1 744 0
 1795              		@ sp needed
 1796 002a 10BD     		pop	{r4, pc}
 1797              	.L179:
 1798              		.align	2
 1799              	.L178:
 1800 002c 00000000 		.word	g_pstTaskCBArray
 1801              		.cfi_endproc
 1802              	.LFE71:
 1804              		.section	.text.osDelay,"ax",%progbits
 1805              		.align	2
 1806              		.global	osDelay
 1807              		.code	16
 1808              		.thumb_func
 1810              	osDelay:
 1811              	.LFB72:
 745:e:\liteos\liteos\components\cmsis\2.0\cmsis_liteos2.c **** 
 746:e:\liteos\liteos\components\cmsis\2.0\cmsis_liteos2.c **** 
 747:e:\liteos\liteos\components\cmsis\2.0\cmsis_liteos2.c **** //  ==== Generic Wait Functions ====
 748:e:\liteos\liteos\components\cmsis\2.0\cmsis_liteos2.c **** 
 749:e:\liteos\liteos\components\cmsis\2.0\cmsis_liteos2.c **** osStatus_t osDelay (uint32_t ticks)
 750:e:\liteos\liteos\components\cmsis\2.0\cmsis_liteos2.c **** {
 1812              		.loc 1 750 0
 1813              		.cfi_startproc
 1814              		@ args = 0, pretend = 0, frame = 0
 1815              		@ frame_needed = 0, uses_anonymous_args = 0
 1816              	.LVL174:
 1817 0000 10B5     		push	{r4, lr}
 1818              	.LCFI27:
 1819              		.cfi_def_cfa_offset 8
 1820              		.cfi_offset 4, -8
ARM GAS  C:\Users\WANGBI~1\AppData\Local\Temp\ccNVqL5c.s 			page 46


 1821              		.cfi_offset 14, -4
 1822              	.LVL175:
 751:e:\liteos\liteos\components\cmsis\2.0\cmsis_liteos2.c ****     UINT32 uwRet = 0;
 752:e:\liteos\liteos\components\cmsis\2.0\cmsis_liteos2.c **** 
 753:e:\liteos\liteos\components\cmsis\2.0\cmsis_liteos2.c ****     uwRet = LOS_TaskDelay(ticks);
 1823              		.loc 1 753 0
 1824 0002 FFF7FEFF 		bl	LOS_TaskDelay
 1825              	.LVL176:
 754:e:\liteos\liteos\components\cmsis\2.0\cmsis_liteos2.c ****     if(uwRet == LOS_OK)
 1826              		.loc 1 754 0
 1827 0006 0028     		cmp	r0, #0
 1828 0008 01D0     		beq	.L181
 755:e:\liteos\liteos\components\cmsis\2.0\cmsis_liteos2.c ****     {
 756:e:\liteos\liteos\components\cmsis\2.0\cmsis_liteos2.c ****         return osOK;
 757:e:\liteos\liteos\components\cmsis\2.0\cmsis_liteos2.c ****     }
 758:e:\liteos\liteos\components\cmsis\2.0\cmsis_liteos2.c ****     else
 759:e:\liteos\liteos\components\cmsis\2.0\cmsis_liteos2.c ****     {
 760:e:\liteos\liteos\components\cmsis\2.0\cmsis_liteos2.c ****         return osError;
 1829              		.loc 1 760 0
 1830 000a 0120     		movs	r0, #1
 1831              	.LVL177:
 1832 000c 4042     		rsbs	r0, r0, #0
 1833              	.L181:
 761:e:\liteos\liteos\components\cmsis\2.0\cmsis_liteos2.c ****     }
 762:e:\liteos\liteos\components\cmsis\2.0\cmsis_liteos2.c **** }
 1834              		.loc 1 762 0
 1835              		@ sp needed
 1836 000e 10BD     		pop	{r4, pc}
 1837              		.cfi_endproc
 1838              	.LFE72:
 1840              		.section	.text.osDelayUntil,"ax",%progbits
 1841              		.align	2
 1842              		.global	osDelayUntil
 1843              		.code	16
 1844              		.thumb_func
 1846              	osDelayUntil:
 1847              	.LFB73:
 763:e:\liteos\liteos\components\cmsis\2.0\cmsis_liteos2.c **** 
 764:e:\liteos\liteos\components\cmsis\2.0\cmsis_liteos2.c **** 
 765:e:\liteos\liteos\components\cmsis\2.0\cmsis_liteos2.c **** osStatus_t osDelayUntil (uint64_t ticks)
 766:e:\liteos\liteos\components\cmsis\2.0\cmsis_liteos2.c **** {
 1848              		.loc 1 766 0
 1849              		.cfi_startproc
 1850              		@ args = 0, pretend = 0, frame = 0
 1851              		@ frame_needed = 0, uses_anonymous_args = 0
 1852              	.LVL178:
 1853 0000 70B5     		push	{r4, r5, r6, lr}
 1854              	.LCFI28:
 1855              		.cfi_def_cfa_offset 16
 1856              		.cfi_offset 4, -16
 1857              		.cfi_offset 5, -12
 1858              		.cfi_offset 6, -8
 1859              		.cfi_offset 14, -4
 1860 0002 0400     		movs	r4, r0
 1861 0004 0D00     		movs	r5, r1
 767:e:\liteos\liteos\components\cmsis\2.0\cmsis_liteos2.c ****     UINT32 uwRet;
 768:e:\liteos\liteos\components\cmsis\2.0\cmsis_liteos2.c ****     UINT32 uwTicks;
ARM GAS  C:\Users\WANGBI~1\AppData\Local\Temp\ccNVqL5c.s 			page 47


 769:e:\liteos\liteos\components\cmsis\2.0\cmsis_liteos2.c ****     UINT64 tickCount = osKernelGetTickCount();
 1862              		.loc 1 769 0
 1863 0006 FFF7FEFF 		bl	osKernelGetTickCount
 1864              	.LVL179:
 770:e:\liteos\liteos\components\cmsis\2.0\cmsis_liteos2.c **** 
 771:e:\liteos\liteos\components\cmsis\2.0\cmsis_liteos2.c ****     if(ticks < tickCount)
 1865              		.loc 1 771 0
 1866 000a A942     		cmp	r1, r5
 1867 000c 08D8     		bhi	.L186
 1868 000e 01D1     		bne	.L188
 1869 0010 A042     		cmp	r0, r4
 1870 0012 05D8     		bhi	.L186
 1871              	.L188:
 772:e:\liteos\liteos\components\cmsis\2.0\cmsis_liteos2.c ****     {
 773:e:\liteos\liteos\components\cmsis\2.0\cmsis_liteos2.c ****         return osError;
 774:e:\liteos\liteos\components\cmsis\2.0\cmsis_liteos2.c ****     }
 775:e:\liteos\liteos\components\cmsis\2.0\cmsis_liteos2.c **** 
 776:e:\liteos\liteos\components\cmsis\2.0\cmsis_liteos2.c ****     uwTicks = (UINT32)(ticks - tickCount);
 1872              		.loc 1 776 0
 1873 0014 201A     		subs	r0, r4, r0
 1874              	.LVL180:
 777:e:\liteos\liteos\components\cmsis\2.0\cmsis_liteos2.c **** 
 778:e:\liteos\liteos\components\cmsis\2.0\cmsis_liteos2.c ****     uwRet = LOS_TaskDelay(uwTicks);
 1875              		.loc 1 778 0
 1876 0016 FFF7FEFF 		bl	LOS_TaskDelay
 1877              	.LVL181:
 779:e:\liteos\liteos\components\cmsis\2.0\cmsis_liteos2.c ****     if(uwRet == LOS_OK)
 1878              		.loc 1 779 0
 1879 001a 0028     		cmp	r0, #0
 1880 001c 03D1     		bne	.L187
 1881 001e 04E0     		b	.L184
 1882              	.LVL182:
 1883              	.L186:
 773:e:\liteos\liteos\components\cmsis\2.0\cmsis_liteos2.c ****     }
 1884              		.loc 1 773 0
 1885 0020 0120     		movs	r0, #1
 1886              	.LVL183:
 1887 0022 4042     		rsbs	r0, r0, #0
 1888 0024 01E0     		b	.L184
 1889              	.LVL184:
 1890              	.L187:
 780:e:\liteos\liteos\components\cmsis\2.0\cmsis_liteos2.c ****     {
 781:e:\liteos\liteos\components\cmsis\2.0\cmsis_liteos2.c ****         return osOK;
 782:e:\liteos\liteos\components\cmsis\2.0\cmsis_liteos2.c ****     }
 783:e:\liteos\liteos\components\cmsis\2.0\cmsis_liteos2.c ****     else
 784:e:\liteos\liteos\components\cmsis\2.0\cmsis_liteos2.c ****     {
 785:e:\liteos\liteos\components\cmsis\2.0\cmsis_liteos2.c ****         return osError;
 1891              		.loc 1 785 0
 1892 0026 0120     		movs	r0, #1
 1893              	.LVL185:
 1894 0028 4042     		rsbs	r0, r0, #0
 1895              	.L184:
 786:e:\liteos\liteos\components\cmsis\2.0\cmsis_liteos2.c ****     }
 787:e:\liteos\liteos\components\cmsis\2.0\cmsis_liteos2.c **** }
 1896              		.loc 1 787 0
 1897              		@ sp needed
 1898 002a 70BD     		pop	{r4, r5, r6, pc}
ARM GAS  C:\Users\WANGBI~1\AppData\Local\Temp\ccNVqL5c.s 			page 48


 1899              		.cfi_endproc
 1900              	.LFE73:
 1902              		.section	.text.osTimerNew,"ax",%progbits
 1903              		.align	2
 1904              		.global	osTimerNew
 1905              		.code	16
 1906              		.thumb_func
 1908              	osTimerNew:
 1909              	.LFB74:
 788:e:\liteos\liteos\components\cmsis\2.0\cmsis_liteos2.c **** 
 789:e:\liteos\liteos\components\cmsis\2.0\cmsis_liteos2.c **** //  ==== Timer Management Functions ====
 790:e:\liteos\liteos\components\cmsis\2.0\cmsis_liteos2.c **** #if (LOSCFG_BASE_CORE_SWTMR == YES)
 791:e:\liteos\liteos\components\cmsis\2.0\cmsis_liteos2.c **** osTimerId_t osTimerNew (osTimerFunc_t func, osTimerType_t type, void *argument, const osTimerAttr_t
 792:e:\liteos\liteos\components\cmsis\2.0\cmsis_liteos2.c **** {
 1910              		.loc 1 792 0
 1911              		.cfi_startproc
 1912              		@ args = 0, pretend = 0, frame = 8
 1913              		@ frame_needed = 0, uses_anonymous_args = 0
 1914              	.LVL186:
 1915 0000 70B5     		push	{r4, r5, r6, lr}
 1916              	.LCFI29:
 1917              		.cfi_def_cfa_offset 16
 1918              		.cfi_offset 4, -16
 1919              		.cfi_offset 5, -12
 1920              		.cfi_offset 6, -8
 1921              		.cfi_offset 14, -4
 1922 0002 86B0     		sub	sp, sp, #24
 1923              	.LCFI30:
 1924              		.cfi_def_cfa_offset 40
 1925 0004 0400     		movs	r4, r0
 1926 0006 0D00     		movs	r5, r1
 1927 0008 1600     		movs	r6, r2
 793:e:\liteos\liteos\components\cmsis\2.0\cmsis_liteos2.c ****     UNUSED(attr);
 794:e:\liteos\liteos\components\cmsis\2.0\cmsis_liteos2.c ****     UINT16 usSwTmrID;
 795:e:\liteos\liteos\components\cmsis\2.0\cmsis_liteos2.c ****     UINT8 mode;
 796:e:\liteos\liteos\components\cmsis\2.0\cmsis_liteos2.c **** 
 797:e:\liteos\liteos\components\cmsis\2.0\cmsis_liteos2.c ****     if ((OS_INT_ACTIVE) || (NULL == func) ||
 1928              		.loc 1 797 0
 1929 000a FFF7FEFF 		bl	osIntNumGet
 1930              	.LVL187:
 1931 000e 0028     		cmp	r0, #0
 1932 0010 21D1     		bne	.L192
 1933              		.loc 1 797 0 is_stmt 0 discriminator 1
 1934 0012 002C     		cmp	r4, #0
 1935 0014 21D0     		beq	.L193
 1936              		.loc 1 797 0 discriminator 2
 1937 0016 012D     		cmp	r5, #1
 1938 0018 21D8     		bhi	.L194
 798:e:\liteos\liteos\components\cmsis\2.0\cmsis_liteos2.c ****             ((osTimerOnce != type) && (osTimerPeriodic != type)))
 799:e:\liteos\liteos\components\cmsis\2.0\cmsis_liteos2.c ****     {
 800:e:\liteos\liteos\components\cmsis\2.0\cmsis_liteos2.c ****         return (osTimerId_t)NULL;
 801:e:\liteos\liteos\components\cmsis\2.0\cmsis_liteos2.c ****     }
 802:e:\liteos\liteos\components\cmsis\2.0\cmsis_liteos2.c **** 
 803:e:\liteos\liteos\components\cmsis\2.0\cmsis_liteos2.c ****     if(osTimerOnce == type)
 1939              		.loc 1 803 0 is_stmt 1
 1940 001a 002D     		cmp	r5, #0
 1941 001c 01D1     		bne	.L195
ARM GAS  C:\Users\WANGBI~1\AppData\Local\Temp\ccNVqL5c.s 			page 49


 804:e:\liteos\liteos\components\cmsis\2.0\cmsis_liteos2.c ****     {
 805:e:\liteos\liteos\components\cmsis\2.0\cmsis_liteos2.c ****         mode = LOS_SWTMR_MODE_NO_SELFDELETE;
 1942              		.loc 1 805 0
 1943 001e 0221     		movs	r1, #2
 1944 0020 00E0     		b	.L191
 1945              	.L195:
 806:e:\liteos\liteos\components\cmsis\2.0\cmsis_liteos2.c ****     }
 807:e:\liteos\liteos\components\cmsis\2.0\cmsis_liteos2.c ****     else
 808:e:\liteos\liteos\components\cmsis\2.0\cmsis_liteos2.c ****     {
 809:e:\liteos\liteos\components\cmsis\2.0\cmsis_liteos2.c ****         mode = LOS_SWTMR_MODE_PERIOD;
 1946              		.loc 1 809 0
 1947 0022 0121     		movs	r1, #1
 1948              	.L191:
 1949              	.LVL188:
 810:e:\liteos\liteos\components\cmsis\2.0\cmsis_liteos2.c ****     }
 811:e:\liteos\liteos\components\cmsis\2.0\cmsis_liteos2.c **** #if (LOSCFG_BASE_CORE_SWTMR_ALIGN == YES)
 812:e:\liteos\liteos\components\cmsis\2.0\cmsis_liteos2.c ****     if (LOS_OK != LOS_SwtmrCreate(1, mode, (SWTMR_PROC_FUNC)func, &usSwTmrID, (UINT32)argument, OS_
 1950              		.loc 1 812 0
 1951 0024 0023     		movs	r3, #0
 1952 0026 0293     		str	r3, [sp, #8]
 1953 0028 0133     		adds	r3, r3, #1
 1954 002a 0193     		str	r3, [sp, #4]
 1955 002c 0096     		str	r6, [sp]
 1956 002e 1533     		adds	r3, r3, #21
 1957 0030 6B44     		add	r3, r3, sp
 1958 0032 2200     		movs	r2, r4
 1959 0034 0120     		movs	r0, #1
 1960 0036 FFF7FEFF 		bl	LOS_SwtmrCreate
 1961              	.LVL189:
 1962 003a 0028     		cmp	r0, #0
 1963 003c 11D1     		bne	.L196
 813:e:\liteos\liteos\components\cmsis\2.0\cmsis_liteos2.c ****     {
 814:e:\liteos\liteos\components\cmsis\2.0\cmsis_liteos2.c ****         return (osTimerId_t)NULL;
 815:e:\liteos\liteos\components\cmsis\2.0\cmsis_liteos2.c ****     }
 816:e:\liteos\liteos\components\cmsis\2.0\cmsis_liteos2.c **** #else
 817:e:\liteos\liteos\components\cmsis\2.0\cmsis_liteos2.c ****     if (LOS_OK != LOS_SwtmrCreate(1, mode, (SWTMR_PROC_FUNC)func, &usSwTmrID, (UINT32)argument))
 818:e:\liteos\liteos\components\cmsis\2.0\cmsis_liteos2.c ****     {
 819:e:\liteos\liteos\components\cmsis\2.0\cmsis_liteos2.c ****         return (osTimerId_t)NULL;
 820:e:\liteos\liteos\components\cmsis\2.0\cmsis_liteos2.c ****     }
 821:e:\liteos\liteos\components\cmsis\2.0\cmsis_liteos2.c **** #endif
 822:e:\liteos\liteos\components\cmsis\2.0\cmsis_liteos2.c **** 
 823:e:\liteos\liteos\components\cmsis\2.0\cmsis_liteos2.c ****     return (osTimerId_t)OS_SWT_FROM_SID(usSwTmrID);
 1964              		.loc 1 823 0
 1965 003e 1623     		movs	r3, #22
 1966 0040 6B44     		add	r3, r3, sp
 1967 0042 1B88     		ldrh	r3, [r3]
 1968 0044 0F22     		movs	r2, #15
 1969 0046 1A40     		ands	r2, r3
 1970 0048 D300     		lsls	r3, r2, #3
 1971 004a 9A1A     		subs	r2, r3, r2
 1972 004c 9300     		lsls	r3, r2, #2
 1973 004e 064A     		ldr	r2, .L197
 1974 0050 1068     		ldr	r0, [r2]
 1975 0052 C018     		adds	r0, r0, r3
 1976 0054 06E0     		b	.L190
 1977              	.L192:
 800:e:\liteos\liteos\components\cmsis\2.0\cmsis_liteos2.c ****     }
ARM GAS  C:\Users\WANGBI~1\AppData\Local\Temp\ccNVqL5c.s 			page 50


 1978              		.loc 1 800 0
 1979 0056 0020     		movs	r0, #0
 1980 0058 04E0     		b	.L190
 1981              	.L193:
 1982 005a 0020     		movs	r0, #0
 1983 005c 02E0     		b	.L190
 1984              	.L194:
 1985 005e 0020     		movs	r0, #0
 1986 0060 00E0     		b	.L190
 1987              	.L196:
 814:e:\liteos\liteos\components\cmsis\2.0\cmsis_liteos2.c ****     }
 1988              		.loc 1 814 0
 1989 0062 0020     		movs	r0, #0
 1990              	.L190:
 824:e:\liteos\liteos\components\cmsis\2.0\cmsis_liteos2.c **** }
 1991              		.loc 1 824 0
 1992 0064 06B0     		add	sp, sp, #24
 1993              		@ sp needed
 1994              	.LVL190:
 1995              	.LVL191:
 1996 0066 70BD     		pop	{r4, r5, r6, pc}
 1997              	.L198:
 1998              		.align	2
 1999              	.L197:
 2000 0068 00000000 		.word	m_pstSwtmrCBArray
 2001              		.cfi_endproc
 2002              	.LFE74:
 2004              		.section	.text.osTimerStart,"ax",%progbits
 2005              		.align	2
 2006              		.global	osTimerStart
 2007              		.code	16
 2008              		.thumb_func
 2010              	osTimerStart:
 2011              	.LFB75:
 825:e:\liteos\liteos\components\cmsis\2.0\cmsis_liteos2.c **** 
 826:e:\liteos\liteos\components\cmsis\2.0\cmsis_liteos2.c **** 
 827:e:\liteos\liteos\components\cmsis\2.0\cmsis_liteos2.c **** osStatus_t osTimerStart (osTimerId_t timer_id, uint32_t ticks)
 828:e:\liteos\liteos\components\cmsis\2.0\cmsis_liteos2.c **** {
 2012              		.loc 1 828 0
 2013              		.cfi_startproc
 2014              		@ args = 0, pretend = 0, frame = 0
 2015              		@ frame_needed = 0, uses_anonymous_args = 0
 2016              	.LVL192:
 2017 0000 10B5     		push	{r4, lr}
 2018              	.LCFI31:
 2019              		.cfi_def_cfa_offset 8
 2020              		.cfi_offset 4, -8
 2021              		.cfi_offset 14, -4
 2022 0002 0400     		movs	r4, r0
 829:e:\liteos\liteos\components\cmsis\2.0\cmsis_liteos2.c ****     UINT32 uwRet;
 830:e:\liteos\liteos\components\cmsis\2.0\cmsis_liteos2.c ****     SWTMR_CTRL_S *pstSwtmr;
 831:e:\liteos\liteos\components\cmsis\2.0\cmsis_liteos2.c **** 
 832:e:\liteos\liteos\components\cmsis\2.0\cmsis_liteos2.c ****     if ((0 == ticks) || (NULL == timer_id))
 2023              		.loc 1 832 0
 2024 0004 0029     		cmp	r1, #0
 2025 0006 10D0     		beq	.L201
 2026              		.loc 1 832 0 is_stmt 0 discriminator 1
ARM GAS  C:\Users\WANGBI~1\AppData\Local\Temp\ccNVqL5c.s 			page 51


 2027 0008 0028     		cmp	r0, #0
 2028 000a 11D0     		beq	.L202
 2029              	.LVL193:
 833:e:\liteos\liteos\components\cmsis\2.0\cmsis_liteos2.c ****     {
 834:e:\liteos\liteos\components\cmsis\2.0\cmsis_liteos2.c ****         return osErrorParameter;
 835:e:\liteos\liteos\components\cmsis\2.0\cmsis_liteos2.c ****     }
 836:e:\liteos\liteos\components\cmsis\2.0\cmsis_liteos2.c **** 
 837:e:\liteos\liteos\components\cmsis\2.0\cmsis_liteos2.c ****     pstSwtmr = (SWTMR_CTRL_S *)timer_id;
 838:e:\liteos\liteos\components\cmsis\2.0\cmsis_liteos2.c ****     pstSwtmr->uwInterval = LOS_Tick2MS(ticks);
 2030              		.loc 1 838 0 is_stmt 1
 2031 000c 0800     		movs	r0, r1
 2032              	.LVL194:
 2033 000e FFF7FEFF 		bl	LOS_Tick2MS
 2034              	.LVL195:
 2035 0012 2061     		str	r0, [r4, #16]
 839:e:\liteos\liteos\components\cmsis\2.0\cmsis_liteos2.c ****     //pstSwtmr->uwExpiry = LOS_Tick2MS(ticks);
 840:e:\liteos\liteos\components\cmsis\2.0\cmsis_liteos2.c ****     uwRet = LOS_SwtmrStart(pstSwtmr->usTimerID);
 2036              		.loc 1 840 0
 2037 0014 2089     		ldrh	r0, [r4, #8]
 2038 0016 FFF7FEFF 		bl	LOS_SwtmrStart
 2039              	.LVL196:
 841:e:\liteos\liteos\components\cmsis\2.0\cmsis_liteos2.c ****     if (LOS_OK == uwRet)
 2040              		.loc 1 841 0
 2041 001a 0028     		cmp	r0, #0
 2042 001c 0BD0     		beq	.L203
 842:e:\liteos\liteos\components\cmsis\2.0\cmsis_liteos2.c ****     {
 843:e:\liteos\liteos\components\cmsis\2.0\cmsis_liteos2.c ****         return osOK;
 844:e:\liteos\liteos\components\cmsis\2.0\cmsis_liteos2.c ****     }
 845:e:\liteos\liteos\components\cmsis\2.0\cmsis_liteos2.c ****     else if (LOS_ERRNO_SWTMR_ID_INVALID == uwRet)
 2043              		.loc 1 845 0
 2044 001e 084B     		ldr	r3, .L205
 2045 0020 9842     		cmp	r0, r3
 2046 0022 0AD1     		bne	.L204
 846:e:\liteos\liteos\components\cmsis\2.0\cmsis_liteos2.c ****     {
 847:e:\liteos\liteos\components\cmsis\2.0\cmsis_liteos2.c ****         return osErrorParameter;
 2047              		.loc 1 847 0
 2048 0024 0420     		movs	r0, #4
 2049              	.LVL197:
 2050 0026 4042     		rsbs	r0, r0, #0
 2051 0028 09E0     		b	.L200
 2052              	.LVL198:
 2053              	.L201:
 834:e:\liteos\liteos\components\cmsis\2.0\cmsis_liteos2.c ****     }
 2054              		.loc 1 834 0
 2055 002a 0420     		movs	r0, #4
 2056              	.LVL199:
 2057 002c 4042     		rsbs	r0, r0, #0
 2058 002e 06E0     		b	.L200
 2059              	.LVL200:
 2060              	.L202:
 2061 0030 0420     		movs	r0, #4
 2062              	.LVL201:
 2063 0032 4042     		rsbs	r0, r0, #0
 2064 0034 03E0     		b	.L200
 2065              	.LVL202:
 2066              	.L203:
 843:e:\liteos\liteos\components\cmsis\2.0\cmsis_liteos2.c ****     }
ARM GAS  C:\Users\WANGBI~1\AppData\Local\Temp\ccNVqL5c.s 			page 52


 2067              		.loc 1 843 0
 2068 0036 0020     		movs	r0, #0
 2069              	.LVL203:
 2070 0038 01E0     		b	.L200
 2071              	.LVL204:
 2072              	.L204:
 848:e:\liteos\liteos\components\cmsis\2.0\cmsis_liteos2.c ****     }
 849:e:\liteos\liteos\components\cmsis\2.0\cmsis_liteos2.c ****     else
 850:e:\liteos\liteos\components\cmsis\2.0\cmsis_liteos2.c ****     {
 851:e:\liteos\liteos\components\cmsis\2.0\cmsis_liteos2.c ****         return osErrorResource;
 2073              		.loc 1 851 0
 2074 003a 0320     		movs	r0, #3
 2075              	.LVL205:
 2076 003c 4042     		rsbs	r0, r0, #0
 2077              	.LVL206:
 2078              	.L200:
 852:e:\liteos\liteos\components\cmsis\2.0\cmsis_liteos2.c ****     }
 853:e:\liteos\liteos\components\cmsis\2.0\cmsis_liteos2.c **** }
 2079              		.loc 1 853 0
 2080              		@ sp needed
 2081              	.LVL207:
 2082 003e 10BD     		pop	{r4, pc}
 2083              	.L206:
 2084              		.align	2
 2085              	.L205:
 2086 0040 05030002 		.word	33555205
 2087              		.cfi_endproc
 2088              	.LFE75:
 2090              		.section	.text.osTimerGetName,"ax",%progbits
 2091              		.align	2
 2092              		.global	osTimerGetName
 2093              		.code	16
 2094              		.thumb_func
 2096              	osTimerGetName:
 2097              	.LFB76:
 854:e:\liteos\liteos\components\cmsis\2.0\cmsis_liteos2.c **** 
 855:e:\liteos\liteos\components\cmsis\2.0\cmsis_liteos2.c **** 
 856:e:\liteos\liteos\components\cmsis\2.0\cmsis_liteos2.c **** const char *osTimerGetName(osTimerId_t timer_id)
 857:e:\liteos\liteos\components\cmsis\2.0\cmsis_liteos2.c **** {
 2098              		.loc 1 857 0
 2099              		.cfi_startproc
 2100              		@ args = 0, pretend = 0, frame = 0
 2101              		@ frame_needed = 0, uses_anonymous_args = 0
 2102              		@ link register save eliminated.
 2103              	.LVL208:
 858:e:\liteos\liteos\components\cmsis\2.0\cmsis_liteos2.c ****     UNUSED(timer_id);
 859:e:\liteos\liteos\components\cmsis\2.0\cmsis_liteos2.c ****     return (const char *)NULL;
 860:e:\liteos\liteos\components\cmsis\2.0\cmsis_liteos2.c **** }
 2104              		.loc 1 860 0
 2105 0000 0020     		movs	r0, #0
 2106              	.LVL209:
 2107              		@ sp needed
 2108 0002 7047     		bx	lr
 2109              		.cfi_endproc
 2110              	.LFE76:
 2112              		.section	.text.osTimerStop,"ax",%progbits
 2113              		.align	2
ARM GAS  C:\Users\WANGBI~1\AppData\Local\Temp\ccNVqL5c.s 			page 53


 2114              		.global	osTimerStop
 2115              		.code	16
 2116              		.thumb_func
 2118              	osTimerStop:
 2119              	.LFB77:
 861:e:\liteos\liteos\components\cmsis\2.0\cmsis_liteos2.c **** 
 862:e:\liteos\liteos\components\cmsis\2.0\cmsis_liteos2.c **** 
 863:e:\liteos\liteos\components\cmsis\2.0\cmsis_liteos2.c **** osStatus_t osTimerStop (osTimerId_t timer_id)
 864:e:\liteos\liteos\components\cmsis\2.0\cmsis_liteos2.c **** {
 2120              		.loc 1 864 0
 2121              		.cfi_startproc
 2122              		@ args = 0, pretend = 0, frame = 0
 2123              		@ frame_needed = 0, uses_anonymous_args = 0
 2124              	.LVL210:
 2125 0000 10B5     		push	{r4, lr}
 2126              	.LCFI32:
 2127              		.cfi_def_cfa_offset 8
 2128              		.cfi_offset 4, -8
 2129              		.cfi_offset 14, -4
 2130 0002 0400     		movs	r4, r0
 2131              	.LVL211:
 865:e:\liteos\liteos\components\cmsis\2.0\cmsis_liteos2.c ****     UINT32 uwRet;
 866:e:\liteos\liteos\components\cmsis\2.0\cmsis_liteos2.c ****     SWTMR_CTRL_S *pstSwtmr = (SWTMR_CTRL_S *)timer_id;
 867:e:\liteos\liteos\components\cmsis\2.0\cmsis_liteos2.c **** 
 868:e:\liteos\liteos\components\cmsis\2.0\cmsis_liteos2.c ****     if (OS_INT_ACTIVE)
 2132              		.loc 1 868 0
 2133 0004 FFF7FEFF 		bl	osIntNumGet
 2134              	.LVL212:
 2135 0008 0028     		cmp	r0, #0
 2136 000a 0CD1     		bne	.L210
 869:e:\liteos\liteos\components\cmsis\2.0\cmsis_liteos2.c ****     {
 870:e:\liteos\liteos\components\cmsis\2.0\cmsis_liteos2.c ****         return osErrorISR;
 871:e:\liteos\liteos\components\cmsis\2.0\cmsis_liteos2.c ****     }
 872:e:\liteos\liteos\components\cmsis\2.0\cmsis_liteos2.c **** 
 873:e:\liteos\liteos\components\cmsis\2.0\cmsis_liteos2.c ****     if (NULL == pstSwtmr)
 2137              		.loc 1 873 0
 2138 000c 002C     		cmp	r4, #0
 2139 000e 0DD0     		beq	.L211
 874:e:\liteos\liteos\components\cmsis\2.0\cmsis_liteos2.c ****     {
 875:e:\liteos\liteos\components\cmsis\2.0\cmsis_liteos2.c ****         return osErrorParameter;
 876:e:\liteos\liteos\components\cmsis\2.0\cmsis_liteos2.c ****     }
 877:e:\liteos\liteos\components\cmsis\2.0\cmsis_liteos2.c **** 
 878:e:\liteos\liteos\components\cmsis\2.0\cmsis_liteos2.c ****     uwRet = LOS_SwtmrStop(pstSwtmr->usTimerID);
 2140              		.loc 1 878 0
 2141 0010 2089     		ldrh	r0, [r4, #8]
 2142 0012 FFF7FEFF 		bl	LOS_SwtmrStop
 2143              	.LVL213:
 879:e:\liteos\liteos\components\cmsis\2.0\cmsis_liteos2.c ****     if (LOS_OK == uwRet)
 2144              		.loc 1 879 0
 2145 0016 0028     		cmp	r0, #0
 2146 0018 0BD0     		beq	.L212
 880:e:\liteos\liteos\components\cmsis\2.0\cmsis_liteos2.c ****     {
 881:e:\liteos\liteos\components\cmsis\2.0\cmsis_liteos2.c ****         return osOK;
 882:e:\liteos\liteos\components\cmsis\2.0\cmsis_liteos2.c ****     }
 883:e:\liteos\liteos\components\cmsis\2.0\cmsis_liteos2.c ****     else if (LOS_ERRNO_SWTMR_ID_INVALID == uwRet)
 2147              		.loc 1 883 0
 2148 001a 084B     		ldr	r3, .L214
ARM GAS  C:\Users\WANGBI~1\AppData\Local\Temp\ccNVqL5c.s 			page 54


 2149 001c 9842     		cmp	r0, r3
 2150 001e 0AD1     		bne	.L213
 884:e:\liteos\liteos\components\cmsis\2.0\cmsis_liteos2.c ****     {
 885:e:\liteos\liteos\components\cmsis\2.0\cmsis_liteos2.c ****         return osErrorParameter;
 2151              		.loc 1 885 0
 2152 0020 0420     		movs	r0, #4
 2153              	.LVL214:
 2154 0022 4042     		rsbs	r0, r0, #0
 2155 0024 09E0     		b	.L209
 2156              	.L210:
 870:e:\liteos\liteos\components\cmsis\2.0\cmsis_liteos2.c ****     }
 2157              		.loc 1 870 0
 2158 0026 0620     		movs	r0, #6
 2159 0028 4042     		rsbs	r0, r0, #0
 2160 002a 06E0     		b	.L209
 2161              	.L211:
 875:e:\liteos\liteos\components\cmsis\2.0\cmsis_liteos2.c ****     }
 2162              		.loc 1 875 0
 2163 002c 0420     		movs	r0, #4
 2164 002e 4042     		rsbs	r0, r0, #0
 2165 0030 03E0     		b	.L209
 2166              	.LVL215:
 2167              	.L212:
 881:e:\liteos\liteos\components\cmsis\2.0\cmsis_liteos2.c ****     }
 2168              		.loc 1 881 0
 2169 0032 0020     		movs	r0, #0
 2170              	.LVL216:
 2171 0034 01E0     		b	.L209
 2172              	.LVL217:
 2173              	.L213:
 886:e:\liteos\liteos\components\cmsis\2.0\cmsis_liteos2.c ****     }
 887:e:\liteos\liteos\components\cmsis\2.0\cmsis_liteos2.c ****     else
 888:e:\liteos\liteos\components\cmsis\2.0\cmsis_liteos2.c ****     {
 889:e:\liteos\liteos\components\cmsis\2.0\cmsis_liteos2.c ****         return osErrorResource;
 2174              		.loc 1 889 0
 2175 0036 0320     		movs	r0, #3
 2176              	.LVL218:
 2177 0038 4042     		rsbs	r0, r0, #0
 2178              	.L209:
 890:e:\liteos\liteos\components\cmsis\2.0\cmsis_liteos2.c ****     }
 891:e:\liteos\liteos\components\cmsis\2.0\cmsis_liteos2.c **** }
 2179              		.loc 1 891 0
 2180              		@ sp needed
 2181              	.LVL219:
 2182 003a 10BD     		pop	{r4, pc}
 2183              	.L215:
 2184              		.align	2
 2185              	.L214:
 2186 003c 05030002 		.word	33555205
 2187              		.cfi_endproc
 2188              	.LFE77:
 2190              		.section	.text.osTimerIsRunning,"ax",%progbits
 2191              		.align	2
 2192              		.global	osTimerIsRunning
 2193              		.code	16
 2194              		.thumb_func
 2196              	osTimerIsRunning:
ARM GAS  C:\Users\WANGBI~1\AppData\Local\Temp\ccNVqL5c.s 			page 55


 2197              	.LFB78:
 892:e:\liteos\liteos\components\cmsis\2.0\cmsis_liteos2.c **** 
 893:e:\liteos\liteos\components\cmsis\2.0\cmsis_liteos2.c **** 
 894:e:\liteos\liteos\components\cmsis\2.0\cmsis_liteos2.c **** uint32_t osTimerIsRunning (osTimerId_t timer_id)
 895:e:\liteos\liteos\components\cmsis\2.0\cmsis_liteos2.c **** {
 2198              		.loc 1 895 0
 2199              		.cfi_startproc
 2200              		@ args = 0, pretend = 0, frame = 0
 2201              		@ frame_needed = 0, uses_anonymous_args = 0
 2202              	.LVL220:
 2203 0000 10B5     		push	{r4, lr}
 2204              	.LCFI33:
 2205              		.cfi_def_cfa_offset 8
 2206              		.cfi_offset 4, -8
 2207              		.cfi_offset 14, -4
 2208 0002 0400     		movs	r4, r0
 896:e:\liteos\liteos\components\cmsis\2.0\cmsis_liteos2.c ****     if ((OS_INT_ACTIVE) || (NULL == timer_id))
 2209              		.loc 1 896 0
 2210 0004 FFF7FEFF 		bl	osIntNumGet
 2211              	.LVL221:
 2212 0008 0028     		cmp	r0, #0
 2213 000a 07D1     		bne	.L218
 2214              		.loc 1 896 0 is_stmt 0 discriminator 1
 2215 000c 002C     		cmp	r4, #0
 2216 000e 07D0     		beq	.L219
 897:e:\liteos\liteos\components\cmsis\2.0\cmsis_liteos2.c ****     {
 898:e:\liteos\liteos\components\cmsis\2.0\cmsis_liteos2.c ****         return 0;
 899:e:\liteos\liteos\components\cmsis\2.0\cmsis_liteos2.c ****     }
 900:e:\liteos\liteos\components\cmsis\2.0\cmsis_liteos2.c **** 
 901:e:\liteos\liteos\components\cmsis\2.0\cmsis_liteos2.c ****     return (OS_SWTMR_STATUS_TICKING == ((SWTMR_CTRL_S *)timer_id)->ucState);
 2217              		.loc 1 901 0 is_stmt 1
 2218 0010 2079     		ldrb	r0, [r4, #4]
 2219 0012 0238     		subs	r0, r0, #2
 2220 0014 4342     		rsbs	r3, r0, #0
 2221 0016 5841     		adcs	r0, r0, r3
 2222 0018 C0B2     		uxtb	r0, r0
 2223 001a 02E0     		b	.L217
 2224              	.L218:
 898:e:\liteos\liteos\components\cmsis\2.0\cmsis_liteos2.c ****     }
 2225              		.loc 1 898 0
 2226 001c 0020     		movs	r0, #0
 2227 001e 00E0     		b	.L217
 2228              	.L219:
 2229 0020 0020     		movs	r0, #0
 2230              	.L217:
 902:e:\liteos\liteos\components\cmsis\2.0\cmsis_liteos2.c **** }
 2231              		.loc 1 902 0
 2232              		@ sp needed
 2233              	.LVL222:
 2234 0022 10BD     		pop	{r4, pc}
 2235              		.cfi_endproc
 2236              	.LFE78:
 2238              		.section	.text.osTimerDelete,"ax",%progbits
 2239              		.align	2
 2240              		.global	osTimerDelete
 2241              		.code	16
 2242              		.thumb_func
ARM GAS  C:\Users\WANGBI~1\AppData\Local\Temp\ccNVqL5c.s 			page 56


 2244              	osTimerDelete:
 2245              	.LFB79:
 903:e:\liteos\liteos\components\cmsis\2.0\cmsis_liteos2.c **** 
 904:e:\liteos\liteos\components\cmsis\2.0\cmsis_liteos2.c **** 
 905:e:\liteos\liteos\components\cmsis\2.0\cmsis_liteos2.c **** osStatus_t osTimerDelete (osTimerId_t timer_id)
 906:e:\liteos\liteos\components\cmsis\2.0\cmsis_liteos2.c **** {
 2246              		.loc 1 906 0
 2247              		.cfi_startproc
 2248              		@ args = 0, pretend = 0, frame = 0
 2249              		@ frame_needed = 0, uses_anonymous_args = 0
 2250              	.LVL223:
 2251 0000 10B5     		push	{r4, lr}
 2252              	.LCFI34:
 2253              		.cfi_def_cfa_offset 8
 2254              		.cfi_offset 4, -8
 2255              		.cfi_offset 14, -4
 2256 0002 0400     		movs	r4, r0
 2257              	.LVL224:
 907:e:\liteos\liteos\components\cmsis\2.0\cmsis_liteos2.c ****     UINT32 uwRet;
 908:e:\liteos\liteos\components\cmsis\2.0\cmsis_liteos2.c ****     SWTMR_CTRL_S  *pstSwtmr = (SWTMR_CTRL_S *)timer_id;
 909:e:\liteos\liteos\components\cmsis\2.0\cmsis_liteos2.c **** 
 910:e:\liteos\liteos\components\cmsis\2.0\cmsis_liteos2.c ****     if (OS_INT_ACTIVE)
 2258              		.loc 1 910 0
 2259 0004 FFF7FEFF 		bl	osIntNumGet
 2260              	.LVL225:
 2261 0008 0028     		cmp	r0, #0
 2262 000a 0CD1     		bne	.L222
 911:e:\liteos\liteos\components\cmsis\2.0\cmsis_liteos2.c ****     {
 912:e:\liteos\liteos\components\cmsis\2.0\cmsis_liteos2.c ****         return osErrorISR;
 913:e:\liteos\liteos\components\cmsis\2.0\cmsis_liteos2.c ****     }
 914:e:\liteos\liteos\components\cmsis\2.0\cmsis_liteos2.c **** 
 915:e:\liteos\liteos\components\cmsis\2.0\cmsis_liteos2.c ****     if (NULL == pstSwtmr)
 2263              		.loc 1 915 0
 2264 000c 002C     		cmp	r4, #0
 2265 000e 0DD0     		beq	.L223
 916:e:\liteos\liteos\components\cmsis\2.0\cmsis_liteos2.c ****     {
 917:e:\liteos\liteos\components\cmsis\2.0\cmsis_liteos2.c ****         return osErrorParameter;
 918:e:\liteos\liteos\components\cmsis\2.0\cmsis_liteos2.c ****     }
 919:e:\liteos\liteos\components\cmsis\2.0\cmsis_liteos2.c **** 
 920:e:\liteos\liteos\components\cmsis\2.0\cmsis_liteos2.c ****     uwRet = LOS_SwtmrDelete(pstSwtmr->usTimerID);
 2266              		.loc 1 920 0
 2267 0010 2089     		ldrh	r0, [r4, #8]
 2268 0012 FFF7FEFF 		bl	LOS_SwtmrDelete
 2269              	.LVL226:
 921:e:\liteos\liteos\components\cmsis\2.0\cmsis_liteos2.c ****     if (LOS_OK == uwRet)
 2270              		.loc 1 921 0
 2271 0016 0028     		cmp	r0, #0
 2272 0018 0BD0     		beq	.L224
 922:e:\liteos\liteos\components\cmsis\2.0\cmsis_liteos2.c ****     {
 923:e:\liteos\liteos\components\cmsis\2.0\cmsis_liteos2.c ****         return osOK;
 924:e:\liteos\liteos\components\cmsis\2.0\cmsis_liteos2.c ****     }
 925:e:\liteos\liteos\components\cmsis\2.0\cmsis_liteos2.c ****     else if (LOS_ERRNO_SWTMR_ID_INVALID == uwRet)
 2273              		.loc 1 925 0
 2274 001a 084B     		ldr	r3, .L226
 2275 001c 9842     		cmp	r0, r3
 2276 001e 0AD1     		bne	.L225
 926:e:\liteos\liteos\components\cmsis\2.0\cmsis_liteos2.c ****     {
ARM GAS  C:\Users\WANGBI~1\AppData\Local\Temp\ccNVqL5c.s 			page 57


 927:e:\liteos\liteos\components\cmsis\2.0\cmsis_liteos2.c ****         return osErrorParameter;
 2277              		.loc 1 927 0
 2278 0020 0420     		movs	r0, #4
 2279              	.LVL227:
 2280 0022 4042     		rsbs	r0, r0, #0
 2281 0024 09E0     		b	.L221
 2282              	.L222:
 912:e:\liteos\liteos\components\cmsis\2.0\cmsis_liteos2.c ****     }
 2283              		.loc 1 912 0
 2284 0026 0620     		movs	r0, #6
 2285 0028 4042     		rsbs	r0, r0, #0
 2286 002a 06E0     		b	.L221
 2287              	.L223:
 917:e:\liteos\liteos\components\cmsis\2.0\cmsis_liteos2.c ****     }
 2288              		.loc 1 917 0
 2289 002c 0420     		movs	r0, #4
 2290 002e 4042     		rsbs	r0, r0, #0
 2291 0030 03E0     		b	.L221
 2292              	.LVL228:
 2293              	.L224:
 923:e:\liteos\liteos\components\cmsis\2.0\cmsis_liteos2.c ****     }
 2294              		.loc 1 923 0
 2295 0032 0020     		movs	r0, #0
 2296              	.LVL229:
 2297 0034 01E0     		b	.L221
 2298              	.LVL230:
 2299              	.L225:
 928:e:\liteos\liteos\components\cmsis\2.0\cmsis_liteos2.c ****     }
 929:e:\liteos\liteos\components\cmsis\2.0\cmsis_liteos2.c ****     else
 930:e:\liteos\liteos\components\cmsis\2.0\cmsis_liteos2.c ****     {
 931:e:\liteos\liteos\components\cmsis\2.0\cmsis_liteos2.c ****         return osErrorResource;
 2300              		.loc 1 931 0
 2301 0036 0320     		movs	r0, #3
 2302              	.LVL231:
 2303 0038 4042     		rsbs	r0, r0, #0
 2304              	.L221:
 932:e:\liteos\liteos\components\cmsis\2.0\cmsis_liteos2.c ****     }
 933:e:\liteos\liteos\components\cmsis\2.0\cmsis_liteos2.c **** }
 2305              		.loc 1 933 0
 2306              		@ sp needed
 2307              	.LVL232:
 2308 003a 10BD     		pop	{r4, pc}
 2309              	.L227:
 2310              		.align	2
 2311              	.L226:
 2312 003c 05030002 		.word	33555205
 2313              		.cfi_endproc
 2314              	.LFE79:
 2316              		.section	.text.osEventFlagsNew,"ax",%progbits
 2317              		.align	2
 2318              		.global	osEventFlagsNew
 2319              		.code	16
 2320              		.thumb_func
 2322              	osEventFlagsNew:
 2323              	.LFB80:
 934:e:\liteos\liteos\components\cmsis\2.0\cmsis_liteos2.c **** #endif
 935:e:\liteos\liteos\components\cmsis\2.0\cmsis_liteos2.c **** 
ARM GAS  C:\Users\WANGBI~1\AppData\Local\Temp\ccNVqL5c.s 			page 58


 936:e:\liteos\liteos\components\cmsis\2.0\cmsis_liteos2.c **** osEventFlagsId_t osEventFlagsNew (const osEventFlagsAttr_t *attr)
 937:e:\liteos\liteos\components\cmsis\2.0\cmsis_liteos2.c **** {
 2324              		.loc 1 937 0
 2325              		.cfi_startproc
 2326              		@ args = 0, pretend = 0, frame = 0
 2327              		@ frame_needed = 0, uses_anonymous_args = 0
 2328              	.LVL233:
 2329 0000 10B5     		push	{r4, lr}
 2330              	.LCFI35:
 2331              		.cfi_def_cfa_offset 8
 2332              		.cfi_offset 4, -8
 2333              		.cfi_offset 14, -4
 2334              	.LVL234:
 938:e:\liteos\liteos\components\cmsis\2.0\cmsis_liteos2.c ****     PEVENT_CB_S pstEventCB = NULL;
 939:e:\liteos\liteos\components\cmsis\2.0\cmsis_liteos2.c ****     UINT32 uwRet;
 940:e:\liteos\liteos\components\cmsis\2.0\cmsis_liteos2.c **** 
 941:e:\liteos\liteos\components\cmsis\2.0\cmsis_liteos2.c ****     UNUSED(attr);
 942:e:\liteos\liteos\components\cmsis\2.0\cmsis_liteos2.c **** 
 943:e:\liteos\liteos\components\cmsis\2.0\cmsis_liteos2.c ****     if (OS_INT_ACTIVE)
 2335              		.loc 1 943 0
 2336 0002 FFF7FEFF 		bl	osIntNumGet
 2337              	.LVL235:
 2338 0006 0028     		cmp	r0, #0
 2339 0008 0DD1     		bne	.L230
 944:e:\liteos\liteos\components\cmsis\2.0\cmsis_liteos2.c ****     {
 945:e:\liteos\liteos\components\cmsis\2.0\cmsis_liteos2.c ****         return (osEventFlagsId_t)NULL;
 946:e:\liteos\liteos\components\cmsis\2.0\cmsis_liteos2.c ****     }
 947:e:\liteos\liteos\components\cmsis\2.0\cmsis_liteos2.c **** 
 948:e:\liteos\liteos\components\cmsis\2.0\cmsis_liteos2.c ****     pstEventCB = (PEVENT_CB_S)LOS_MemAlloc(m_aucSysMem0, sizeof(EVENT_CB_S));
 2340              		.loc 1 948 0
 2341 000a 0A4B     		ldr	r3, .L233
 2342 000c 1868     		ldr	r0, [r3]
 2343 000e 0C21     		movs	r1, #12
 2344 0010 FFF7FEFF 		bl	LOS_MemAlloc
 2345              	.LVL236:
 2346 0014 041E     		subs	r4, r0, #0
 2347              	.LVL237:
 949:e:\liteos\liteos\components\cmsis\2.0\cmsis_liteos2.c ****     if(pstEventCB == NULL )
 2348              		.loc 1 949 0
 2349 0016 08D0     		beq	.L231
 950:e:\liteos\liteos\components\cmsis\2.0\cmsis_liteos2.c ****     {
 951:e:\liteos\liteos\components\cmsis\2.0\cmsis_liteos2.c ****         return (osEventFlagsId_t)NULL;
 952:e:\liteos\liteos\components\cmsis\2.0\cmsis_liteos2.c ****     }
 953:e:\liteos\liteos\components\cmsis\2.0\cmsis_liteos2.c **** 
 954:e:\liteos\liteos\components\cmsis\2.0\cmsis_liteos2.c ****     uwRet = LOS_EventInit(pstEventCB);
 2350              		.loc 1 954 0
 2351 0018 FFF7FEFF 		bl	LOS_EventInit
 2352              	.LVL238:
 955:e:\liteos\liteos\components\cmsis\2.0\cmsis_liteos2.c ****     if (uwRet == LOS_ERRNO_EVENT_PTR_NULL)
 2353              		.loc 1 955 0
 2354 001c 064B     		ldr	r3, .L233+4
 2355 001e 9842     		cmp	r0, r3
 2356 0020 05D1     		bne	.L232
 956:e:\liteos\liteos\components\cmsis\2.0\cmsis_liteos2.c ****     {
 957:e:\liteos\liteos\components\cmsis\2.0\cmsis_liteos2.c ****         return (osEventFlagsId_t)NULL;
 2357              		.loc 1 957 0
 2358 0022 0020     		movs	r0, #0
ARM GAS  C:\Users\WANGBI~1\AppData\Local\Temp\ccNVqL5c.s 			page 59


 2359              	.LVL239:
 2360 0024 04E0     		b	.L229
 2361              	.LVL240:
 2362              	.L230:
 945:e:\liteos\liteos\components\cmsis\2.0\cmsis_liteos2.c ****     }
 2363              		.loc 1 945 0
 2364 0026 0020     		movs	r0, #0
 2365 0028 02E0     		b	.L229
 2366              	.LVL241:
 2367              	.L231:
 951:e:\liteos\liteos\components\cmsis\2.0\cmsis_liteos2.c ****     }
 2368              		.loc 1 951 0
 2369 002a 0020     		movs	r0, #0
 2370              	.LVL242:
 2371 002c 00E0     		b	.L229
 2372              	.LVL243:
 2373              	.L232:
 958:e:\liteos\liteos\components\cmsis\2.0\cmsis_liteos2.c ****     }
 959:e:\liteos\liteos\components\cmsis\2.0\cmsis_liteos2.c ****     else
 960:e:\liteos\liteos\components\cmsis\2.0\cmsis_liteos2.c ****     {
 961:e:\liteos\liteos\components\cmsis\2.0\cmsis_liteos2.c ****         return (osEventFlagsId_t)pstEventCB;
 2374              		.loc 1 961 0
 2375 002e 2000     		movs	r0, r4
 2376              	.LVL244:
 2377              	.L229:
 962:e:\liteos\liteos\components\cmsis\2.0\cmsis_liteos2.c ****     }
 963:e:\liteos\liteos\components\cmsis\2.0\cmsis_liteos2.c **** }
 2378              		.loc 1 963 0
 2379              		@ sp needed
 2380 0030 10BD     		pop	{r4, pc}
 2381              	.L234:
 2382 0032 C046     		.align	2
 2383              	.L233:
 2384 0034 00000000 		.word	m_aucSysMem0
 2385 0038 061C0002 		.word	33561606
 2386              		.cfi_endproc
 2387              	.LFE80:
 2389              		.section	.text.osEventFlagsGetName,"ax",%progbits
 2390              		.align	2
 2391              		.global	osEventFlagsGetName
 2392              		.code	16
 2393              		.thumb_func
 2395              	osEventFlagsGetName:
 2396              	.LFB81:
 964:e:\liteos\liteos\components\cmsis\2.0\cmsis_liteos2.c **** 
 965:e:\liteos\liteos\components\cmsis\2.0\cmsis_liteos2.c **** 
 966:e:\liteos\liteos\components\cmsis\2.0\cmsis_liteos2.c **** const char *osEventFlagsGetName (osEventFlagsId_t ef_id)
 967:e:\liteos\liteos\components\cmsis\2.0\cmsis_liteos2.c **** {
 2397              		.loc 1 967 0
 2398              		.cfi_startproc
 2399              		@ args = 0, pretend = 0, frame = 0
 2400              		@ frame_needed = 0, uses_anonymous_args = 0
 2401              	.LVL245:
 2402 0000 10B5     		push	{r4, lr}
 2403              	.LCFI36:
 2404              		.cfi_def_cfa_offset 8
 2405              		.cfi_offset 4, -8
ARM GAS  C:\Users\WANGBI~1\AppData\Local\Temp\ccNVqL5c.s 			page 60


 2406              		.cfi_offset 14, -4
 968:e:\liteos\liteos\components\cmsis\2.0\cmsis_liteos2.c ****     UNUSED(ef_id);
 969:e:\liteos\liteos\components\cmsis\2.0\cmsis_liteos2.c **** 
 970:e:\liteos\liteos\components\cmsis\2.0\cmsis_liteos2.c ****     if (OS_INT_ACTIVE)
 2407              		.loc 1 970 0
 2408 0002 FFF7FEFF 		bl	osIntNumGet
 2409              	.LVL246:
 971:e:\liteos\liteos\components\cmsis\2.0\cmsis_liteos2.c ****     {
 972:e:\liteos\liteos\components\cmsis\2.0\cmsis_liteos2.c ****         return (const char *)NULL;
 973:e:\liteos\liteos\components\cmsis\2.0\cmsis_liteos2.c ****     }
 974:e:\liteos\liteos\components\cmsis\2.0\cmsis_liteos2.c **** 
 975:e:\liteos\liteos\components\cmsis\2.0\cmsis_liteos2.c ****     return (const char *)NULL;
 976:e:\liteos\liteos\components\cmsis\2.0\cmsis_liteos2.c **** }
 2410              		.loc 1 976 0
 2411 0006 0020     		movs	r0, #0
 2412              		@ sp needed
 2413 0008 10BD     		pop	{r4, pc}
 2414              		.cfi_endproc
 2415              	.LFE81:
 2417 000a C046     		.section	.text.osEventFlagsSet,"ax",%progbits
 2418              		.align	2
 2419              		.global	osEventFlagsSet
 2420              		.code	16
 2421              		.thumb_func
 2423              	osEventFlagsSet:
 2424              	.LFB82:
 977:e:\liteos\liteos\components\cmsis\2.0\cmsis_liteos2.c **** 
 978:e:\liteos\liteos\components\cmsis\2.0\cmsis_liteos2.c **** 
 979:e:\liteos\liteos\components\cmsis\2.0\cmsis_liteos2.c **** uint32_t osEventFlagsSet (osEventFlagsId_t ef_id, uint32_t flags)
 980:e:\liteos\liteos\components\cmsis\2.0\cmsis_liteos2.c **** {
 2425              		.loc 1 980 0
 2426              		.cfi_startproc
 2427              		@ args = 0, pretend = 0, frame = 0
 2428              		@ frame_needed = 0, uses_anonymous_args = 0
 2429              	.LVL247:
 2430 0000 10B5     		push	{r4, lr}
 2431              	.LCFI37:
 2432              		.cfi_def_cfa_offset 8
 2433              		.cfi_offset 4, -8
 2434              		.cfi_offset 14, -4
 2435 0002 0400     		movs	r4, r0
 2436              	.LVL248:
 981:e:\liteos\liteos\components\cmsis\2.0\cmsis_liteos2.c ****     PEVENT_CB_S pstEventCB = (PEVENT_CB_S)ef_id;
 982:e:\liteos\liteos\components\cmsis\2.0\cmsis_liteos2.c ****     UINT32 uwRet;
 983:e:\liteos\liteos\components\cmsis\2.0\cmsis_liteos2.c ****     uint32_t rflags;
 984:e:\liteos\liteos\components\cmsis\2.0\cmsis_liteos2.c **** 
 985:e:\liteos\liteos\components\cmsis\2.0\cmsis_liteos2.c ****     uwRet = LOS_EventWrite(pstEventCB, (UINT32)flags);
 2437              		.loc 1 985 0
 2438 0004 FFF7FEFF 		bl	LOS_EventWrite
 2439              	.LVL249:
 986:e:\liteos\liteos\components\cmsis\2.0\cmsis_liteos2.c ****     if (uwRet != LOS_OK)
 2440              		.loc 1 986 0
 2441 0008 0028     		cmp	r0, #0
 2442 000a 01D1     		bne	.L238
 987:e:\liteos\liteos\components\cmsis\2.0\cmsis_liteos2.c ****     {
 988:e:\liteos\liteos\components\cmsis\2.0\cmsis_liteos2.c ****         return (uint32_t)osFlagsErrorParameter;
 989:e:\liteos\liteos\components\cmsis\2.0\cmsis_liteos2.c ****     }
ARM GAS  C:\Users\WANGBI~1\AppData\Local\Temp\ccNVqL5c.s 			page 61


 990:e:\liteos\liteos\components\cmsis\2.0\cmsis_liteos2.c ****     else
 991:e:\liteos\liteos\components\cmsis\2.0\cmsis_liteos2.c ****     {
 992:e:\liteos\liteos\components\cmsis\2.0\cmsis_liteos2.c ****         rflags = pstEventCB->uwEventID;
 2443              		.loc 1 992 0
 2444 000c 2068     		ldr	r0, [r4]
 2445              	.LVL250:
 993:e:\liteos\liteos\components\cmsis\2.0\cmsis_liteos2.c ****         return rflags;
 2446              		.loc 1 993 0
 2447 000e 01E0     		b	.L237
 2448              	.LVL251:
 2449              	.L238:
 988:e:\liteos\liteos\components\cmsis\2.0\cmsis_liteos2.c ****     }
 2450              		.loc 1 988 0
 2451 0010 0420     		movs	r0, #4
 2452              	.LVL252:
 2453 0012 4042     		rsbs	r0, r0, #0
 2454              	.L237:
 994:e:\liteos\liteos\components\cmsis\2.0\cmsis_liteos2.c ****     }
 995:e:\liteos\liteos\components\cmsis\2.0\cmsis_liteos2.c **** }
 2455              		.loc 1 995 0
 2456              		@ sp needed
 2457              	.LVL253:
 2458 0014 10BD     		pop	{r4, pc}
 2459              		.cfi_endproc
 2460              	.LFE82:
 2462 0016 C046     		.section	.text.osEventFlagsClear,"ax",%progbits
 2463              		.align	2
 2464              		.global	osEventFlagsClear
 2465              		.code	16
 2466              		.thumb_func
 2468              	osEventFlagsClear:
 2469              	.LFB83:
 996:e:\liteos\liteos\components\cmsis\2.0\cmsis_liteos2.c **** 
 997:e:\liteos\liteos\components\cmsis\2.0\cmsis_liteos2.c **** 
 998:e:\liteos\liteos\components\cmsis\2.0\cmsis_liteos2.c **** uint32_t osEventFlagsClear (osEventFlagsId_t ef_id, uint32_t flags)
 999:e:\liteos\liteos\components\cmsis\2.0\cmsis_liteos2.c **** {
 2470              		.loc 1 999 0
 2471              		.cfi_startproc
 2472              		@ args = 0, pretend = 0, frame = 0
 2473              		@ frame_needed = 0, uses_anonymous_args = 0
 2474              	.LVL254:
 2475 0000 F8B5     		push	{r3, r4, r5, r6, r7, lr}
 2476              	.LCFI38:
 2477              		.cfi_def_cfa_offset 24
 2478              		.cfi_offset 3, -24
 2479              		.cfi_offset 4, -20
 2480              		.cfi_offset 5, -16
 2481              		.cfi_offset 6, -12
 2482              		.cfi_offset 7, -8
 2483              		.cfi_offset 14, -4
 2484 0002 0400     		movs	r4, r0
 2485 0004 0E00     		movs	r6, r1
 2486              	.LVL255:
1000:e:\liteos\liteos\components\cmsis\2.0\cmsis_liteos2.c ****     PEVENT_CB_S pstEventCB = (PEVENT_CB_S)ef_id;
1001:e:\liteos\liteos\components\cmsis\2.0\cmsis_liteos2.c ****     UINTPTR uwIntSave;
1002:e:\liteos\liteos\components\cmsis\2.0\cmsis_liteos2.c ****     uint32_t rflags;
1003:e:\liteos\liteos\components\cmsis\2.0\cmsis_liteos2.c ****     UINT32 uwRet;
ARM GAS  C:\Users\WANGBI~1\AppData\Local\Temp\ccNVqL5c.s 			page 62


1004:e:\liteos\liteos\components\cmsis\2.0\cmsis_liteos2.c **** 
1005:e:\liteos\liteos\components\cmsis\2.0\cmsis_liteos2.c ****     if (pstEventCB == NULL)
 2487              		.loc 1 1005 0
 2488 0006 0028     		cmp	r0, #0
 2489 0008 10D0     		beq	.L241
1006:e:\liteos\liteos\components\cmsis\2.0\cmsis_liteos2.c ****     {
1007:e:\liteos\liteos\components\cmsis\2.0\cmsis_liteos2.c ****         return (uint32_t)osFlagsErrorParameter;
1008:e:\liteos\liteos\components\cmsis\2.0\cmsis_liteos2.c ****     }
1009:e:\liteos\liteos\components\cmsis\2.0\cmsis_liteos2.c **** 
1010:e:\liteos\liteos\components\cmsis\2.0\cmsis_liteos2.c ****     uwIntSave = LOS_IntLock();
 2490              		.loc 1 1010 0
 2491 000a FFF7FEFF 		bl	LOS_IntLock
 2492              	.LVL256:
 2493 000e 0700     		movs	r7, r0
 2494              	.LVL257:
1011:e:\liteos\liteos\components\cmsis\2.0\cmsis_liteos2.c ****     rflags = pstEventCB->uwEventID;
 2495              		.loc 1 1011 0
 2496 0010 2568     		ldr	r5, [r4]
 2497              	.LVL258:
1012:e:\liteos\liteos\components\cmsis\2.0\cmsis_liteos2.c **** 
1013:e:\liteos\liteos\components\cmsis\2.0\cmsis_liteos2.c ****     uwRet = LOS_EventClear(pstEventCB, ~flags);
 2498              		.loc 1 1013 0
 2499 0012 F143     		mvns	r1, r6
 2500 0014 2000     		movs	r0, r4
 2501              	.LVL259:
 2502 0016 FFF7FEFF 		bl	LOS_EventClear
 2503              	.LVL260:
 2504 001a 0400     		movs	r4, r0
 2505              	.LVL261:
1014:e:\liteos\liteos\components\cmsis\2.0\cmsis_liteos2.c ****     LOS_IntRestore(uwIntSave);
 2506              		.loc 1 1014 0
 2507 001c 3800     		movs	r0, r7
 2508              	.LVL262:
 2509 001e FFF7FEFF 		bl	LOS_IntRestore
 2510              	.LVL263:
1015:e:\liteos\liteos\components\cmsis\2.0\cmsis_liteos2.c ****     if (uwRet !=  LOS_OK)
 2511              		.loc 1 1015 0
 2512 0022 002C     		cmp	r4, #0
 2513 0024 05D0     		beq	.L242
1016:e:\liteos\liteos\components\cmsis\2.0\cmsis_liteos2.c ****     {
1017:e:\liteos\liteos\components\cmsis\2.0\cmsis_liteos2.c ****         return (uint32_t)osFlagsErrorParameter;
 2514              		.loc 1 1017 0
 2515 0026 0420     		movs	r0, #4
 2516 0028 4042     		rsbs	r0, r0, #0
 2517 002a 03E0     		b	.L240
 2518              	.LVL264:
 2519              	.L241:
1007:e:\liteos\liteos\components\cmsis\2.0\cmsis_liteos2.c ****     }
 2520              		.loc 1 1007 0
 2521 002c 0420     		movs	r0, #4
 2522              	.LVL265:
 2523 002e 4042     		rsbs	r0, r0, #0
 2524 0030 00E0     		b	.L240
 2525              	.LVL266:
 2526              	.L242:
1018:e:\liteos\liteos\components\cmsis\2.0\cmsis_liteos2.c ****     }
1019:e:\liteos\liteos\components\cmsis\2.0\cmsis_liteos2.c ****     else
ARM GAS  C:\Users\WANGBI~1\AppData\Local\Temp\ccNVqL5c.s 			page 63


1020:e:\liteos\liteos\components\cmsis\2.0\cmsis_liteos2.c ****     {
1021:e:\liteos\liteos\components\cmsis\2.0\cmsis_liteos2.c ****         return rflags;
 2527              		.loc 1 1021 0
 2528 0032 2800     		movs	r0, r5
 2529              	.LVL267:
 2530              	.L240:
1022:e:\liteos\liteos\components\cmsis\2.0\cmsis_liteos2.c ****     }
1023:e:\liteos\liteos\components\cmsis\2.0\cmsis_liteos2.c **** }
 2531              		.loc 1 1023 0
 2532              		@ sp needed
 2533              	.LVL268:
 2534 0034 F8BD     		pop	{r3, r4, r5, r6, r7, pc}
 2535              		.cfi_endproc
 2536              	.LFE83:
 2538              		.section	.text.osEventFlagsGet,"ax",%progbits
 2539              		.align	2
 2540              		.global	osEventFlagsGet
 2541              		.code	16
 2542              		.thumb_func
 2544              	osEventFlagsGet:
 2545              	.LFB84:
1024:e:\liteos\liteos\components\cmsis\2.0\cmsis_liteos2.c **** 
1025:e:\liteos\liteos\components\cmsis\2.0\cmsis_liteos2.c **** 
1026:e:\liteos\liteos\components\cmsis\2.0\cmsis_liteos2.c **** uint32_t osEventFlagsGet (osEventFlagsId_t ef_id)
1027:e:\liteos\liteos\components\cmsis\2.0\cmsis_liteos2.c **** {
 2546              		.loc 1 1027 0
 2547              		.cfi_startproc
 2548              		@ args = 0, pretend = 0, frame = 0
 2549              		@ frame_needed = 0, uses_anonymous_args = 0
 2550              	.LVL269:
 2551 0000 10B5     		push	{r4, lr}
 2552              	.LCFI39:
 2553              		.cfi_def_cfa_offset 8
 2554              		.cfi_offset 4, -8
 2555              		.cfi_offset 14, -4
 2556 0002 041E     		subs	r4, r0, #0
 2557              	.LVL270:
1028:e:\liteos\liteos\components\cmsis\2.0\cmsis_liteos2.c ****     PEVENT_CB_S pstEventCB = (PEVENT_CB_S)ef_id;
1029:e:\liteos\liteos\components\cmsis\2.0\cmsis_liteos2.c ****     UINTPTR uwIntSave;
1030:e:\liteos\liteos\components\cmsis\2.0\cmsis_liteos2.c ****     uint32_t rflags;
1031:e:\liteos\liteos\components\cmsis\2.0\cmsis_liteos2.c **** 
1032:e:\liteos\liteos\components\cmsis\2.0\cmsis_liteos2.c ****     if (pstEventCB == NULL)
 2558              		.loc 1 1032 0
 2559 0004 06D0     		beq	.L245
1033:e:\liteos\liteos\components\cmsis\2.0\cmsis_liteos2.c ****     {
1034:e:\liteos\liteos\components\cmsis\2.0\cmsis_liteos2.c ****         return (uint32_t)osFlagsErrorParameter;
1035:e:\liteos\liteos\components\cmsis\2.0\cmsis_liteos2.c ****     }
1036:e:\liteos\liteos\components\cmsis\2.0\cmsis_liteos2.c **** 
1037:e:\liteos\liteos\components\cmsis\2.0\cmsis_liteos2.c ****     uwIntSave = LOS_IntLock();
 2560              		.loc 1 1037 0
 2561 0006 FFF7FEFF 		bl	LOS_IntLock
 2562              	.LVL271:
1038:e:\liteos\liteos\components\cmsis\2.0\cmsis_liteos2.c ****     rflags = pstEventCB->uwEventID;
 2563              		.loc 1 1038 0
 2564 000a 2468     		ldr	r4, [r4]
 2565              	.LVL272:
1039:e:\liteos\liteos\components\cmsis\2.0\cmsis_liteos2.c ****     LOS_IntRestore(uwIntSave);
ARM GAS  C:\Users\WANGBI~1\AppData\Local\Temp\ccNVqL5c.s 			page 64


 2566              		.loc 1 1039 0
 2567 000c FFF7FEFF 		bl	LOS_IntRestore
 2568              	.LVL273:
1040:e:\liteos\liteos\components\cmsis\2.0\cmsis_liteos2.c **** 
1041:e:\liteos\liteos\components\cmsis\2.0\cmsis_liteos2.c ****     return rflags;
 2569              		.loc 1 1041 0
 2570 0010 2000     		movs	r0, r4
 2571 0012 01E0     		b	.L244
 2572              	.LVL274:
 2573              	.L245:
1034:e:\liteos\liteos\components\cmsis\2.0\cmsis_liteos2.c ****     }
 2574              		.loc 1 1034 0
 2575 0014 0420     		movs	r0, #4
 2576              	.LVL275:
 2577 0016 4042     		rsbs	r0, r0, #0
 2578              	.LVL276:
 2579              	.L244:
1042:e:\liteos\liteos\components\cmsis\2.0\cmsis_liteos2.c **** }
 2580              		.loc 1 1042 0
 2581              		@ sp needed
 2582 0018 10BD     		pop	{r4, pc}
 2583              		.cfi_endproc
 2584              	.LFE84:
 2586 001a C046     		.section	.text.osEventFlagsWait,"ax",%progbits
 2587              		.align	2
 2588              		.global	osEventFlagsWait
 2589              		.code	16
 2590              		.thumb_func
 2592              	osEventFlagsWait:
 2593              	.LFB85:
1043:e:\liteos\liteos\components\cmsis\2.0\cmsis_liteos2.c **** 
1044:e:\liteos\liteos\components\cmsis\2.0\cmsis_liteos2.c **** uint32_t osEventFlagsWait (osEventFlagsId_t ef_id, uint32_t flags, uint32_t options, uint32_t timeo
1045:e:\liteos\liteos\components\cmsis\2.0\cmsis_liteos2.c **** {
 2594              		.loc 1 1045 0
 2595              		.cfi_startproc
 2596              		@ args = 0, pretend = 0, frame = 0
 2597              		@ frame_needed = 0, uses_anonymous_args = 0
 2598              	.LVL277:
 2599 0000 70B5     		push	{r4, r5, r6, lr}
 2600              	.LCFI40:
 2601              		.cfi_def_cfa_offset 16
 2602              		.cfi_offset 4, -16
 2603              		.cfi_offset 5, -12
 2604              		.cfi_offset 6, -8
 2605              		.cfi_offset 14, -4
 2606              	.LVL278:
1046:e:\liteos\liteos\components\cmsis\2.0\cmsis_liteos2.c ****     PEVENT_CB_S pstEventCB = (PEVENT_CB_S)ef_id;
1047:e:\liteos\liteos\components\cmsis\2.0\cmsis_liteos2.c ****     UINT32 uwMode = 0;
1048:e:\liteos\liteos\components\cmsis\2.0\cmsis_liteos2.c ****     UINT32 uwRet;
1049:e:\liteos\liteos\components\cmsis\2.0\cmsis_liteos2.c ****     uint32_t rflags = 0;
1050:e:\liteos\liteos\components\cmsis\2.0\cmsis_liteos2.c **** 
1051:e:\liteos\liteos\components\cmsis\2.0\cmsis_liteos2.c ****     if (options > (osFlagsWaitAny | osFlagsWaitAll | osFlagsNoClear))
 2607              		.loc 1 1051 0
 2608 0002 032A     		cmp	r2, #3
 2609 0004 1BD8     		bhi	.L255
1052:e:\liteos\liteos\components\cmsis\2.0\cmsis_liteos2.c ****     {
1053:e:\liteos\liteos\components\cmsis\2.0\cmsis_liteos2.c ****         return (uint32_t)osFlagsErrorParameter;
ARM GAS  C:\Users\WANGBI~1\AppData\Local\Temp\ccNVqL5c.s 			page 65


1054:e:\liteos\liteos\components\cmsis\2.0\cmsis_liteos2.c ****     }
1055:e:\liteos\liteos\components\cmsis\2.0\cmsis_liteos2.c **** 
1056:e:\liteos\liteos\components\cmsis\2.0\cmsis_liteos2.c ****     if ((options & osFlagsWaitAll) == osFlagsWaitAll)
 2610              		.loc 1 1056 0
 2611 0006 D407     		lsls	r4, r2, #31
 2612 0008 01D5     		bpl	.L256
1057:e:\liteos\liteos\components\cmsis\2.0\cmsis_liteos2.c ****     {
1058:e:\liteos\liteos\components\cmsis\2.0\cmsis_liteos2.c ****         uwMode |= LOS_WAITMODE_AND;
 2613              		.loc 1 1058 0
 2614 000a 0425     		movs	r5, #4
 2615 000c 00E0     		b	.L248
 2616              	.L256:
1059:e:\liteos\liteos\components\cmsis\2.0\cmsis_liteos2.c ****     }
1060:e:\liteos\liteos\components\cmsis\2.0\cmsis_liteos2.c ****     else
1061:e:\liteos\liteos\components\cmsis\2.0\cmsis_liteos2.c ****     {
1062:e:\liteos\liteos\components\cmsis\2.0\cmsis_liteos2.c ****         uwMode |= LOS_WAITMODE_OR;
 2617              		.loc 1 1062 0
 2618 000e 0225     		movs	r5, #2
 2619              	.L248:
 2620              	.LVL279:
1063:e:\liteos\liteos\components\cmsis\2.0\cmsis_liteos2.c ****     }
1064:e:\liteos\liteos\components\cmsis\2.0\cmsis_liteos2.c **** 
1065:e:\liteos\liteos\components\cmsis\2.0\cmsis_liteos2.c ****     if ((options & osFlagsNoClear)  == osFlagsNoClear)
 2621              		.loc 1 1065 0
 2622 0010 9207     		lsls	r2, r2, #30
 2623 0012 01D5     		bpl	.L249
 2624              	.LVL280:
1066:e:\liteos\liteos\components\cmsis\2.0\cmsis_liteos2.c ****     {
1067:e:\liteos\liteos\components\cmsis\2.0\cmsis_liteos2.c ****         uwMode &= ~LOS_WAITMODE_CLR;
 2625              		.loc 1 1067 0
 2626 0014 2A00     		movs	r2, r5
 2627 0016 02E0     		b	.L250
 2628              	.L249:
1068:e:\liteos\liteos\components\cmsis\2.0\cmsis_liteos2.c ****     }
1069:e:\liteos\liteos\components\cmsis\2.0\cmsis_liteos2.c ****     else
1070:e:\liteos\liteos\components\cmsis\2.0\cmsis_liteos2.c ****     {
1071:e:\liteos\liteos\components\cmsis\2.0\cmsis_liteos2.c ****         uwMode |= LOS_WAITMODE_CLR;
 2629              		.loc 1 1071 0
 2630 0018 0124     		movs	r4, #1
 2631 001a 2A00     		movs	r2, r5
 2632 001c 2243     		orrs	r2, r4
 2633              	.LVL281:
 2634              	.L250:
1072:e:\liteos\liteos\components\cmsis\2.0\cmsis_liteos2.c ****     }
1073:e:\liteos\liteos\components\cmsis\2.0\cmsis_liteos2.c **** 
1074:e:\liteos\liteos\components\cmsis\2.0\cmsis_liteos2.c ****     uwRet = LOS_EventRead(pstEventCB, (UINT32)flags, uwMode, (UINT32)timeout);
 2635              		.loc 1 1074 0
 2636 001e FFF7FEFF 		bl	LOS_EventRead
 2637              	.LVL282:
1075:e:\liteos\liteos\components\cmsis\2.0\cmsis_liteos2.c ****     switch(uwRet)
 2638              		.loc 1 1075 0
 2639 0022 0A4B     		ldr	r3, .L258
 2640 0024 C318     		adds	r3, r0, r3
 2641 0026 062B     		cmp	r3, #6
 2642 0028 0ED8     		bhi	.L247
 2643 002a 9B00     		lsls	r3, r3, #2
 2644 002c 084A     		ldr	r2, .L258+4
ARM GAS  C:\Users\WANGBI~1\AppData\Local\Temp\ccNVqL5c.s 			page 66


 2645 002e D358     		ldr	r3, [r2, r3]
 2646 0030 9F46     		mov	pc, r3
 2647              		.section	.rodata.osEventFlagsWait,"a",%progbits
 2648              		.align	2
 2649              	.L253:
 2650 0000 32000000 		.word	.L252
 2651 0004 38000000 		.word	.L254
 2652 0008 32000000 		.word	.L252
 2653 000c 44000000 		.word	.L257
 2654 0010 44000000 		.word	.L257
 2655 0014 44000000 		.word	.L257
 2656 0018 32000000 		.word	.L252
 2657              		.section	.text.osEventFlagsWait
 2658              	.L252:
1076:e:\liteos\liteos\components\cmsis\2.0\cmsis_liteos2.c ****     {
1077:e:\liteos\liteos\components\cmsis\2.0\cmsis_liteos2.c ****     case LOS_ERRNO_EVENT_PTR_NULL:
1078:e:\liteos\liteos\components\cmsis\2.0\cmsis_liteos2.c ****     case LOS_ERRNO_EVENT_EVENTMASK_INVALID:
1079:e:\liteos\liteos\components\cmsis\2.0\cmsis_liteos2.c ****     case LOS_ERRNO_EVENT_SETBIT_INVALID:
1080:e:\liteos\liteos\components\cmsis\2.0\cmsis_liteos2.c ****         return (uint32_t)osFlagsErrorParameter;
 2659              		.loc 1 1080 0
 2660 0032 0420     		movs	r0, #4
 2661              	.LVL283:
 2662 0034 4042     		rsbs	r0, r0, #0
 2663 0036 07E0     		b	.L247
 2664              	.LVL284:
 2665              	.L254:
1081:e:\liteos\liteos\components\cmsis\2.0\cmsis_liteos2.c **** 
1082:e:\liteos\liteos\components\cmsis\2.0\cmsis_liteos2.c ****     case LOS_ERRNO_EVENT_READ_IN_INTERRUPT:
1083:e:\liteos\liteos\components\cmsis\2.0\cmsis_liteos2.c ****     case LOS_ERRNO_EVENT_FLAGS_INVALID:
1084:e:\liteos\liteos\components\cmsis\2.0\cmsis_liteos2.c ****     case LOS_ERRNO_EVENT_READ_IN_LOCK:
1085:e:\liteos\liteos\components\cmsis\2.0\cmsis_liteos2.c ****         return (uint32_t)osFlagsErrorResource;
1086:e:\liteos\liteos\components\cmsis\2.0\cmsis_liteos2.c **** 
1087:e:\liteos\liteos\components\cmsis\2.0\cmsis_liteos2.c ****     case LOS_ERRNO_EVENT_READ_TIMEOUT:
1088:e:\liteos\liteos\components\cmsis\2.0\cmsis_liteos2.c ****         return (uint32_t)osFlagsErrorTimeout;
 2666              		.loc 1 1088 0
 2667 0038 0220     		movs	r0, #2
 2668              	.LVL285:
 2669 003a 4042     		rsbs	r0, r0, #0
 2670 003c 04E0     		b	.L247
 2671              	.LVL286:
 2672              	.L255:
1053:e:\liteos\liteos\components\cmsis\2.0\cmsis_liteos2.c ****     }
 2673              		.loc 1 1053 0
 2674 003e 0420     		movs	r0, #4
 2675              	.LVL287:
 2676 0040 4042     		rsbs	r0, r0, #0
 2677 0042 01E0     		b	.L247
 2678              	.LVL288:
 2679              	.L257:
1085:e:\liteos\liteos\components\cmsis\2.0\cmsis_liteos2.c **** 
 2680              		.loc 1 1085 0
 2681 0044 0320     		movs	r0, #3
 2682              	.LVL289:
 2683 0046 4042     		rsbs	r0, r0, #0
 2684              	.L247:
1089:e:\liteos\liteos\components\cmsis\2.0\cmsis_liteos2.c **** 
1090:e:\liteos\liteos\components\cmsis\2.0\cmsis_liteos2.c ****     default :
ARM GAS  C:\Users\WANGBI~1\AppData\Local\Temp\ccNVqL5c.s 			page 67


1091:e:\liteos\liteos\components\cmsis\2.0\cmsis_liteos2.c ****         rflags = (uint32_t)uwRet;
1092:e:\liteos\liteos\components\cmsis\2.0\cmsis_liteos2.c ****         return rflags;
1093:e:\liteos\liteos\components\cmsis\2.0\cmsis_liteos2.c ****     }
1094:e:\liteos\liteos\components\cmsis\2.0\cmsis_liteos2.c **** }
 2685              		.loc 1 1094 0
 2686              		@ sp needed
 2687 0048 70BD     		pop	{r4, r5, r6, pc}
 2688              	.L259:
 2689 004a C046     		.align	2
 2690              	.L258:
 2691 004c 00E4FFFD 		.word	-33561600
 2692 0050 00000000 		.word	.L253
 2693              		.cfi_endproc
 2694              	.LFE85:
 2696              		.section	.text.osEventFlagsDelete,"ax",%progbits
 2697              		.align	2
 2698              		.global	osEventFlagsDelete
 2699              		.code	16
 2700              		.thumb_func
 2702              	osEventFlagsDelete:
 2703              	.LFB86:
1095:e:\liteos\liteos\components\cmsis\2.0\cmsis_liteos2.c **** 
1096:e:\liteos\liteos\components\cmsis\2.0\cmsis_liteos2.c **** 
1097:e:\liteos\liteos\components\cmsis\2.0\cmsis_liteos2.c **** osStatus_t osEventFlagsDelete (osEventFlagsId_t ef_id)
1098:e:\liteos\liteos\components\cmsis\2.0\cmsis_liteos2.c **** {
 2704              		.loc 1 1098 0
 2705              		.cfi_startproc
 2706              		@ args = 0, pretend = 0, frame = 0
 2707              		@ frame_needed = 0, uses_anonymous_args = 0
 2708              	.LVL290:
 2709 0000 70B5     		push	{r4, r5, r6, lr}
 2710              	.LCFI41:
 2711              		.cfi_def_cfa_offset 16
 2712              		.cfi_offset 4, -16
 2713              		.cfi_offset 5, -12
 2714              		.cfi_offset 6, -8
 2715              		.cfi_offset 14, -4
 2716 0002 0400     		movs	r4, r0
 2717              	.LVL291:
1099:e:\liteos\liteos\components\cmsis\2.0\cmsis_liteos2.c ****     PEVENT_CB_S pstEventCB = (PEVENT_CB_S)ef_id;
1100:e:\liteos\liteos\components\cmsis\2.0\cmsis_liteos2.c ****     UINTPTR uwIntSave;
1101:e:\liteos\liteos\components\cmsis\2.0\cmsis_liteos2.c ****     osStatus_t uwRet;
1102:e:\liteos\liteos\components\cmsis\2.0\cmsis_liteos2.c **** 
1103:e:\liteos\liteos\components\cmsis\2.0\cmsis_liteos2.c ****     uwIntSave = LOS_IntLock();
 2718              		.loc 1 1103 0
 2719 0004 FFF7FEFF 		bl	LOS_IntLock
 2720              	.LVL292:
 2721 0008 0500     		movs	r5, r0
 2722              	.LVL293:
1104:e:\liteos\liteos\components\cmsis\2.0\cmsis_liteos2.c ****     if (LOS_EventDestory(pstEventCB) == LOS_OK)
 2723              		.loc 1 1104 0
 2724 000a 2000     		movs	r0, r4
 2725              	.LVL294:
 2726 000c FFF7FEFF 		bl	LOS_EventDestory
 2727              	.LVL295:
1105:e:\liteos\liteos\components\cmsis\2.0\cmsis_liteos2.c ****     {
1106:e:\liteos\liteos\components\cmsis\2.0\cmsis_liteos2.c ****         uwRet = osOK;
ARM GAS  C:\Users\WANGBI~1\AppData\Local\Temp\ccNVqL5c.s 			page 68


1107:e:\liteos\liteos\components\cmsis\2.0\cmsis_liteos2.c ****     }
1108:e:\liteos\liteos\components\cmsis\2.0\cmsis_liteos2.c ****     else
1109:e:\liteos\liteos\components\cmsis\2.0\cmsis_liteos2.c ****     {
1110:e:\liteos\liteos\components\cmsis\2.0\cmsis_liteos2.c ****         uwRet = osErrorParameter;
1111:e:\liteos\liteos\components\cmsis\2.0\cmsis_liteos2.c ****     }
1112:e:\liteos\liteos\components\cmsis\2.0\cmsis_liteos2.c ****     LOS_IntRestore(uwIntSave);
 2728              		.loc 1 1112 0
 2729 0010 2800     		movs	r0, r5
 2730 0012 FFF7FEFF 		bl	LOS_IntRestore
 2731              	.LVL296:
1113:e:\liteos\liteos\components\cmsis\2.0\cmsis_liteos2.c **** 
1114:e:\liteos\liteos\components\cmsis\2.0\cmsis_liteos2.c ****     if (LOS_MemFree(m_aucSysMem0, (void *)pstEventCB) == LOS_OK)
 2732              		.loc 1 1114 0
 2733 0016 054B     		ldr	r3, .L263
 2734 0018 1868     		ldr	r0, [r3]
 2735 001a 2100     		movs	r1, r4
 2736 001c FFF7FEFF 		bl	LOS_MemFree
 2737              	.LVL297:
 2738 0020 0028     		cmp	r0, #0
 2739 0022 01D0     		beq	.L261
1115:e:\liteos\liteos\components\cmsis\2.0\cmsis_liteos2.c ****     {
1116:e:\liteos\liteos\components\cmsis\2.0\cmsis_liteos2.c ****         uwRet = osOK;
1117:e:\liteos\liteos\components\cmsis\2.0\cmsis_liteos2.c ****     }
1118:e:\liteos\liteos\components\cmsis\2.0\cmsis_liteos2.c ****     else
1119:e:\liteos\liteos\components\cmsis\2.0\cmsis_liteos2.c ****     {
1120:e:\liteos\liteos\components\cmsis\2.0\cmsis_liteos2.c ****         uwRet = osErrorParameter;
 2740              		.loc 1 1120 0
 2741 0024 0420     		movs	r0, #4
 2742 0026 4042     		rsbs	r0, r0, #0
 2743              	.L261:
 2744              	.LVL298:
1121:e:\liteos\liteos\components\cmsis\2.0\cmsis_liteos2.c ****     }
1122:e:\liteos\liteos\components\cmsis\2.0\cmsis_liteos2.c **** 
1123:e:\liteos\liteos\components\cmsis\2.0\cmsis_liteos2.c ****     return uwRet;
1124:e:\liteos\liteos\components\cmsis\2.0\cmsis_liteos2.c **** }
 2745              		.loc 1 1124 0
 2746              		@ sp needed
 2747              	.LVL299:
 2748              	.LVL300:
 2749 0028 70BD     		pop	{r4, r5, r6, pc}
 2750              	.L264:
 2751 002a C046     		.align	2
 2752              	.L263:
 2753 002c 00000000 		.word	m_aucSysMem0
 2754              		.cfi_endproc
 2755              	.LFE86:
 2757              		.section	.text.osMutexNew,"ax",%progbits
 2758              		.align	2
 2759              		.global	osMutexNew
 2760              		.code	16
 2761              		.thumb_func
 2763              	osMutexNew:
 2764              	.LFB87:
1125:e:\liteos\liteos\components\cmsis\2.0\cmsis_liteos2.c **** 
1126:e:\liteos\liteos\components\cmsis\2.0\cmsis_liteos2.c **** 
1127:e:\liteos\liteos\components\cmsis\2.0\cmsis_liteos2.c **** //  ==== Mutex Management Functions ====
1128:e:\liteos\liteos\components\cmsis\2.0\cmsis_liteos2.c **** #if (LOSCFG_BASE_IPC_MUX == YES)
ARM GAS  C:\Users\WANGBI~1\AppData\Local\Temp\ccNVqL5c.s 			page 69


1129:e:\liteos\liteos\components\cmsis\2.0\cmsis_liteos2.c **** osMutexId_t osMutexNew (const osMutexAttr_t *attr)
1130:e:\liteos\liteos\components\cmsis\2.0\cmsis_liteos2.c **** {
 2765              		.loc 1 1130 0
 2766              		.cfi_startproc
 2767              		@ args = 0, pretend = 0, frame = 8
 2768              		@ frame_needed = 0, uses_anonymous_args = 0
 2769              	.LVL301:
 2770 0000 00B5     		push	{lr}
 2771              	.LCFI42:
 2772              		.cfi_def_cfa_offset 4
 2773              		.cfi_offset 14, -4
 2774 0002 83B0     		sub	sp, sp, #12
 2775              	.LCFI43:
 2776              		.cfi_def_cfa_offset 16
1131:e:\liteos\liteos\components\cmsis\2.0\cmsis_liteos2.c ****     UINT32 uwRet;
1132:e:\liteos\liteos\components\cmsis\2.0\cmsis_liteos2.c ****     UINT32 uwMuxId;
1133:e:\liteos\liteos\components\cmsis\2.0\cmsis_liteos2.c **** 
1134:e:\liteos\liteos\components\cmsis\2.0\cmsis_liteos2.c ****     UNUSED(attr);
1135:e:\liteos\liteos\components\cmsis\2.0\cmsis_liteos2.c **** 
1136:e:\liteos\liteos\components\cmsis\2.0\cmsis_liteos2.c ****     if (OS_INT_ACTIVE)
 2777              		.loc 1 1136 0
 2778 0004 FFF7FEFF 		bl	osIntNumGet
 2779              	.LVL302:
 2780 0008 0028     		cmp	r0, #0
 2781 000a 0CD1     		bne	.L267
1137:e:\liteos\liteos\components\cmsis\2.0\cmsis_liteos2.c ****     {
1138:e:\liteos\liteos\components\cmsis\2.0\cmsis_liteos2.c ****         return NULL;
1139:e:\liteos\liteos\components\cmsis\2.0\cmsis_liteos2.c ****     }
1140:e:\liteos\liteos\components\cmsis\2.0\cmsis_liteos2.c **** 
1141:e:\liteos\liteos\components\cmsis\2.0\cmsis_liteos2.c ****     uwRet = LOS_MuxCreate(&uwMuxId);
 2782              		.loc 1 1141 0
 2783 000c 01A8     		add	r0, sp, #4
 2784 000e FFF7FEFF 		bl	LOS_MuxCreate
 2785              	.LVL303:
1142:e:\liteos\liteos\components\cmsis\2.0\cmsis_liteos2.c **** 
1143:e:\liteos\liteos\components\cmsis\2.0\cmsis_liteos2.c ****     if(uwRet == LOS_OK)
 2786              		.loc 1 1143 0
 2787 0012 0028     		cmp	r0, #0
 2788 0014 09D1     		bne	.L268
1144:e:\liteos\liteos\components\cmsis\2.0\cmsis_liteos2.c ****     {
1145:e:\liteos\liteos\components\cmsis\2.0\cmsis_liteos2.c ****         return (osMutexId_t)(GET_MUX(uwMuxId));
 2789              		.loc 1 1145 0
 2790 0016 019B     		ldr	r3, [sp, #4]
 2791 0018 5A00     		lsls	r2, r3, #1
 2792 001a D318     		adds	r3, r2, r3
 2793 001c D800     		lsls	r0, r3, #3
 2794              	.LVL304:
 2795 001e 044B     		ldr	r3, .L269
 2796 0020 1B68     		ldr	r3, [r3]
 2797 0022 1818     		adds	r0, r3, r0
 2798 0024 02E0     		b	.L266
 2799              	.L267:
1138:e:\liteos\liteos\components\cmsis\2.0\cmsis_liteos2.c ****     }
 2800              		.loc 1 1138 0
 2801 0026 0020     		movs	r0, #0
 2802 0028 00E0     		b	.L266
 2803              	.LVL305:
ARM GAS  C:\Users\WANGBI~1\AppData\Local\Temp\ccNVqL5c.s 			page 70


 2804              	.L268:
1146:e:\liteos\liteos\components\cmsis\2.0\cmsis_liteos2.c ****     }
1147:e:\liteos\liteos\components\cmsis\2.0\cmsis_liteos2.c ****     else
1148:e:\liteos\liteos\components\cmsis\2.0\cmsis_liteos2.c ****     {
1149:e:\liteos\liteos\components\cmsis\2.0\cmsis_liteos2.c ****         return (osMutexId_t)NULL;
 2805              		.loc 1 1149 0
 2806 002a 0020     		movs	r0, #0
 2807              	.LVL306:
 2808              	.L266:
1150:e:\liteos\liteos\components\cmsis\2.0\cmsis_liteos2.c ****     }
1151:e:\liteos\liteos\components\cmsis\2.0\cmsis_liteos2.c **** }
 2809              		.loc 1 1151 0
 2810 002c 03B0     		add	sp, sp, #12
 2811              		@ sp needed
 2812 002e 00BD     		pop	{pc}
 2813              	.L270:
 2814              		.align	2
 2815              	.L269:
 2816 0030 00000000 		.word	g_pstAllMux
 2817              		.cfi_endproc
 2818              	.LFE87:
 2820              		.section	.text.osMutexAcquire,"ax",%progbits
 2821              		.align	2
 2822              		.global	osMutexAcquire
 2823              		.code	16
 2824              		.thumb_func
 2826              	osMutexAcquire:
 2827              	.LFB88:
1152:e:\liteos\liteos\components\cmsis\2.0\cmsis_liteos2.c **** 
1153:e:\liteos\liteos\components\cmsis\2.0\cmsis_liteos2.c **** 
1154:e:\liteos\liteos\components\cmsis\2.0\cmsis_liteos2.c **** osStatus_t osMutexAcquire (osMutexId_t mutex_id, uint32_t timeout)
1155:e:\liteos\liteos\components\cmsis\2.0\cmsis_liteos2.c **** {
 2828              		.loc 1 1155 0
 2829              		.cfi_startproc
 2830              		@ args = 0, pretend = 0, frame = 0
 2831              		@ frame_needed = 0, uses_anonymous_args = 0
 2832              	.LVL307:
 2833 0000 70B5     		push	{r4, r5, r6, lr}
 2834              	.LCFI44:
 2835              		.cfi_def_cfa_offset 16
 2836              		.cfi_offset 4, -16
 2837              		.cfi_offset 5, -12
 2838              		.cfi_offset 6, -8
 2839              		.cfi_offset 14, -4
 2840 0002 0400     		movs	r4, r0
 2841 0004 0D00     		movs	r5, r1
1156:e:\liteos\liteos\components\cmsis\2.0\cmsis_liteos2.c ****     UINT32  uwRet;
1157:e:\liteos\liteos\components\cmsis\2.0\cmsis_liteos2.c **** 
1158:e:\liteos\liteos\components\cmsis\2.0\cmsis_liteos2.c ****     if (mutex_id == NULL)
 2842              		.loc 1 1158 0
 2843 0006 0028     		cmp	r0, #0
 2844 0008 15D0     		beq	.L274
1159:e:\liteos\liteos\components\cmsis\2.0\cmsis_liteos2.c ****     {
1160:e:\liteos\liteos\components\cmsis\2.0\cmsis_liteos2.c ****         return osErrorParameter;
1161:e:\liteos\liteos\components\cmsis\2.0\cmsis_liteos2.c ****     }
1162:e:\liteos\liteos\components\cmsis\2.0\cmsis_liteos2.c **** 
1163:e:\liteos\liteos\components\cmsis\2.0\cmsis_liteos2.c ****     if (OS_INT_ACTIVE && (timeout != LOS_NO_WAIT))
ARM GAS  C:\Users\WANGBI~1\AppData\Local\Temp\ccNVqL5c.s 			page 71


 2845              		.loc 1 1163 0
 2846 000a FFF7FEFF 		bl	osIntNumGet
 2847              	.LVL308:
 2848 000e 0028     		cmp	r0, #0
 2849 0010 02D0     		beq	.L273
 2850              		.loc 1 1163 0 is_stmt 0 discriminator 1
 2851 0012 002D     		cmp	r5, #0
 2852 0014 00D0     		beq	.L273
1164:e:\liteos\liteos\components\cmsis\2.0\cmsis_liteos2.c ****     {
1165:e:\liteos\liteos\components\cmsis\2.0\cmsis_liteos2.c ****         timeout = 0;
 2853              		.loc 1 1165 0 is_stmt 1
 2854 0016 0025     		movs	r5, #0
 2855              	.LVL309:
 2856              	.L273:
1166:e:\liteos\liteos\components\cmsis\2.0\cmsis_liteos2.c ****     }
1167:e:\liteos\liteos\components\cmsis\2.0\cmsis_liteos2.c **** 
1168:e:\liteos\liteos\components\cmsis\2.0\cmsis_liteos2.c ****     uwRet = LOS_MuxPend(((MUX_CB_S *)mutex_id)->ucMuxID, timeout);
 2857              		.loc 1 1168 0
 2858 0018 6068     		ldr	r0, [r4, #4]
 2859 001a 2900     		movs	r1, r5
 2860 001c FFF7FEFF 		bl	LOS_MuxPend
 2861              	.LVL310:
1169:e:\liteos\liteos\components\cmsis\2.0\cmsis_liteos2.c **** 
1170:e:\liteos\liteos\components\cmsis\2.0\cmsis_liteos2.c ****     if(uwRet == LOS_OK)
 2862              		.loc 1 1170 0
 2863 0020 0028     		cmp	r0, #0
 2864 0022 0BD0     		beq	.L276
1171:e:\liteos\liteos\components\cmsis\2.0\cmsis_liteos2.c ****     {
1172:e:\liteos\liteos\components\cmsis\2.0\cmsis_liteos2.c ****         return osOK;
1173:e:\liteos\liteos\components\cmsis\2.0\cmsis_liteos2.c ****     }
1174:e:\liteos\liteos\components\cmsis\2.0\cmsis_liteos2.c ****     else if (uwRet == LOS_ERRNO_MUX_TIMEOUT)
 2865              		.loc 1 1174 0
 2866 0024 094B     		ldr	r3, .L279
 2867 0026 9842     		cmp	r0, r3
 2868 0028 0AD0     		beq	.L277
1175:e:\liteos\liteos\components\cmsis\2.0\cmsis_liteos2.c ****     {
1176:e:\liteos\liteos\components\cmsis\2.0\cmsis_liteos2.c ****         return osErrorTimeout;
1177:e:\liteos\liteos\components\cmsis\2.0\cmsis_liteos2.c ****     }
1178:e:\liteos\liteos\components\cmsis\2.0\cmsis_liteos2.c ****     else if (uwRet == LOS_ERRNO_MUX_INVALID)
 2869              		.loc 1 1178 0
 2870 002a 094B     		ldr	r3, .L279+4
 2871 002c 9842     		cmp	r0, r3
 2872 002e 0AD1     		bne	.L278
1179:e:\liteos\liteos\components\cmsis\2.0\cmsis_liteos2.c ****     {
1180:e:\liteos\liteos\components\cmsis\2.0\cmsis_liteos2.c ****         return osErrorParameter;
 2873              		.loc 1 1180 0
 2874 0030 0420     		movs	r0, #4
 2875              	.LVL311:
 2876 0032 4042     		rsbs	r0, r0, #0
 2877 0034 09E0     		b	.L272
 2878              	.LVL312:
 2879              	.L274:
1160:e:\liteos\liteos\components\cmsis\2.0\cmsis_liteos2.c ****     }
 2880              		.loc 1 1160 0
 2881 0036 0420     		movs	r0, #4
 2882              	.LVL313:
 2883 0038 4042     		rsbs	r0, r0, #0
ARM GAS  C:\Users\WANGBI~1\AppData\Local\Temp\ccNVqL5c.s 			page 72


 2884 003a 06E0     		b	.L272
 2885              	.LVL314:
 2886              	.L276:
1172:e:\liteos\liteos\components\cmsis\2.0\cmsis_liteos2.c ****     }
 2887              		.loc 1 1172 0
 2888 003c 0020     		movs	r0, #0
 2889              	.LVL315:
 2890 003e 04E0     		b	.L272
 2891              	.LVL316:
 2892              	.L277:
1176:e:\liteos\liteos\components\cmsis\2.0\cmsis_liteos2.c ****     }
 2893              		.loc 1 1176 0
 2894 0040 0220     		movs	r0, #2
 2895              	.LVL317:
 2896 0042 4042     		rsbs	r0, r0, #0
 2897 0044 01E0     		b	.L272
 2898              	.LVL318:
 2899              	.L278:
1181:e:\liteos\liteos\components\cmsis\2.0\cmsis_liteos2.c ****     }
1182:e:\liteos\liteos\components\cmsis\2.0\cmsis_liteos2.c ****     else
1183:e:\liteos\liteos\components\cmsis\2.0\cmsis_liteos2.c ****     {
1184:e:\liteos\liteos\components\cmsis\2.0\cmsis_liteos2.c ****         return osErrorResource;
 2900              		.loc 1 1184 0
 2901 0046 0320     		movs	r0, #3
 2902              	.LVL319:
 2903 0048 4042     		rsbs	r0, r0, #0
 2904              	.L272:
1185:e:\liteos\liteos\components\cmsis\2.0\cmsis_liteos2.c ****     }
1186:e:\liteos\liteos\components\cmsis\2.0\cmsis_liteos2.c **** }
 2905              		.loc 1 1186 0
 2906              		@ sp needed
 2907              	.LVL320:
 2908              	.LVL321:
 2909 004a 70BD     		pop	{r4, r5, r6, pc}
 2910              	.L280:
 2911              		.align	2
 2912              	.L279:
 2913 004c 071D0002 		.word	33561863
 2914 0050 011D0002 		.word	33561857
 2915              		.cfi_endproc
 2916              	.LFE88:
 2918              		.section	.text.osMutexRelease,"ax",%progbits
 2919              		.align	2
 2920              		.global	osMutexRelease
 2921              		.code	16
 2922              		.thumb_func
 2924              	osMutexRelease:
 2925              	.LFB89:
1187:e:\liteos\liteos\components\cmsis\2.0\cmsis_liteos2.c **** 
1188:e:\liteos\liteos\components\cmsis\2.0\cmsis_liteos2.c **** 
1189:e:\liteos\liteos\components\cmsis\2.0\cmsis_liteos2.c **** osStatus_t osMutexRelease (osMutexId_t mutex_id)
1190:e:\liteos\liteos\components\cmsis\2.0\cmsis_liteos2.c **** {
 2926              		.loc 1 1190 0
 2927              		.cfi_startproc
 2928              		@ args = 0, pretend = 0, frame = 0
 2929              		@ frame_needed = 0, uses_anonymous_args = 0
 2930              	.LVL322:
ARM GAS  C:\Users\WANGBI~1\AppData\Local\Temp\ccNVqL5c.s 			page 73


 2931 0000 10B5     		push	{r4, lr}
 2932              	.LCFI45:
 2933              		.cfi_def_cfa_offset 8
 2934              		.cfi_offset 4, -8
 2935              		.cfi_offset 14, -4
1191:e:\liteos\liteos\components\cmsis\2.0\cmsis_liteos2.c ****     UINT32  uwRet;
1192:e:\liteos\liteos\components\cmsis\2.0\cmsis_liteos2.c **** 
1193:e:\liteos\liteos\components\cmsis\2.0\cmsis_liteos2.c ****     if (mutex_id == NULL)
 2936              		.loc 1 1193 0
 2937 0002 0028     		cmp	r0, #0
 2938 0004 05D0     		beq	.L283
1194:e:\liteos\liteos\components\cmsis\2.0\cmsis_liteos2.c ****     {
1195:e:\liteos\liteos\components\cmsis\2.0\cmsis_liteos2.c ****         return osErrorParameter;
1196:e:\liteos\liteos\components\cmsis\2.0\cmsis_liteos2.c ****     }
1197:e:\liteos\liteos\components\cmsis\2.0\cmsis_liteos2.c **** 
1198:e:\liteos\liteos\components\cmsis\2.0\cmsis_liteos2.c ****     uwRet = LOS_MuxPost(((MUX_CB_S *)mutex_id)->ucMuxID);
 2939              		.loc 1 1198 0
 2940 0006 4068     		ldr	r0, [r0, #4]
 2941              	.LVL323:
 2942 0008 FFF7FEFF 		bl	LOS_MuxPost
 2943              	.LVL324:
1199:e:\liteos\liteos\components\cmsis\2.0\cmsis_liteos2.c **** 
1200:e:\liteos\liteos\components\cmsis\2.0\cmsis_liteos2.c ****     if (uwRet == LOS_OK)
 2944              		.loc 1 1200 0
 2945 000c 0028     		cmp	r0, #0
 2946 000e 03D1     		bne	.L284
 2947 0010 04E0     		b	.L282
 2948              	.LVL325:
 2949              	.L283:
1195:e:\liteos\liteos\components\cmsis\2.0\cmsis_liteos2.c ****     }
 2950              		.loc 1 1195 0
 2951 0012 0420     		movs	r0, #4
 2952              	.LVL326:
 2953 0014 4042     		rsbs	r0, r0, #0
 2954 0016 01E0     		b	.L282
 2955              	.LVL327:
 2956              	.L284:
1201:e:\liteos\liteos\components\cmsis\2.0\cmsis_liteos2.c ****     {
1202:e:\liteos\liteos\components\cmsis\2.0\cmsis_liteos2.c ****         return osOK;
1203:e:\liteos\liteos\components\cmsis\2.0\cmsis_liteos2.c ****     }
1204:e:\liteos\liteos\components\cmsis\2.0\cmsis_liteos2.c ****     else
1205:e:\liteos\liteos\components\cmsis\2.0\cmsis_liteos2.c ****     {
1206:e:\liteos\liteos\components\cmsis\2.0\cmsis_liteos2.c ****         return osErrorResource;
 2957              		.loc 1 1206 0
 2958 0018 0320     		movs	r0, #3
 2959              	.LVL328:
 2960 001a 4042     		rsbs	r0, r0, #0
 2961              	.L282:
1207:e:\liteos\liteos\components\cmsis\2.0\cmsis_liteos2.c ****     }
1208:e:\liteos\liteos\components\cmsis\2.0\cmsis_liteos2.c **** }
 2962              		.loc 1 1208 0
 2963              		@ sp needed
 2964 001c 10BD     		pop	{r4, pc}
 2965              		.cfi_endproc
 2966              	.LFE89:
 2968 001e C046     		.section	.text.osMutexGetOwner,"ax",%progbits
 2969              		.align	2
ARM GAS  C:\Users\WANGBI~1\AppData\Local\Temp\ccNVqL5c.s 			page 74


 2970              		.global	osMutexGetOwner
 2971              		.code	16
 2972              		.thumb_func
 2974              	osMutexGetOwner:
 2975              	.LFB90:
1209:e:\liteos\liteos\components\cmsis\2.0\cmsis_liteos2.c **** 
1210:e:\liteos\liteos\components\cmsis\2.0\cmsis_liteos2.c **** 
1211:e:\liteos\liteos\components\cmsis\2.0\cmsis_liteos2.c **** osThreadId_t osMutexGetOwner (osMutexId_t mutex_id)
1212:e:\liteos\liteos\components\cmsis\2.0\cmsis_liteos2.c **** {
 2976              		.loc 1 1212 0
 2977              		.cfi_startproc
 2978              		@ args = 0, pretend = 0, frame = 0
 2979              		@ frame_needed = 0, uses_anonymous_args = 0
 2980              	.LVL329:
 2981 0000 10B5     		push	{r4, lr}
 2982              	.LCFI46:
 2983              		.cfi_def_cfa_offset 8
 2984              		.cfi_offset 4, -8
 2985              		.cfi_offset 14, -4
 2986 0002 0400     		movs	r4, r0
1213:e:\liteos\liteos\components\cmsis\2.0\cmsis_liteos2.c ****     UINT32 uwIntSave;
1214:e:\liteos\liteos\components\cmsis\2.0\cmsis_liteos2.c ****     LOS_TASK_CB *pstTaskCB;
1215:e:\liteos\liteos\components\cmsis\2.0\cmsis_liteos2.c **** 
1216:e:\liteos\liteos\components\cmsis\2.0\cmsis_liteos2.c ****     if (OS_INT_ACTIVE)
 2987              		.loc 1 1216 0
 2988 0004 FFF7FEFF 		bl	osIntNumGet
 2989              	.LVL330:
 2990 0008 0028     		cmp	r0, #0
 2991 000a 08D1     		bne	.L287
1217:e:\liteos\liteos\components\cmsis\2.0\cmsis_liteos2.c ****     {
1218:e:\liteos\liteos\components\cmsis\2.0\cmsis_liteos2.c ****         return NULL;
1219:e:\liteos\liteos\components\cmsis\2.0\cmsis_liteos2.c ****     }
1220:e:\liteos\liteos\components\cmsis\2.0\cmsis_liteos2.c **** 
1221:e:\liteos\liteos\components\cmsis\2.0\cmsis_liteos2.c ****     if (mutex_id == NULL)
 2992              		.loc 1 1221 0
 2993 000c 002C     		cmp	r4, #0
 2994 000e 08D0     		beq	.L288
1222:e:\liteos\liteos\components\cmsis\2.0\cmsis_liteos2.c ****     {
1223:e:\liteos\liteos\components\cmsis\2.0\cmsis_liteos2.c ****         return NULL;
1224:e:\liteos\liteos\components\cmsis\2.0\cmsis_liteos2.c ****     }
1225:e:\liteos\liteos\components\cmsis\2.0\cmsis_liteos2.c **** 
1226:e:\liteos\liteos\components\cmsis\2.0\cmsis_liteos2.c ****     uwIntSave = LOS_IntLock();
 2995              		.loc 1 1226 0
 2996 0010 FFF7FEFF 		bl	LOS_IntLock
 2997              	.LVL331:
1227:e:\liteos\liteos\components\cmsis\2.0\cmsis_liteos2.c ****     pstTaskCB = ((MUX_CB_S *)mutex_id)->pstOwner;
 2998              		.loc 1 1227 0
 2999 0014 2469     		ldr	r4, [r4, #16]
 3000              	.LVL332:
1228:e:\liteos\liteos\components\cmsis\2.0\cmsis_liteos2.c ****     (VOID)LOS_IntRestore(uwIntSave);
 3001              		.loc 1 1228 0
 3002 0016 FFF7FEFF 		bl	LOS_IntRestore
 3003              	.LVL333:
1229:e:\liteos\liteos\components\cmsis\2.0\cmsis_liteos2.c **** 
1230:e:\liteos\liteos\components\cmsis\2.0\cmsis_liteos2.c ****     return (osThreadId_t)pstTaskCB;
 3004              		.loc 1 1230 0
 3005 001a 2000     		movs	r0, r4
ARM GAS  C:\Users\WANGBI~1\AppData\Local\Temp\ccNVqL5c.s 			page 75


 3006 001c 02E0     		b	.L286
 3007              	.LVL334:
 3008              	.L287:
1218:e:\liteos\liteos\components\cmsis\2.0\cmsis_liteos2.c ****     }
 3009              		.loc 1 1218 0
 3010 001e 0020     		movs	r0, #0
 3011 0020 00E0     		b	.L286
 3012              	.L288:
1223:e:\liteos\liteos\components\cmsis\2.0\cmsis_liteos2.c ****     }
 3013              		.loc 1 1223 0
 3014 0022 0020     		movs	r0, #0
 3015              	.LVL335:
 3016              	.L286:
1231:e:\liteos\liteos\components\cmsis\2.0\cmsis_liteos2.c **** }
 3017              		.loc 1 1231 0
 3018              		@ sp needed
 3019 0024 10BD     		pop	{r4, pc}
 3020              		.cfi_endproc
 3021              	.LFE90:
 3023 0026 C046     		.section	.text.osMutexDelete,"ax",%progbits
 3024              		.align	2
 3025              		.global	osMutexDelete
 3026              		.code	16
 3027              		.thumb_func
 3029              	osMutexDelete:
 3030              	.LFB91:
1232:e:\liteos\liteos\components\cmsis\2.0\cmsis_liteos2.c **** 
1233:e:\liteos\liteos\components\cmsis\2.0\cmsis_liteos2.c **** 
1234:e:\liteos\liteos\components\cmsis\2.0\cmsis_liteos2.c **** osStatus_t osMutexDelete (osMutexId_t mutex_id)
1235:e:\liteos\liteos\components\cmsis\2.0\cmsis_liteos2.c **** {
 3031              		.loc 1 1235 0
 3032              		.cfi_startproc
 3033              		@ args = 0, pretend = 0, frame = 0
 3034              		@ frame_needed = 0, uses_anonymous_args = 0
 3035              	.LVL336:
 3036 0000 10B5     		push	{r4, lr}
 3037              	.LCFI47:
 3038              		.cfi_def_cfa_offset 8
 3039              		.cfi_offset 4, -8
 3040              		.cfi_offset 14, -4
 3041 0002 0400     		movs	r4, r0
1236:e:\liteos\liteos\components\cmsis\2.0\cmsis_liteos2.c ****     UINT32  uwRet;
1237:e:\liteos\liteos\components\cmsis\2.0\cmsis_liteos2.c **** 
1238:e:\liteos\liteos\components\cmsis\2.0\cmsis_liteos2.c ****     if (OS_INT_ACTIVE)
 3042              		.loc 1 1238 0
 3043 0004 FFF7FEFF 		bl	osIntNumGet
 3044              	.LVL337:
 3045 0008 0028     		cmp	r0, #0
 3046 000a 0CD1     		bne	.L291
1239:e:\liteos\liteos\components\cmsis\2.0\cmsis_liteos2.c ****     {
1240:e:\liteos\liteos\components\cmsis\2.0\cmsis_liteos2.c ****         return osErrorISR;
1241:e:\liteos\liteos\components\cmsis\2.0\cmsis_liteos2.c ****     }
1242:e:\liteos\liteos\components\cmsis\2.0\cmsis_liteos2.c **** 
1243:e:\liteos\liteos\components\cmsis\2.0\cmsis_liteos2.c ****     if (mutex_id == NULL)
 3047              		.loc 1 1243 0
 3048 000c 002C     		cmp	r4, #0
 3049 000e 0DD0     		beq	.L292
ARM GAS  C:\Users\WANGBI~1\AppData\Local\Temp\ccNVqL5c.s 			page 76


1244:e:\liteos\liteos\components\cmsis\2.0\cmsis_liteos2.c ****     {
1245:e:\liteos\liteos\components\cmsis\2.0\cmsis_liteos2.c ****         return osErrorParameter;
1246:e:\liteos\liteos\components\cmsis\2.0\cmsis_liteos2.c ****     }
1247:e:\liteos\liteos\components\cmsis\2.0\cmsis_liteos2.c **** 
1248:e:\liteos\liteos\components\cmsis\2.0\cmsis_liteos2.c ****     uwRet = LOS_MuxDelete(((MUX_CB_S *)mutex_id)->ucMuxID);
 3050              		.loc 1 1248 0
 3051 0010 6068     		ldr	r0, [r4, #4]
 3052 0012 FFF7FEFF 		bl	LOS_MuxDelete
 3053              	.LVL338:
1249:e:\liteos\liteos\components\cmsis\2.0\cmsis_liteos2.c **** 
1250:e:\liteos\liteos\components\cmsis\2.0\cmsis_liteos2.c ****     if(uwRet == LOS_OK)
 3054              		.loc 1 1250 0
 3055 0016 0028     		cmp	r0, #0
 3056 0018 0BD0     		beq	.L293
1251:e:\liteos\liteos\components\cmsis\2.0\cmsis_liteos2.c ****     {
1252:e:\liteos\liteos\components\cmsis\2.0\cmsis_liteos2.c ****         return osOK;
1253:e:\liteos\liteos\components\cmsis\2.0\cmsis_liteos2.c ****     }
1254:e:\liteos\liteos\components\cmsis\2.0\cmsis_liteos2.c ****     else if (uwRet == LOS_ERRNO_MUX_INVALID)
 3057              		.loc 1 1254 0
 3058 001a 084B     		ldr	r3, .L295
 3059 001c 9842     		cmp	r0, r3
 3060 001e 0AD1     		bne	.L294
1255:e:\liteos\liteos\components\cmsis\2.0\cmsis_liteos2.c ****     {
1256:e:\liteos\liteos\components\cmsis\2.0\cmsis_liteos2.c ****         return osErrorParameter;
 3061              		.loc 1 1256 0
 3062 0020 0420     		movs	r0, #4
 3063              	.LVL339:
 3064 0022 4042     		rsbs	r0, r0, #0
 3065 0024 09E0     		b	.L290
 3066              	.L291:
1240:e:\liteos\liteos\components\cmsis\2.0\cmsis_liteos2.c ****     }
 3067              		.loc 1 1240 0
 3068 0026 0620     		movs	r0, #6
 3069 0028 4042     		rsbs	r0, r0, #0
 3070 002a 06E0     		b	.L290
 3071              	.L292:
1245:e:\liteos\liteos\components\cmsis\2.0\cmsis_liteos2.c ****     }
 3072              		.loc 1 1245 0
 3073 002c 0420     		movs	r0, #4
 3074 002e 4042     		rsbs	r0, r0, #0
 3075 0030 03E0     		b	.L290
 3076              	.LVL340:
 3077              	.L293:
1252:e:\liteos\liteos\components\cmsis\2.0\cmsis_liteos2.c ****     }
 3078              		.loc 1 1252 0
 3079 0032 0020     		movs	r0, #0
 3080              	.LVL341:
 3081 0034 01E0     		b	.L290
 3082              	.LVL342:
 3083              	.L294:
1257:e:\liteos\liteos\components\cmsis\2.0\cmsis_liteos2.c ****     }
1258:e:\liteos\liteos\components\cmsis\2.0\cmsis_liteos2.c ****     else
1259:e:\liteos\liteos\components\cmsis\2.0\cmsis_liteos2.c ****     {
1260:e:\liteos\liteos\components\cmsis\2.0\cmsis_liteos2.c ****         return osErrorResource;
 3084              		.loc 1 1260 0
 3085 0036 0320     		movs	r0, #3
 3086              	.LVL343:
ARM GAS  C:\Users\WANGBI~1\AppData\Local\Temp\ccNVqL5c.s 			page 77


 3087 0038 4042     		rsbs	r0, r0, #0
 3088              	.L290:
1261:e:\liteos\liteos\components\cmsis\2.0\cmsis_liteos2.c ****     }
1262:e:\liteos\liteos\components\cmsis\2.0\cmsis_liteos2.c **** }
 3089              		.loc 1 1262 0
 3090              		@ sp needed
 3091              	.LVL344:
 3092 003a 10BD     		pop	{r4, pc}
 3093              	.L296:
 3094              		.align	2
 3095              	.L295:
 3096 003c 011D0002 		.word	33561857
 3097              		.cfi_endproc
 3098              	.LFE91:
 3100              		.section	.text.osSemaphoreNew,"ax",%progbits
 3101              		.align	2
 3102              		.global	osSemaphoreNew
 3103              		.code	16
 3104              		.thumb_func
 3106              	osSemaphoreNew:
 3107              	.LFB92:
1263:e:\liteos\liteos\components\cmsis\2.0\cmsis_liteos2.c **** #endif
1264:e:\liteos\liteos\components\cmsis\2.0\cmsis_liteos2.c **** 
1265:e:\liteos\liteos\components\cmsis\2.0\cmsis_liteos2.c **** //  ==== Semaphore Management Functions ====
1266:e:\liteos\liteos\components\cmsis\2.0\cmsis_liteos2.c **** #if (LOSCFG_BASE_IPC_SEM == YES)
1267:e:\liteos\liteos\components\cmsis\2.0\cmsis_liteos2.c **** 
1268:e:\liteos\liteos\components\cmsis\2.0\cmsis_liteos2.c **** osSemaphoreId_t osSemaphoreNew (uint32_t max_count, uint32_t initial_count, const osSemaphoreAttr_t
1269:e:\liteos\liteos\components\cmsis\2.0\cmsis_liteos2.c **** {
 3108              		.loc 1 1269 0
 3109              		.cfi_startproc
 3110              		@ args = 0, pretend = 0, frame = 8
 3111              		@ frame_needed = 0, uses_anonymous_args = 0
 3112              	.LVL345:
 3113 0000 30B5     		push	{r4, r5, lr}
 3114              	.LCFI48:
 3115              		.cfi_def_cfa_offset 12
 3116              		.cfi_offset 4, -12
 3117              		.cfi_offset 5, -8
 3118              		.cfi_offset 14, -4
 3119 0002 83B0     		sub	sp, sp, #12
 3120              	.LCFI49:
 3121              		.cfi_def_cfa_offset 24
 3122 0004 0500     		movs	r5, r0
 3123 0006 0C00     		movs	r4, r1
1270:e:\liteos\liteos\components\cmsis\2.0\cmsis_liteos2.c ****     UINT32 uwRet;
1271:e:\liteos\liteos\components\cmsis\2.0\cmsis_liteos2.c ****     UINT32 uwSemId;
1272:e:\liteos\liteos\components\cmsis\2.0\cmsis_liteos2.c **** 
1273:e:\liteos\liteos\components\cmsis\2.0\cmsis_liteos2.c ****     UNUSED(attr);
1274:e:\liteos\liteos\components\cmsis\2.0\cmsis_liteos2.c **** 
1275:e:\liteos\liteos\components\cmsis\2.0\cmsis_liteos2.c ****     if (OS_INT_ACTIVE)
 3124              		.loc 1 1275 0
 3125 0008 FFF7FEFF 		bl	osIntNumGet
 3126              	.LVL346:
 3127 000c 0028     		cmp	r0, #0
 3128 000e 12D1     		bne	.L301
1276:e:\liteos\liteos\components\cmsis\2.0\cmsis_liteos2.c ****     {
1277:e:\liteos\liteos\components\cmsis\2.0\cmsis_liteos2.c ****         return (osSemaphoreId_t)NULL;
ARM GAS  C:\Users\WANGBI~1\AppData\Local\Temp\ccNVqL5c.s 			page 78


1278:e:\liteos\liteos\components\cmsis\2.0\cmsis_liteos2.c ****     }
1279:e:\liteos\liteos\components\cmsis\2.0\cmsis_liteos2.c **** 
1280:e:\liteos\liteos\components\cmsis\2.0\cmsis_liteos2.c ****     if(1 == max_count)
 3129              		.loc 1 1280 0
 3130 0010 012D     		cmp	r5, #1
 3131 0012 04D1     		bne	.L299
1281:e:\liteos\liteos\components\cmsis\2.0\cmsis_liteos2.c ****     {
1282:e:\liteos\liteos\components\cmsis\2.0\cmsis_liteos2.c ****         uwRet = LOS_BinarySemCreate((UINT16)initial_count, &uwSemId);
 3132              		.loc 1 1282 0
 3133 0014 A0B2     		uxth	r0, r4
 3134 0016 01A9     		add	r1, sp, #4
 3135 0018 FFF7FEFF 		bl	LOS_BinarySemCreate
 3136              	.LVL347:
 3137 001c 03E0     		b	.L300
 3138              	.LVL348:
 3139              	.L299:
1283:e:\liteos\liteos\components\cmsis\2.0\cmsis_liteos2.c ****     }
1284:e:\liteos\liteos\components\cmsis\2.0\cmsis_liteos2.c ****     else
1285:e:\liteos\liteos\components\cmsis\2.0\cmsis_liteos2.c ****     {
1286:e:\liteos\liteos\components\cmsis\2.0\cmsis_liteos2.c ****         uwRet = LOS_SemCreate((UINT16)initial_count, &uwSemId);
 3140              		.loc 1 1286 0
 3141 001e A0B2     		uxth	r0, r4
 3142 0020 01A9     		add	r1, sp, #4
 3143 0022 FFF7FEFF 		bl	LOS_SemCreate
 3144              	.LVL349:
 3145              	.L300:
1287:e:\liteos\liteos\components\cmsis\2.0\cmsis_liteos2.c ****     }
1288:e:\liteos\liteos\components\cmsis\2.0\cmsis_liteos2.c **** 
1289:e:\liteos\liteos\components\cmsis\2.0\cmsis_liteos2.c ****     if (uwRet == LOS_OK)
 3146              		.loc 1 1289 0
 3147 0026 0028     		cmp	r0, #0
 3148 0028 07D1     		bne	.L302
1290:e:\liteos\liteos\components\cmsis\2.0\cmsis_liteos2.c ****     {
1291:e:\liteos\liteos\components\cmsis\2.0\cmsis_liteos2.c ****         return (osSemaphoreId_t)(GET_SEM(uwSemId));
 3149              		.loc 1 1291 0
 3150 002a 019B     		ldr	r3, [sp, #4]
 3151 002c 1B01     		lsls	r3, r3, #4
 3152 002e 044A     		ldr	r2, .L303
 3153 0030 1068     		ldr	r0, [r2]
 3154              	.LVL350:
 3155 0032 C018     		adds	r0, r0, r3
 3156 0034 02E0     		b	.L298
 3157              	.L301:
1277:e:\liteos\liteos\components\cmsis\2.0\cmsis_liteos2.c ****     }
 3158              		.loc 1 1277 0
 3159 0036 0020     		movs	r0, #0
 3160 0038 00E0     		b	.L298
 3161              	.LVL351:
 3162              	.L302:
1292:e:\liteos\liteos\components\cmsis\2.0\cmsis_liteos2.c ****     }
1293:e:\liteos\liteos\components\cmsis\2.0\cmsis_liteos2.c ****     else
1294:e:\liteos\liteos\components\cmsis\2.0\cmsis_liteos2.c ****     {
1295:e:\liteos\liteos\components\cmsis\2.0\cmsis_liteos2.c ****         return (osSemaphoreId_t)NULL;
 3163              		.loc 1 1295 0
 3164 003a 0020     		movs	r0, #0
 3165              	.LVL352:
 3166              	.L298:
ARM GAS  C:\Users\WANGBI~1\AppData\Local\Temp\ccNVqL5c.s 			page 79


1296:e:\liteos\liteos\components\cmsis\2.0\cmsis_liteos2.c ****     }
1297:e:\liteos\liteos\components\cmsis\2.0\cmsis_liteos2.c **** }
 3167              		.loc 1 1297 0
 3168 003c 03B0     		add	sp, sp, #12
 3169              		@ sp needed
 3170              	.LVL353:
 3171              	.LVL354:
 3172 003e 30BD     		pop	{r4, r5, pc}
 3173              	.L304:
 3174              		.align	2
 3175              	.L303:
 3176 0040 00000000 		.word	g_pstAllSem
 3177              		.cfi_endproc
 3178              	.LFE92:
 3180              		.section	.text.osSemaphoreAcquire,"ax",%progbits
 3181              		.align	2
 3182              		.global	osSemaphoreAcquire
 3183              		.code	16
 3184              		.thumb_func
 3186              	osSemaphoreAcquire:
 3187              	.LFB93:
1298:e:\liteos\liteos\components\cmsis\2.0\cmsis_liteos2.c **** 
1299:e:\liteos\liteos\components\cmsis\2.0\cmsis_liteos2.c **** 
1300:e:\liteos\liteos\components\cmsis\2.0\cmsis_liteos2.c **** osStatus_t osSemaphoreAcquire (osSemaphoreId_t semaphore_id, uint32_t timeout)
1301:e:\liteos\liteos\components\cmsis\2.0\cmsis_liteos2.c **** {
 3188              		.loc 1 1301 0
 3189              		.cfi_startproc
 3190              		@ args = 0, pretend = 0, frame = 0
 3191              		@ frame_needed = 0, uses_anonymous_args = 0
 3192              	.LVL355:
 3193 0000 70B5     		push	{r4, r5, r6, lr}
 3194              	.LCFI50:
 3195              		.cfi_def_cfa_offset 16
 3196              		.cfi_offset 4, -16
 3197              		.cfi_offset 5, -12
 3198              		.cfi_offset 6, -8
 3199              		.cfi_offset 14, -4
 3200 0002 0400     		movs	r4, r0
 3201 0004 0D00     		movs	r5, r1
1302:e:\liteos\liteos\components\cmsis\2.0\cmsis_liteos2.c ****     UINT32 uwRet;
1303:e:\liteos\liteos\components\cmsis\2.0\cmsis_liteos2.c **** 
1304:e:\liteos\liteos\components\cmsis\2.0\cmsis_liteos2.c ****     if (semaphore_id == NULL)
 3202              		.loc 1 1304 0
 3203 0006 0028     		cmp	r0, #0
 3204 0008 17D0     		beq	.L308
1305:e:\liteos\liteos\components\cmsis\2.0\cmsis_liteos2.c ****     {
1306:e:\liteos\liteos\components\cmsis\2.0\cmsis_liteos2.c ****         return osErrorParameter;
1307:e:\liteos\liteos\components\cmsis\2.0\cmsis_liteos2.c ****     }
1308:e:\liteos\liteos\components\cmsis\2.0\cmsis_liteos2.c **** 
1309:e:\liteos\liteos\components\cmsis\2.0\cmsis_liteos2.c ****     if (OS_INT_ACTIVE && (timeout != LOS_NO_WAIT))
 3205              		.loc 1 1309 0
 3206 000a FFF7FEFF 		bl	osIntNumGet
 3207              	.LVL356:
 3208 000e 0028     		cmp	r0, #0
 3209 0010 01D0     		beq	.L307
 3210              		.loc 1 1309 0 is_stmt 0 discriminator 1
 3211 0012 002D     		cmp	r5, #0
ARM GAS  C:\Users\WANGBI~1\AppData\Local\Temp\ccNVqL5c.s 			page 80


 3212 0014 14D1     		bne	.L309
 3213              	.L307:
1310:e:\liteos\liteos\components\cmsis\2.0\cmsis_liteos2.c ****     {
1311:e:\liteos\liteos\components\cmsis\2.0\cmsis_liteos2.c ****         return osErrorISR;
1312:e:\liteos\liteos\components\cmsis\2.0\cmsis_liteos2.c ****     }
1313:e:\liteos\liteos\components\cmsis\2.0\cmsis_liteos2.c **** 
1314:e:\liteos\liteos\components\cmsis\2.0\cmsis_liteos2.c ****     uwRet = LOS_SemPend(((SEM_CB_S *)semaphore_id)->usSemID, timeout);
 3214              		.loc 1 1314 0 is_stmt 1
 3215 0016 E088     		ldrh	r0, [r4, #6]
 3216 0018 2900     		movs	r1, r5
 3217 001a FFF7FEFF 		bl	LOS_SemPend
 3218              	.LVL357:
1315:e:\liteos\liteos\components\cmsis\2.0\cmsis_liteos2.c **** 
1316:e:\liteos\liteos\components\cmsis\2.0\cmsis_liteos2.c ****     if (uwRet == LOS_OK)
 3219              		.loc 1 1316 0
 3220 001e 0028     		cmp	r0, #0
 3221 0020 11D0     		beq	.L310
1317:e:\liteos\liteos\components\cmsis\2.0\cmsis_liteos2.c ****     {
1318:e:\liteos\liteos\components\cmsis\2.0\cmsis_liteos2.c ****         return osOK;
1319:e:\liteos\liteos\components\cmsis\2.0\cmsis_liteos2.c ****     }
1320:e:\liteos\liteos\components\cmsis\2.0\cmsis_liteos2.c ****     else if (uwRet == LOS_ERRNO_SEM_TIMEOUT)
 3222              		.loc 1 1320 0
 3223 0022 0E4B     		ldr	r3, .L314
 3224 0024 9842     		cmp	r0, r3
 3225 0026 10D0     		beq	.L311
1321:e:\liteos\liteos\components\cmsis\2.0\cmsis_liteos2.c ****     {
1322:e:\liteos\liteos\components\cmsis\2.0\cmsis_liteos2.c ****         return osErrorTimeout;
1323:e:\liteos\liteos\components\cmsis\2.0\cmsis_liteos2.c ****     }
1324:e:\liteos\liteos\components\cmsis\2.0\cmsis_liteos2.c ****     else if (uwRet == LOS_ERRNO_SEM_INVALID)
 3226              		.loc 1 1324 0
 3227 0028 0D4B     		ldr	r3, .L314+4
 3228 002a 9842     		cmp	r0, r3
 3229 002c 10D0     		beq	.L312
1325:e:\liteos\liteos\components\cmsis\2.0\cmsis_liteos2.c ****     {
1326:e:\liteos\liteos\components\cmsis\2.0\cmsis_liteos2.c ****         return osErrorParameter;
1327:e:\liteos\liteos\components\cmsis\2.0\cmsis_liteos2.c ****     }
1328:e:\liteos\liteos\components\cmsis\2.0\cmsis_liteos2.c ****     else if (uwRet == LOS_ERRNO_SEM_PEND_INTERR)
 3230              		.loc 1 1328 0
 3231 002e 0D4B     		ldr	r3, .L314+8
 3232 0030 9842     		cmp	r0, r3
 3233 0032 10D1     		bne	.L313
1329:e:\liteos\liteos\components\cmsis\2.0\cmsis_liteos2.c ****     {
1330:e:\liteos\liteos\components\cmsis\2.0\cmsis_liteos2.c ****         return osErrorISR;
 3234              		.loc 1 1330 0
 3235 0034 0620     		movs	r0, #6
 3236              	.LVL358:
 3237 0036 4042     		rsbs	r0, r0, #0
 3238 0038 0FE0     		b	.L306
 3239              	.LVL359:
 3240              	.L308:
1306:e:\liteos\liteos\components\cmsis\2.0\cmsis_liteos2.c ****     }
 3241              		.loc 1 1306 0
 3242 003a 0420     		movs	r0, #4
 3243              	.LVL360:
 3244 003c 4042     		rsbs	r0, r0, #0
 3245 003e 0CE0     		b	.L306
 3246              	.LVL361:
ARM GAS  C:\Users\WANGBI~1\AppData\Local\Temp\ccNVqL5c.s 			page 81


 3247              	.L309:
1311:e:\liteos\liteos\components\cmsis\2.0\cmsis_liteos2.c ****     }
 3248              		.loc 1 1311 0
 3249 0040 0620     		movs	r0, #6
 3250 0042 4042     		rsbs	r0, r0, #0
 3251 0044 09E0     		b	.L306
 3252              	.LVL362:
 3253              	.L310:
1318:e:\liteos\liteos\components\cmsis\2.0\cmsis_liteos2.c ****     }
 3254              		.loc 1 1318 0
 3255 0046 0020     		movs	r0, #0
 3256              	.LVL363:
 3257 0048 07E0     		b	.L306
 3258              	.LVL364:
 3259              	.L311:
1322:e:\liteos\liteos\components\cmsis\2.0\cmsis_liteos2.c ****     }
 3260              		.loc 1 1322 0
 3261 004a 0220     		movs	r0, #2
 3262              	.LVL365:
 3263 004c 4042     		rsbs	r0, r0, #0
 3264 004e 04E0     		b	.L306
 3265              	.LVL366:
 3266              	.L312:
1326:e:\liteos\liteos\components\cmsis\2.0\cmsis_liteos2.c ****     }
 3267              		.loc 1 1326 0
 3268 0050 0420     		movs	r0, #4
 3269              	.LVL367:
 3270 0052 4042     		rsbs	r0, r0, #0
 3271 0054 01E0     		b	.L306
 3272              	.LVL368:
 3273              	.L313:
1331:e:\liteos\liteos\components\cmsis\2.0\cmsis_liteos2.c ****     }
1332:e:\liteos\liteos\components\cmsis\2.0\cmsis_liteos2.c ****     else
1333:e:\liteos\liteos\components\cmsis\2.0\cmsis_liteos2.c ****     {
1334:e:\liteos\liteos\components\cmsis\2.0\cmsis_liteos2.c ****         return osErrorResource;
 3274              		.loc 1 1334 0
 3275 0056 0320     		movs	r0, #3
 3276              	.LVL369:
 3277 0058 4042     		rsbs	r0, r0, #0
 3278              	.L306:
1335:e:\liteos\liteos\components\cmsis\2.0\cmsis_liteos2.c ****     }
1336:e:\liteos\liteos\components\cmsis\2.0\cmsis_liteos2.c **** }
 3279              		.loc 1 1336 0
 3280              		@ sp needed
 3281              	.LVL370:
 3282              	.LVL371:
 3283 005a 70BD     		pop	{r4, r5, r6, pc}
 3284              	.L315:
 3285              		.align	2
 3286              	.L314:
 3287 005c 07070002 		.word	33556231
 3288 0060 01070002 		.word	33556225
 3289 0064 05070002 		.word	33556229
 3290              		.cfi_endproc
 3291              	.LFE93:
 3293              		.section	.text.osSemaphoreRelease,"ax",%progbits
 3294              		.align	2
ARM GAS  C:\Users\WANGBI~1\AppData\Local\Temp\ccNVqL5c.s 			page 82


 3295              		.global	osSemaphoreRelease
 3296              		.code	16
 3297              		.thumb_func
 3299              	osSemaphoreRelease:
 3300              	.LFB94:
1337:e:\liteos\liteos\components\cmsis\2.0\cmsis_liteos2.c **** 
1338:e:\liteos\liteos\components\cmsis\2.0\cmsis_liteos2.c **** 
1339:e:\liteos\liteos\components\cmsis\2.0\cmsis_liteos2.c **** osStatus_t osSemaphoreRelease (osSemaphoreId_t semaphore_id)
1340:e:\liteos\liteos\components\cmsis\2.0\cmsis_liteos2.c **** {
 3301              		.loc 1 1340 0
 3302              		.cfi_startproc
 3303              		@ args = 0, pretend = 0, frame = 0
 3304              		@ frame_needed = 0, uses_anonymous_args = 0
 3305              	.LVL372:
 3306 0000 10B5     		push	{r4, lr}
 3307              	.LCFI51:
 3308              		.cfi_def_cfa_offset 8
 3309              		.cfi_offset 4, -8
 3310              		.cfi_offset 14, -4
1341:e:\liteos\liteos\components\cmsis\2.0\cmsis_liteos2.c ****     UINT32  uwRet;
1342:e:\liteos\liteos\components\cmsis\2.0\cmsis_liteos2.c **** 
1343:e:\liteos\liteos\components\cmsis\2.0\cmsis_liteos2.c ****     if (semaphore_id == NULL)
 3311              		.loc 1 1343 0
 3312 0002 0028     		cmp	r0, #0
 3313 0004 0AD0     		beq	.L318
1344:e:\liteos\liteos\components\cmsis\2.0\cmsis_liteos2.c ****     {
1345:e:\liteos\liteos\components\cmsis\2.0\cmsis_liteos2.c ****         return osErrorParameter;
1346:e:\liteos\liteos\components\cmsis\2.0\cmsis_liteos2.c ****     }
1347:e:\liteos\liteos\components\cmsis\2.0\cmsis_liteos2.c **** 
1348:e:\liteos\liteos\components\cmsis\2.0\cmsis_liteos2.c ****     uwRet = LOS_SemPost(((SEM_CB_S *)semaphore_id)->usSemID);
 3314              		.loc 1 1348 0
 3315 0006 C088     		ldrh	r0, [r0, #6]
 3316              	.LVL373:
 3317 0008 FFF7FEFF 		bl	LOS_SemPost
 3318              	.LVL374:
1349:e:\liteos\liteos\components\cmsis\2.0\cmsis_liteos2.c **** 
1350:e:\liteos\liteos\components\cmsis\2.0\cmsis_liteos2.c ****     if (uwRet == LOS_OK)
 3319              		.loc 1 1350 0
 3320 000c 0028     		cmp	r0, #0
 3321 000e 08D0     		beq	.L319
1351:e:\liteos\liteos\components\cmsis\2.0\cmsis_liteos2.c ****     {
1352:e:\liteos\liteos\components\cmsis\2.0\cmsis_liteos2.c ****         return osOK;
1353:e:\liteos\liteos\components\cmsis\2.0\cmsis_liteos2.c ****     }
1354:e:\liteos\liteos\components\cmsis\2.0\cmsis_liteos2.c ****     else if (uwRet == LOS_ERRNO_SEM_INVALID)
 3322              		.loc 1 1354 0
 3323 0010 064B     		ldr	r3, .L321
 3324 0012 9842     		cmp	r0, r3
 3325 0014 07D1     		bne	.L320
1355:e:\liteos\liteos\components\cmsis\2.0\cmsis_liteos2.c ****     {
1356:e:\liteos\liteos\components\cmsis\2.0\cmsis_liteos2.c ****         return osErrorParameter;
 3326              		.loc 1 1356 0
 3327 0016 0420     		movs	r0, #4
 3328              	.LVL375:
 3329 0018 4042     		rsbs	r0, r0, #0
 3330 001a 06E0     		b	.L317
 3331              	.LVL376:
 3332              	.L318:
ARM GAS  C:\Users\WANGBI~1\AppData\Local\Temp\ccNVqL5c.s 			page 83


1345:e:\liteos\liteos\components\cmsis\2.0\cmsis_liteos2.c ****     }
 3333              		.loc 1 1345 0
 3334 001c 0420     		movs	r0, #4
 3335              	.LVL377:
 3336 001e 4042     		rsbs	r0, r0, #0
 3337 0020 03E0     		b	.L317
 3338              	.LVL378:
 3339              	.L319:
1352:e:\liteos\liteos\components\cmsis\2.0\cmsis_liteos2.c ****     }
 3340              		.loc 1 1352 0
 3341 0022 0020     		movs	r0, #0
 3342              	.LVL379:
 3343 0024 01E0     		b	.L317
 3344              	.LVL380:
 3345              	.L320:
1357:e:\liteos\liteos\components\cmsis\2.0\cmsis_liteos2.c ****     }
1358:e:\liteos\liteos\components\cmsis\2.0\cmsis_liteos2.c ****     else
1359:e:\liteos\liteos\components\cmsis\2.0\cmsis_liteos2.c ****     {
1360:e:\liteos\liteos\components\cmsis\2.0\cmsis_liteos2.c ****         return osErrorResource;
 3346              		.loc 1 1360 0
 3347 0026 0320     		movs	r0, #3
 3348              	.LVL381:
 3349 0028 4042     		rsbs	r0, r0, #0
 3350              	.L317:
1361:e:\liteos\liteos\components\cmsis\2.0\cmsis_liteos2.c ****     }
1362:e:\liteos\liteos\components\cmsis\2.0\cmsis_liteos2.c **** }
 3351              		.loc 1 1362 0
 3352              		@ sp needed
 3353 002a 10BD     		pop	{r4, pc}
 3354              	.L322:
 3355              		.align	2
 3356              	.L321:
 3357 002c 01070002 		.word	33556225
 3358              		.cfi_endproc
 3359              	.LFE94:
 3361              		.section	.text.osSemaphoreGetCount,"ax",%progbits
 3362              		.align	2
 3363              		.global	osSemaphoreGetCount
 3364              		.code	16
 3365              		.thumb_func
 3367              	osSemaphoreGetCount:
 3368              	.LFB95:
1363:e:\liteos\liteos\components\cmsis\2.0\cmsis_liteos2.c **** 
1364:e:\liteos\liteos\components\cmsis\2.0\cmsis_liteos2.c **** 
1365:e:\liteos\liteos\components\cmsis\2.0\cmsis_liteos2.c **** uint32_t osSemaphoreGetCount (osSemaphoreId_t semaphore_id)
1366:e:\liteos\liteos\components\cmsis\2.0\cmsis_liteos2.c **** {
 3369              		.loc 1 1366 0
 3370              		.cfi_startproc
 3371              		@ args = 0, pretend = 0, frame = 0
 3372              		@ frame_needed = 0, uses_anonymous_args = 0
 3373              	.LVL382:
 3374 0000 10B5     		push	{r4, lr}
 3375              	.LCFI52:
 3376              		.cfi_def_cfa_offset 8
 3377              		.cfi_offset 4, -8
 3378              		.cfi_offset 14, -4
 3379 0002 0400     		movs	r4, r0
ARM GAS  C:\Users\WANGBI~1\AppData\Local\Temp\ccNVqL5c.s 			page 84


1367:e:\liteos\liteos\components\cmsis\2.0\cmsis_liteos2.c ****     UINT32 uwIntSave;
1368:e:\liteos\liteos\components\cmsis\2.0\cmsis_liteos2.c ****     UINT32 uwCount;
1369:e:\liteos\liteos\components\cmsis\2.0\cmsis_liteos2.c **** 
1370:e:\liteos\liteos\components\cmsis\2.0\cmsis_liteos2.c ****     if (OS_INT_ACTIVE)
 3380              		.loc 1 1370 0
 3381 0004 FFF7FEFF 		bl	osIntNumGet
 3382              	.LVL383:
 3383 0008 0028     		cmp	r0, #0
 3384 000a 08D1     		bne	.L325
1371:e:\liteos\liteos\components\cmsis\2.0\cmsis_liteos2.c ****     {
1372:e:\liteos\liteos\components\cmsis\2.0\cmsis_liteos2.c ****         return 0;
1373:e:\liteos\liteos\components\cmsis\2.0\cmsis_liteos2.c ****     }
1374:e:\liteos\liteos\components\cmsis\2.0\cmsis_liteos2.c **** 
1375:e:\liteos\liteos\components\cmsis\2.0\cmsis_liteos2.c ****     if (semaphore_id == NULL)
 3385              		.loc 1 1375 0
 3386 000c 002C     		cmp	r4, #0
 3387 000e 08D0     		beq	.L326
1376:e:\liteos\liteos\components\cmsis\2.0\cmsis_liteos2.c ****     {
1377:e:\liteos\liteos\components\cmsis\2.0\cmsis_liteos2.c ****         return 0;
1378:e:\liteos\liteos\components\cmsis\2.0\cmsis_liteos2.c ****     }
1379:e:\liteos\liteos\components\cmsis\2.0\cmsis_liteos2.c **** 
1380:e:\liteos\liteos\components\cmsis\2.0\cmsis_liteos2.c ****     uwIntSave = LOS_IntLock();
 3388              		.loc 1 1380 0
 3389 0010 FFF7FEFF 		bl	LOS_IntLock
 3390              	.LVL384:
1381:e:\liteos\liteos\components\cmsis\2.0\cmsis_liteos2.c ****     uwCount = ((SEM_CB_S *)semaphore_id)->usSemCount;
 3391              		.loc 1 1381 0
 3392 0014 6488     		ldrh	r4, [r4, #2]
 3393              	.LVL385:
1382:e:\liteos\liteos\components\cmsis\2.0\cmsis_liteos2.c ****     (VOID)LOS_IntRestore(uwIntSave);
 3394              		.loc 1 1382 0
 3395 0016 FFF7FEFF 		bl	LOS_IntRestore
 3396              	.LVL386:
1383:e:\liteos\liteos\components\cmsis\2.0\cmsis_liteos2.c **** 
1384:e:\liteos\liteos\components\cmsis\2.0\cmsis_liteos2.c ****     return uwCount;
 3397              		.loc 1 1384 0
 3398 001a 2000     		movs	r0, r4
 3399 001c 02E0     		b	.L324
 3400              	.LVL387:
 3401              	.L325:
1372:e:\liteos\liteos\components\cmsis\2.0\cmsis_liteos2.c ****     }
 3402              		.loc 1 1372 0
 3403 001e 0020     		movs	r0, #0
 3404 0020 00E0     		b	.L324
 3405              	.L326:
1377:e:\liteos\liteos\components\cmsis\2.0\cmsis_liteos2.c ****     }
 3406              		.loc 1 1377 0
 3407 0022 0020     		movs	r0, #0
 3408              	.LVL388:
 3409              	.L324:
1385:e:\liteos\liteos\components\cmsis\2.0\cmsis_liteos2.c **** }
 3410              		.loc 1 1385 0
 3411              		@ sp needed
 3412 0024 10BD     		pop	{r4, pc}
 3413              		.cfi_endproc
 3414              	.LFE95:
 3416 0026 C046     		.section	.text.osSemaphoreDelete,"ax",%progbits
ARM GAS  C:\Users\WANGBI~1\AppData\Local\Temp\ccNVqL5c.s 			page 85


 3417              		.align	2
 3418              		.global	osSemaphoreDelete
 3419              		.code	16
 3420              		.thumb_func
 3422              	osSemaphoreDelete:
 3423              	.LFB96:
1386:e:\liteos\liteos\components\cmsis\2.0\cmsis_liteos2.c **** 
1387:e:\liteos\liteos\components\cmsis\2.0\cmsis_liteos2.c **** 
1388:e:\liteos\liteos\components\cmsis\2.0\cmsis_liteos2.c **** osStatus_t osSemaphoreDelete (osSemaphoreId_t semaphore_id)
1389:e:\liteos\liteos\components\cmsis\2.0\cmsis_liteos2.c **** {
 3424              		.loc 1 1389 0
 3425              		.cfi_startproc
 3426              		@ args = 0, pretend = 0, frame = 0
 3427              		@ frame_needed = 0, uses_anonymous_args = 0
 3428              	.LVL389:
 3429 0000 10B5     		push	{r4, lr}
 3430              	.LCFI53:
 3431              		.cfi_def_cfa_offset 8
 3432              		.cfi_offset 4, -8
 3433              		.cfi_offset 14, -4
 3434 0002 0400     		movs	r4, r0
1390:e:\liteos\liteos\components\cmsis\2.0\cmsis_liteos2.c ****     UINT32  uwRet;
1391:e:\liteos\liteos\components\cmsis\2.0\cmsis_liteos2.c **** 
1392:e:\liteos\liteos\components\cmsis\2.0\cmsis_liteos2.c ****     if (OS_INT_ACTIVE)
 3435              		.loc 1 1392 0
 3436 0004 FFF7FEFF 		bl	osIntNumGet
 3437              	.LVL390:
 3438 0008 0028     		cmp	r0, #0
 3439 000a 0CD1     		bne	.L329
1393:e:\liteos\liteos\components\cmsis\2.0\cmsis_liteos2.c ****     {
1394:e:\liteos\liteos\components\cmsis\2.0\cmsis_liteos2.c ****         return osErrorISR;
1395:e:\liteos\liteos\components\cmsis\2.0\cmsis_liteos2.c ****     }
1396:e:\liteos\liteos\components\cmsis\2.0\cmsis_liteos2.c **** 
1397:e:\liteos\liteos\components\cmsis\2.0\cmsis_liteos2.c ****     if (semaphore_id == NULL)
 3440              		.loc 1 1397 0
 3441 000c 002C     		cmp	r4, #0
 3442 000e 0DD0     		beq	.L330
1398:e:\liteos\liteos\components\cmsis\2.0\cmsis_liteos2.c ****     {
1399:e:\liteos\liteos\components\cmsis\2.0\cmsis_liteos2.c ****         return osErrorParameter;
1400:e:\liteos\liteos\components\cmsis\2.0\cmsis_liteos2.c ****     }
1401:e:\liteos\liteos\components\cmsis\2.0\cmsis_liteos2.c **** 
1402:e:\liteos\liteos\components\cmsis\2.0\cmsis_liteos2.c ****     uwRet = LOS_SemDelete(((SEM_CB_S *)semaphore_id)->usSemID);
 3443              		.loc 1 1402 0
 3444 0010 E088     		ldrh	r0, [r4, #6]
 3445 0012 FFF7FEFF 		bl	LOS_SemDelete
 3446              	.LVL391:
1403:e:\liteos\liteos\components\cmsis\2.0\cmsis_liteos2.c **** 
1404:e:\liteos\liteos\components\cmsis\2.0\cmsis_liteos2.c ****     if (uwRet == LOS_OK)
 3447              		.loc 1 1404 0
 3448 0016 0028     		cmp	r0, #0
 3449 0018 0BD0     		beq	.L331
1405:e:\liteos\liteos\components\cmsis\2.0\cmsis_liteos2.c ****     {
1406:e:\liteos\liteos\components\cmsis\2.0\cmsis_liteos2.c ****         return osOK;
1407:e:\liteos\liteos\components\cmsis\2.0\cmsis_liteos2.c ****     }
1408:e:\liteos\liteos\components\cmsis\2.0\cmsis_liteos2.c ****     else if (uwRet == LOS_ERRNO_SEM_INVALID)
 3450              		.loc 1 1408 0
 3451 001a 084B     		ldr	r3, .L333
ARM GAS  C:\Users\WANGBI~1\AppData\Local\Temp\ccNVqL5c.s 			page 86


 3452 001c 9842     		cmp	r0, r3
 3453 001e 0AD1     		bne	.L332
1409:e:\liteos\liteos\components\cmsis\2.0\cmsis_liteos2.c ****     {
1410:e:\liteos\liteos\components\cmsis\2.0\cmsis_liteos2.c ****         return osErrorParameter;
 3454              		.loc 1 1410 0
 3455 0020 0420     		movs	r0, #4
 3456              	.LVL392:
 3457 0022 4042     		rsbs	r0, r0, #0
 3458 0024 09E0     		b	.L328
 3459              	.L329:
1394:e:\liteos\liteos\components\cmsis\2.0\cmsis_liteos2.c ****     }
 3460              		.loc 1 1394 0
 3461 0026 0620     		movs	r0, #6
 3462 0028 4042     		rsbs	r0, r0, #0
 3463 002a 06E0     		b	.L328
 3464              	.L330:
1399:e:\liteos\liteos\components\cmsis\2.0\cmsis_liteos2.c ****     }
 3465              		.loc 1 1399 0
 3466 002c 0420     		movs	r0, #4
 3467 002e 4042     		rsbs	r0, r0, #0
 3468 0030 03E0     		b	.L328
 3469              	.LVL393:
 3470              	.L331:
1406:e:\liteos\liteos\components\cmsis\2.0\cmsis_liteos2.c ****     }
 3471              		.loc 1 1406 0
 3472 0032 0020     		movs	r0, #0
 3473              	.LVL394:
 3474 0034 01E0     		b	.L328
 3475              	.LVL395:
 3476              	.L332:
1411:e:\liteos\liteos\components\cmsis\2.0\cmsis_liteos2.c ****     }
1412:e:\liteos\liteos\components\cmsis\2.0\cmsis_liteos2.c ****     else
1413:e:\liteos\liteos\components\cmsis\2.0\cmsis_liteos2.c ****     {
1414:e:\liteos\liteos\components\cmsis\2.0\cmsis_liteos2.c ****         return osErrorResource;
 3477              		.loc 1 1414 0
 3478 0036 0320     		movs	r0, #3
 3479              	.LVL396:
 3480 0038 4042     		rsbs	r0, r0, #0
 3481              	.L328:
1415:e:\liteos\liteos\components\cmsis\2.0\cmsis_liteos2.c ****     }
1416:e:\liteos\liteos\components\cmsis\2.0\cmsis_liteos2.c **** }
 3482              		.loc 1 1416 0
 3483              		@ sp needed
 3484              	.LVL397:
 3485 003a 10BD     		pop	{r4, pc}
 3486              	.L334:
 3487              		.align	2
 3488              	.L333:
 3489 003c 01070002 		.word	33556225
 3490              		.cfi_endproc
 3491              	.LFE96:
 3493              		.section	.text.osMessageQueueNew,"ax",%progbits
 3494              		.align	2
 3495              		.global	osMessageQueueNew
 3496              		.code	16
 3497              		.thumb_func
 3499              	osMessageQueueNew:
ARM GAS  C:\Users\WANGBI~1\AppData\Local\Temp\ccNVqL5c.s 			page 87


 3500              	.LFB97:
1417:e:\liteos\liteos\components\cmsis\2.0\cmsis_liteos2.c **** #endif
1418:e:\liteos\liteos\components\cmsis\2.0\cmsis_liteos2.c **** 
1419:e:\liteos\liteos\components\cmsis\2.0\cmsis_liteos2.c **** 
1420:e:\liteos\liteos\components\cmsis\2.0\cmsis_liteos2.c **** //  ==== Message Queue Management Functions ====
1421:e:\liteos\liteos\components\cmsis\2.0\cmsis_liteos2.c **** #if (LOSCFG_BASE_IPC_QUEUE == YES)
1422:e:\liteos\liteos\components\cmsis\2.0\cmsis_liteos2.c **** osMessageQueueId_t osMessageQueueNew (uint32_t msg_count, uint32_t msg_size, const osMessageQueueAt
1423:e:\liteos\liteos\components\cmsis\2.0\cmsis_liteos2.c **** {
 3501              		.loc 1 1423 0
 3502              		.cfi_startproc
 3503              		@ args = 0, pretend = 0, frame = 8
 3504              		@ frame_needed = 0, uses_anonymous_args = 0
 3505              	.LVL398:
 3506 0000 30B5     		push	{r4, r5, lr}
 3507              	.LCFI54:
 3508              		.cfi_def_cfa_offset 12
 3509              		.cfi_offset 4, -12
 3510              		.cfi_offset 5, -8
 3511              		.cfi_offset 14, -4
 3512 0002 85B0     		sub	sp, sp, #20
 3513              	.LCFI55:
 3514              		.cfi_def_cfa_offset 32
 3515 0004 0400     		movs	r4, r0
 3516 0006 0D00     		movs	r5, r1
1424:e:\liteos\liteos\components\cmsis\2.0\cmsis_liteos2.c ****     UINT32 uwQueueID;
1425:e:\liteos\liteos\components\cmsis\2.0\cmsis_liteos2.c ****     UINT32 uwRet;
1426:e:\liteos\liteos\components\cmsis\2.0\cmsis_liteos2.c ****     UNUSED(attr);
1427:e:\liteos\liteos\components\cmsis\2.0\cmsis_liteos2.c ****     osMessageQueueId_t handle;
1428:e:\liteos\liteos\components\cmsis\2.0\cmsis_liteos2.c **** 
1429:e:\liteos\liteos\components\cmsis\2.0\cmsis_liteos2.c ****     if(0 == msg_count || 0 == msg_size || OS_INT_ACTIVE)
 3517              		.loc 1 1429 0
 3518 0008 0028     		cmp	r0, #0
 3519 000a 15D0     		beq	.L337
 3520              		.loc 1 1429 0 is_stmt 0 discriminator 1
