ARM GAS  C:\Users\WANGBI~1\AppData\Local\Temp\ccQL37zL.s 			page 1


   1              		.syntax unified
   2              		.cpu cortex-m0plus
   3              		.fpu softvfp
   4              		.eabi_attribute 20, 1
   5              		.eabi_attribute 21, 1
   6              		.eabi_attribute 23, 3
   7              		.eabi_attribute 24, 1
   8              		.eabi_attribute 25, 1
   9              		.eabi_attribute 26, 1
  10              		.eabi_attribute 30, 1
  11              		.eabi_attribute 34, 0
  12              		.eabi_attribute 18, 4
  13              		.thumb
  14              		.syntax unified
  15              		.file	"fm33a0xx_lcd.c"
  16              		.text
  17              	.Ltext0:
  18              		.cfi_sections	.debug_frame
  19              		.section	.text.LCD_DISPCTRL_ANTIPOLAR_Setable,"ax",%progbits
  20              		.align	2
  21              		.global	LCD_DISPCTRL_ANTIPOLAR_Setable
  22              		.code	16
  23              		.thumb_func
  25              	LCD_DISPCTRL_ANTIPOLAR_Setable:
  26              	.LFB36:
  27              		.file 1 "e:/LiteOS/LiteOS/targets/Cloud_FM33A0XX/GCC/../../../targets/Cloud_FM33A0XX/Drivers/fm33a
   1:e:/LiteOS/LiteOS/targets/Cloud_FM33A0XX/GCC/../../../targets/Cloud_FM33A0XX/Drivers\fm33a0xx_lcd.c **** /**
   2:e:/LiteOS/LiteOS/targets/Cloud_FM33A0XX/GCC/../../../targets/Cloud_FM33A0XX/Drivers\fm33a0xx_lcd.c ****   ******************************************************************************
   3:e:/LiteOS/LiteOS/targets/Cloud_FM33A0XX/GCC/../../../targets/Cloud_FM33A0XX/Drivers\fm33a0xx_lcd.c ****   * @file    fm33a00xx_lcd.c
   4:e:/LiteOS/LiteOS/targets/Cloud_FM33A0XX/GCC/../../../targets/Cloud_FM33A0XX/Drivers\fm33a0xx_lcd.c ****   * @author  FM33a0xx Application Team
   5:e:/LiteOS/LiteOS/targets/Cloud_FM33A0XX/GCC/../../../targets/Cloud_FM33A0XX/Drivers\fm33a0xx_lcd.c ****   * @version V2.0.1
   6:e:/LiteOS/LiteOS/targets/Cloud_FM33A0XX/GCC/../../../targets/Cloud_FM33A0XX/Drivers\fm33a0xx_lcd.c ****   * @date    11-1-2018
   7:e:/LiteOS/LiteOS/targets/Cloud_FM33A0XX/GCC/../../../targets/Cloud_FM33A0XX/Drivers\fm33a0xx_lcd.c ****   * @brief   This file provides firmware functions to manage the following 
   8:e:/LiteOS/LiteOS/targets/Cloud_FM33A0XX/GCC/../../../targets/Cloud_FM33A0XX/Drivers\fm33a0xx_lcd.c ****   *          functionalities of....:
   9:e:/LiteOS/LiteOS/targets/Cloud_FM33A0XX/GCC/../../../targets/Cloud_FM33A0XX/Drivers\fm33a0xx_lcd.c ****   *
  10:e:/LiteOS/LiteOS/targets/Cloud_FM33A0XX/GCC/../../../targets/Cloud_FM33A0XX/Drivers\fm33a0xx_lcd.c **** */
  11:e:/LiteOS/LiteOS/targets/Cloud_FM33A0XX/GCC/../../../targets/Cloud_FM33A0XX/Drivers\fm33a0xx_lcd.c **** #include "fm33A0xx_lcd.h" 
  12:e:/LiteOS/LiteOS/targets/Cloud_FM33A0XX/GCC/../../../targets/Cloud_FM33A0XX/Drivers\fm33a0xx_lcd.c **** 
  13:e:/LiteOS/LiteOS/targets/Cloud_FM33A0XX/GCC/../../../targets/Cloud_FM33A0XX/Drivers\fm33a0xx_lcd.c **** //Code_Start
  14:e:/LiteOS/LiteOS/targets/Cloud_FM33A0XX/GCC/../../../targets/Cloud_FM33A0XX/Drivers\fm33a0xx_lcd.c **** //2018-04-02-13-21-29
  15:e:/LiteOS/LiteOS/targets/Cloud_FM33A0XX/GCC/../../../targets/Cloud_FM33A0XX/Drivers\fm33a0xx_lcd.c **** //FM33A0XX_Driver_Gen_V1.4
  16:e:/LiteOS/LiteOS/targets/Cloud_FM33A0XX/GCC/../../../targets/Cloud_FM33A0XX/Drivers\fm33a0xx_lcd.c **** 
  17:e:/LiteOS/LiteOS/targets/Cloud_FM33A0XX/GCC/../../../targets/Cloud_FM33A0XX/Drivers\fm33a0xx_lcd.c **** /* 防极化 相关函数 */
  18:e:/LiteOS/LiteOS/targets/Cloud_FM33A0XX/GCC/../../../targets/Cloud_FM33A0XX/Drivers\fm33a0xx_lcd.c **** void LCD_DISPCTRL_ANTIPOLAR_Setable(FunState NewState)
  19:e:/LiteOS/LiteOS/targets/Cloud_FM33A0XX/GCC/../../../targets/Cloud_FM33A0XX/Drivers\fm33a0xx_lcd.c **** {
  28              		.loc 1 19 0
  29              		.cfi_startproc
  30              		@ args = 0, pretend = 0, frame = 0
  31              		@ frame_needed = 0, uses_anonymous_args = 0
  32              		@ link register save eliminated.
  33              	.LVL0:
  20:e:/LiteOS/LiteOS/targets/Cloud_FM33A0XX/GCC/../../../targets/Cloud_FM33A0XX/Drivers\fm33a0xx_lcd.c **** 	if (NewState == ENABLE)
  34              		.loc 1 20 0
  35 0000 0128     		cmp	r0, #1
  36 0002 05D1     		bne	.L2
  21:e:/LiteOS/LiteOS/targets/Cloud_FM33A0XX/GCC/../../../targets/Cloud_FM33A0XX/Drivers\fm33a0xx_lcd.c **** 	{
  22:e:/LiteOS/LiteOS/targets/Cloud_FM33A0XX/GCC/../../../targets/Cloud_FM33A0XX/Drivers\fm33a0xx_lcd.c **** 		LCD->DISPCTRL |= (LCD_DISPCTRL_ANTIPOLAR_Msk);
ARM GAS  C:\Users\WANGBI~1\AppData\Local\Temp\ccQL37zL.s 			page 2


  37              		.loc 1 22 0
  38 0004 054A     		ldr	r2, .L4
  39 0006 1168     		ldr	r1, [r2]
  40 0008 8023     		movs	r3, #128
  41 000a 0B43     		orrs	r3, r1
  42 000c 1360     		str	r3, [r2]
  43 000e 04E0     		b	.L1
  44              	.L2:
  23:e:/LiteOS/LiteOS/targets/Cloud_FM33A0XX/GCC/../../../targets/Cloud_FM33A0XX/Drivers\fm33a0xx_lcd.c **** 	}
  24:e:/LiteOS/LiteOS/targets/Cloud_FM33A0XX/GCC/../../../targets/Cloud_FM33A0XX/Drivers\fm33a0xx_lcd.c **** 	else
  25:e:/LiteOS/LiteOS/targets/Cloud_FM33A0XX/GCC/../../../targets/Cloud_FM33A0XX/Drivers\fm33a0xx_lcd.c **** 	{
  26:e:/LiteOS/LiteOS/targets/Cloud_FM33A0XX/GCC/../../../targets/Cloud_FM33A0XX/Drivers\fm33a0xx_lcd.c **** 		LCD->DISPCTRL &= ~(LCD_DISPCTRL_ANTIPOLAR_Msk);
  45              		.loc 1 26 0
  46 0010 024A     		ldr	r2, .L4
  47 0012 1368     		ldr	r3, [r2]
  48 0014 8021     		movs	r1, #128
  49 0016 8B43     		bics	r3, r1
  50 0018 1360     		str	r3, [r2]
  51              	.L1:
  27:e:/LiteOS/LiteOS/targets/Cloud_FM33A0XX/GCC/../../../targets/Cloud_FM33A0XX/Drivers\fm33a0xx_lcd.c **** 	}
  28:e:/LiteOS/LiteOS/targets/Cloud_FM33A0XX/GCC/../../../targets/Cloud_FM33A0XX/Drivers\fm33a0xx_lcd.c **** }
  52              		.loc 1 28 0
  53              		@ sp needed
  54 001a 7047     		bx	lr
  55              	.L5:
  56              		.align	2
  57              	.L4:
  58 001c 000C0140 		.word	1073810432
  59              		.cfi_endproc
  60              	.LFE36:
  62              		.section	.text.LCD_DISPCTRL_ANTIPOLAR_Getable,"ax",%progbits
  63              		.align	2
  64              		.global	LCD_DISPCTRL_ANTIPOLAR_Getable
  65              		.code	16
  66              		.thumb_func
  68              	LCD_DISPCTRL_ANTIPOLAR_Getable:
  69              	.LFB37:
  29:e:/LiteOS/LiteOS/targets/Cloud_FM33A0XX/GCC/../../../targets/Cloud_FM33A0XX/Drivers\fm33a0xx_lcd.c **** 
  30:e:/LiteOS/LiteOS/targets/Cloud_FM33A0XX/GCC/../../../targets/Cloud_FM33A0XX/Drivers\fm33a0xx_lcd.c **** FunState LCD_DISPCTRL_ANTIPOLAR_Getable(void)
  31:e:/LiteOS/LiteOS/targets/Cloud_FM33A0XX/GCC/../../../targets/Cloud_FM33A0XX/Drivers\fm33a0xx_lcd.c **** {
  70              		.loc 1 31 0
  71              		.cfi_startproc
  72              		@ args = 0, pretend = 0, frame = 0
  73              		@ frame_needed = 0, uses_anonymous_args = 0
  74              		@ link register save eliminated.
  32:e:/LiteOS/LiteOS/targets/Cloud_FM33A0XX/GCC/../../../targets/Cloud_FM33A0XX/Drivers\fm33a0xx_lcd.c **** 	if (LCD->DISPCTRL & (LCD_DISPCTRL_ANTIPOLAR_Msk))
  75              		.loc 1 32 0
  76 0000 034B     		ldr	r3, .L9
  77 0002 1B68     		ldr	r3, [r3]
  78 0004 1B06     		lsls	r3, r3, #24
  79 0006 01D5     		bpl	.L8
  33:e:/LiteOS/LiteOS/targets/Cloud_FM33A0XX/GCC/../../../targets/Cloud_FM33A0XX/Drivers\fm33a0xx_lcd.c **** 	{
  34:e:/LiteOS/LiteOS/targets/Cloud_FM33A0XX/GCC/../../../targets/Cloud_FM33A0XX/Drivers\fm33a0xx_lcd.c **** 		return ENABLE;
  80              		.loc 1 34 0
  81 0008 0120     		movs	r0, #1
  82 000a 00E0     		b	.L7
  83              	.L8:
ARM GAS  C:\Users\WANGBI~1\AppData\Local\Temp\ccQL37zL.s 			page 3


  35:e:/LiteOS/LiteOS/targets/Cloud_FM33A0XX/GCC/../../../targets/Cloud_FM33A0XX/Drivers\fm33a0xx_lcd.c **** 	}
  36:e:/LiteOS/LiteOS/targets/Cloud_FM33A0XX/GCC/../../../targets/Cloud_FM33A0XX/Drivers\fm33a0xx_lcd.c **** 	else
  37:e:/LiteOS/LiteOS/targets/Cloud_FM33A0XX/GCC/../../../targets/Cloud_FM33A0XX/Drivers\fm33a0xx_lcd.c **** 	{
  38:e:/LiteOS/LiteOS/targets/Cloud_FM33A0XX/GCC/../../../targets/Cloud_FM33A0XX/Drivers\fm33a0xx_lcd.c **** 		return DISABLE;
  84              		.loc 1 38 0
  85 000c 0020     		movs	r0, #0
  86              	.L7:
  39:e:/LiteOS/LiteOS/targets/Cloud_FM33A0XX/GCC/../../../targets/Cloud_FM33A0XX/Drivers\fm33a0xx_lcd.c **** 	}
  40:e:/LiteOS/LiteOS/targets/Cloud_FM33A0XX/GCC/../../../targets/Cloud_FM33A0XX/Drivers\fm33a0xx_lcd.c **** }
  87              		.loc 1 40 0
  88              		@ sp needed
  89 000e 7047     		bx	lr
  90              	.L10:
  91              		.align	2
  92              	.L9:
  93 0010 000C0140 		.word	1073810432
  94              		.cfi_endproc
  95              	.LFE37:
  97              		.section	.text.LCD_DISPCTRL_LCDEN_Setable,"ax",%progbits
  98              		.align	2
  99              		.global	LCD_DISPCTRL_LCDEN_Setable
 100              		.code	16
 101              		.thumb_func
 103              	LCD_DISPCTRL_LCDEN_Setable:
 104              	.LFB38:
  41:e:/LiteOS/LiteOS/targets/Cloud_FM33A0XX/GCC/../../../targets/Cloud_FM33A0XX/Drivers\fm33a0xx_lcd.c **** 
  42:e:/LiteOS/LiteOS/targets/Cloud_FM33A0XX/GCC/../../../targets/Cloud_FM33A0XX/Drivers\fm33a0xx_lcd.c **** /* LCD显示使能 相关函数 */
  43:e:/LiteOS/LiteOS/targets/Cloud_FM33A0XX/GCC/../../../targets/Cloud_FM33A0XX/Drivers\fm33a0xx_lcd.c **** void LCD_DISPCTRL_LCDEN_Setable(FunState NewState)
  44:e:/LiteOS/LiteOS/targets/Cloud_FM33A0XX/GCC/../../../targets/Cloud_FM33A0XX/Drivers\fm33a0xx_lcd.c **** {
 105              		.loc 1 44 0
 106              		.cfi_startproc
 107              		@ args = 0, pretend = 0, frame = 0
 108              		@ frame_needed = 0, uses_anonymous_args = 0
 109              		@ link register save eliminated.
 110              	.LVL1:
  45:e:/LiteOS/LiteOS/targets/Cloud_FM33A0XX/GCC/../../../targets/Cloud_FM33A0XX/Drivers\fm33a0xx_lcd.c **** 	if (NewState == ENABLE)
 111              		.loc 1 45 0
 112 0000 0128     		cmp	r0, #1
 113 0002 05D1     		bne	.L12
  46:e:/LiteOS/LiteOS/targets/Cloud_FM33A0XX/GCC/../../../targets/Cloud_FM33A0XX/Drivers\fm33a0xx_lcd.c **** 	{
  47:e:/LiteOS/LiteOS/targets/Cloud_FM33A0XX/GCC/../../../targets/Cloud_FM33A0XX/Drivers\fm33a0xx_lcd.c **** 		LCD->DISPCTRL |= (LCD_DISPCTRL_LCDEN_Msk);
 114              		.loc 1 47 0
 115 0004 054A     		ldr	r2, .L14
 116 0006 1168     		ldr	r1, [r2]
 117 0008 4023     		movs	r3, #64
 118 000a 0B43     		orrs	r3, r1
 119 000c 1360     		str	r3, [r2]
 120 000e 04E0     		b	.L11
 121              	.L12:
  48:e:/LiteOS/LiteOS/targets/Cloud_FM33A0XX/GCC/../../../targets/Cloud_FM33A0XX/Drivers\fm33a0xx_lcd.c **** 	}
  49:e:/LiteOS/LiteOS/targets/Cloud_FM33A0XX/GCC/../../../targets/Cloud_FM33A0XX/Drivers\fm33a0xx_lcd.c **** 	else
  50:e:/LiteOS/LiteOS/targets/Cloud_FM33A0XX/GCC/../../../targets/Cloud_FM33A0XX/Drivers\fm33a0xx_lcd.c **** 	{
  51:e:/LiteOS/LiteOS/targets/Cloud_FM33A0XX/GCC/../../../targets/Cloud_FM33A0XX/Drivers\fm33a0xx_lcd.c **** 		LCD->DISPCTRL &= ~(LCD_DISPCTRL_LCDEN_Msk);
 122              		.loc 1 51 0
 123 0010 024A     		ldr	r2, .L14
 124 0012 1368     		ldr	r3, [r2]
 125 0014 4021     		movs	r1, #64
ARM GAS  C:\Users\WANGBI~1\AppData\Local\Temp\ccQL37zL.s 			page 4


 126 0016 8B43     		bics	r3, r1
 127 0018 1360     		str	r3, [r2]
 128              	.L11:
  52:e:/LiteOS/LiteOS/targets/Cloud_FM33A0XX/GCC/../../../targets/Cloud_FM33A0XX/Drivers\fm33a0xx_lcd.c **** 	}
  53:e:/LiteOS/LiteOS/targets/Cloud_FM33A0XX/GCC/../../../targets/Cloud_FM33A0XX/Drivers\fm33a0xx_lcd.c **** }
 129              		.loc 1 53 0
 130              		@ sp needed
 131 001a 7047     		bx	lr
 132              	.L15:
 133              		.align	2
 134              	.L14:
 135 001c 000C0140 		.word	1073810432
 136              		.cfi_endproc
 137              	.LFE38:
 139              		.section	.text.LCD_DISPCTRL_LCDEN_Getable,"ax",%progbits
 140              		.align	2
 141              		.global	LCD_DISPCTRL_LCDEN_Getable
 142              		.code	16
 143              		.thumb_func
 145              	LCD_DISPCTRL_LCDEN_Getable:
 146              	.LFB39:
  54:e:/LiteOS/LiteOS/targets/Cloud_FM33A0XX/GCC/../../../targets/Cloud_FM33A0XX/Drivers\fm33a0xx_lcd.c **** 
  55:e:/LiteOS/LiteOS/targets/Cloud_FM33A0XX/GCC/../../../targets/Cloud_FM33A0XX/Drivers\fm33a0xx_lcd.c **** FunState LCD_DISPCTRL_LCDEN_Getable(void)
  56:e:/LiteOS/LiteOS/targets/Cloud_FM33A0XX/GCC/../../../targets/Cloud_FM33A0XX/Drivers\fm33a0xx_lcd.c **** {
 147              		.loc 1 56 0
 148              		.cfi_startproc
 149              		@ args = 0, pretend = 0, frame = 0
 150              		@ frame_needed = 0, uses_anonymous_args = 0
 151              		@ link register save eliminated.
  57:e:/LiteOS/LiteOS/targets/Cloud_FM33A0XX/GCC/../../../targets/Cloud_FM33A0XX/Drivers\fm33a0xx_lcd.c **** 	if (LCD->DISPCTRL & (LCD_DISPCTRL_LCDEN_Msk))
 152              		.loc 1 57 0
 153 0000 034B     		ldr	r3, .L19
 154 0002 1B68     		ldr	r3, [r3]
 155 0004 5B06     		lsls	r3, r3, #25
 156 0006 01D5     		bpl	.L18
  58:e:/LiteOS/LiteOS/targets/Cloud_FM33A0XX/GCC/../../../targets/Cloud_FM33A0XX/Drivers\fm33a0xx_lcd.c **** 	{
  59:e:/LiteOS/LiteOS/targets/Cloud_FM33A0XX/GCC/../../../targets/Cloud_FM33A0XX/Drivers\fm33a0xx_lcd.c **** 		return ENABLE;
 157              		.loc 1 59 0
 158 0008 0120     		movs	r0, #1
 159 000a 00E0     		b	.L17
 160              	.L18:
  60:e:/LiteOS/LiteOS/targets/Cloud_FM33A0XX/GCC/../../../targets/Cloud_FM33A0XX/Drivers\fm33a0xx_lcd.c **** 	}
  61:e:/LiteOS/LiteOS/targets/Cloud_FM33A0XX/GCC/../../../targets/Cloud_FM33A0XX/Drivers\fm33a0xx_lcd.c **** 	else
  62:e:/LiteOS/LiteOS/targets/Cloud_FM33A0XX/GCC/../../../targets/Cloud_FM33A0XX/Drivers\fm33a0xx_lcd.c **** 	{
  63:e:/LiteOS/LiteOS/targets/Cloud_FM33A0XX/GCC/../../../targets/Cloud_FM33A0XX/Drivers\fm33a0xx_lcd.c **** 		return DISABLE;
 161              		.loc 1 63 0
 162 000c 0020     		movs	r0, #0
 163              	.L17:
  64:e:/LiteOS/LiteOS/targets/Cloud_FM33A0XX/GCC/../../../targets/Cloud_FM33A0XX/Drivers\fm33a0xx_lcd.c **** 	}
  65:e:/LiteOS/LiteOS/targets/Cloud_FM33A0XX/GCC/../../../targets/Cloud_FM33A0XX/Drivers\fm33a0xx_lcd.c **** }
 164              		.loc 1 65 0
 165              		@ sp needed
 166 000e 7047     		bx	lr
 167              	.L20:
 168              		.align	2
 169              	.L19:
 170 0010 000C0140 		.word	1073810432
ARM GAS  C:\Users\WANGBI~1\AppData\Local\Temp\ccQL37zL.s 			page 5


 171              		.cfi_endproc
 172              	.LFE39:
 174              		.section	.text.LCD_DISPCTRL_FLICK_Setable,"ax",%progbits
 175              		.align	2
 176              		.global	LCD_DISPCTRL_FLICK_Setable
 177              		.code	16
 178              		.thumb_func
 180              	LCD_DISPCTRL_FLICK_Setable:
 181              	.LFB40:
  66:e:/LiteOS/LiteOS/targets/Cloud_FM33A0XX/GCC/../../../targets/Cloud_FM33A0XX/Drivers\fm33a0xx_lcd.c **** 
  67:e:/LiteOS/LiteOS/targets/Cloud_FM33A0XX/GCC/../../../targets/Cloud_FM33A0XX/Drivers\fm33a0xx_lcd.c **** /* 显示闪烁使能 相关函数 */
  68:e:/LiteOS/LiteOS/targets/Cloud_FM33A0XX/GCC/../../../targets/Cloud_FM33A0XX/Drivers\fm33a0xx_lcd.c **** void LCD_DISPCTRL_FLICK_Setable(FunState NewState)
  69:e:/LiteOS/LiteOS/targets/Cloud_FM33A0XX/GCC/../../../targets/Cloud_FM33A0XX/Drivers\fm33a0xx_lcd.c **** {
 182              		.loc 1 69 0
 183              		.cfi_startproc
 184              		@ args = 0, pretend = 0, frame = 0
 185              		@ frame_needed = 0, uses_anonymous_args = 0
 186              		@ link register save eliminated.
 187              	.LVL2:
  70:e:/LiteOS/LiteOS/targets/Cloud_FM33A0XX/GCC/../../../targets/Cloud_FM33A0XX/Drivers\fm33a0xx_lcd.c **** 	if (NewState == ENABLE)
 188              		.loc 1 70 0
 189 0000 0128     		cmp	r0, #1
 190 0002 05D1     		bne	.L22
  71:e:/LiteOS/LiteOS/targets/Cloud_FM33A0XX/GCC/../../../targets/Cloud_FM33A0XX/Drivers\fm33a0xx_lcd.c **** 	{
  72:e:/LiteOS/LiteOS/targets/Cloud_FM33A0XX/GCC/../../../targets/Cloud_FM33A0XX/Drivers\fm33a0xx_lcd.c **** 		LCD->DISPCTRL |= (LCD_DISPCTRL_FLICK_Msk);
 191              		.loc 1 72 0
 192 0004 054A     		ldr	r2, .L24
 193 0006 1168     		ldr	r1, [r2]
 194 0008 0423     		movs	r3, #4
 195 000a 0B43     		orrs	r3, r1
 196 000c 1360     		str	r3, [r2]
 197 000e 04E0     		b	.L21
 198              	.L22:
  73:e:/LiteOS/LiteOS/targets/Cloud_FM33A0XX/GCC/../../../targets/Cloud_FM33A0XX/Drivers\fm33a0xx_lcd.c **** 	}
  74:e:/LiteOS/LiteOS/targets/Cloud_FM33A0XX/GCC/../../../targets/Cloud_FM33A0XX/Drivers\fm33a0xx_lcd.c **** 	else
  75:e:/LiteOS/LiteOS/targets/Cloud_FM33A0XX/GCC/../../../targets/Cloud_FM33A0XX/Drivers\fm33a0xx_lcd.c **** 	{
  76:e:/LiteOS/LiteOS/targets/Cloud_FM33A0XX/GCC/../../../targets/Cloud_FM33A0XX/Drivers\fm33a0xx_lcd.c **** 		LCD->DISPCTRL &= ~(LCD_DISPCTRL_FLICK_Msk);
 199              		.loc 1 76 0
 200 0010 024A     		ldr	r2, .L24
 201 0012 1368     		ldr	r3, [r2]
 202 0014 0421     		movs	r1, #4
 203 0016 8B43     		bics	r3, r1
 204 0018 1360     		str	r3, [r2]
 205              	.L21:
  77:e:/LiteOS/LiteOS/targets/Cloud_FM33A0XX/GCC/../../../targets/Cloud_FM33A0XX/Drivers\fm33a0xx_lcd.c **** 	}
  78:e:/LiteOS/LiteOS/targets/Cloud_FM33A0XX/GCC/../../../targets/Cloud_FM33A0XX/Drivers\fm33a0xx_lcd.c **** }
 206              		.loc 1 78 0
 207              		@ sp needed
 208 001a 7047     		bx	lr
 209              	.L25:
 210              		.align	2
 211              	.L24:
 212 001c 000C0140 		.word	1073810432
 213              		.cfi_endproc
 214              	.LFE40:
 216              		.section	.text.LCD_DISPCTRL_FLICK_Getable,"ax",%progbits
 217              		.align	2
ARM GAS  C:\Users\WANGBI~1\AppData\Local\Temp\ccQL37zL.s 			page 6


 218              		.global	LCD_DISPCTRL_FLICK_Getable
 219              		.code	16
 220              		.thumb_func
 222              	LCD_DISPCTRL_FLICK_Getable:
 223              	.LFB41:
  79:e:/LiteOS/LiteOS/targets/Cloud_FM33A0XX/GCC/../../../targets/Cloud_FM33A0XX/Drivers\fm33a0xx_lcd.c **** 
  80:e:/LiteOS/LiteOS/targets/Cloud_FM33A0XX/GCC/../../../targets/Cloud_FM33A0XX/Drivers\fm33a0xx_lcd.c **** FunState LCD_DISPCTRL_FLICK_Getable(void)
  81:e:/LiteOS/LiteOS/targets/Cloud_FM33A0XX/GCC/../../../targets/Cloud_FM33A0XX/Drivers\fm33a0xx_lcd.c **** {
 224              		.loc 1 81 0
 225              		.cfi_startproc
 226              		@ args = 0, pretend = 0, frame = 0
 227              		@ frame_needed = 0, uses_anonymous_args = 0
 228              		@ link register save eliminated.
  82:e:/LiteOS/LiteOS/targets/Cloud_FM33A0XX/GCC/../../../targets/Cloud_FM33A0XX/Drivers\fm33a0xx_lcd.c **** 	if (LCD->DISPCTRL & (LCD_DISPCTRL_FLICK_Msk))
 229              		.loc 1 82 0
 230 0000 034B     		ldr	r3, .L29
 231 0002 1B68     		ldr	r3, [r3]
 232 0004 5B07     		lsls	r3, r3, #29
 233 0006 01D5     		bpl	.L28
  83:e:/LiteOS/LiteOS/targets/Cloud_FM33A0XX/GCC/../../../targets/Cloud_FM33A0XX/Drivers\fm33a0xx_lcd.c **** 	{
  84:e:/LiteOS/LiteOS/targets/Cloud_FM33A0XX/GCC/../../../targets/Cloud_FM33A0XX/Drivers\fm33a0xx_lcd.c **** 		return ENABLE;
 234              		.loc 1 84 0
 235 0008 0120     		movs	r0, #1
 236 000a 00E0     		b	.L27
 237              	.L28:
  85:e:/LiteOS/LiteOS/targets/Cloud_FM33A0XX/GCC/../../../targets/Cloud_FM33A0XX/Drivers\fm33a0xx_lcd.c **** 	}
  86:e:/LiteOS/LiteOS/targets/Cloud_FM33A0XX/GCC/../../../targets/Cloud_FM33A0XX/Drivers\fm33a0xx_lcd.c **** 	else
  87:e:/LiteOS/LiteOS/targets/Cloud_FM33A0XX/GCC/../../../targets/Cloud_FM33A0XX/Drivers\fm33a0xx_lcd.c **** 	{
  88:e:/LiteOS/LiteOS/targets/Cloud_FM33A0XX/GCC/../../../targets/Cloud_FM33A0XX/Drivers\fm33a0xx_lcd.c **** 		return DISABLE;
 238              		.loc 1 88 0
 239 000c 0020     		movs	r0, #0
 240              	.L27:
  89:e:/LiteOS/LiteOS/targets/Cloud_FM33A0XX/GCC/../../../targets/Cloud_FM33A0XX/Drivers\fm33a0xx_lcd.c **** 	}
  90:e:/LiteOS/LiteOS/targets/Cloud_FM33A0XX/GCC/../../../targets/Cloud_FM33A0XX/Drivers\fm33a0xx_lcd.c **** }
 241              		.loc 1 90 0
 242              		@ sp needed
 243 000e 7047     		bx	lr
 244              	.L30:
 245              		.align	2
 246              	.L29:
 247 0010 000C0140 		.word	1073810432
 248              		.cfi_endproc
 249              	.LFE41:
 251              		.section	.text.LCD_DISPCTRL_TEST_Setable,"ax",%progbits
 252              		.align	2
 253              		.global	LCD_DISPCTRL_TEST_Setable
 254              		.code	16
 255              		.thumb_func
 257              	LCD_DISPCTRL_TEST_Setable:
 258              	.LFB42:
  91:e:/LiteOS/LiteOS/targets/Cloud_FM33A0XX/GCC/../../../targets/Cloud_FM33A0XX/Drivers\fm33a0xx_lcd.c **** 
  92:e:/LiteOS/LiteOS/targets/Cloud_FM33A0XX/GCC/../../../targets/Cloud_FM33A0XX/Drivers\fm33a0xx_lcd.c **** /* 测试模式使能，仅在DISPMD=1的情况下有效 相关函数 */
  93:e:/LiteOS/LiteOS/targets/Cloud_FM33A0XX/GCC/../../../targets/Cloud_FM33A0XX/Drivers\fm33a0xx_lcd.c **** void LCD_DISPCTRL_TEST_Setable(FunState NewState)
  94:e:/LiteOS/LiteOS/targets/Cloud_FM33A0XX/GCC/../../../targets/Cloud_FM33A0XX/Drivers\fm33a0xx_lcd.c **** {
 259              		.loc 1 94 0
 260              		.cfi_startproc
 261              		@ args = 0, pretend = 0, frame = 0
ARM GAS  C:\Users\WANGBI~1\AppData\Local\Temp\ccQL37zL.s 			page 7


 262              		@ frame_needed = 0, uses_anonymous_args = 0
 263              		@ link register save eliminated.
 264              	.LVL3:
  95:e:/LiteOS/LiteOS/targets/Cloud_FM33A0XX/GCC/../../../targets/Cloud_FM33A0XX/Drivers\fm33a0xx_lcd.c **** 	if (NewState == ENABLE)
 265              		.loc 1 95 0
 266 0000 0128     		cmp	r0, #1
 267 0002 05D1     		bne	.L32
  96:e:/LiteOS/LiteOS/targets/Cloud_FM33A0XX/GCC/../../../targets/Cloud_FM33A0XX/Drivers\fm33a0xx_lcd.c **** 	{
  97:e:/LiteOS/LiteOS/targets/Cloud_FM33A0XX/GCC/../../../targets/Cloud_FM33A0XX/Drivers\fm33a0xx_lcd.c **** 		LCD->DISPCTRL |= (LCD_DISPCTRL_TEST_Msk);
 268              		.loc 1 97 0
 269 0004 054A     		ldr	r2, .L34
 270 0006 1168     		ldr	r1, [r2]
 271 0008 0223     		movs	r3, #2
 272 000a 0B43     		orrs	r3, r1
 273 000c 1360     		str	r3, [r2]
 274 000e 04E0     		b	.L31
 275              	.L32:
  98:e:/LiteOS/LiteOS/targets/Cloud_FM33A0XX/GCC/../../../targets/Cloud_FM33A0XX/Drivers\fm33a0xx_lcd.c **** 	}
  99:e:/LiteOS/LiteOS/targets/Cloud_FM33A0XX/GCC/../../../targets/Cloud_FM33A0XX/Drivers\fm33a0xx_lcd.c **** 	else
 100:e:/LiteOS/LiteOS/targets/Cloud_FM33A0XX/GCC/../../../targets/Cloud_FM33A0XX/Drivers\fm33a0xx_lcd.c **** 	{
 101:e:/LiteOS/LiteOS/targets/Cloud_FM33A0XX/GCC/../../../targets/Cloud_FM33A0XX/Drivers\fm33a0xx_lcd.c **** 		LCD->DISPCTRL &= ~(LCD_DISPCTRL_TEST_Msk);
 276              		.loc 1 101 0
 277 0010 024A     		ldr	r2, .L34
 278 0012 1368     		ldr	r3, [r2]
 279 0014 0221     		movs	r1, #2
 280 0016 8B43     		bics	r3, r1
 281 0018 1360     		str	r3, [r2]
 282              	.L31:
 102:e:/LiteOS/LiteOS/targets/Cloud_FM33A0XX/GCC/../../../targets/Cloud_FM33A0XX/Drivers\fm33a0xx_lcd.c **** 	}
 103:e:/LiteOS/LiteOS/targets/Cloud_FM33A0XX/GCC/../../../targets/Cloud_FM33A0XX/Drivers\fm33a0xx_lcd.c **** }
 283              		.loc 1 103 0
 284              		@ sp needed
 285 001a 7047     		bx	lr
 286              	.L35:
 287              		.align	2
 288              	.L34:
 289 001c 000C0140 		.word	1073810432
 290              		.cfi_endproc
 291              	.LFE42:
 293              		.section	.text.LCD_DISPCTRL_TEST_Getable,"ax",%progbits
 294              		.align	2
 295              		.global	LCD_DISPCTRL_TEST_Getable
 296              		.code	16
 297              		.thumb_func
 299              	LCD_DISPCTRL_TEST_Getable:
 300              	.LFB43:
 104:e:/LiteOS/LiteOS/targets/Cloud_FM33A0XX/GCC/../../../targets/Cloud_FM33A0XX/Drivers\fm33a0xx_lcd.c **** 
 105:e:/LiteOS/LiteOS/targets/Cloud_FM33A0XX/GCC/../../../targets/Cloud_FM33A0XX/Drivers\fm33a0xx_lcd.c **** FunState LCD_DISPCTRL_TEST_Getable(void)
 106:e:/LiteOS/LiteOS/targets/Cloud_FM33A0XX/GCC/../../../targets/Cloud_FM33A0XX/Drivers\fm33a0xx_lcd.c **** {
 301              		.loc 1 106 0
 302              		.cfi_startproc
 303              		@ args = 0, pretend = 0, frame = 0
 304              		@ frame_needed = 0, uses_anonymous_args = 0
 305              		@ link register save eliminated.
 107:e:/LiteOS/LiteOS/targets/Cloud_FM33A0XX/GCC/../../../targets/Cloud_FM33A0XX/Drivers\fm33a0xx_lcd.c **** 	if (LCD->DISPCTRL & (LCD_DISPCTRL_TEST_Msk))
 306              		.loc 1 107 0
 307 0000 034B     		ldr	r3, .L39
ARM GAS  C:\Users\WANGBI~1\AppData\Local\Temp\ccQL37zL.s 			page 8


 308 0002 1B68     		ldr	r3, [r3]
 309 0004 9B07     		lsls	r3, r3, #30
 310 0006 01D5     		bpl	.L38
 108:e:/LiteOS/LiteOS/targets/Cloud_FM33A0XX/GCC/../../../targets/Cloud_FM33A0XX/Drivers\fm33a0xx_lcd.c **** 	{
 109:e:/LiteOS/LiteOS/targets/Cloud_FM33A0XX/GCC/../../../targets/Cloud_FM33A0XX/Drivers\fm33a0xx_lcd.c **** 		return ENABLE;
 311              		.loc 1 109 0
 312 0008 0120     		movs	r0, #1
 313 000a 00E0     		b	.L37
 314              	.L38:
 110:e:/LiteOS/LiteOS/targets/Cloud_FM33A0XX/GCC/../../../targets/Cloud_FM33A0XX/Drivers\fm33a0xx_lcd.c **** 	}
 111:e:/LiteOS/LiteOS/targets/Cloud_FM33A0XX/GCC/../../../targets/Cloud_FM33A0XX/Drivers\fm33a0xx_lcd.c **** 	else
 112:e:/LiteOS/LiteOS/targets/Cloud_FM33A0XX/GCC/../../../targets/Cloud_FM33A0XX/Drivers\fm33a0xx_lcd.c **** 	{
 113:e:/LiteOS/LiteOS/targets/Cloud_FM33A0XX/GCC/../../../targets/Cloud_FM33A0XX/Drivers\fm33a0xx_lcd.c **** 		return DISABLE;
 315              		.loc 1 113 0
 316 000c 0020     		movs	r0, #0
 317              	.L37:
 114:e:/LiteOS/LiteOS/targets/Cloud_FM33A0XX/GCC/../../../targets/Cloud_FM33A0XX/Drivers\fm33a0xx_lcd.c **** 	}
 115:e:/LiteOS/LiteOS/targets/Cloud_FM33A0XX/GCC/../../../targets/Cloud_FM33A0XX/Drivers\fm33a0xx_lcd.c **** }
 318              		.loc 1 115 0
 319              		@ sp needed
 320 000e 7047     		bx	lr
 321              	.L40:
 322              		.align	2
 323              	.L39:
 324 0010 000C0140 		.word	1073810432
 325              		.cfi_endproc
 326              	.LFE43:
 328              		.section	.text.LCD_DISPCTRL_DISPMD_Setable,"ax",%progbits
 329              		.align	2
 330              		.global	LCD_DISPCTRL_DISPMD_Setable
 331              		.code	16
 332              		.thumb_func
 334              	LCD_DISPCTRL_DISPMD_Setable:
 335              	.LFB44:
 116:e:/LiteOS/LiteOS/targets/Cloud_FM33A0XX/GCC/../../../targets/Cloud_FM33A0XX/Drivers\fm33a0xx_lcd.c **** 
 117:e:/LiteOS/LiteOS/targets/Cloud_FM33A0XX/GCC/../../../targets/Cloud_FM33A0XX/Drivers\fm33a0xx_lcd.c **** /* 测试模式选择 相关函数 */
 118:e:/LiteOS/LiteOS/targets/Cloud_FM33A0XX/GCC/../../../targets/Cloud_FM33A0XX/Drivers\fm33a0xx_lcd.c **** void LCD_DISPCTRL_DISPMD_Setable(FunState NewState)
 119:e:/LiteOS/LiteOS/targets/Cloud_FM33A0XX/GCC/../../../targets/Cloud_FM33A0XX/Drivers\fm33a0xx_lcd.c **** {
 336              		.loc 1 119 0
 337              		.cfi_startproc
 338              		@ args = 0, pretend = 0, frame = 0
 339              		@ frame_needed = 0, uses_anonymous_args = 0
 340              		@ link register save eliminated.
 341              	.LVL4:
 120:e:/LiteOS/LiteOS/targets/Cloud_FM33A0XX/GCC/../../../targets/Cloud_FM33A0XX/Drivers\fm33a0xx_lcd.c **** 	if (NewState == ENABLE)
 342              		.loc 1 120 0
 343 0000 0128     		cmp	r0, #1
 344 0002 05D1     		bne	.L42
 121:e:/LiteOS/LiteOS/targets/Cloud_FM33A0XX/GCC/../../../targets/Cloud_FM33A0XX/Drivers\fm33a0xx_lcd.c **** 	{
 122:e:/LiteOS/LiteOS/targets/Cloud_FM33A0XX/GCC/../../../targets/Cloud_FM33A0XX/Drivers\fm33a0xx_lcd.c **** 		LCD->DISPCTRL |= (LCD_DISPCTRL_DISPMD_Msk);
 345              		.loc 1 122 0
 346 0004 054A     		ldr	r2, .L44
 347 0006 1168     		ldr	r1, [r2]
 348 0008 0123     		movs	r3, #1
 349 000a 0B43     		orrs	r3, r1
 350 000c 1360     		str	r3, [r2]
 351 000e 04E0     		b	.L41
ARM GAS  C:\Users\WANGBI~1\AppData\Local\Temp\ccQL37zL.s 			page 9


 352              	.L42:
 123:e:/LiteOS/LiteOS/targets/Cloud_FM33A0XX/GCC/../../../targets/Cloud_FM33A0XX/Drivers\fm33a0xx_lcd.c **** 	}
 124:e:/LiteOS/LiteOS/targets/Cloud_FM33A0XX/GCC/../../../targets/Cloud_FM33A0XX/Drivers\fm33a0xx_lcd.c **** 	else
 125:e:/LiteOS/LiteOS/targets/Cloud_FM33A0XX/GCC/../../../targets/Cloud_FM33A0XX/Drivers\fm33a0xx_lcd.c **** 	{
 126:e:/LiteOS/LiteOS/targets/Cloud_FM33A0XX/GCC/../../../targets/Cloud_FM33A0XX/Drivers\fm33a0xx_lcd.c **** 		LCD->DISPCTRL &= ~(LCD_DISPCTRL_DISPMD_Msk);
 353              		.loc 1 126 0
 354 0010 024A     		ldr	r2, .L44
 355 0012 1368     		ldr	r3, [r2]
 356 0014 0121     		movs	r1, #1
 357 0016 8B43     		bics	r3, r1
 358 0018 1360     		str	r3, [r2]
 359              	.L41:
 127:e:/LiteOS/LiteOS/targets/Cloud_FM33A0XX/GCC/../../../targets/Cloud_FM33A0XX/Drivers\fm33a0xx_lcd.c **** 	}
 128:e:/LiteOS/LiteOS/targets/Cloud_FM33A0XX/GCC/../../../targets/Cloud_FM33A0XX/Drivers\fm33a0xx_lcd.c **** }
 360              		.loc 1 128 0
 361              		@ sp needed
 362 001a 7047     		bx	lr
 363              	.L45:
 364              		.align	2
 365              	.L44:
 366 001c 000C0140 		.word	1073810432
 367              		.cfi_endproc
 368              	.LFE44:
 370              		.section	.text.LCD_DISPCTRL_DISPMD_Getable,"ax",%progbits
 371              		.align	2
 372              		.global	LCD_DISPCTRL_DISPMD_Getable
 373              		.code	16
 374              		.thumb_func
 376              	LCD_DISPCTRL_DISPMD_Getable:
 377              	.LFB45:
 129:e:/LiteOS/LiteOS/targets/Cloud_FM33A0XX/GCC/../../../targets/Cloud_FM33A0XX/Drivers\fm33a0xx_lcd.c **** 
 130:e:/LiteOS/LiteOS/targets/Cloud_FM33A0XX/GCC/../../../targets/Cloud_FM33A0XX/Drivers\fm33a0xx_lcd.c **** FunState LCD_DISPCTRL_DISPMD_Getable(void)
 131:e:/LiteOS/LiteOS/targets/Cloud_FM33A0XX/GCC/../../../targets/Cloud_FM33A0XX/Drivers\fm33a0xx_lcd.c **** {
 378              		.loc 1 131 0
 379              		.cfi_startproc
 380              		@ args = 0, pretend = 0, frame = 0
 381              		@ frame_needed = 0, uses_anonymous_args = 0
 382              		@ link register save eliminated.
 132:e:/LiteOS/LiteOS/targets/Cloud_FM33A0XX/GCC/../../../targets/Cloud_FM33A0XX/Drivers\fm33a0xx_lcd.c **** 	if (LCD->DISPCTRL & (LCD_DISPCTRL_DISPMD_Msk))
 383              		.loc 1 132 0
 384 0000 034B     		ldr	r3, .L49
 385 0002 1B68     		ldr	r3, [r3]
 386 0004 DB07     		lsls	r3, r3, #31
 387 0006 01D5     		bpl	.L48
 133:e:/LiteOS/LiteOS/targets/Cloud_FM33A0XX/GCC/../../../targets/Cloud_FM33A0XX/Drivers\fm33a0xx_lcd.c **** 	{
 134:e:/LiteOS/LiteOS/targets/Cloud_FM33A0XX/GCC/../../../targets/Cloud_FM33A0XX/Drivers\fm33a0xx_lcd.c **** 		return ENABLE;
 388              		.loc 1 134 0
 389 0008 0120     		movs	r0, #1
 390 000a 00E0     		b	.L47
 391              	.L48:
 135:e:/LiteOS/LiteOS/targets/Cloud_FM33A0XX/GCC/../../../targets/Cloud_FM33A0XX/Drivers\fm33a0xx_lcd.c **** 	}
 136:e:/LiteOS/LiteOS/targets/Cloud_FM33A0XX/GCC/../../../targets/Cloud_FM33A0XX/Drivers\fm33a0xx_lcd.c **** 	else
 137:e:/LiteOS/LiteOS/targets/Cloud_FM33A0XX/GCC/../../../targets/Cloud_FM33A0XX/Drivers\fm33a0xx_lcd.c **** 	{
 138:e:/LiteOS/LiteOS/targets/Cloud_FM33A0XX/GCC/../../../targets/Cloud_FM33A0XX/Drivers\fm33a0xx_lcd.c **** 		return DISABLE;
 392              		.loc 1 138 0
 393 000c 0020     		movs	r0, #0
 394              	.L47:
ARM GAS  C:\Users\WANGBI~1\AppData\Local\Temp\ccQL37zL.s 			page 10


 139:e:/LiteOS/LiteOS/targets/Cloud_FM33A0XX/GCC/../../../targets/Cloud_FM33A0XX/Drivers\fm33a0xx_lcd.c **** 	}
 140:e:/LiteOS/LiteOS/targets/Cloud_FM33A0XX/GCC/../../../targets/Cloud_FM33A0XX/Drivers\fm33a0xx_lcd.c **** }
 395              		.loc 1 140 0
 396              		@ sp needed
 397 000e 7047     		bx	lr
 398              	.L50:
 399              		.align	2
 400              	.L49:
 401 0010 000C0140 		.word	1073810432
 402              		.cfi_endproc
 403              	.LFE45:
 405              		.section	.text.LCD_LCDTEST_LCCTRL_Set,"ax",%progbits
 406              		.align	2
 407              		.global	LCD_LCDTEST_LCCTRL_Set
 408              		.code	16
 409              		.thumb_func
 411              	LCD_LCDTEST_LCCTRL_Set:
 412              	.LFB46:
 141:e:/LiteOS/LiteOS/targets/Cloud_FM33A0XX/GCC/../../../targets/Cloud_FM33A0XX/Drivers\fm33a0xx_lcd.c **** 
 142:e:/LiteOS/LiteOS/targets/Cloud_FM33A0XX/GCC/../../../targets/Cloud_FM33A0XX/Drivers\fm33a0xx_lcd.c **** /* LCD测试控制位，仅在测试模式下有效 相关函数 */
 143:e:/LiteOS/LiteOS/targets/Cloud_FM33A0XX/GCC/../../../targets/Cloud_FM33A0XX/Drivers\fm33a0xx_lcd.c **** void LCD_LCDTEST_LCCTRL_Set(uint32_t SetValue)
 144:e:/LiteOS/LiteOS/targets/Cloud_FM33A0XX/GCC/../../../targets/Cloud_FM33A0XX/Drivers\fm33a0xx_lcd.c **** {
 413              		.loc 1 144 0
 414              		.cfi_startproc
 415              		@ args = 0, pretend = 0, frame = 0
 416              		@ frame_needed = 0, uses_anonymous_args = 0
 417              		@ link register save eliminated.
 418              	.LVL5:
 145:e:/LiteOS/LiteOS/targets/Cloud_FM33A0XX/GCC/../../../targets/Cloud_FM33A0XX/Drivers\fm33a0xx_lcd.c **** 	uint32_t tmpreg;
 146:e:/LiteOS/LiteOS/targets/Cloud_FM33A0XX/GCC/../../../targets/Cloud_FM33A0XX/Drivers\fm33a0xx_lcd.c **** 	tmpreg = LCD->LCDTEST;
 419              		.loc 1 146 0
 420 0000 034A     		ldr	r2, .L52
 421 0002 5368     		ldr	r3, [r2, #4]
 422              	.LVL6:
 147:e:/LiteOS/LiteOS/targets/Cloud_FM33A0XX/GCC/../../../targets/Cloud_FM33A0XX/Drivers\fm33a0xx_lcd.c **** 	tmpreg &= ~(LCD_LCDTEST_LCCTRL_Msk);
 423              		.loc 1 147 0
 424 0004 8021     		movs	r1, #128
 425 0006 8B43     		bics	r3, r1
 426              	.LVL7:
 148:e:/LiteOS/LiteOS/targets/Cloud_FM33A0XX/GCC/../../../targets/Cloud_FM33A0XX/Drivers\fm33a0xx_lcd.c **** 	tmpreg |= (SetValue & LCD_LCDTEST_LCCTRL_Msk);
 427              		.loc 1 148 0
 428 0008 0840     		ands	r0, r1
 429              	.LVL8:
 430 000a 1843     		orrs	r0, r3
 431              	.LVL9:
 149:e:/LiteOS/LiteOS/targets/Cloud_FM33A0XX/GCC/../../../targets/Cloud_FM33A0XX/Drivers\fm33a0xx_lcd.c **** 	LCD->LCDTEST = tmpreg;
 432              		.loc 1 149 0
 433 000c 5060     		str	r0, [r2, #4]
 150:e:/LiteOS/LiteOS/targets/Cloud_FM33A0XX/GCC/../../../targets/Cloud_FM33A0XX/Drivers\fm33a0xx_lcd.c **** }
 434              		.loc 1 150 0
 435              		@ sp needed
 436 000e 7047     		bx	lr
 437              	.L53:
 438              		.align	2
 439              	.L52:
 440 0010 000C0140 		.word	1073810432
 441              		.cfi_endproc
ARM GAS  C:\Users\WANGBI~1\AppData\Local\Temp\ccQL37zL.s 			page 11


 442              	.LFE46:
 444              		.section	.text.LCD_LCDTEST_LCCTRL_Get,"ax",%progbits
 445              		.align	2
 446              		.global	LCD_LCDTEST_LCCTRL_Get
 447              		.code	16
 448              		.thumb_func
 450              	LCD_LCDTEST_LCCTRL_Get:
 451              	.LFB47:
 151:e:/LiteOS/LiteOS/targets/Cloud_FM33A0XX/GCC/../../../targets/Cloud_FM33A0XX/Drivers\fm33a0xx_lcd.c **** 
 152:e:/LiteOS/LiteOS/targets/Cloud_FM33A0XX/GCC/../../../targets/Cloud_FM33A0XX/Drivers\fm33a0xx_lcd.c **** uint32_t LCD_LCDTEST_LCCTRL_Get(void)
 153:e:/LiteOS/LiteOS/targets/Cloud_FM33A0XX/GCC/../../../targets/Cloud_FM33A0XX/Drivers\fm33a0xx_lcd.c **** {
 452              		.loc 1 153 0
 453              		.cfi_startproc
 454              		@ args = 0, pretend = 0, frame = 0
 455              		@ frame_needed = 0, uses_anonymous_args = 0
 456              		@ link register save eliminated.
 154:e:/LiteOS/LiteOS/targets/Cloud_FM33A0XX/GCC/../../../targets/Cloud_FM33A0XX/Drivers\fm33a0xx_lcd.c **** 	return (LCD->LCDTEST & LCD_LCDTEST_LCCTRL_Msk);
 457              		.loc 1 154 0
 458 0000 024B     		ldr	r3, .L55
 459 0002 5B68     		ldr	r3, [r3, #4]
 460 0004 8020     		movs	r0, #128
 461 0006 1840     		ands	r0, r3
 155:e:/LiteOS/LiteOS/targets/Cloud_FM33A0XX/GCC/../../../targets/Cloud_FM33A0XX/Drivers\fm33a0xx_lcd.c **** }
 462              		.loc 1 155 0
 463              		@ sp needed
 464 0008 7047     		bx	lr
 465              	.L56:
 466 000a C046     		.align	2
 467              	.L55:
 468 000c 000C0140 		.word	1073810432
 469              		.cfi_endproc
 470              	.LFE47:
 472              		.section	.text.LCD_LCDTEST_TESTEN_Setable,"ax",%progbits
 473              		.align	2
 474              		.global	LCD_LCDTEST_TESTEN_Setable
 475              		.code	16
 476              		.thumb_func
 478              	LCD_LCDTEST_TESTEN_Setable:
 479              	.LFB48:
 156:e:/LiteOS/LiteOS/targets/Cloud_FM33A0XX/GCC/../../../targets/Cloud_FM33A0XX/Drivers\fm33a0xx_lcd.c **** 
 157:e:/LiteOS/LiteOS/targets/Cloud_FM33A0XX/GCC/../../../targets/Cloud_FM33A0XX/Drivers\fm33a0xx_lcd.c **** /* 测试模式使能 相关函数 */
 158:e:/LiteOS/LiteOS/targets/Cloud_FM33A0XX/GCC/../../../targets/Cloud_FM33A0XX/Drivers\fm33a0xx_lcd.c **** void LCD_LCDTEST_TESTEN_Setable(FunState NewState)
 159:e:/LiteOS/LiteOS/targets/Cloud_FM33A0XX/GCC/../../../targets/Cloud_FM33A0XX/Drivers\fm33a0xx_lcd.c **** {
 480              		.loc 1 159 0
 481              		.cfi_startproc
 482              		@ args = 0, pretend = 0, frame = 0
 483              		@ frame_needed = 0, uses_anonymous_args = 0
 484              		@ link register save eliminated.
 485              	.LVL10:
 160:e:/LiteOS/LiteOS/targets/Cloud_FM33A0XX/GCC/../../../targets/Cloud_FM33A0XX/Drivers\fm33a0xx_lcd.c **** 	if (NewState == ENABLE)
 486              		.loc 1 160 0
 487 0000 0128     		cmp	r0, #1
 488 0002 05D1     		bne	.L58
 161:e:/LiteOS/LiteOS/targets/Cloud_FM33A0XX/GCC/../../../targets/Cloud_FM33A0XX/Drivers\fm33a0xx_lcd.c **** 	{
 162:e:/LiteOS/LiteOS/targets/Cloud_FM33A0XX/GCC/../../../targets/Cloud_FM33A0XX/Drivers\fm33a0xx_lcd.c **** 		LCD->LCDTEST |= (LCD_LCDTEST_TESTEN_Msk);
 489              		.loc 1 162 0
 490 0004 054A     		ldr	r2, .L60
ARM GAS  C:\Users\WANGBI~1\AppData\Local\Temp\ccQL37zL.s 			page 12


 491 0006 5168     		ldr	r1, [r2, #4]
 492 0008 0123     		movs	r3, #1
 493 000a 0B43     		orrs	r3, r1
 494 000c 5360     		str	r3, [r2, #4]
 495 000e 04E0     		b	.L57
 496              	.L58:
 163:e:/LiteOS/LiteOS/targets/Cloud_FM33A0XX/GCC/../../../targets/Cloud_FM33A0XX/Drivers\fm33a0xx_lcd.c **** 	}
 164:e:/LiteOS/LiteOS/targets/Cloud_FM33A0XX/GCC/../../../targets/Cloud_FM33A0XX/Drivers\fm33a0xx_lcd.c **** 	else
 165:e:/LiteOS/LiteOS/targets/Cloud_FM33A0XX/GCC/../../../targets/Cloud_FM33A0XX/Drivers\fm33a0xx_lcd.c **** 	{
 166:e:/LiteOS/LiteOS/targets/Cloud_FM33A0XX/GCC/../../../targets/Cloud_FM33A0XX/Drivers\fm33a0xx_lcd.c **** 		LCD->LCDTEST &= ~(LCD_LCDTEST_TESTEN_Msk);
 497              		.loc 1 166 0
 498 0010 024A     		ldr	r2, .L60
 499 0012 5368     		ldr	r3, [r2, #4]
 500 0014 0121     		movs	r1, #1
 501 0016 8B43     		bics	r3, r1
 502 0018 5360     		str	r3, [r2, #4]
 503              	.L57:
 167:e:/LiteOS/LiteOS/targets/Cloud_FM33A0XX/GCC/../../../targets/Cloud_FM33A0XX/Drivers\fm33a0xx_lcd.c **** 	}
 168:e:/LiteOS/LiteOS/targets/Cloud_FM33A0XX/GCC/../../../targets/Cloud_FM33A0XX/Drivers\fm33a0xx_lcd.c **** }
 504              		.loc 1 168 0
 505              		@ sp needed
 506 001a 7047     		bx	lr
 507              	.L61:
 508              		.align	2
 509              	.L60:
 510 001c 000C0140 		.word	1073810432
 511              		.cfi_endproc
 512              	.LFE48:
 514              		.section	.text.LCD_LCDTEST_TESTEN_Getable,"ax",%progbits
 515              		.align	2
 516              		.global	LCD_LCDTEST_TESTEN_Getable
 517              		.code	16
 518              		.thumb_func
 520              	LCD_LCDTEST_TESTEN_Getable:
 521              	.LFB49:
 169:e:/LiteOS/LiteOS/targets/Cloud_FM33A0XX/GCC/../../../targets/Cloud_FM33A0XX/Drivers\fm33a0xx_lcd.c **** 
 170:e:/LiteOS/LiteOS/targets/Cloud_FM33A0XX/GCC/../../../targets/Cloud_FM33A0XX/Drivers\fm33a0xx_lcd.c **** FunState LCD_LCDTEST_TESTEN_Getable(void)
 171:e:/LiteOS/LiteOS/targets/Cloud_FM33A0XX/GCC/../../../targets/Cloud_FM33A0XX/Drivers\fm33a0xx_lcd.c **** {
 522              		.loc 1 171 0
 523              		.cfi_startproc
 524              		@ args = 0, pretend = 0, frame = 0
 525              		@ frame_needed = 0, uses_anonymous_args = 0
 526              		@ link register save eliminated.
 172:e:/LiteOS/LiteOS/targets/Cloud_FM33A0XX/GCC/../../../targets/Cloud_FM33A0XX/Drivers\fm33a0xx_lcd.c **** 	if (LCD->LCDTEST & (LCD_LCDTEST_TESTEN_Msk))
 527              		.loc 1 172 0
 528 0000 034B     		ldr	r3, .L65
 529 0002 5B68     		ldr	r3, [r3, #4]
 530 0004 DB07     		lsls	r3, r3, #31
 531 0006 01D5     		bpl	.L64
 173:e:/LiteOS/LiteOS/targets/Cloud_FM33A0XX/GCC/../../../targets/Cloud_FM33A0XX/Drivers\fm33a0xx_lcd.c **** 	{
 174:e:/LiteOS/LiteOS/targets/Cloud_FM33A0XX/GCC/../../../targets/Cloud_FM33A0XX/Drivers\fm33a0xx_lcd.c **** 		return ENABLE;
 532              		.loc 1 174 0
 533 0008 0120     		movs	r0, #1
 534 000a 00E0     		b	.L63
 535              	.L64:
 175:e:/LiteOS/LiteOS/targets/Cloud_FM33A0XX/GCC/../../../targets/Cloud_FM33A0XX/Drivers\fm33a0xx_lcd.c **** 	}
 176:e:/LiteOS/LiteOS/targets/Cloud_FM33A0XX/GCC/../../../targets/Cloud_FM33A0XX/Drivers\fm33a0xx_lcd.c **** 	else
ARM GAS  C:\Users\WANGBI~1\AppData\Local\Temp\ccQL37zL.s 			page 13


 177:e:/LiteOS/LiteOS/targets/Cloud_FM33A0XX/GCC/../../../targets/Cloud_FM33A0XX/Drivers\fm33a0xx_lcd.c **** 	{
 178:e:/LiteOS/LiteOS/targets/Cloud_FM33A0XX/GCC/../../../targets/Cloud_FM33A0XX/Drivers\fm33a0xx_lcd.c **** 		return DISABLE;
 536              		.loc 1 178 0
 537 000c 0020     		movs	r0, #0
 538              	.L63:
 179:e:/LiteOS/LiteOS/targets/Cloud_FM33A0XX/GCC/../../../targets/Cloud_FM33A0XX/Drivers\fm33a0xx_lcd.c **** 	}
 180:e:/LiteOS/LiteOS/targets/Cloud_FM33A0XX/GCC/../../../targets/Cloud_FM33A0XX/Drivers\fm33a0xx_lcd.c **** }
 539              		.loc 1 180 0
 540              		@ sp needed
 541 000e 7047     		bx	lr
 542              	.L66:
 543              		.align	2
 544              	.L65:
 545 0010 000C0140 		.word	1073810432
 546              		.cfi_endproc
 547              	.LFE49:
 549              		.section	.text.LCD_DF_Write,"ax",%progbits
 550              		.align	2
 551              		.global	LCD_DF_Write
 552              		.code	16
 553              		.thumb_func
 555              	LCD_DF_Write:
 556              	.LFB50:
 181:e:/LiteOS/LiteOS/targets/Cloud_FM33A0XX/GCC/../../../targets/Cloud_FM33A0XX/Drivers\fm33a0xx_lcd.c **** 
 182:e:/LiteOS/LiteOS/targets/Cloud_FM33A0XX/GCC/../../../targets/Cloud_FM33A0XX/Drivers\fm33a0xx_lcd.c **** /* 显示频率控制寄存器 相关函数 */
 183:e:/LiteOS/LiteOS/targets/Cloud_FM33A0XX/GCC/../../../targets/Cloud_FM33A0XX/Drivers\fm33a0xx_lcd.c **** void LCD_DF_Write(uint32_t SetValue)
 184:e:/LiteOS/LiteOS/targets/Cloud_FM33A0XX/GCC/../../../targets/Cloud_FM33A0XX/Drivers\fm33a0xx_lcd.c **** {
 557              		.loc 1 184 0
 558              		.cfi_startproc
 559              		@ args = 0, pretend = 0, frame = 0
 560              		@ frame_needed = 0, uses_anonymous_args = 0
 561              		@ link register save eliminated.
 562              	.LVL11:
 185:e:/LiteOS/LiteOS/targets/Cloud_FM33A0XX/GCC/../../../targets/Cloud_FM33A0XX/Drivers\fm33a0xx_lcd.c **** 	LCD->DF = (SetValue & LCD_DF_DF_Msk);
 563              		.loc 1 185 0
 564 0000 FF23     		movs	r3, #255
 565 0002 1840     		ands	r0, r3
 566              	.LVL12:
 567 0004 014B     		ldr	r3, .L68
 568 0006 9860     		str	r0, [r3, #8]
 186:e:/LiteOS/LiteOS/targets/Cloud_FM33A0XX/GCC/../../../targets/Cloud_FM33A0XX/Drivers\fm33a0xx_lcd.c **** }
 569              		.loc 1 186 0
 570              		@ sp needed
 571 0008 7047     		bx	lr
 572              	.L69:
 573 000a C046     		.align	2
 574              	.L68:
 575 000c 000C0140 		.word	1073810432
 576              		.cfi_endproc
 577              	.LFE50:
 579              		.section	.text.LCD_DF_Read,"ax",%progbits
 580              		.align	2
 581              		.global	LCD_DF_Read
 582              		.code	16
 583              		.thumb_func
 585              	LCD_DF_Read:
 586              	.LFB51:
ARM GAS  C:\Users\WANGBI~1\AppData\Local\Temp\ccQL37zL.s 			page 14


 187:e:/LiteOS/LiteOS/targets/Cloud_FM33A0XX/GCC/../../../targets/Cloud_FM33A0XX/Drivers\fm33a0xx_lcd.c **** 
 188:e:/LiteOS/LiteOS/targets/Cloud_FM33A0XX/GCC/../../../targets/Cloud_FM33A0XX/Drivers\fm33a0xx_lcd.c **** uint32_t LCD_DF_Read(void)
 189:e:/LiteOS/LiteOS/targets/Cloud_FM33A0XX/GCC/../../../targets/Cloud_FM33A0XX/Drivers\fm33a0xx_lcd.c **** {
 587              		.loc 1 189 0
 588              		.cfi_startproc
 589              		@ args = 0, pretend = 0, frame = 0
 590              		@ frame_needed = 0, uses_anonymous_args = 0
 591              		@ link register save eliminated.
 190:e:/LiteOS/LiteOS/targets/Cloud_FM33A0XX/GCC/../../../targets/Cloud_FM33A0XX/Drivers\fm33a0xx_lcd.c **** 	return (LCD->DF & LCD_DF_DF_Msk);
 592              		.loc 1 190 0
 593 0000 024B     		ldr	r3, .L71
 594 0002 9B68     		ldr	r3, [r3, #8]
 595 0004 FF20     		movs	r0, #255
 596 0006 1840     		ands	r0, r3
 191:e:/LiteOS/LiteOS/targets/Cloud_FM33A0XX/GCC/../../../targets/Cloud_FM33A0XX/Drivers\fm33a0xx_lcd.c **** }
 597              		.loc 1 191 0
 598              		@ sp needed
 599 0008 7047     		bx	lr
 600              	.L72:
 601 000a C046     		.align	2
 602              	.L71:
 603 000c 000C0140 		.word	1073810432
 604              		.cfi_endproc
 605              	.LFE51:
 607              		.section	.text.LCD_TON_Write,"ax",%progbits
 608              		.align	2
 609              		.global	LCD_TON_Write
 610              		.code	16
 611              		.thumb_func
 613              	LCD_TON_Write:
 614              	.LFB52:
 192:e:/LiteOS/LiteOS/targets/Cloud_FM33A0XX/GCC/../../../targets/Cloud_FM33A0XX/Drivers\fm33a0xx_lcd.c **** 
 193:e:/LiteOS/LiteOS/targets/Cloud_FM33A0XX/GCC/../../../targets/Cloud_FM33A0XX/Drivers\fm33a0xx_lcd.c **** /* 闪烁显示点亮时间寄存器 相关函数 */
 194:e:/LiteOS/LiteOS/targets/Cloud_FM33A0XX/GCC/../../../targets/Cloud_FM33A0XX/Drivers\fm33a0xx_lcd.c **** void LCD_TON_Write(uint32_t SetValue)
 195:e:/LiteOS/LiteOS/targets/Cloud_FM33A0XX/GCC/../../../targets/Cloud_FM33A0XX/Drivers\fm33a0xx_lcd.c **** {
 615              		.loc 1 195 0
 616              		.cfi_startproc
 617              		@ args = 0, pretend = 0, frame = 0
 618              		@ frame_needed = 0, uses_anonymous_args = 0
 619              		@ link register save eliminated.
 620              	.LVL13:
 196:e:/LiteOS/LiteOS/targets/Cloud_FM33A0XX/GCC/../../../targets/Cloud_FM33A0XX/Drivers\fm33a0xx_lcd.c **** 	LCD->TON = (SetValue & LCD_TON_TON_Msk);
 621              		.loc 1 196 0
 622 0000 FF23     		movs	r3, #255
 623 0002 1840     		ands	r0, r3
 624              	.LVL14:
 625 0004 014B     		ldr	r3, .L74
 626 0006 D860     		str	r0, [r3, #12]
 197:e:/LiteOS/LiteOS/targets/Cloud_FM33A0XX/GCC/../../../targets/Cloud_FM33A0XX/Drivers\fm33a0xx_lcd.c **** }
 627              		.loc 1 197 0
 628              		@ sp needed
 629 0008 7047     		bx	lr
 630              	.L75:
 631 000a C046     		.align	2
 632              	.L74:
 633 000c 000C0140 		.word	1073810432
 634              		.cfi_endproc
ARM GAS  C:\Users\WANGBI~1\AppData\Local\Temp\ccQL37zL.s 			page 15


 635              	.LFE52:
 637              		.section	.text.LCD_TON_Read,"ax",%progbits
 638              		.align	2
 639              		.global	LCD_TON_Read
 640              		.code	16
 641              		.thumb_func
 643              	LCD_TON_Read:
 644              	.LFB53:
 198:e:/LiteOS/LiteOS/targets/Cloud_FM33A0XX/GCC/../../../targets/Cloud_FM33A0XX/Drivers\fm33a0xx_lcd.c **** 
 199:e:/LiteOS/LiteOS/targets/Cloud_FM33A0XX/GCC/../../../targets/Cloud_FM33A0XX/Drivers\fm33a0xx_lcd.c **** uint32_t LCD_TON_Read(void)
 200:e:/LiteOS/LiteOS/targets/Cloud_FM33A0XX/GCC/../../../targets/Cloud_FM33A0XX/Drivers\fm33a0xx_lcd.c **** {
 645              		.loc 1 200 0
 646              		.cfi_startproc
 647              		@ args = 0, pretend = 0, frame = 0
 648              		@ frame_needed = 0, uses_anonymous_args = 0
 649              		@ link register save eliminated.
 201:e:/LiteOS/LiteOS/targets/Cloud_FM33A0XX/GCC/../../../targets/Cloud_FM33A0XX/Drivers\fm33a0xx_lcd.c **** 	return (LCD->TON & LCD_TON_TON_Msk);
 650              		.loc 1 201 0
 651 0000 024B     		ldr	r3, .L77
 652 0002 DB68     		ldr	r3, [r3, #12]
 653 0004 FF20     		movs	r0, #255
 654 0006 1840     		ands	r0, r3
 202:e:/LiteOS/LiteOS/targets/Cloud_FM33A0XX/GCC/../../../targets/Cloud_FM33A0XX/Drivers\fm33a0xx_lcd.c **** }
 655              		.loc 1 202 0
 656              		@ sp needed
 657 0008 7047     		bx	lr
 658              	.L78:
 659 000a C046     		.align	2
 660              	.L77:
 661 000c 000C0140 		.word	1073810432
 662              		.cfi_endproc
 663              	.LFE53:
 665              		.section	.text.LCD_TOFF_Write,"ax",%progbits
 666              		.align	2
 667              		.global	LCD_TOFF_Write
 668              		.code	16
 669              		.thumb_func
 671              	LCD_TOFF_Write:
 672              	.LFB54:
 203:e:/LiteOS/LiteOS/targets/Cloud_FM33A0XX/GCC/../../../targets/Cloud_FM33A0XX/Drivers\fm33a0xx_lcd.c **** 
 204:e:/LiteOS/LiteOS/targets/Cloud_FM33A0XX/GCC/../../../targets/Cloud_FM33A0XX/Drivers\fm33a0xx_lcd.c **** /* 闪烁显示熄灭时间寄存器 相关函数 */
 205:e:/LiteOS/LiteOS/targets/Cloud_FM33A0XX/GCC/../../../targets/Cloud_FM33A0XX/Drivers\fm33a0xx_lcd.c **** void LCD_TOFF_Write(uint32_t SetValue)
 206:e:/LiteOS/LiteOS/targets/Cloud_FM33A0XX/GCC/../../../targets/Cloud_FM33A0XX/Drivers\fm33a0xx_lcd.c **** {
 673              		.loc 1 206 0
 674              		.cfi_startproc
 675              		@ args = 0, pretend = 0, frame = 0
 676              		@ frame_needed = 0, uses_anonymous_args = 0
 677              		@ link register save eliminated.
 678              	.LVL15:
 207:e:/LiteOS/LiteOS/targets/Cloud_FM33A0XX/GCC/../../../targets/Cloud_FM33A0XX/Drivers\fm33a0xx_lcd.c **** 	LCD->TOFF = (SetValue & LCD_TOFF_TOFF_Msk);
 679              		.loc 1 207 0
 680 0000 FF23     		movs	r3, #255
 681 0002 1840     		ands	r0, r3
 682              	.LVL16:
 683 0004 014B     		ldr	r3, .L80
 684 0006 1861     		str	r0, [r3, #16]
 208:e:/LiteOS/LiteOS/targets/Cloud_FM33A0XX/GCC/../../../targets/Cloud_FM33A0XX/Drivers\fm33a0xx_lcd.c **** }
ARM GAS  C:\Users\WANGBI~1\AppData\Local\Temp\ccQL37zL.s 			page 16


 685              		.loc 1 208 0
 686              		@ sp needed
 687 0008 7047     		bx	lr
 688              	.L81:
 689 000a C046     		.align	2
 690              	.L80:
 691 000c 000C0140 		.word	1073810432
 692              		.cfi_endproc
 693              	.LFE54:
 695              		.section	.text.LCD_TOFF_Read,"ax",%progbits
 696              		.align	2
 697              		.global	LCD_TOFF_Read
 698              		.code	16
 699              		.thumb_func
 701              	LCD_TOFF_Read:
 702              	.LFB55:
 209:e:/LiteOS/LiteOS/targets/Cloud_FM33A0XX/GCC/../../../targets/Cloud_FM33A0XX/Drivers\fm33a0xx_lcd.c **** 
 210:e:/LiteOS/LiteOS/targets/Cloud_FM33A0XX/GCC/../../../targets/Cloud_FM33A0XX/Drivers\fm33a0xx_lcd.c **** uint32_t LCD_TOFF_Read(void)
 211:e:/LiteOS/LiteOS/targets/Cloud_FM33A0XX/GCC/../../../targets/Cloud_FM33A0XX/Drivers\fm33a0xx_lcd.c **** {
 703              		.loc 1 211 0
 704              		.cfi_startproc
 705              		@ args = 0, pretend = 0, frame = 0
 706              		@ frame_needed = 0, uses_anonymous_args = 0
 707              		@ link register save eliminated.
 212:e:/LiteOS/LiteOS/targets/Cloud_FM33A0XX/GCC/../../../targets/Cloud_FM33A0XX/Drivers\fm33a0xx_lcd.c **** 	return (LCD->TOFF & LCD_TOFF_TOFF_Msk);
 708              		.loc 1 212 0
 709 0000 024B     		ldr	r3, .L83
 710 0002 1B69     		ldr	r3, [r3, #16]
 711 0004 FF20     		movs	r0, #255
 712 0006 1840     		ands	r0, r3
 213:e:/LiteOS/LiteOS/targets/Cloud_FM33A0XX/GCC/../../../targets/Cloud_FM33A0XX/Drivers\fm33a0xx_lcd.c **** }
 713              		.loc 1 213 0
 714              		@ sp needed
 715 0008 7047     		bx	lr
 716              	.L84:
 717 000a C046     		.align	2
 718              	.L83:
 719 000c 000C0140 		.word	1073810432
 720              		.cfi_endproc
 721              	.LFE55:
 723              		.section	.text.LCD_DISPIE_DONIE_Setable,"ax",%progbits
 724              		.align	2
 725              		.global	LCD_DISPIE_DONIE_Setable
 726              		.code	16
 727              		.thumb_func
 729              	LCD_DISPIE_DONIE_Setable:
 730              	.LFB56:
 214:e:/LiteOS/LiteOS/targets/Cloud_FM33A0XX/GCC/../../../targets/Cloud_FM33A0XX/Drivers\fm33a0xx_lcd.c **** 
 215:e:/LiteOS/LiteOS/targets/Cloud_FM33A0XX/GCC/../../../targets/Cloud_FM33A0XX/Drivers\fm33a0xx_lcd.c **** /* 显示点亮中断使能 相关函数 */
 216:e:/LiteOS/LiteOS/targets/Cloud_FM33A0XX/GCC/../../../targets/Cloud_FM33A0XX/Drivers\fm33a0xx_lcd.c **** void LCD_DISPIE_DONIE_Setable(FunState NewState)
 217:e:/LiteOS/LiteOS/targets/Cloud_FM33A0XX/GCC/../../../targets/Cloud_FM33A0XX/Drivers\fm33a0xx_lcd.c **** {
 731              		.loc 1 217 0
 732              		.cfi_startproc
 733              		@ args = 0, pretend = 0, frame = 0
 734              		@ frame_needed = 0, uses_anonymous_args = 0
 735              		@ link register save eliminated.
 736              	.LVL17:
ARM GAS  C:\Users\WANGBI~1\AppData\Local\Temp\ccQL37zL.s 			page 17


 218:e:/LiteOS/LiteOS/targets/Cloud_FM33A0XX/GCC/../../../targets/Cloud_FM33A0XX/Drivers\fm33a0xx_lcd.c **** 	if (NewState == ENABLE)
 737              		.loc 1 218 0
 738 0000 0128     		cmp	r0, #1
 739 0002 05D1     		bne	.L86
 219:e:/LiteOS/LiteOS/targets/Cloud_FM33A0XX/GCC/../../../targets/Cloud_FM33A0XX/Drivers\fm33a0xx_lcd.c **** 	{
 220:e:/LiteOS/LiteOS/targets/Cloud_FM33A0XX/GCC/../../../targets/Cloud_FM33A0XX/Drivers\fm33a0xx_lcd.c **** 		LCD->DISPIE |= (LCD_DISPIE_DONIE_Msk);
 740              		.loc 1 220 0
 741 0004 054A     		ldr	r2, .L88
 742 0006 5169     		ldr	r1, [r2, #20]
 743 0008 0223     		movs	r3, #2
 744 000a 0B43     		orrs	r3, r1
 745 000c 5361     		str	r3, [r2, #20]
 746 000e 04E0     		b	.L85
 747              	.L86:
 221:e:/LiteOS/LiteOS/targets/Cloud_FM33A0XX/GCC/../../../targets/Cloud_FM33A0XX/Drivers\fm33a0xx_lcd.c **** 	}
 222:e:/LiteOS/LiteOS/targets/Cloud_FM33A0XX/GCC/../../../targets/Cloud_FM33A0XX/Drivers\fm33a0xx_lcd.c **** 	else
 223:e:/LiteOS/LiteOS/targets/Cloud_FM33A0XX/GCC/../../../targets/Cloud_FM33A0XX/Drivers\fm33a0xx_lcd.c **** 	{
 224:e:/LiteOS/LiteOS/targets/Cloud_FM33A0XX/GCC/../../../targets/Cloud_FM33A0XX/Drivers\fm33a0xx_lcd.c **** 		LCD->DISPIE &= ~(LCD_DISPIE_DONIE_Msk);
 748              		.loc 1 224 0
 749 0010 024A     		ldr	r2, .L88
 750 0012 5369     		ldr	r3, [r2, #20]
 751 0014 0221     		movs	r1, #2
 752 0016 8B43     		bics	r3, r1
 753 0018 5361     		str	r3, [r2, #20]
 754              	.L85:
 225:e:/LiteOS/LiteOS/targets/Cloud_FM33A0XX/GCC/../../../targets/Cloud_FM33A0XX/Drivers\fm33a0xx_lcd.c **** 	}
 226:e:/LiteOS/LiteOS/targets/Cloud_FM33A0XX/GCC/../../../targets/Cloud_FM33A0XX/Drivers\fm33a0xx_lcd.c **** }
 755              		.loc 1 226 0
 756              		@ sp needed
 757 001a 7047     		bx	lr
 758              	.L89:
 759              		.align	2
 760              	.L88:
 761 001c 000C0140 		.word	1073810432
 762              		.cfi_endproc
 763              	.LFE56:
 765              		.section	.text.LCD_DISPIE_DONIE_Getable,"ax",%progbits
 766              		.align	2
 767              		.global	LCD_DISPIE_DONIE_Getable
 768              		.code	16
 769              		.thumb_func
 771              	LCD_DISPIE_DONIE_Getable:
 772              	.LFB57:
 227:e:/LiteOS/LiteOS/targets/Cloud_FM33A0XX/GCC/../../../targets/Cloud_FM33A0XX/Drivers\fm33a0xx_lcd.c **** 
 228:e:/LiteOS/LiteOS/targets/Cloud_FM33A0XX/GCC/../../../targets/Cloud_FM33A0XX/Drivers\fm33a0xx_lcd.c **** FunState LCD_DISPIE_DONIE_Getable(void)
 229:e:/LiteOS/LiteOS/targets/Cloud_FM33A0XX/GCC/../../../targets/Cloud_FM33A0XX/Drivers\fm33a0xx_lcd.c **** {
 773              		.loc 1 229 0
 774              		.cfi_startproc
 775              		@ args = 0, pretend = 0, frame = 0
 776              		@ frame_needed = 0, uses_anonymous_args = 0
 777              		@ link register save eliminated.
 230:e:/LiteOS/LiteOS/targets/Cloud_FM33A0XX/GCC/../../../targets/Cloud_FM33A0XX/Drivers\fm33a0xx_lcd.c **** 	if (LCD->DISPIE & (LCD_DISPIE_DONIE_Msk))
 778              		.loc 1 230 0
 779 0000 034B     		ldr	r3, .L93
 780 0002 5B69     		ldr	r3, [r3, #20]
 781 0004 9B07     		lsls	r3, r3, #30
 782 0006 01D5     		bpl	.L92
ARM GAS  C:\Users\WANGBI~1\AppData\Local\Temp\ccQL37zL.s 			page 18


 231:e:/LiteOS/LiteOS/targets/Cloud_FM33A0XX/GCC/../../../targets/Cloud_FM33A0XX/Drivers\fm33a0xx_lcd.c **** 	{
 232:e:/LiteOS/LiteOS/targets/Cloud_FM33A0XX/GCC/../../../targets/Cloud_FM33A0XX/Drivers\fm33a0xx_lcd.c **** 		return ENABLE;
 783              		.loc 1 232 0
 784 0008 0120     		movs	r0, #1
 785 000a 00E0     		b	.L91
 786              	.L92:
 233:e:/LiteOS/LiteOS/targets/Cloud_FM33A0XX/GCC/../../../targets/Cloud_FM33A0XX/Drivers\fm33a0xx_lcd.c **** 	}
 234:e:/LiteOS/LiteOS/targets/Cloud_FM33A0XX/GCC/../../../targets/Cloud_FM33A0XX/Drivers\fm33a0xx_lcd.c **** 	else
 235:e:/LiteOS/LiteOS/targets/Cloud_FM33A0XX/GCC/../../../targets/Cloud_FM33A0XX/Drivers\fm33a0xx_lcd.c **** 	{
 236:e:/LiteOS/LiteOS/targets/Cloud_FM33A0XX/GCC/../../../targets/Cloud_FM33A0XX/Drivers\fm33a0xx_lcd.c **** 		return DISABLE;
 787              		.loc 1 236 0
 788 000c 0020     		movs	r0, #0
 789              	.L91:
 237:e:/LiteOS/LiteOS/targets/Cloud_FM33A0XX/GCC/../../../targets/Cloud_FM33A0XX/Drivers\fm33a0xx_lcd.c **** 	}
 238:e:/LiteOS/LiteOS/targets/Cloud_FM33A0XX/GCC/../../../targets/Cloud_FM33A0XX/Drivers\fm33a0xx_lcd.c **** }
 790              		.loc 1 238 0
 791              		@ sp needed
 792 000e 7047     		bx	lr
 793              	.L94:
 794              		.align	2
 795              	.L93:
 796 0010 000C0140 		.word	1073810432
 797              		.cfi_endproc
 798              	.LFE57:
 800              		.section	.text.LCD_DISPIE_DOFFIE_Setable,"ax",%progbits
 801              		.align	2
 802              		.global	LCD_DISPIE_DOFFIE_Setable
 803              		.code	16
 804              		.thumb_func
 806              	LCD_DISPIE_DOFFIE_Setable:
 807              	.LFB58:
 239:e:/LiteOS/LiteOS/targets/Cloud_FM33A0XX/GCC/../../../targets/Cloud_FM33A0XX/Drivers\fm33a0xx_lcd.c **** 
 240:e:/LiteOS/LiteOS/targets/Cloud_FM33A0XX/GCC/../../../targets/Cloud_FM33A0XX/Drivers\fm33a0xx_lcd.c **** /* 显示熄灭中断使能 相关函数 */
 241:e:/LiteOS/LiteOS/targets/Cloud_FM33A0XX/GCC/../../../targets/Cloud_FM33A0XX/Drivers\fm33a0xx_lcd.c **** void LCD_DISPIE_DOFFIE_Setable(FunState NewState)
 242:e:/LiteOS/LiteOS/targets/Cloud_FM33A0XX/GCC/../../../targets/Cloud_FM33A0XX/Drivers\fm33a0xx_lcd.c **** {
 808              		.loc 1 242 0
 809              		.cfi_startproc
 810              		@ args = 0, pretend = 0, frame = 0
 811              		@ frame_needed = 0, uses_anonymous_args = 0
 812              		@ link register save eliminated.
 813              	.LVL18:
 243:e:/LiteOS/LiteOS/targets/Cloud_FM33A0XX/GCC/../../../targets/Cloud_FM33A0XX/Drivers\fm33a0xx_lcd.c **** 	if (NewState == ENABLE)
 814              		.loc 1 243 0
 815 0000 0128     		cmp	r0, #1
 816 0002 05D1     		bne	.L96
 244:e:/LiteOS/LiteOS/targets/Cloud_FM33A0XX/GCC/../../../targets/Cloud_FM33A0XX/Drivers\fm33a0xx_lcd.c **** 	{
 245:e:/LiteOS/LiteOS/targets/Cloud_FM33A0XX/GCC/../../../targets/Cloud_FM33A0XX/Drivers\fm33a0xx_lcd.c **** 		LCD->DISPIE |= (LCD_DISPIE_DOFFIE_Msk);
 817              		.loc 1 245 0
 818 0004 054A     		ldr	r2, .L98
 819 0006 5169     		ldr	r1, [r2, #20]
 820 0008 0123     		movs	r3, #1
 821 000a 0B43     		orrs	r3, r1
 822 000c 5361     		str	r3, [r2, #20]
 823 000e 04E0     		b	.L95
 824              	.L96:
 246:e:/LiteOS/LiteOS/targets/Cloud_FM33A0XX/GCC/../../../targets/Cloud_FM33A0XX/Drivers\fm33a0xx_lcd.c **** 	}
 247:e:/LiteOS/LiteOS/targets/Cloud_FM33A0XX/GCC/../../../targets/Cloud_FM33A0XX/Drivers\fm33a0xx_lcd.c **** 	else
ARM GAS  C:\Users\WANGBI~1\AppData\Local\Temp\ccQL37zL.s 			page 19


 248:e:/LiteOS/LiteOS/targets/Cloud_FM33A0XX/GCC/../../../targets/Cloud_FM33A0XX/Drivers\fm33a0xx_lcd.c **** 	{
 249:e:/LiteOS/LiteOS/targets/Cloud_FM33A0XX/GCC/../../../targets/Cloud_FM33A0XX/Drivers\fm33a0xx_lcd.c **** 		LCD->DISPIE &= ~(LCD_DISPIE_DOFFIE_Msk);
 825              		.loc 1 249 0
 826 0010 024A     		ldr	r2, .L98
 827 0012 5369     		ldr	r3, [r2, #20]
 828 0014 0121     		movs	r1, #1
 829 0016 8B43     		bics	r3, r1
 830 0018 5361     		str	r3, [r2, #20]
 831              	.L95:
 250:e:/LiteOS/LiteOS/targets/Cloud_FM33A0XX/GCC/../../../targets/Cloud_FM33A0XX/Drivers\fm33a0xx_lcd.c **** 	}
 251:e:/LiteOS/LiteOS/targets/Cloud_FM33A0XX/GCC/../../../targets/Cloud_FM33A0XX/Drivers\fm33a0xx_lcd.c **** }
 832              		.loc 1 251 0
 833              		@ sp needed
 834 001a 7047     		bx	lr
 835              	.L99:
 836              		.align	2
 837              	.L98:
 838 001c 000C0140 		.word	1073810432
 839              		.cfi_endproc
 840              	.LFE58:
 842              		.section	.text.LCD_DISPIE_DOFFIE_Getable,"ax",%progbits
 843              		.align	2
 844              		.global	LCD_DISPIE_DOFFIE_Getable
 845              		.code	16
 846              		.thumb_func
 848              	LCD_DISPIE_DOFFIE_Getable:
 849              	.LFB59:
 252:e:/LiteOS/LiteOS/targets/Cloud_FM33A0XX/GCC/../../../targets/Cloud_FM33A0XX/Drivers\fm33a0xx_lcd.c **** 
 253:e:/LiteOS/LiteOS/targets/Cloud_FM33A0XX/GCC/../../../targets/Cloud_FM33A0XX/Drivers\fm33a0xx_lcd.c **** FunState LCD_DISPIE_DOFFIE_Getable(void)
 254:e:/LiteOS/LiteOS/targets/Cloud_FM33A0XX/GCC/../../../targets/Cloud_FM33A0XX/Drivers\fm33a0xx_lcd.c **** {
 850              		.loc 1 254 0
 851              		.cfi_startproc
 852              		@ args = 0, pretend = 0, frame = 0
 853              		@ frame_needed = 0, uses_anonymous_args = 0
 854              		@ link register save eliminated.
 255:e:/LiteOS/LiteOS/targets/Cloud_FM33A0XX/GCC/../../../targets/Cloud_FM33A0XX/Drivers\fm33a0xx_lcd.c **** 	if (LCD->DISPIE & (LCD_DISPIE_DOFFIE_Msk))
 855              		.loc 1 255 0
 856 0000 034B     		ldr	r3, .L103
 857 0002 5B69     		ldr	r3, [r3, #20]
 858 0004 DB07     		lsls	r3, r3, #31
 859 0006 01D5     		bpl	.L102
 256:e:/LiteOS/LiteOS/targets/Cloud_FM33A0XX/GCC/../../../targets/Cloud_FM33A0XX/Drivers\fm33a0xx_lcd.c **** 	{
 257:e:/LiteOS/LiteOS/targets/Cloud_FM33A0XX/GCC/../../../targets/Cloud_FM33A0XX/Drivers\fm33a0xx_lcd.c **** 		return ENABLE;
 860              		.loc 1 257 0
 861 0008 0120     		movs	r0, #1
 862 000a 00E0     		b	.L101
 863              	.L102:
 258:e:/LiteOS/LiteOS/targets/Cloud_FM33A0XX/GCC/../../../targets/Cloud_FM33A0XX/Drivers\fm33a0xx_lcd.c **** 	}
 259:e:/LiteOS/LiteOS/targets/Cloud_FM33A0XX/GCC/../../../targets/Cloud_FM33A0XX/Drivers\fm33a0xx_lcd.c **** 	else
 260:e:/LiteOS/LiteOS/targets/Cloud_FM33A0XX/GCC/../../../targets/Cloud_FM33A0XX/Drivers\fm33a0xx_lcd.c **** 	{
 261:e:/LiteOS/LiteOS/targets/Cloud_FM33A0XX/GCC/../../../targets/Cloud_FM33A0XX/Drivers\fm33a0xx_lcd.c **** 		return DISABLE;
 864              		.loc 1 261 0
 865 000c 0020     		movs	r0, #0
 866              	.L101:
 262:e:/LiteOS/LiteOS/targets/Cloud_FM33A0XX/GCC/../../../targets/Cloud_FM33A0XX/Drivers\fm33a0xx_lcd.c **** 	}
 263:e:/LiteOS/LiteOS/targets/Cloud_FM33A0XX/GCC/../../../targets/Cloud_FM33A0XX/Drivers\fm33a0xx_lcd.c **** }
 867              		.loc 1 263 0
ARM GAS  C:\Users\WANGBI~1\AppData\Local\Temp\ccQL37zL.s 			page 20


 868              		@ sp needed
 869 000e 7047     		bx	lr
 870              	.L104:
 871              		.align	2
 872              	.L103:
 873 0010 000C0140 		.word	1073810432
 874              		.cfi_endproc
 875              	.LFE59:
 877              		.section	.text.LCD_DISPIF_DONIF_Clr,"ax",%progbits
 878              		.align	2
 879              		.global	LCD_DISPIF_DONIF_Clr
 880              		.code	16
 881              		.thumb_func
 883              	LCD_DISPIF_DONIF_Clr:
 884              	.LFB60:
 264:e:/LiteOS/LiteOS/targets/Cloud_FM33A0XX/GCC/../../../targets/Cloud_FM33A0XX/Drivers\fm33a0xx_lcd.c **** 
 265:e:/LiteOS/LiteOS/targets/Cloud_FM33A0XX/GCC/../../../targets/Cloud_FM33A0XX/Drivers\fm33a0xx_lcd.c **** /* 显示点亮中断标志 相关函数 */
 266:e:/LiteOS/LiteOS/targets/Cloud_FM33A0XX/GCC/../../../targets/Cloud_FM33A0XX/Drivers\fm33a0xx_lcd.c **** void LCD_DISPIF_DONIF_Clr(void)
 267:e:/LiteOS/LiteOS/targets/Cloud_FM33A0XX/GCC/../../../targets/Cloud_FM33A0XX/Drivers\fm33a0xx_lcd.c **** {
 885              		.loc 1 267 0
 886              		.cfi_startproc
 887              		@ args = 0, pretend = 0, frame = 0
 888              		@ frame_needed = 0, uses_anonymous_args = 0
 889              		@ link register save eliminated.
 268:e:/LiteOS/LiteOS/targets/Cloud_FM33A0XX/GCC/../../../targets/Cloud_FM33A0XX/Drivers\fm33a0xx_lcd.c **** 	LCD->DISPIF = LCD_DISPIF_DONIF_Msk;
 890              		.loc 1 268 0
 891 0000 0222     		movs	r2, #2
 892 0002 014B     		ldr	r3, .L106
 893 0004 9A61     		str	r2, [r3, #24]
 269:e:/LiteOS/LiteOS/targets/Cloud_FM33A0XX/GCC/../../../targets/Cloud_FM33A0XX/Drivers\fm33a0xx_lcd.c **** }
 894              		.loc 1 269 0
 895              		@ sp needed
 896 0006 7047     		bx	lr
 897              	.L107:
 898              		.align	2
 899              	.L106:
 900 0008 000C0140 		.word	1073810432
 901              		.cfi_endproc
 902              	.LFE60:
 904              		.section	.text.LCD_DISPIF_DONIF_Chk,"ax",%progbits
 905              		.align	2
 906              		.global	LCD_DISPIF_DONIF_Chk
 907              		.code	16
 908              		.thumb_func
 910              	LCD_DISPIF_DONIF_Chk:
 911              	.LFB61:
 270:e:/LiteOS/LiteOS/targets/Cloud_FM33A0XX/GCC/../../../targets/Cloud_FM33A0XX/Drivers\fm33a0xx_lcd.c **** 
 271:e:/LiteOS/LiteOS/targets/Cloud_FM33A0XX/GCC/../../../targets/Cloud_FM33A0XX/Drivers\fm33a0xx_lcd.c **** FlagStatus LCD_DISPIF_DONIF_Chk(void)
 272:e:/LiteOS/LiteOS/targets/Cloud_FM33A0XX/GCC/../../../targets/Cloud_FM33A0XX/Drivers\fm33a0xx_lcd.c **** {
 912              		.loc 1 272 0
 913              		.cfi_startproc
 914              		@ args = 0, pretend = 0, frame = 0
 915              		@ frame_needed = 0, uses_anonymous_args = 0
 916              		@ link register save eliminated.
 273:e:/LiteOS/LiteOS/targets/Cloud_FM33A0XX/GCC/../../../targets/Cloud_FM33A0XX/Drivers\fm33a0xx_lcd.c **** 	if (LCD->DISPIF & LCD_DISPIF_DONIF_Msk)
 917              		.loc 1 273 0
 918 0000 034B     		ldr	r3, .L111
ARM GAS  C:\Users\WANGBI~1\AppData\Local\Temp\ccQL37zL.s 			page 21


 919 0002 9B69     		ldr	r3, [r3, #24]
 920 0004 9B07     		lsls	r3, r3, #30
 921 0006 01D5     		bpl	.L110
 274:e:/LiteOS/LiteOS/targets/Cloud_FM33A0XX/GCC/../../../targets/Cloud_FM33A0XX/Drivers\fm33a0xx_lcd.c **** 	{
 275:e:/LiteOS/LiteOS/targets/Cloud_FM33A0XX/GCC/../../../targets/Cloud_FM33A0XX/Drivers\fm33a0xx_lcd.c **** 		return SET;
 922              		.loc 1 275 0
 923 0008 0120     		movs	r0, #1
 924 000a 00E0     		b	.L109
 925              	.L110:
 276:e:/LiteOS/LiteOS/targets/Cloud_FM33A0XX/GCC/../../../targets/Cloud_FM33A0XX/Drivers\fm33a0xx_lcd.c **** 	}
 277:e:/LiteOS/LiteOS/targets/Cloud_FM33A0XX/GCC/../../../targets/Cloud_FM33A0XX/Drivers\fm33a0xx_lcd.c **** 	else
 278:e:/LiteOS/LiteOS/targets/Cloud_FM33A0XX/GCC/../../../targets/Cloud_FM33A0XX/Drivers\fm33a0xx_lcd.c **** 	{
 279:e:/LiteOS/LiteOS/targets/Cloud_FM33A0XX/GCC/../../../targets/Cloud_FM33A0XX/Drivers\fm33a0xx_lcd.c **** 		return RESET;
 926              		.loc 1 279 0
 927 000c 0020     		movs	r0, #0
 928              	.L109:
 280:e:/LiteOS/LiteOS/targets/Cloud_FM33A0XX/GCC/../../../targets/Cloud_FM33A0XX/Drivers\fm33a0xx_lcd.c **** 	}
 281:e:/LiteOS/LiteOS/targets/Cloud_FM33A0XX/GCC/../../../targets/Cloud_FM33A0XX/Drivers\fm33a0xx_lcd.c **** }
 929              		.loc 1 281 0
 930              		@ sp needed
 931 000e 7047     		bx	lr
 932              	.L112:
 933              		.align	2
 934              	.L111:
 935 0010 000C0140 		.word	1073810432
 936              		.cfi_endproc
 937              	.LFE61:
 939              		.section	.text.LCD_DISPIF_DOFFIF_Clr,"ax",%progbits
 940              		.align	2
 941              		.global	LCD_DISPIF_DOFFIF_Clr
 942              		.code	16
 943              		.thumb_func
 945              	LCD_DISPIF_DOFFIF_Clr:
 946              	.LFB62:
 282:e:/LiteOS/LiteOS/targets/Cloud_FM33A0XX/GCC/../../../targets/Cloud_FM33A0XX/Drivers\fm33a0xx_lcd.c **** 
 283:e:/LiteOS/LiteOS/targets/Cloud_FM33A0XX/GCC/../../../targets/Cloud_FM33A0XX/Drivers\fm33a0xx_lcd.c **** /* 显示熄灭中断标志 相关函数 */
 284:e:/LiteOS/LiteOS/targets/Cloud_FM33A0XX/GCC/../../../targets/Cloud_FM33A0XX/Drivers\fm33a0xx_lcd.c **** void LCD_DISPIF_DOFFIF_Clr(void)
 285:e:/LiteOS/LiteOS/targets/Cloud_FM33A0XX/GCC/../../../targets/Cloud_FM33A0XX/Drivers\fm33a0xx_lcd.c **** {
 947              		.loc 1 285 0
 948              		.cfi_startproc
 949              		@ args = 0, pretend = 0, frame = 0
 950              		@ frame_needed = 0, uses_anonymous_args = 0
 951              		@ link register save eliminated.
 286:e:/LiteOS/LiteOS/targets/Cloud_FM33A0XX/GCC/../../../targets/Cloud_FM33A0XX/Drivers\fm33a0xx_lcd.c **** 	LCD->DISPIF = LCD_DISPIF_DOFFIF_Msk;
 952              		.loc 1 286 0
 953 0000 0122     		movs	r2, #1
 954 0002 014B     		ldr	r3, .L114
 955 0004 9A61     		str	r2, [r3, #24]
 287:e:/LiteOS/LiteOS/targets/Cloud_FM33A0XX/GCC/../../../targets/Cloud_FM33A0XX/Drivers\fm33a0xx_lcd.c **** }
 956              		.loc 1 287 0
 957              		@ sp needed
 958 0006 7047     		bx	lr
 959              	.L115:
 960              		.align	2
 961              	.L114:
 962 0008 000C0140 		.word	1073810432
 963              		.cfi_endproc
ARM GAS  C:\Users\WANGBI~1\AppData\Local\Temp\ccQL37zL.s 			page 22


 964              	.LFE62:
 966              		.section	.text.LCD_DISPIF_DOFFIF_Chk,"ax",%progbits
 967              		.align	2
 968              		.global	LCD_DISPIF_DOFFIF_Chk
 969              		.code	16
 970              		.thumb_func
 972              	LCD_DISPIF_DOFFIF_Chk:
 973              	.LFB63:
 288:e:/LiteOS/LiteOS/targets/Cloud_FM33A0XX/GCC/../../../targets/Cloud_FM33A0XX/Drivers\fm33a0xx_lcd.c **** 
 289:e:/LiteOS/LiteOS/targets/Cloud_FM33A0XX/GCC/../../../targets/Cloud_FM33A0XX/Drivers\fm33a0xx_lcd.c **** FlagStatus LCD_DISPIF_DOFFIF_Chk(void)
 290:e:/LiteOS/LiteOS/targets/Cloud_FM33A0XX/GCC/../../../targets/Cloud_FM33A0XX/Drivers\fm33a0xx_lcd.c **** {
 974              		.loc 1 290 0
 975              		.cfi_startproc
 976              		@ args = 0, pretend = 0, frame = 0
 977              		@ frame_needed = 0, uses_anonymous_args = 0
 978              		@ link register save eliminated.
 291:e:/LiteOS/LiteOS/targets/Cloud_FM33A0XX/GCC/../../../targets/Cloud_FM33A0XX/Drivers\fm33a0xx_lcd.c **** 	if (LCD->DISPIF & LCD_DISPIF_DOFFIF_Msk)
 979              		.loc 1 291 0
 980 0000 034B     		ldr	r3, .L119
 981 0002 9B69     		ldr	r3, [r3, #24]
 982 0004 DB07     		lsls	r3, r3, #31
 983 0006 01D5     		bpl	.L118
 292:e:/LiteOS/LiteOS/targets/Cloud_FM33A0XX/GCC/../../../targets/Cloud_FM33A0XX/Drivers\fm33a0xx_lcd.c **** 	{
 293:e:/LiteOS/LiteOS/targets/Cloud_FM33A0XX/GCC/../../../targets/Cloud_FM33A0XX/Drivers\fm33a0xx_lcd.c **** 		return SET;
 984              		.loc 1 293 0
 985 0008 0120     		movs	r0, #1
 986 000a 00E0     		b	.L117
 987              	.L118:
 294:e:/LiteOS/LiteOS/targets/Cloud_FM33A0XX/GCC/../../../targets/Cloud_FM33A0XX/Drivers\fm33a0xx_lcd.c **** 	}
 295:e:/LiteOS/LiteOS/targets/Cloud_FM33A0XX/GCC/../../../targets/Cloud_FM33A0XX/Drivers\fm33a0xx_lcd.c **** 	else
 296:e:/LiteOS/LiteOS/targets/Cloud_FM33A0XX/GCC/../../../targets/Cloud_FM33A0XX/Drivers\fm33a0xx_lcd.c **** 	{
 297:e:/LiteOS/LiteOS/targets/Cloud_FM33A0XX/GCC/../../../targets/Cloud_FM33A0XX/Drivers\fm33a0xx_lcd.c **** 		return RESET;
 988              		.loc 1 297 0
 989 000c 0020     		movs	r0, #0
 990              	.L117:
 298:e:/LiteOS/LiteOS/targets/Cloud_FM33A0XX/GCC/../../../targets/Cloud_FM33A0XX/Drivers\fm33a0xx_lcd.c **** 	}
 299:e:/LiteOS/LiteOS/targets/Cloud_FM33A0XX/GCC/../../../targets/Cloud_FM33A0XX/Drivers\fm33a0xx_lcd.c **** }
 991              		.loc 1 299 0
 992              		@ sp needed
 993 000e 7047     		bx	lr
 994              	.L120:
 995              		.align	2
 996              	.L119:
 997 0010 000C0140 		.word	1073810432
 998              		.cfi_endproc
 999              	.LFE63:
 1001              		.section	.text.LCD_LCDSET_BIASMD_Set,"ax",%progbits
 1002              		.align	2
 1003              		.global	LCD_LCDSET_BIASMD_Set
 1004              		.code	16
 1005              		.thumb_func
 1007              	LCD_LCDSET_BIASMD_Set:
 1008              	.LFB64:
 300:e:/LiteOS/LiteOS/targets/Cloud_FM33A0XX/GCC/../../../targets/Cloud_FM33A0XX/Drivers\fm33a0xx_lcd.c **** 
 301:e:/LiteOS/LiteOS/targets/Cloud_FM33A0XX/GCC/../../../targets/Cloud_FM33A0XX/Drivers\fm33a0xx_lcd.c **** /* 偏置类型控制 相关函数 */
 302:e:/LiteOS/LiteOS/targets/Cloud_FM33A0XX/GCC/../../../targets/Cloud_FM33A0XX/Drivers\fm33a0xx_lcd.c **** void LCD_LCDSET_BIASMD_Set(uint32_t SetValue)
 303:e:/LiteOS/LiteOS/targets/Cloud_FM33A0XX/GCC/../../../targets/Cloud_FM33A0XX/Drivers\fm33a0xx_lcd.c **** {
ARM GAS  C:\Users\WANGBI~1\AppData\Local\Temp\ccQL37zL.s 			page 23


 1009              		.loc 1 303 0
 1010              		.cfi_startproc
 1011              		@ args = 0, pretend = 0, frame = 0
 1012              		@ frame_needed = 0, uses_anonymous_args = 0
 1013              		@ link register save eliminated.
 1014              	.LVL19:
 304:e:/LiteOS/LiteOS/targets/Cloud_FM33A0XX/GCC/../../../targets/Cloud_FM33A0XX/Drivers\fm33a0xx_lcd.c **** 	uint32_t tmpreg;
 305:e:/LiteOS/LiteOS/targets/Cloud_FM33A0XX/GCC/../../../targets/Cloud_FM33A0XX/Drivers\fm33a0xx_lcd.c **** 	tmpreg = LCD->LCDSET;
 1015              		.loc 1 305 0
 1016 0000 034A     		ldr	r2, .L122
 1017 0002 D369     		ldr	r3, [r2, #28]
 1018              	.LVL20:
 306:e:/LiteOS/LiteOS/targets/Cloud_FM33A0XX/GCC/../../../targets/Cloud_FM33A0XX/Drivers\fm33a0xx_lcd.c **** 	tmpreg &= ~(LCD_LCDSET_BIASMD_Msk);
 1019              		.loc 1 306 0
 1020 0004 1021     		movs	r1, #16
 1021 0006 8B43     		bics	r3, r1
 1022              	.LVL21:
 307:e:/LiteOS/LiteOS/targets/Cloud_FM33A0XX/GCC/../../../targets/Cloud_FM33A0XX/Drivers\fm33a0xx_lcd.c **** 	tmpreg |= (SetValue & LCD_LCDSET_BIASMD_Msk);
 1023              		.loc 1 307 0
 1024 0008 0840     		ands	r0, r1
 1025              	.LVL22:
 1026 000a 1843     		orrs	r0, r3
 1027              	.LVL23:
 308:e:/LiteOS/LiteOS/targets/Cloud_FM33A0XX/GCC/../../../targets/Cloud_FM33A0XX/Drivers\fm33a0xx_lcd.c **** 	LCD->LCDSET = tmpreg;
 1028              		.loc 1 308 0
 1029 000c D061     		str	r0, [r2, #28]
 309:e:/LiteOS/LiteOS/targets/Cloud_FM33A0XX/GCC/../../../targets/Cloud_FM33A0XX/Drivers\fm33a0xx_lcd.c **** }
 1030              		.loc 1 309 0
 1031              		@ sp needed
 1032 000e 7047     		bx	lr
 1033              	.L123:
 1034              		.align	2
 1035              	.L122:
 1036 0010 000C0140 		.word	1073810432
 1037              		.cfi_endproc
 1038              	.LFE64:
 1040              		.section	.text.LCD_LCDSET_BIASMD_Get,"ax",%progbits
 1041              		.align	2
 1042              		.global	LCD_LCDSET_BIASMD_Get
 1043              		.code	16
 1044              		.thumb_func
 1046              	LCD_LCDSET_BIASMD_Get:
 1047              	.LFB65:
 310:e:/LiteOS/LiteOS/targets/Cloud_FM33A0XX/GCC/../../../targets/Cloud_FM33A0XX/Drivers\fm33a0xx_lcd.c **** 
 311:e:/LiteOS/LiteOS/targets/Cloud_FM33A0XX/GCC/../../../targets/Cloud_FM33A0XX/Drivers\fm33a0xx_lcd.c **** uint32_t LCD_LCDSET_BIASMD_Get(void)
 312:e:/LiteOS/LiteOS/targets/Cloud_FM33A0XX/GCC/../../../targets/Cloud_FM33A0XX/Drivers\fm33a0xx_lcd.c **** {
 1048              		.loc 1 312 0
 1049              		.cfi_startproc
 1050              		@ args = 0, pretend = 0, frame = 0
 1051              		@ frame_needed = 0, uses_anonymous_args = 0
 1052              		@ link register save eliminated.
 313:e:/LiteOS/LiteOS/targets/Cloud_FM33A0XX/GCC/../../../targets/Cloud_FM33A0XX/Drivers\fm33a0xx_lcd.c **** 	return (LCD->LCDSET & LCD_LCDSET_BIASMD_Msk);
 1053              		.loc 1 313 0
 1054 0000 024B     		ldr	r3, .L125
 1055 0002 DB69     		ldr	r3, [r3, #28]
 1056 0004 1020     		movs	r0, #16
 1057 0006 1840     		ands	r0, r3
ARM GAS  C:\Users\WANGBI~1\AppData\Local\Temp\ccQL37zL.s 			page 24


 314:e:/LiteOS/LiteOS/targets/Cloud_FM33A0XX/GCC/../../../targets/Cloud_FM33A0XX/Drivers\fm33a0xx_lcd.c **** }
 1058              		.loc 1 314 0
 1059              		@ sp needed
 1060 0008 7047     		bx	lr
 1061              	.L126:
 1062 000a C046     		.align	2
 1063              	.L125:
 1064 000c 000C0140 		.word	1073810432
 1065              		.cfi_endproc
 1066              	.LFE65:
 1068              		.section	.text.LCD_LCDSET_WFT_Set,"ax",%progbits
 1069              		.align	2
 1070              		.global	LCD_LCDSET_WFT_Set
 1071              		.code	16
 1072              		.thumb_func
 1074              	LCD_LCDSET_WFT_Set:
 1075              	.LFB66:
 315:e:/LiteOS/LiteOS/targets/Cloud_FM33A0XX/GCC/../../../targets/Cloud_FM33A0XX/Drivers\fm33a0xx_lcd.c **** 
 316:e:/LiteOS/LiteOS/targets/Cloud_FM33A0XX/GCC/../../../targets/Cloud_FM33A0XX/Drivers\fm33a0xx_lcd.c **** /* 驱动波形选择 相关函数 */
 317:e:/LiteOS/LiteOS/targets/Cloud_FM33A0XX/GCC/../../../targets/Cloud_FM33A0XX/Drivers\fm33a0xx_lcd.c **** void LCD_LCDSET_WFT_Set(uint32_t SetValue)
 318:e:/LiteOS/LiteOS/targets/Cloud_FM33A0XX/GCC/../../../targets/Cloud_FM33A0XX/Drivers\fm33a0xx_lcd.c **** {
 1076              		.loc 1 318 0
 1077              		.cfi_startproc
 1078              		@ args = 0, pretend = 0, frame = 0
 1079              		@ frame_needed = 0, uses_anonymous_args = 0
 1080              		@ link register save eliminated.
 1081              	.LVL24:
 319:e:/LiteOS/LiteOS/targets/Cloud_FM33A0XX/GCC/../../../targets/Cloud_FM33A0XX/Drivers\fm33a0xx_lcd.c **** 	uint32_t tmpreg;
 320:e:/LiteOS/LiteOS/targets/Cloud_FM33A0XX/GCC/../../../targets/Cloud_FM33A0XX/Drivers\fm33a0xx_lcd.c **** 	tmpreg = LCD->LCDSET;
 1082              		.loc 1 320 0
 1083 0000 034A     		ldr	r2, .L128
 1084 0002 D369     		ldr	r3, [r2, #28]
 1085              	.LVL25:
 321:e:/LiteOS/LiteOS/targets/Cloud_FM33A0XX/GCC/../../../targets/Cloud_FM33A0XX/Drivers\fm33a0xx_lcd.c **** 	tmpreg &= ~(LCD_LCDSET_WFT_Msk);
 1086              		.loc 1 321 0
 1087 0004 0421     		movs	r1, #4
 1088 0006 8B43     		bics	r3, r1
 1089              	.LVL26:
 322:e:/LiteOS/LiteOS/targets/Cloud_FM33A0XX/GCC/../../../targets/Cloud_FM33A0XX/Drivers\fm33a0xx_lcd.c **** 	tmpreg |= (SetValue & LCD_LCDSET_WFT_Msk);
 1090              		.loc 1 322 0
 1091 0008 0840     		ands	r0, r1
 1092              	.LVL27:
 1093 000a 1843     		orrs	r0, r3
 1094              	.LVL28:
 323:e:/LiteOS/LiteOS/targets/Cloud_FM33A0XX/GCC/../../../targets/Cloud_FM33A0XX/Drivers\fm33a0xx_lcd.c **** 	LCD->LCDSET = tmpreg;
 1095              		.loc 1 323 0
 1096 000c D061     		str	r0, [r2, #28]
 324:e:/LiteOS/LiteOS/targets/Cloud_FM33A0XX/GCC/../../../targets/Cloud_FM33A0XX/Drivers\fm33a0xx_lcd.c **** }
 1097              		.loc 1 324 0
 1098              		@ sp needed
 1099 000e 7047     		bx	lr
 1100              	.L129:
 1101              		.align	2
 1102              	.L128:
 1103 0010 000C0140 		.word	1073810432
 1104              		.cfi_endproc
 1105              	.LFE66:
ARM GAS  C:\Users\WANGBI~1\AppData\Local\Temp\ccQL37zL.s 			page 25


 1107              		.section	.text.LCD_LCDSET_WFT_Get,"ax",%progbits
 1108              		.align	2
 1109              		.global	LCD_LCDSET_WFT_Get
 1110              		.code	16
 1111              		.thumb_func
 1113              	LCD_LCDSET_WFT_Get:
 1114              	.LFB67:
 325:e:/LiteOS/LiteOS/targets/Cloud_FM33A0XX/GCC/../../../targets/Cloud_FM33A0XX/Drivers\fm33a0xx_lcd.c **** 
 326:e:/LiteOS/LiteOS/targets/Cloud_FM33A0XX/GCC/../../../targets/Cloud_FM33A0XX/Drivers\fm33a0xx_lcd.c **** uint32_t LCD_LCDSET_WFT_Get(void)
 327:e:/LiteOS/LiteOS/targets/Cloud_FM33A0XX/GCC/../../../targets/Cloud_FM33A0XX/Drivers\fm33a0xx_lcd.c **** {
 1115              		.loc 1 327 0
 1116              		.cfi_startproc
 1117              		@ args = 0, pretend = 0, frame = 0
 1118              		@ frame_needed = 0, uses_anonymous_args = 0
 1119              		@ link register save eliminated.
 328:e:/LiteOS/LiteOS/targets/Cloud_FM33A0XX/GCC/../../../targets/Cloud_FM33A0XX/Drivers\fm33a0xx_lcd.c **** 	return (LCD->LCDSET & LCD_LCDSET_WFT_Msk);
 1120              		.loc 1 328 0
 1121 0000 024B     		ldr	r3, .L131
 1122 0002 DB69     		ldr	r3, [r3, #28]
 1123 0004 0420     		movs	r0, #4
 1124 0006 1840     		ands	r0, r3
 329:e:/LiteOS/LiteOS/targets/Cloud_FM33A0XX/GCC/../../../targets/Cloud_FM33A0XX/Drivers\fm33a0xx_lcd.c **** }
 1125              		.loc 1 329 0
 1126              		@ sp needed
 1127 0008 7047     		bx	lr
 1128              	.L132:
 1129 000a C046     		.align	2
 1130              	.L131:
 1131 000c 000C0140 		.word	1073810432
 1132              		.cfi_endproc
 1133              	.LFE67:
 1135              		.section	.text.LCD_LCDSET_LMUX_Set,"ax",%progbits
 1136              		.align	2
 1137              		.global	LCD_LCDSET_LMUX_Set
 1138              		.code	16
 1139              		.thumb_func
 1141              	LCD_LCDSET_LMUX_Set:
 1142              	.LFB68:
 330:e:/LiteOS/LiteOS/targets/Cloud_FM33A0XX/GCC/../../../targets/Cloud_FM33A0XX/Drivers\fm33a0xx_lcd.c **** 
 331:e:/LiteOS/LiteOS/targets/Cloud_FM33A0XX/GCC/../../../targets/Cloud_FM33A0XX/Drivers\fm33a0xx_lcd.c **** /* COM数量选择 相关函数 */
 332:e:/LiteOS/LiteOS/targets/Cloud_FM33A0XX/GCC/../../../targets/Cloud_FM33A0XX/Drivers\fm33a0xx_lcd.c **** void LCD_LCDSET_LMUX_Set(uint32_t SetValue)
 333:e:/LiteOS/LiteOS/targets/Cloud_FM33A0XX/GCC/../../../targets/Cloud_FM33A0XX/Drivers\fm33a0xx_lcd.c **** {
 1143              		.loc 1 333 0
 1144              		.cfi_startproc
 1145              		@ args = 0, pretend = 0, frame = 0
 1146              		@ frame_needed = 0, uses_anonymous_args = 0
 1147              		@ link register save eliminated.
 1148              	.LVL29:
 334:e:/LiteOS/LiteOS/targets/Cloud_FM33A0XX/GCC/../../../targets/Cloud_FM33A0XX/Drivers\fm33a0xx_lcd.c **** 	uint32_t tmpreg;
 335:e:/LiteOS/LiteOS/targets/Cloud_FM33A0XX/GCC/../../../targets/Cloud_FM33A0XX/Drivers\fm33a0xx_lcd.c **** 	tmpreg = LCD->LCDSET;
 1149              		.loc 1 335 0
 1150 0000 034A     		ldr	r2, .L134
 1151 0002 D369     		ldr	r3, [r2, #28]
 1152              	.LVL30:
 336:e:/LiteOS/LiteOS/targets/Cloud_FM33A0XX/GCC/../../../targets/Cloud_FM33A0XX/Drivers\fm33a0xx_lcd.c **** 	tmpreg &= ~(LCD_LCDSET_LMUX_Msk);
 1153              		.loc 1 336 0
 1154 0004 0321     		movs	r1, #3
ARM GAS  C:\Users\WANGBI~1\AppData\Local\Temp\ccQL37zL.s 			page 26


 1155 0006 8B43     		bics	r3, r1
 1156              	.LVL31:
 337:e:/LiteOS/LiteOS/targets/Cloud_FM33A0XX/GCC/../../../targets/Cloud_FM33A0XX/Drivers\fm33a0xx_lcd.c **** 	tmpreg |= (SetValue & LCD_LCDSET_LMUX_Msk);
 1157              		.loc 1 337 0
 1158 0008 0840     		ands	r0, r1
 1159              	.LVL32:
 1160 000a 1843     		orrs	r0, r3
 1161              	.LVL33:
 338:e:/LiteOS/LiteOS/targets/Cloud_FM33A0XX/GCC/../../../targets/Cloud_FM33A0XX/Drivers\fm33a0xx_lcd.c **** 	LCD->LCDSET = tmpreg;
 1162              		.loc 1 338 0
 1163 000c D061     		str	r0, [r2, #28]
 339:e:/LiteOS/LiteOS/targets/Cloud_FM33A0XX/GCC/../../../targets/Cloud_FM33A0XX/Drivers\fm33a0xx_lcd.c **** }
 1164              		.loc 1 339 0
 1165              		@ sp needed
 1166 000e 7047     		bx	lr
 1167              	.L135:
 1168              		.align	2
 1169              	.L134:
 1170 0010 000C0140 		.word	1073810432
 1171              		.cfi_endproc
 1172              	.LFE68:
 1174              		.section	.text.LCD_LCDSET_LMUX_Get,"ax",%progbits
 1175              		.align	2
 1176              		.global	LCD_LCDSET_LMUX_Get
 1177              		.code	16
 1178              		.thumb_func
 1180              	LCD_LCDSET_LMUX_Get:
 1181              	.LFB69:
 340:e:/LiteOS/LiteOS/targets/Cloud_FM33A0XX/GCC/../../../targets/Cloud_FM33A0XX/Drivers\fm33a0xx_lcd.c **** 
 341:e:/LiteOS/LiteOS/targets/Cloud_FM33A0XX/GCC/../../../targets/Cloud_FM33A0XX/Drivers\fm33a0xx_lcd.c **** uint32_t LCD_LCDSET_LMUX_Get(void)
 342:e:/LiteOS/LiteOS/targets/Cloud_FM33A0XX/GCC/../../../targets/Cloud_FM33A0XX/Drivers\fm33a0xx_lcd.c **** {
 1182              		.loc 1 342 0
 1183              		.cfi_startproc
 1184              		@ args = 0, pretend = 0, frame = 0
 1185              		@ frame_needed = 0, uses_anonymous_args = 0
 1186              		@ link register save eliminated.
 343:e:/LiteOS/LiteOS/targets/Cloud_FM33A0XX/GCC/../../../targets/Cloud_FM33A0XX/Drivers\fm33a0xx_lcd.c **** 	return (LCD->LCDSET & LCD_LCDSET_LMUX_Msk);
 1187              		.loc 1 343 0
 1188 0000 024B     		ldr	r3, .L137
 1189 0002 DB69     		ldr	r3, [r3, #28]
 1190 0004 0320     		movs	r0, #3
 1191 0006 1840     		ands	r0, r3
 344:e:/LiteOS/LiteOS/targets/Cloud_FM33A0XX/GCC/../../../targets/Cloud_FM33A0XX/Drivers\fm33a0xx_lcd.c **** }
 1192              		.loc 1 344 0
 1193              		@ sp needed
 1194 0008 7047     		bx	lr
 1195              	.L138:
 1196 000a C046     		.align	2
 1197              	.L137:
 1198 000c 000C0140 		.word	1073810432
 1199              		.cfi_endproc
 1200              	.LFE69:
 1202              		.section	.text.LCD_LCDDRV_SCFSEL_Set,"ax",%progbits
 1203              		.align	2
 1204              		.global	LCD_LCDDRV_SCFSEL_Set
 1205              		.code	16
 1206              		.thumb_func
ARM GAS  C:\Users\WANGBI~1\AppData\Local\Temp\ccQL37zL.s 			page 27


 1208              	LCD_LCDDRV_SCFSEL_Set:
 1209              	.LFB70:
 345:e:/LiteOS/LiteOS/targets/Cloud_FM33A0XX/GCC/../../../targets/Cloud_FM33A0XX/Drivers\fm33a0xx_lcd.c **** 
 346:e:/LiteOS/LiteOS/targets/Cloud_FM33A0XX/GCC/../../../targets/Cloud_FM33A0XX/Drivers\fm33a0xx_lcd.c **** /* SC频率选择 相关函数 */
 347:e:/LiteOS/LiteOS/targets/Cloud_FM33A0XX/GCC/../../../targets/Cloud_FM33A0XX/Drivers\fm33a0xx_lcd.c **** void LCD_LCDDRV_SCFSEL_Set(uint32_t SetValue)
 348:e:/LiteOS/LiteOS/targets/Cloud_FM33A0XX/GCC/../../../targets/Cloud_FM33A0XX/Drivers\fm33a0xx_lcd.c **** {
 1210              		.loc 1 348 0
 1211              		.cfi_startproc
 1212              		@ args = 0, pretend = 0, frame = 0
 1213              		@ frame_needed = 0, uses_anonymous_args = 0
 1214              		@ link register save eliminated.
 1215              	.LVL34:
 349:e:/LiteOS/LiteOS/targets/Cloud_FM33A0XX/GCC/../../../targets/Cloud_FM33A0XX/Drivers\fm33a0xx_lcd.c **** 	uint32_t tmpreg;
 350:e:/LiteOS/LiteOS/targets/Cloud_FM33A0XX/GCC/../../../targets/Cloud_FM33A0XX/Drivers\fm33a0xx_lcd.c **** 	tmpreg = LCD->LCDDRV;
 1216              		.loc 1 350 0
 1217 0000 034A     		ldr	r2, .L140
 1218 0002 136A     		ldr	r3, [r2, #32]
 1219              	.LVL35:
 351:e:/LiteOS/LiteOS/targets/Cloud_FM33A0XX/GCC/../../../targets/Cloud_FM33A0XX/Drivers\fm33a0xx_lcd.c **** 	tmpreg &= ~(LCD_LCDDRV_SCFSEL_Msk);
 1220              		.loc 1 351 0
 1221 0004 E021     		movs	r1, #224
 1222 0006 8B43     		bics	r3, r1
 1223              	.LVL36:
 352:e:/LiteOS/LiteOS/targets/Cloud_FM33A0XX/GCC/../../../targets/Cloud_FM33A0XX/Drivers\fm33a0xx_lcd.c **** 	tmpreg |= (SetValue & LCD_LCDDRV_SCFSEL_Msk);
 1224              		.loc 1 352 0
 1225 0008 0840     		ands	r0, r1
 1226              	.LVL37:
 1227 000a 1843     		orrs	r0, r3
 1228              	.LVL38:
 353:e:/LiteOS/LiteOS/targets/Cloud_FM33A0XX/GCC/../../../targets/Cloud_FM33A0XX/Drivers\fm33a0xx_lcd.c **** 	LCD->LCDDRV = tmpreg;
 1229              		.loc 1 353 0
 1230 000c 1062     		str	r0, [r2, #32]
 354:e:/LiteOS/LiteOS/targets/Cloud_FM33A0XX/GCC/../../../targets/Cloud_FM33A0XX/Drivers\fm33a0xx_lcd.c **** }
 1231              		.loc 1 354 0
 1232              		@ sp needed
 1233 000e 7047     		bx	lr
 1234              	.L141:
 1235              		.align	2
 1236              	.L140:
 1237 0010 000C0140 		.word	1073810432
 1238              		.cfi_endproc
 1239              	.LFE70:
 1241              		.section	.text.LCD_LCDDRV_SCFSEL_Get,"ax",%progbits
 1242              		.align	2
 1243              		.global	LCD_LCDDRV_SCFSEL_Get
 1244              		.code	16
 1245              		.thumb_func
 1247              	LCD_LCDDRV_SCFSEL_Get:
 1248              	.LFB71:
 355:e:/LiteOS/LiteOS/targets/Cloud_FM33A0XX/GCC/../../../targets/Cloud_FM33A0XX/Drivers\fm33a0xx_lcd.c **** 
 356:e:/LiteOS/LiteOS/targets/Cloud_FM33A0XX/GCC/../../../targets/Cloud_FM33A0XX/Drivers\fm33a0xx_lcd.c **** uint32_t LCD_LCDDRV_SCFSEL_Get(void)
 357:e:/LiteOS/LiteOS/targets/Cloud_FM33A0XX/GCC/../../../targets/Cloud_FM33A0XX/Drivers\fm33a0xx_lcd.c **** {
 1249              		.loc 1 357 0
 1250              		.cfi_startproc
 1251              		@ args = 0, pretend = 0, frame = 0
 1252              		@ frame_needed = 0, uses_anonymous_args = 0
 1253              		@ link register save eliminated.
ARM GAS  C:\Users\WANGBI~1\AppData\Local\Temp\ccQL37zL.s 			page 28


 358:e:/LiteOS/LiteOS/targets/Cloud_FM33A0XX/GCC/../../../targets/Cloud_FM33A0XX/Drivers\fm33a0xx_lcd.c **** 	return (LCD->LCDDRV & LCD_LCDDRV_SCFSEL_Msk);
 1254              		.loc 1 358 0
 1255 0000 024B     		ldr	r3, .L143
 1256 0002 1B6A     		ldr	r3, [r3, #32]
 1257 0004 E020     		movs	r0, #224
 1258 0006 1840     		ands	r0, r3
 359:e:/LiteOS/LiteOS/targets/Cloud_FM33A0XX/GCC/../../../targets/Cloud_FM33A0XX/Drivers\fm33a0xx_lcd.c **** }
 1259              		.loc 1 359 0
 1260              		@ sp needed
 1261 0008 7047     		bx	lr
 1262              	.L144:
 1263 000a C046     		.align	2
 1264              	.L143:
 1265 000c 000C0140 		.word	1073810432
 1266              		.cfi_endproc
 1267              	.LFE71:
 1269              		.section	.text.LCD_LCDDRV_SC_CTRL_Set,"ax",%progbits
 1270              		.align	2
 1271              		.global	LCD_LCDDRV_SC_CTRL_Set
 1272              		.code	16
 1273              		.thumb_func
 1275              	LCD_LCDDRV_SC_CTRL_Set:
 1276              	.LFB72:
 360:e:/LiteOS/LiteOS/targets/Cloud_FM33A0XX/GCC/../../../targets/Cloud_FM33A0XX/Drivers\fm33a0xx_lcd.c **** 
 361:e:/LiteOS/LiteOS/targets/Cloud_FM33A0XX/GCC/../../../targets/Cloud_FM33A0XX/Drivers\fm33a0xx_lcd.c **** /* 片外电容驱动模式下，驱动方式控制 相关函数 */
 362:e:/LiteOS/LiteOS/targets/Cloud_FM33A0XX/GCC/../../../targets/Cloud_FM33A0XX/Drivers\fm33a0xx_lcd.c **** void LCD_LCDDRV_SC_CTRL_Set(uint32_t SetValue)
 363:e:/LiteOS/LiteOS/targets/Cloud_FM33A0XX/GCC/../../../targets/Cloud_FM33A0XX/Drivers\fm33a0xx_lcd.c **** {
 1277              		.loc 1 363 0
 1278              		.cfi_startproc
 1279              		@ args = 0, pretend = 0, frame = 0
 1280              		@ frame_needed = 0, uses_anonymous_args = 0
 1281              		@ link register save eliminated.
 1282              	.LVL39:
 364:e:/LiteOS/LiteOS/targets/Cloud_FM33A0XX/GCC/../../../targets/Cloud_FM33A0XX/Drivers\fm33a0xx_lcd.c **** 	uint32_t tmpreg;
 365:e:/LiteOS/LiteOS/targets/Cloud_FM33A0XX/GCC/../../../targets/Cloud_FM33A0XX/Drivers\fm33a0xx_lcd.c **** 	tmpreg = LCD->LCDDRV;
 1283              		.loc 1 365 0
 1284 0000 034A     		ldr	r2, .L146
 1285 0002 136A     		ldr	r3, [r2, #32]
 1286              	.LVL40:
 366:e:/LiteOS/LiteOS/targets/Cloud_FM33A0XX/GCC/../../../targets/Cloud_FM33A0XX/Drivers\fm33a0xx_lcd.c **** 	tmpreg &= ~(LCD_LCDDRV_SC_CTRL_Msk);
 1287              		.loc 1 366 0
 1288 0004 1821     		movs	r1, #24
 1289 0006 8B43     		bics	r3, r1
 1290              	.LVL41:
 367:e:/LiteOS/LiteOS/targets/Cloud_FM33A0XX/GCC/../../../targets/Cloud_FM33A0XX/Drivers\fm33a0xx_lcd.c **** 	tmpreg |= (SetValue & LCD_LCDDRV_SC_CTRL_Msk);
 1291              		.loc 1 367 0
 1292 0008 0840     		ands	r0, r1
 1293              	.LVL42:
 1294 000a 1843     		orrs	r0, r3
 1295              	.LVL43:
 368:e:/LiteOS/LiteOS/targets/Cloud_FM33A0XX/GCC/../../../targets/Cloud_FM33A0XX/Drivers\fm33a0xx_lcd.c **** 	LCD->LCDDRV = tmpreg;
 1296              		.loc 1 368 0
 1297 000c 1062     		str	r0, [r2, #32]
 369:e:/LiteOS/LiteOS/targets/Cloud_FM33A0XX/GCC/../../../targets/Cloud_FM33A0XX/Drivers\fm33a0xx_lcd.c **** }
 1298              		.loc 1 369 0
 1299              		@ sp needed
 1300 000e 7047     		bx	lr
ARM GAS  C:\Users\WANGBI~1\AppData\Local\Temp\ccQL37zL.s 			page 29


 1301              	.L147:
 1302              		.align	2
 1303              	.L146:
 1304 0010 000C0140 		.word	1073810432
 1305              		.cfi_endproc
 1306              	.LFE72:
 1308              		.section	.text.LCD_LCDDRV_SC_CTRL_Get,"ax",%progbits
 1309              		.align	2
 1310              		.global	LCD_LCDDRV_SC_CTRL_Get
 1311              		.code	16
 1312              		.thumb_func
 1314              	LCD_LCDDRV_SC_CTRL_Get:
 1315              	.LFB73:
 370:e:/LiteOS/LiteOS/targets/Cloud_FM33A0XX/GCC/../../../targets/Cloud_FM33A0XX/Drivers\fm33a0xx_lcd.c **** 
 371:e:/LiteOS/LiteOS/targets/Cloud_FM33A0XX/GCC/../../../targets/Cloud_FM33A0XX/Drivers\fm33a0xx_lcd.c **** uint32_t LCD_LCDDRV_SC_CTRL_Get(void)
 372:e:/LiteOS/LiteOS/targets/Cloud_FM33A0XX/GCC/../../../targets/Cloud_FM33A0XX/Drivers\fm33a0xx_lcd.c **** {
 1316              		.loc 1 372 0
 1317              		.cfi_startproc
 1318              		@ args = 0, pretend = 0, frame = 0
 1319              		@ frame_needed = 0, uses_anonymous_args = 0
 1320              		@ link register save eliminated.
 373:e:/LiteOS/LiteOS/targets/Cloud_FM33A0XX/GCC/../../../targets/Cloud_FM33A0XX/Drivers\fm33a0xx_lcd.c **** 	return (LCD->LCDDRV & LCD_LCDDRV_SC_CTRL_Msk);
 1321              		.loc 1 373 0
 1322 0000 024B     		ldr	r3, .L149
 1323 0002 1B6A     		ldr	r3, [r3, #32]
 1324 0004 1820     		movs	r0, #24
 1325 0006 1840     		ands	r0, r3
 374:e:/LiteOS/LiteOS/targets/Cloud_FM33A0XX/GCC/../../../targets/Cloud_FM33A0XX/Drivers\fm33a0xx_lcd.c **** }
 1326              		.loc 1 374 0
 1327              		@ sp needed
 1328 0008 7047     		bx	lr
 1329              	.L150:
 1330 000a C046     		.align	2
 1331              	.L149:
 1332 000c 000C0140 		.word	1073810432
 1333              		.cfi_endproc
 1334              	.LFE73:
 1336              		.section	.text.LCD_LCDDRV_IC_CTRL_Set,"ax",%progbits
 1337              		.align	2
 1338              		.global	LCD_LCDDRV_IC_CTRL_Set
 1339              		.code	16
 1340              		.thumb_func
 1342              	LCD_LCDDRV_IC_CTRL_Set:
 1343              	.LFB74:
 375:e:/LiteOS/LiteOS/targets/Cloud_FM33A0XX/GCC/../../../targets/Cloud_FM33A0XX/Drivers\fm33a0xx_lcd.c **** 
 376:e:/LiteOS/LiteOS/targets/Cloud_FM33A0XX/GCC/../../../targets/Cloud_FM33A0XX/Drivers\fm33a0xx_lcd.c **** /* 驱动电流大小 相关函数 */
 377:e:/LiteOS/LiteOS/targets/Cloud_FM33A0XX/GCC/../../../targets/Cloud_FM33A0XX/Drivers\fm33a0xx_lcd.c **** void LCD_LCDDRV_IC_CTRL_Set(uint32_t SetValue)
 378:e:/LiteOS/LiteOS/targets/Cloud_FM33A0XX/GCC/../../../targets/Cloud_FM33A0XX/Drivers\fm33a0xx_lcd.c **** {
 1344              		.loc 1 378 0
 1345              		.cfi_startproc
 1346              		@ args = 0, pretend = 0, frame = 0
 1347              		@ frame_needed = 0, uses_anonymous_args = 0
 1348              		@ link register save eliminated.
 1349              	.LVL44:
 379:e:/LiteOS/LiteOS/targets/Cloud_FM33A0XX/GCC/../../../targets/Cloud_FM33A0XX/Drivers\fm33a0xx_lcd.c **** 	uint32_t tmpreg;
 380:e:/LiteOS/LiteOS/targets/Cloud_FM33A0XX/GCC/../../../targets/Cloud_FM33A0XX/Drivers\fm33a0xx_lcd.c **** 	tmpreg = LCD->LCDDRV;
 1350              		.loc 1 380 0
ARM GAS  C:\Users\WANGBI~1\AppData\Local\Temp\ccQL37zL.s 			page 30


 1351 0000 034A     		ldr	r2, .L152
 1352 0002 136A     		ldr	r3, [r2, #32]
 1353              	.LVL45:
 381:e:/LiteOS/LiteOS/targets/Cloud_FM33A0XX/GCC/../../../targets/Cloud_FM33A0XX/Drivers\fm33a0xx_lcd.c **** 	tmpreg &= ~(LCD_LCDDRV_IC_CTRL_Msk);
 1354              		.loc 1 381 0
 1355 0004 0621     		movs	r1, #6
 1356 0006 8B43     		bics	r3, r1
 1357              	.LVL46:
 382:e:/LiteOS/LiteOS/targets/Cloud_FM33A0XX/GCC/../../../targets/Cloud_FM33A0XX/Drivers\fm33a0xx_lcd.c **** 	tmpreg |= (SetValue & LCD_LCDDRV_IC_CTRL_Msk);
 1358              		.loc 1 382 0
 1359 0008 0840     		ands	r0, r1
 1360              	.LVL47:
 1361 000a 1843     		orrs	r0, r3
 1362              	.LVL48:
 383:e:/LiteOS/LiteOS/targets/Cloud_FM33A0XX/GCC/../../../targets/Cloud_FM33A0XX/Drivers\fm33a0xx_lcd.c **** 	LCD->LCDDRV = tmpreg;
 1363              		.loc 1 383 0
 1364 000c 1062     		str	r0, [r2, #32]
 384:e:/LiteOS/LiteOS/targets/Cloud_FM33A0XX/GCC/../../../targets/Cloud_FM33A0XX/Drivers\fm33a0xx_lcd.c **** }
 1365              		.loc 1 384 0
 1366              		@ sp needed
 1367 000e 7047     		bx	lr
 1368              	.L153:
 1369              		.align	2
 1370              	.L152:
 1371 0010 000C0140 		.word	1073810432
 1372              		.cfi_endproc
 1373              	.LFE74:
 1375              		.section	.text.LCD_LCDDRV_IC_CTRL_Get,"ax",%progbits
 1376              		.align	2
 1377              		.global	LCD_LCDDRV_IC_CTRL_Get
 1378              		.code	16
 1379              		.thumb_func
 1381              	LCD_LCDDRV_IC_CTRL_Get:
 1382              	.LFB75:
 385:e:/LiteOS/LiteOS/targets/Cloud_FM33A0XX/GCC/../../../targets/Cloud_FM33A0XX/Drivers\fm33a0xx_lcd.c **** 
 386:e:/LiteOS/LiteOS/targets/Cloud_FM33A0XX/GCC/../../../targets/Cloud_FM33A0XX/Drivers\fm33a0xx_lcd.c **** uint32_t LCD_LCDDRV_IC_CTRL_Get(void)
 387:e:/LiteOS/LiteOS/targets/Cloud_FM33A0XX/GCC/../../../targets/Cloud_FM33A0XX/Drivers\fm33a0xx_lcd.c **** {
 1383              		.loc 1 387 0
 1384              		.cfi_startproc
 1385              		@ args = 0, pretend = 0, frame = 0
 1386              		@ frame_needed = 0, uses_anonymous_args = 0
 1387              		@ link register save eliminated.
 388:e:/LiteOS/LiteOS/targets/Cloud_FM33A0XX/GCC/../../../targets/Cloud_FM33A0XX/Drivers\fm33a0xx_lcd.c **** 	return (LCD->LCDDRV & LCD_LCDDRV_IC_CTRL_Msk);
 1388              		.loc 1 388 0
 1389 0000 024B     		ldr	r3, .L155
 1390 0002 1B6A     		ldr	r3, [r3, #32]
 1391 0004 0620     		movs	r0, #6
 1392 0006 1840     		ands	r0, r3
 389:e:/LiteOS/LiteOS/targets/Cloud_FM33A0XX/GCC/../../../targets/Cloud_FM33A0XX/Drivers\fm33a0xx_lcd.c **** }
 1393              		.loc 1 389 0
 1394              		@ sp needed
 1395 0008 7047     		bx	lr
 1396              	.L156:
 1397 000a C046     		.align	2
 1398              	.L155:
 1399 000c 000C0140 		.word	1073810432
 1400              		.cfi_endproc
ARM GAS  C:\Users\WANGBI~1\AppData\Local\Temp\ccQL37zL.s 			page 31


 1401              	.LFE75:
 1403              		.section	.text.LCD_LCDDRV_ENMODE_Set,"ax",%progbits
 1404              		.align	2
 1405              		.global	LCD_LCDDRV_ENMODE_Set
 1406              		.code	16
 1407              		.thumb_func
 1409              	LCD_LCDDRV_ENMODE_Set:
 1410              	.LFB76:
 390:e:/LiteOS/LiteOS/targets/Cloud_FM33A0XX/GCC/../../../targets/Cloud_FM33A0XX/Drivers\fm33a0xx_lcd.c **** 
 391:e:/LiteOS/LiteOS/targets/Cloud_FM33A0XX/GCC/../../../targets/Cloud_FM33A0XX/Drivers\fm33a0xx_lcd.c **** /* 驱动模式选择 相关函数 */
 392:e:/LiteOS/LiteOS/targets/Cloud_FM33A0XX/GCC/../../../targets/Cloud_FM33A0XX/Drivers\fm33a0xx_lcd.c **** void LCD_LCDDRV_ENMODE_Set(uint32_t SetValue)
 393:e:/LiteOS/LiteOS/targets/Cloud_FM33A0XX/GCC/../../../targets/Cloud_FM33A0XX/Drivers\fm33a0xx_lcd.c **** {
 1411              		.loc 1 393 0
 1412              		.cfi_startproc
 1413              		@ args = 0, pretend = 0, frame = 0
 1414              		@ frame_needed = 0, uses_anonymous_args = 0
 1415              		@ link register save eliminated.
 1416              	.LVL49:
 394:e:/LiteOS/LiteOS/targets/Cloud_FM33A0XX/GCC/../../../targets/Cloud_FM33A0XX/Drivers\fm33a0xx_lcd.c **** 	uint32_t tmpreg;
 395:e:/LiteOS/LiteOS/targets/Cloud_FM33A0XX/GCC/../../../targets/Cloud_FM33A0XX/Drivers\fm33a0xx_lcd.c **** 	tmpreg = LCD->LCDDRV;
 1417              		.loc 1 395 0
 1418 0000 034A     		ldr	r2, .L158
 1419 0002 136A     		ldr	r3, [r2, #32]
 1420              	.LVL50:
 396:e:/LiteOS/LiteOS/targets/Cloud_FM33A0XX/GCC/../../../targets/Cloud_FM33A0XX/Drivers\fm33a0xx_lcd.c **** 	tmpreg &= ~(LCD_LCDDRV_ENMODE_Msk);
 1421              		.loc 1 396 0
 1422 0004 0121     		movs	r1, #1
 1423 0006 8B43     		bics	r3, r1
 1424              	.LVL51:
 397:e:/LiteOS/LiteOS/targets/Cloud_FM33A0XX/GCC/../../../targets/Cloud_FM33A0XX/Drivers\fm33a0xx_lcd.c **** 	tmpreg |= (SetValue & LCD_LCDDRV_ENMODE_Msk);
 1425              		.loc 1 397 0
 1426 0008 0840     		ands	r0, r1
 1427              	.LVL52:
 1428 000a 1843     		orrs	r0, r3
 1429              	.LVL53:
 398:e:/LiteOS/LiteOS/targets/Cloud_FM33A0XX/GCC/../../../targets/Cloud_FM33A0XX/Drivers\fm33a0xx_lcd.c **** 	LCD->LCDDRV = tmpreg;
 1430              		.loc 1 398 0
 1431 000c 1062     		str	r0, [r2, #32]
 399:e:/LiteOS/LiteOS/targets/Cloud_FM33A0XX/GCC/../../../targets/Cloud_FM33A0XX/Drivers\fm33a0xx_lcd.c **** }
 1432              		.loc 1 399 0
 1433              		@ sp needed
 1434 000e 7047     		bx	lr
 1435              	.L159:
 1436              		.align	2
 1437              	.L158:
 1438 0010 000C0140 		.word	1073810432
 1439              		.cfi_endproc
 1440              	.LFE76:
 1442              		.section	.text.LCD_LCDDRV_ENMODE_Get,"ax",%progbits
 1443              		.align	2
 1444              		.global	LCD_LCDDRV_ENMODE_Get
 1445              		.code	16
 1446              		.thumb_func
 1448              	LCD_LCDDRV_ENMODE_Get:
 1449              	.LFB77:
 400:e:/LiteOS/LiteOS/targets/Cloud_FM33A0XX/GCC/../../../targets/Cloud_FM33A0XX/Drivers\fm33a0xx_lcd.c **** 
 401:e:/LiteOS/LiteOS/targets/Cloud_FM33A0XX/GCC/../../../targets/Cloud_FM33A0XX/Drivers\fm33a0xx_lcd.c **** uint32_t LCD_LCDDRV_ENMODE_Get(void)
ARM GAS  C:\Users\WANGBI~1\AppData\Local\Temp\ccQL37zL.s 			page 32


 402:e:/LiteOS/LiteOS/targets/Cloud_FM33A0XX/GCC/../../../targets/Cloud_FM33A0XX/Drivers\fm33a0xx_lcd.c **** {
 1450              		.loc 1 402 0
 1451              		.cfi_startproc
 1452              		@ args = 0, pretend = 0, frame = 0
 1453              		@ frame_needed = 0, uses_anonymous_args = 0
 1454              		@ link register save eliminated.
 403:e:/LiteOS/LiteOS/targets/Cloud_FM33A0XX/GCC/../../../targets/Cloud_FM33A0XX/Drivers\fm33a0xx_lcd.c **** 	return (LCD->LCDDRV & LCD_LCDDRV_ENMODE_Msk);
 1455              		.loc 1 403 0
 1456 0000 024B     		ldr	r3, .L161
 1457 0002 1B6A     		ldr	r3, [r3, #32]
 1458 0004 0120     		movs	r0, #1
 1459 0006 1840     		ands	r0, r3
 404:e:/LiteOS/LiteOS/targets/Cloud_FM33A0XX/GCC/../../../targets/Cloud_FM33A0XX/Drivers\fm33a0xx_lcd.c **** }
 1460              		.loc 1 404 0
 1461              		@ sp needed
 1462 0008 7047     		bx	lr
 1463              	.L162:
 1464 000a C046     		.align	2
 1465              	.L161:
 1466 000c 000C0140 		.word	1073810432
 1467              		.cfi_endproc
 1468              	.LFE77:
 1470              		.section	.text.LCD_LCDBIAS_Write,"ax",%progbits
 1471              		.align	2
 1472              		.global	LCD_LCDBIAS_Write
 1473              		.code	16
 1474              		.thumb_func
 1476              	LCD_LCDBIAS_Write:
 1477              	.LFB78:
 405:e:/LiteOS/LiteOS/targets/Cloud_FM33A0XX/GCC/../../../targets/Cloud_FM33A0XX/Drivers\fm33a0xx_lcd.c **** 
 406:e:/LiteOS/LiteOS/targets/Cloud_FM33A0XX/GCC/../../../targets/Cloud_FM33A0XX/Drivers\fm33a0xx_lcd.c **** /* 显示灰度设置 相关函数 */
 407:e:/LiteOS/LiteOS/targets/Cloud_FM33A0XX/GCC/../../../targets/Cloud_FM33A0XX/Drivers\fm33a0xx_lcd.c **** void LCD_LCDBIAS_Write(uint32_t SetValue)
 408:e:/LiteOS/LiteOS/targets/Cloud_FM33A0XX/GCC/../../../targets/Cloud_FM33A0XX/Drivers\fm33a0xx_lcd.c **** {
 1478              		.loc 1 408 0
 1479              		.cfi_startproc
 1480              		@ args = 0, pretend = 0, frame = 0
 1481              		@ frame_needed = 0, uses_anonymous_args = 0
 1482              		@ link register save eliminated.
 1483              	.LVL54:
 409:e:/LiteOS/LiteOS/targets/Cloud_FM33A0XX/GCC/../../../targets/Cloud_FM33A0XX/Drivers\fm33a0xx_lcd.c **** 	LCD->LCDBIAS = (SetValue & LCD_LCDBIAS_LCDBIAS_Msk);
 1484              		.loc 1 409 0
 1485 0000 0F23     		movs	r3, #15
 1486 0002 1840     		ands	r0, r3
 1487              	.LVL55:
 1488 0004 014B     		ldr	r3, .L164
 1489 0006 D864     		str	r0, [r3, #76]
 410:e:/LiteOS/LiteOS/targets/Cloud_FM33A0XX/GCC/../../../targets/Cloud_FM33A0XX/Drivers\fm33a0xx_lcd.c **** }
 1490              		.loc 1 410 0
 1491              		@ sp needed
 1492 0008 7047     		bx	lr
 1493              	.L165:
 1494 000a C046     		.align	2
 1495              	.L164:
 1496 000c 000C0140 		.word	1073810432
 1497              		.cfi_endproc
 1498              	.LFE78:
 1500              		.section	.text.LCD_LCDBIAS_Read,"ax",%progbits
ARM GAS  C:\Users\WANGBI~1\AppData\Local\Temp\ccQL37zL.s 			page 33


 1501              		.align	2
 1502              		.global	LCD_LCDBIAS_Read
 1503              		.code	16
 1504              		.thumb_func
 1506              	LCD_LCDBIAS_Read:
 1507              	.LFB79:
 411:e:/LiteOS/LiteOS/targets/Cloud_FM33A0XX/GCC/../../../targets/Cloud_FM33A0XX/Drivers\fm33a0xx_lcd.c **** 
 412:e:/LiteOS/LiteOS/targets/Cloud_FM33A0XX/GCC/../../../targets/Cloud_FM33A0XX/Drivers\fm33a0xx_lcd.c **** uint32_t LCD_LCDBIAS_Read(void)
 413:e:/LiteOS/LiteOS/targets/Cloud_FM33A0XX/GCC/../../../targets/Cloud_FM33A0XX/Drivers\fm33a0xx_lcd.c **** {
 1508              		.loc 1 413 0
 1509              		.cfi_startproc
 1510              		@ args = 0, pretend = 0, frame = 0
 1511              		@ frame_needed = 0, uses_anonymous_args = 0
 1512              		@ link register save eliminated.
 414:e:/LiteOS/LiteOS/targets/Cloud_FM33A0XX/GCC/../../../targets/Cloud_FM33A0XX/Drivers\fm33a0xx_lcd.c **** 	return (LCD->LCDBIAS & LCD_LCDBIAS_LCDBIAS_Msk);
 1513              		.loc 1 414 0
 1514 0000 024B     		ldr	r3, .L167
 1515 0002 DB6C     		ldr	r3, [r3, #76]
 1516 0004 0F20     		movs	r0, #15
 1517 0006 1840     		ands	r0, r3
 415:e:/LiteOS/LiteOS/targets/Cloud_FM33A0XX/GCC/../../../targets/Cloud_FM33A0XX/Drivers\fm33a0xx_lcd.c **** }
 1518              		.loc 1 415 0
 1519              		@ sp needed
 1520 0008 7047     		bx	lr
 1521              	.L168:
 1522 000a C046     		.align	2
 1523              	.L167:
 1524 000c 000C0140 		.word	1073810432
 1525              		.cfi_endproc
 1526              	.LFE79:
 1528              		.section	.text.LCD_LCDBSTCON_OSC_CFG_Set,"ax",%progbits
 1529              		.align	2
 1530              		.global	LCD_LCDBSTCON_OSC_CFG_Set
 1531              		.code	16
 1532              		.thumb_func
 1534              	LCD_LCDBSTCON_OSC_CFG_Set:
 1535              	.LFB80:
 416:e:/LiteOS/LiteOS/targets/Cloud_FM33A0XX/GCC/../../../targets/Cloud_FM33A0XX/Drivers\fm33a0xx_lcd.c **** 
 417:e:/LiteOS/LiteOS/targets/Cloud_FM33A0XX/GCC/../../../targets/Cloud_FM33A0XX/Drivers\fm33a0xx_lcd.c **** /* BOOST环振频率配置信号,值越大频率越高，驱动越强，功耗越高 相关函数 */
 418:e:/LiteOS/LiteOS/targets/Cloud_FM33A0XX/GCC/../../../targets/Cloud_FM33A0XX/Drivers\fm33a0xx_lcd.c **** void LCD_LCDBSTCON_OSC_CFG_Set(uint32_t SetValue)
 419:e:/LiteOS/LiteOS/targets/Cloud_FM33A0XX/GCC/../../../targets/Cloud_FM33A0XX/Drivers\fm33a0xx_lcd.c **** {
 1536              		.loc 1 419 0
 1537              		.cfi_startproc
 1538              		@ args = 0, pretend = 0, frame = 0
 1539              		@ frame_needed = 0, uses_anonymous_args = 0
 1540              		@ link register save eliminated.
 1541              	.LVL56:
 420:e:/LiteOS/LiteOS/targets/Cloud_FM33A0XX/GCC/../../../targets/Cloud_FM33A0XX/Drivers\fm33a0xx_lcd.c **** 	uint32_t tmpreg;
 421:e:/LiteOS/LiteOS/targets/Cloud_FM33A0XX/GCC/../../../targets/Cloud_FM33A0XX/Drivers\fm33a0xx_lcd.c **** 	tmpreg = LCD->LCDBSTCON;
 1542              		.loc 1 421 0
 1543 0000 0449     		ldr	r1, .L170
 1544 0002 CA6D     		ldr	r2, [r1, #92]
 1545              	.LVL57:
 422:e:/LiteOS/LiteOS/targets/Cloud_FM33A0XX/GCC/../../../targets/Cloud_FM33A0XX/Drivers\fm33a0xx_lcd.c **** 	tmpreg &= ~(LCD_LCDBSTCON_OSC_CFG_Msk);
 1546              		.loc 1 422 0
 1547 0004 044B     		ldr	r3, .L170+4
 1548 0006 1A40     		ands	r2, r3
ARM GAS  C:\Users\WANGBI~1\AppData\Local\Temp\ccQL37zL.s 			page 34


 1549              	.LVL58:
 423:e:/LiteOS/LiteOS/targets/Cloud_FM33A0XX/GCC/../../../targets/Cloud_FM33A0XX/Drivers\fm33a0xx_lcd.c **** 	tmpreg |= (SetValue & LCD_LCDBSTCON_OSC_CFG_Msk);
 1550              		.loc 1 423 0
 1551 0008 F023     		movs	r3, #240
 1552 000a 1B02     		lsls	r3, r3, #8
 1553 000c 1840     		ands	r0, r3
 1554              	.LVL59:
 1555 000e 1043     		orrs	r0, r2
 1556              	.LVL60:
 424:e:/LiteOS/LiteOS/targets/Cloud_FM33A0XX/GCC/../../../targets/Cloud_FM33A0XX/Drivers\fm33a0xx_lcd.c **** 	LCD->LCDBSTCON = tmpreg;
 1557              		.loc 1 424 0
 1558 0010 C865     		str	r0, [r1, #92]
 425:e:/LiteOS/LiteOS/targets/Cloud_FM33A0XX/GCC/../../../targets/Cloud_FM33A0XX/Drivers\fm33a0xx_lcd.c **** }
 1559              		.loc 1 425 0
 1560              		@ sp needed
 1561 0012 7047     		bx	lr
 1562              	.L171:
 1563              		.align	2
 1564              	.L170:
 1565 0014 000C0140 		.word	1073810432
 1566 0018 FF0FFFFF 		.word	-61441
 1567              		.cfi_endproc
 1568              	.LFE80:
 1570              		.section	.text.LCD_LCDBSTCON_OSC_CFG_Get,"ax",%progbits
 1571              		.align	2
 1572              		.global	LCD_LCDBSTCON_OSC_CFG_Get
 1573              		.code	16
 1574              		.thumb_func
 1576              	LCD_LCDBSTCON_OSC_CFG_Get:
 1577              	.LFB81:
 426:e:/LiteOS/LiteOS/targets/Cloud_FM33A0XX/GCC/../../../targets/Cloud_FM33A0XX/Drivers\fm33a0xx_lcd.c **** 
 427:e:/LiteOS/LiteOS/targets/Cloud_FM33A0XX/GCC/../../../targets/Cloud_FM33A0XX/Drivers\fm33a0xx_lcd.c **** uint32_t LCD_LCDBSTCON_OSC_CFG_Get(void)
 428:e:/LiteOS/LiteOS/targets/Cloud_FM33A0XX/GCC/../../../targets/Cloud_FM33A0XX/Drivers\fm33a0xx_lcd.c **** {
 1578              		.loc 1 428 0
 1579              		.cfi_startproc
 1580              		@ args = 0, pretend = 0, frame = 0
 1581              		@ frame_needed = 0, uses_anonymous_args = 0
 1582              		@ link register save eliminated.
 429:e:/LiteOS/LiteOS/targets/Cloud_FM33A0XX/GCC/../../../targets/Cloud_FM33A0XX/Drivers\fm33a0xx_lcd.c **** 	return (LCD->LCDBSTCON & LCD_LCDBSTCON_OSC_CFG_Msk);
 1583              		.loc 1 429 0
 1584 0000 024B     		ldr	r3, .L173
 1585 0002 D86D     		ldr	r0, [r3, #92]
 1586 0004 F023     		movs	r3, #240
 1587 0006 1B02     		lsls	r3, r3, #8
 1588 0008 1840     		ands	r0, r3
 430:e:/LiteOS/LiteOS/targets/Cloud_FM33A0XX/GCC/../../../targets/Cloud_FM33A0XX/Drivers\fm33a0xx_lcd.c **** }
 1589              		.loc 1 430 0
 1590              		@ sp needed
 1591 000a 7047     		bx	lr
 1592              	.L174:
 1593              		.align	2
 1594              	.L173:
 1595 000c 000C0140 		.word	1073810432
 1596              		.cfi_endproc
 1597              	.LFE81:
 1599              		.section	.text.LCD_LCDBSTCON_BUFENB_Setable,"ax",%progbits
 1600              		.align	2
ARM GAS  C:\Users\WANGBI~1\AppData\Local\Temp\ccQL37zL.s 			page 35


 1601              		.global	LCD_LCDBSTCON_BUFENB_Setable
 1602              		.code	16
 1603              		.thumb_func
 1605              	LCD_LCDBSTCON_BUFENB_Setable:
 1606              	.LFB82:
 431:e:/LiteOS/LiteOS/targets/Cloud_FM33A0XX/GCC/../../../targets/Cloud_FM33A0XX/Drivers\fm33a0xx_lcd.c **** 
 432:e:/LiteOS/LiteOS/targets/Cloud_FM33A0XX/GCC/../../../targets/Cloud_FM33A0XX/Drivers\fm33a0xx_lcd.c **** /* 基准源Buffer使能信号 相关函数 */
 433:e:/LiteOS/LiteOS/targets/Cloud_FM33A0XX/GCC/../../../targets/Cloud_FM33A0XX/Drivers\fm33a0xx_lcd.c **** void LCD_LCDBSTCON_BUFENB_Setable(FunState NewState)
 434:e:/LiteOS/LiteOS/targets/Cloud_FM33A0XX/GCC/../../../targets/Cloud_FM33A0XX/Drivers\fm33a0xx_lcd.c **** {
 1607              		.loc 1 434 0
 1608              		.cfi_startproc
 1609              		@ args = 0, pretend = 0, frame = 0
 1610              		@ frame_needed = 0, uses_anonymous_args = 0
 1611              		@ link register save eliminated.
 1612              	.LVL61:
 435:e:/LiteOS/LiteOS/targets/Cloud_FM33A0XX/GCC/../../../targets/Cloud_FM33A0XX/Drivers\fm33a0xx_lcd.c **** 	if (NewState == ENABLE)
 1613              		.loc 1 435 0
 1614 0000 0128     		cmp	r0, #1
 1615 0002 05D1     		bne	.L176
 436:e:/LiteOS/LiteOS/targets/Cloud_FM33A0XX/GCC/../../../targets/Cloud_FM33A0XX/Drivers\fm33a0xx_lcd.c **** 	{
 437:e:/LiteOS/LiteOS/targets/Cloud_FM33A0XX/GCC/../../../targets/Cloud_FM33A0XX/Drivers\fm33a0xx_lcd.c **** 		LCD->LCDBSTCON &= ~(LCD_LCDBSTCON_BUFENB_Msk);
 1616              		.loc 1 437 0
 1617 0004 064A     		ldr	r2, .L178
 1618 0006 D16D     		ldr	r1, [r2, #92]
 1619 0008 064B     		ldr	r3, .L178+4
 1620 000a 0B40     		ands	r3, r1
 1621 000c D365     		str	r3, [r2, #92]
 1622 000e 05E0     		b	.L175
 1623              	.L176:
 438:e:/LiteOS/LiteOS/targets/Cloud_FM33A0XX/GCC/../../../targets/Cloud_FM33A0XX/Drivers\fm33a0xx_lcd.c **** 	}
 439:e:/LiteOS/LiteOS/targets/Cloud_FM33A0XX/GCC/../../../targets/Cloud_FM33A0XX/Drivers\fm33a0xx_lcd.c **** 	else
 440:e:/LiteOS/LiteOS/targets/Cloud_FM33A0XX/GCC/../../../targets/Cloud_FM33A0XX/Drivers\fm33a0xx_lcd.c **** 	{
 441:e:/LiteOS/LiteOS/targets/Cloud_FM33A0XX/GCC/../../../targets/Cloud_FM33A0XX/Drivers\fm33a0xx_lcd.c **** 		LCD->LCDBSTCON |= (LCD_LCDBSTCON_BUFENB_Msk);
 1624              		.loc 1 441 0
 1625 0010 034A     		ldr	r2, .L178
 1626 0012 D36D     		ldr	r3, [r2, #92]
 1627 0014 8021     		movs	r1, #128
 1628 0016 8900     		lsls	r1, r1, #2
 1629 0018 0B43     		orrs	r3, r1
 1630 001a D365     		str	r3, [r2, #92]
 1631              	.L175:
 442:e:/LiteOS/LiteOS/targets/Cloud_FM33A0XX/GCC/../../../targets/Cloud_FM33A0XX/Drivers\fm33a0xx_lcd.c **** 	}
 443:e:/LiteOS/LiteOS/targets/Cloud_FM33A0XX/GCC/../../../targets/Cloud_FM33A0XX/Drivers\fm33a0xx_lcd.c **** }
 1632              		.loc 1 443 0
 1633              		@ sp needed
 1634 001c 7047     		bx	lr
 1635              	.L179:
 1636 001e C046     		.align	2
 1637              	.L178:
 1638 0020 000C0140 		.word	1073810432
 1639 0024 FFFDFFFF 		.word	-513
 1640              		.cfi_endproc
 1641              	.LFE82:
 1643              		.section	.text.LCD_LCDBSTCON_BUFENB_Getable,"ax",%progbits
 1644              		.align	2
 1645              		.global	LCD_LCDBSTCON_BUFENB_Getable
 1646              		.code	16
ARM GAS  C:\Users\WANGBI~1\AppData\Local\Temp\ccQL37zL.s 			page 36


 1647              		.thumb_func
 1649              	LCD_LCDBSTCON_BUFENB_Getable:
 1650              	.LFB83:
 444:e:/LiteOS/LiteOS/targets/Cloud_FM33A0XX/GCC/../../../targets/Cloud_FM33A0XX/Drivers\fm33a0xx_lcd.c **** 
 445:e:/LiteOS/LiteOS/targets/Cloud_FM33A0XX/GCC/../../../targets/Cloud_FM33A0XX/Drivers\fm33a0xx_lcd.c **** FunState LCD_LCDBSTCON_BUFENB_Getable(void)
 446:e:/LiteOS/LiteOS/targets/Cloud_FM33A0XX/GCC/../../../targets/Cloud_FM33A0XX/Drivers\fm33a0xx_lcd.c **** {
 1651              		.loc 1 446 0
 1652              		.cfi_startproc
 1653              		@ args = 0, pretend = 0, frame = 0
 1654              		@ frame_needed = 0, uses_anonymous_args = 0
 1655              		@ link register save eliminated.
 447:e:/LiteOS/LiteOS/targets/Cloud_FM33A0XX/GCC/../../../targets/Cloud_FM33A0XX/Drivers\fm33a0xx_lcd.c **** 	if (LCD->LCDBSTCON & (LCD_LCDBSTCON_BUFENB_Msk))
 1656              		.loc 1 447 0
 1657 0000 034B     		ldr	r3, .L183
 1658 0002 DB6D     		ldr	r3, [r3, #92]
 1659 0004 9B05     		lsls	r3, r3, #22
 1660 0006 01D5     		bpl	.L182
 448:e:/LiteOS/LiteOS/targets/Cloud_FM33A0XX/GCC/../../../targets/Cloud_FM33A0XX/Drivers\fm33a0xx_lcd.c **** 	{
 449:e:/LiteOS/LiteOS/targets/Cloud_FM33A0XX/GCC/../../../targets/Cloud_FM33A0XX/Drivers\fm33a0xx_lcd.c **** 		return DISABLE;
 1661              		.loc 1 449 0
 1662 0008 0020     		movs	r0, #0
 1663 000a 00E0     		b	.L181
 1664              	.L182:
 450:e:/LiteOS/LiteOS/targets/Cloud_FM33A0XX/GCC/../../../targets/Cloud_FM33A0XX/Drivers\fm33a0xx_lcd.c **** 	}
 451:e:/LiteOS/LiteOS/targets/Cloud_FM33A0XX/GCC/../../../targets/Cloud_FM33A0XX/Drivers\fm33a0xx_lcd.c **** 	else
 452:e:/LiteOS/LiteOS/targets/Cloud_FM33A0XX/GCC/../../../targets/Cloud_FM33A0XX/Drivers\fm33a0xx_lcd.c **** 	{
 453:e:/LiteOS/LiteOS/targets/Cloud_FM33A0XX/GCC/../../../targets/Cloud_FM33A0XX/Drivers\fm33a0xx_lcd.c **** 		return ENABLE;
 1665              		.loc 1 453 0
 1666 000c 0120     		movs	r0, #1
 1667              	.L181:
 454:e:/LiteOS/LiteOS/targets/Cloud_FM33A0XX/GCC/../../../targets/Cloud_FM33A0XX/Drivers\fm33a0xx_lcd.c **** 	}
 455:e:/LiteOS/LiteOS/targets/Cloud_FM33A0XX/GCC/../../../targets/Cloud_FM33A0XX/Drivers\fm33a0xx_lcd.c **** }
 1668              		.loc 1 455 0
 1669              		@ sp needed
 1670 000e 7047     		bx	lr
 1671              	.L184:
 1672              		.align	2
 1673              	.L183:
 1674 0010 000C0140 		.word	1073810432
 1675              		.cfi_endproc
 1676              	.LFE83:
 1678              		.section	.text.LCD_LCDBSTCON_BUFBYP_Setable,"ax",%progbits
 1679              		.align	2
 1680              		.global	LCD_LCDBSTCON_BUFBYP_Setable
 1681              		.code	16
 1682              		.thumb_func
 1684              	LCD_LCDBSTCON_BUFBYP_Setable:
 1685              	.LFB84:
 456:e:/LiteOS/LiteOS/targets/Cloud_FM33A0XX/GCC/../../../targets/Cloud_FM33A0XX/Drivers\fm33a0xx_lcd.c **** 
 457:e:/LiteOS/LiteOS/targets/Cloud_FM33A0XX/GCC/../../../targets/Cloud_FM33A0XX/Drivers\fm33a0xx_lcd.c **** /* 基准源Buffer Bypass 相关函数 */
 458:e:/LiteOS/LiteOS/targets/Cloud_FM33A0XX/GCC/../../../targets/Cloud_FM33A0XX/Drivers\fm33a0xx_lcd.c **** void LCD_LCDBSTCON_BUFBYP_Setable(FunState NewState)
 459:e:/LiteOS/LiteOS/targets/Cloud_FM33A0XX/GCC/../../../targets/Cloud_FM33A0XX/Drivers\fm33a0xx_lcd.c **** {
 1686              		.loc 1 459 0
 1687              		.cfi_startproc
 1688              		@ args = 0, pretend = 0, frame = 0
 1689              		@ frame_needed = 0, uses_anonymous_args = 0
 1690              		@ link register save eliminated.
ARM GAS  C:\Users\WANGBI~1\AppData\Local\Temp\ccQL37zL.s 			page 37


 1691              	.LVL62:
 460:e:/LiteOS/LiteOS/targets/Cloud_FM33A0XX/GCC/../../../targets/Cloud_FM33A0XX/Drivers\fm33a0xx_lcd.c **** 	if (NewState == ENABLE)
 1692              		.loc 1 460 0
 1693 0000 0128     		cmp	r0, #1
 1694 0002 06D1     		bne	.L186
 461:e:/LiteOS/LiteOS/targets/Cloud_FM33A0XX/GCC/../../../targets/Cloud_FM33A0XX/Drivers\fm33a0xx_lcd.c **** 	{
 462:e:/LiteOS/LiteOS/targets/Cloud_FM33A0XX/GCC/../../../targets/Cloud_FM33A0XX/Drivers\fm33a0xx_lcd.c **** 		LCD->LCDBSTCON |= (LCD_LCDBSTCON_BUFBYP_Msk);
 1695              		.loc 1 462 0
 1696 0004 064A     		ldr	r2, .L188
 1697 0006 D36D     		ldr	r3, [r2, #92]
 1698 0008 8021     		movs	r1, #128
 1699 000a 4900     		lsls	r1, r1, #1
 1700 000c 0B43     		orrs	r3, r1
 1701 000e D365     		str	r3, [r2, #92]
 1702 0010 04E0     		b	.L185
 1703              	.L186:
 463:e:/LiteOS/LiteOS/targets/Cloud_FM33A0XX/GCC/../../../targets/Cloud_FM33A0XX/Drivers\fm33a0xx_lcd.c **** 	}
 464:e:/LiteOS/LiteOS/targets/Cloud_FM33A0XX/GCC/../../../targets/Cloud_FM33A0XX/Drivers\fm33a0xx_lcd.c **** 	else
 465:e:/LiteOS/LiteOS/targets/Cloud_FM33A0XX/GCC/../../../targets/Cloud_FM33A0XX/Drivers\fm33a0xx_lcd.c **** 	{
 466:e:/LiteOS/LiteOS/targets/Cloud_FM33A0XX/GCC/../../../targets/Cloud_FM33A0XX/Drivers\fm33a0xx_lcd.c **** 		LCD->LCDBSTCON &= ~(LCD_LCDBSTCON_BUFBYP_Msk);
 1704              		.loc 1 466 0
 1705 0012 034A     		ldr	r2, .L188
 1706 0014 D16D     		ldr	r1, [r2, #92]
 1707 0016 034B     		ldr	r3, .L188+4
 1708 0018 0B40     		ands	r3, r1
 1709 001a D365     		str	r3, [r2, #92]
 1710              	.L185:
 467:e:/LiteOS/LiteOS/targets/Cloud_FM33A0XX/GCC/../../../targets/Cloud_FM33A0XX/Drivers\fm33a0xx_lcd.c **** 	}
 468:e:/LiteOS/LiteOS/targets/Cloud_FM33A0XX/GCC/../../../targets/Cloud_FM33A0XX/Drivers\fm33a0xx_lcd.c **** }
 1711              		.loc 1 468 0
 1712              		@ sp needed
 1713 001c 7047     		bx	lr
 1714              	.L189:
 1715 001e C046     		.align	2
 1716              	.L188:
 1717 0020 000C0140 		.word	1073810432
 1718 0024 FFFEFFFF 		.word	-257
 1719              		.cfi_endproc
 1720              	.LFE84:
 1722              		.section	.text.LCD_LCDBSTCON_BUFBYP_Getable,"ax",%progbits
 1723              		.align	2
 1724              		.global	LCD_LCDBSTCON_BUFBYP_Getable
 1725              		.code	16
 1726              		.thumb_func
 1728              	LCD_LCDBSTCON_BUFBYP_Getable:
 1729              	.LFB85:
 469:e:/LiteOS/LiteOS/targets/Cloud_FM33A0XX/GCC/../../../targets/Cloud_FM33A0XX/Drivers\fm33a0xx_lcd.c **** 
 470:e:/LiteOS/LiteOS/targets/Cloud_FM33A0XX/GCC/../../../targets/Cloud_FM33A0XX/Drivers\fm33a0xx_lcd.c **** FunState LCD_LCDBSTCON_BUFBYP_Getable(void)
 471:e:/LiteOS/LiteOS/targets/Cloud_FM33A0XX/GCC/../../../targets/Cloud_FM33A0XX/Drivers\fm33a0xx_lcd.c **** {
 1730              		.loc 1 471 0
 1731              		.cfi_startproc
 1732              		@ args = 0, pretend = 0, frame = 0
 1733              		@ frame_needed = 0, uses_anonymous_args = 0
 1734              		@ link register save eliminated.
 472:e:/LiteOS/LiteOS/targets/Cloud_FM33A0XX/GCC/../../../targets/Cloud_FM33A0XX/Drivers\fm33a0xx_lcd.c **** 	if (LCD->LCDBSTCON & (LCD_LCDBSTCON_BUFBYP_Msk))
 1735              		.loc 1 472 0
 1736 0000 034B     		ldr	r3, .L193
ARM GAS  C:\Users\WANGBI~1\AppData\Local\Temp\ccQL37zL.s 			page 38


 1737 0002 DB6D     		ldr	r3, [r3, #92]
 1738 0004 DB05     		lsls	r3, r3, #23
 1739 0006 01D5     		bpl	.L192
 473:e:/LiteOS/LiteOS/targets/Cloud_FM33A0XX/GCC/../../../targets/Cloud_FM33A0XX/Drivers\fm33a0xx_lcd.c **** 	{
 474:e:/LiteOS/LiteOS/targets/Cloud_FM33A0XX/GCC/../../../targets/Cloud_FM33A0XX/Drivers\fm33a0xx_lcd.c **** 		return ENABLE;
 1740              		.loc 1 474 0
 1741 0008 0120     		movs	r0, #1
 1742 000a 00E0     		b	.L191
 1743              	.L192:
 475:e:/LiteOS/LiteOS/targets/Cloud_FM33A0XX/GCC/../../../targets/Cloud_FM33A0XX/Drivers\fm33a0xx_lcd.c **** 	}
 476:e:/LiteOS/LiteOS/targets/Cloud_FM33A0XX/GCC/../../../targets/Cloud_FM33A0XX/Drivers\fm33a0xx_lcd.c **** 	else
 477:e:/LiteOS/LiteOS/targets/Cloud_FM33A0XX/GCC/../../../targets/Cloud_FM33A0XX/Drivers\fm33a0xx_lcd.c **** 	{
 478:e:/LiteOS/LiteOS/targets/Cloud_FM33A0XX/GCC/../../../targets/Cloud_FM33A0XX/Drivers\fm33a0xx_lcd.c **** 		return DISABLE;
 1744              		.loc 1 478 0
 1745 000c 0020     		movs	r0, #0
 1746              	.L191:
 479:e:/LiteOS/LiteOS/targets/Cloud_FM33A0XX/GCC/../../../targets/Cloud_FM33A0XX/Drivers\fm33a0xx_lcd.c **** 	}
 480:e:/LiteOS/LiteOS/targets/Cloud_FM33A0XX/GCC/../../../targets/Cloud_FM33A0XX/Drivers\fm33a0xx_lcd.c **** }
 1747              		.loc 1 480 0
 1748              		@ sp needed
 1749 000e 7047     		bx	lr
 1750              	.L194:
 1751              		.align	2
 1752              	.L193:
 1753 0010 000C0140 		.word	1073810432
 1754              		.cfi_endproc
 1755              	.LFE85:
 1757              		.section	.text.LCD_LCDBSTCON_VLCDPD_Setable,"ax",%progbits
 1758              		.align	2
 1759              		.global	LCD_LCDBSTCON_VLCDPD_Setable
 1760              		.code	16
 1761              		.thumb_func
 1763              	LCD_LCDBSTCON_VLCDPD_Setable:
 1764              	.LFB86:
 481:e:/LiteOS/LiteOS/targets/Cloud_FM33A0XX/GCC/../../../targets/Cloud_FM33A0XX/Drivers\fm33a0xx_lcd.c **** 
 482:e:/LiteOS/LiteOS/targets/Cloud_FM33A0XX/GCC/../../../targets/Cloud_FM33A0XX/Drivers\fm33a0xx_lcd.c **** /* VLCD下拉使能 相关函数 */
 483:e:/LiteOS/LiteOS/targets/Cloud_FM33A0XX/GCC/../../../targets/Cloud_FM33A0XX/Drivers\fm33a0xx_lcd.c **** void LCD_LCDBSTCON_VLCDPD_Setable(FunState NewState)
 484:e:/LiteOS/LiteOS/targets/Cloud_FM33A0XX/GCC/../../../targets/Cloud_FM33A0XX/Drivers\fm33a0xx_lcd.c **** {
 1765              		.loc 1 484 0
 1766              		.cfi_startproc
 1767              		@ args = 0, pretend = 0, frame = 0
 1768              		@ frame_needed = 0, uses_anonymous_args = 0
 1769              		@ link register save eliminated.
 1770              	.LVL63:
 485:e:/LiteOS/LiteOS/targets/Cloud_FM33A0XX/GCC/../../../targets/Cloud_FM33A0XX/Drivers\fm33a0xx_lcd.c **** 	if (NewState == ENABLE)
 1771              		.loc 1 485 0
 1772 0000 0128     		cmp	r0, #1
 1773 0002 05D1     		bne	.L196
 486:e:/LiteOS/LiteOS/targets/Cloud_FM33A0XX/GCC/../../../targets/Cloud_FM33A0XX/Drivers\fm33a0xx_lcd.c **** 	{
 487:e:/LiteOS/LiteOS/targets/Cloud_FM33A0XX/GCC/../../../targets/Cloud_FM33A0XX/Drivers\fm33a0xx_lcd.c **** 		LCD->LCDBSTCON |= (LCD_LCDBSTCON_VLCDPD_Msk);
 1774              		.loc 1 487 0
 1775 0004 054A     		ldr	r2, .L198
 1776 0006 D16D     		ldr	r1, [r2, #92]
 1777 0008 8023     		movs	r3, #128
 1778 000a 0B43     		orrs	r3, r1
 1779 000c D365     		str	r3, [r2, #92]
 1780 000e 04E0     		b	.L195
ARM GAS  C:\Users\WANGBI~1\AppData\Local\Temp\ccQL37zL.s 			page 39


 1781              	.L196:
 488:e:/LiteOS/LiteOS/targets/Cloud_FM33A0XX/GCC/../../../targets/Cloud_FM33A0XX/Drivers\fm33a0xx_lcd.c **** 	}
 489:e:/LiteOS/LiteOS/targets/Cloud_FM33A0XX/GCC/../../../targets/Cloud_FM33A0XX/Drivers\fm33a0xx_lcd.c **** 	else
 490:e:/LiteOS/LiteOS/targets/Cloud_FM33A0XX/GCC/../../../targets/Cloud_FM33A0XX/Drivers\fm33a0xx_lcd.c **** 	{
 491:e:/LiteOS/LiteOS/targets/Cloud_FM33A0XX/GCC/../../../targets/Cloud_FM33A0XX/Drivers\fm33a0xx_lcd.c **** 		LCD->LCDBSTCON &= ~(LCD_LCDBSTCON_VLCDPD_Msk);
 1782              		.loc 1 491 0
 1783 0010 024A     		ldr	r2, .L198
 1784 0012 D36D     		ldr	r3, [r2, #92]
 1785 0014 8021     		movs	r1, #128
 1786 0016 8B43     		bics	r3, r1
 1787 0018 D365     		str	r3, [r2, #92]
 1788              	.L195:
 492:e:/LiteOS/LiteOS/targets/Cloud_FM33A0XX/GCC/../../../targets/Cloud_FM33A0XX/Drivers\fm33a0xx_lcd.c **** 	}
 493:e:/LiteOS/LiteOS/targets/Cloud_FM33A0XX/GCC/../../../targets/Cloud_FM33A0XX/Drivers\fm33a0xx_lcd.c **** }
 1789              		.loc 1 493 0
 1790              		@ sp needed
 1791 001a 7047     		bx	lr
 1792              	.L199:
 1793              		.align	2
 1794              	.L198:
 1795 001c 000C0140 		.word	1073810432
 1796              		.cfi_endproc
 1797              	.LFE86:
 1799              		.section	.text.LCD_LCDBSTCON_VLCDPD_Getable,"ax",%progbits
 1800              		.align	2
 1801              		.global	LCD_LCDBSTCON_VLCDPD_Getable
 1802              		.code	16
 1803              		.thumb_func
 1805              	LCD_LCDBSTCON_VLCDPD_Getable:
 1806              	.LFB87:
 494:e:/LiteOS/LiteOS/targets/Cloud_FM33A0XX/GCC/../../../targets/Cloud_FM33A0XX/Drivers\fm33a0xx_lcd.c **** 
 495:e:/LiteOS/LiteOS/targets/Cloud_FM33A0XX/GCC/../../../targets/Cloud_FM33A0XX/Drivers\fm33a0xx_lcd.c **** FunState LCD_LCDBSTCON_VLCDPD_Getable(void)
 496:e:/LiteOS/LiteOS/targets/Cloud_FM33A0XX/GCC/../../../targets/Cloud_FM33A0XX/Drivers\fm33a0xx_lcd.c **** {
 1807              		.loc 1 496 0
 1808              		.cfi_startproc
 1809              		@ args = 0, pretend = 0, frame = 0
 1810              		@ frame_needed = 0, uses_anonymous_args = 0
 1811              		@ link register save eliminated.
 497:e:/LiteOS/LiteOS/targets/Cloud_FM33A0XX/GCC/../../../targets/Cloud_FM33A0XX/Drivers\fm33a0xx_lcd.c **** 	if (LCD->LCDBSTCON & (LCD_LCDBSTCON_VLCDPD_Msk))
 1812              		.loc 1 497 0
 1813 0000 034B     		ldr	r3, .L203
 1814 0002 DB6D     		ldr	r3, [r3, #92]
 1815 0004 1B06     		lsls	r3, r3, #24
 1816 0006 01D5     		bpl	.L202
 498:e:/LiteOS/LiteOS/targets/Cloud_FM33A0XX/GCC/../../../targets/Cloud_FM33A0XX/Drivers\fm33a0xx_lcd.c **** 	{
 499:e:/LiteOS/LiteOS/targets/Cloud_FM33A0XX/GCC/../../../targets/Cloud_FM33A0XX/Drivers\fm33a0xx_lcd.c **** 		return ENABLE;
 1817              		.loc 1 499 0
 1818 0008 0120     		movs	r0, #1
 1819 000a 00E0     		b	.L201
 1820              	.L202:
 500:e:/LiteOS/LiteOS/targets/Cloud_FM33A0XX/GCC/../../../targets/Cloud_FM33A0XX/Drivers\fm33a0xx_lcd.c **** 	}
 501:e:/LiteOS/LiteOS/targets/Cloud_FM33A0XX/GCC/../../../targets/Cloud_FM33A0XX/Drivers\fm33a0xx_lcd.c **** 	else
 502:e:/LiteOS/LiteOS/targets/Cloud_FM33A0XX/GCC/../../../targets/Cloud_FM33A0XX/Drivers\fm33a0xx_lcd.c **** 	{
 503:e:/LiteOS/LiteOS/targets/Cloud_FM33A0XX/GCC/../../../targets/Cloud_FM33A0XX/Drivers\fm33a0xx_lcd.c **** 		return DISABLE;
 1821              		.loc 1 503 0
 1822 000c 0020     		movs	r0, #0
 1823              	.L201:
ARM GAS  C:\Users\WANGBI~1\AppData\Local\Temp\ccQL37zL.s 			page 40


 504:e:/LiteOS/LiteOS/targets/Cloud_FM33A0XX/GCC/../../../targets/Cloud_FM33A0XX/Drivers\fm33a0xx_lcd.c **** 	}
 505:e:/LiteOS/LiteOS/targets/Cloud_FM33A0XX/GCC/../../../targets/Cloud_FM33A0XX/Drivers\fm33a0xx_lcd.c **** }
 1824              		.loc 1 505 0
 1825              		@ sp needed
 1826 000e 7047     		bx	lr
 1827              	.L204:
 1828              		.align	2
 1829              	.L203:
 1830 0010 000C0140 		.word	1073810432
 1831              		.cfi_endproc
 1832              	.LFE87:
 1834              		.section	.text.LCD_LCDBSTCON_VLCDCFG_Set,"ax",%progbits
 1835              		.align	2
 1836              		.global	LCD_LCDBSTCON_VLCDCFG_Set
 1837              		.code	16
 1838              		.thumb_func
 1840              	LCD_LCDBSTCON_VLCDCFG_Set:
 1841              	.LFB88:
 506:e:/LiteOS/LiteOS/targets/Cloud_FM33A0XX/GCC/../../../targets/Cloud_FM33A0XX/Drivers\fm33a0xx_lcd.c **** 
 507:e:/LiteOS/LiteOS/targets/Cloud_FM33A0XX/GCC/../../../targets/Cloud_FM33A0XX/Drivers\fm33a0xx_lcd.c **** /* VLCD输出电压配置 相关函数 */
 508:e:/LiteOS/LiteOS/targets/Cloud_FM33A0XX/GCC/../../../targets/Cloud_FM33A0XX/Drivers\fm33a0xx_lcd.c **** void LCD_LCDBSTCON_VLCDCFG_Set(uint32_t SetValue)
 509:e:/LiteOS/LiteOS/targets/Cloud_FM33A0XX/GCC/../../../targets/Cloud_FM33A0XX/Drivers\fm33a0xx_lcd.c **** {
 1842              		.loc 1 509 0
 1843              		.cfi_startproc
 1844              		@ args = 0, pretend = 0, frame = 0
 1845              		@ frame_needed = 0, uses_anonymous_args = 0
 1846              		@ link register save eliminated.
 1847              	.LVL64:
 510:e:/LiteOS/LiteOS/targets/Cloud_FM33A0XX/GCC/../../../targets/Cloud_FM33A0XX/Drivers\fm33a0xx_lcd.c **** 	uint32_t tmpreg;
 511:e:/LiteOS/LiteOS/targets/Cloud_FM33A0XX/GCC/../../../targets/Cloud_FM33A0XX/Drivers\fm33a0xx_lcd.c **** 	tmpreg = LCD->LCDBSTCON;
 1848              		.loc 1 511 0
 1849 0000 034A     		ldr	r2, .L206
 1850 0002 D36D     		ldr	r3, [r2, #92]
 1851              	.LVL65:
 512:e:/LiteOS/LiteOS/targets/Cloud_FM33A0XX/GCC/../../../targets/Cloud_FM33A0XX/Drivers\fm33a0xx_lcd.c **** 	tmpreg &= ~(LCD_LCDBSTCON_VLCDCFG_Msk);
 1852              		.loc 1 512 0
 1853 0004 7021     		movs	r1, #112
 1854 0006 8B43     		bics	r3, r1
 1855              	.LVL66:
 513:e:/LiteOS/LiteOS/targets/Cloud_FM33A0XX/GCC/../../../targets/Cloud_FM33A0XX/Drivers\fm33a0xx_lcd.c **** 	tmpreg |= (SetValue & LCD_LCDBSTCON_VLCDCFG_Msk);
 1856              		.loc 1 513 0
 1857 0008 0840     		ands	r0, r1
 1858              	.LVL67:
 1859 000a 1843     		orrs	r0, r3
 1860              	.LVL68:
 514:e:/LiteOS/LiteOS/targets/Cloud_FM33A0XX/GCC/../../../targets/Cloud_FM33A0XX/Drivers\fm33a0xx_lcd.c **** 	LCD->LCDBSTCON = tmpreg;
 1861              		.loc 1 514 0
 1862 000c D065     		str	r0, [r2, #92]
 515:e:/LiteOS/LiteOS/targets/Cloud_FM33A0XX/GCC/../../../targets/Cloud_FM33A0XX/Drivers\fm33a0xx_lcd.c **** }
 1863              		.loc 1 515 0
 1864              		@ sp needed
 1865 000e 7047     		bx	lr
 1866              	.L207:
 1867              		.align	2
 1868              	.L206:
 1869 0010 000C0140 		.word	1073810432
 1870              		.cfi_endproc
ARM GAS  C:\Users\WANGBI~1\AppData\Local\Temp\ccQL37zL.s 			page 41


 1871              	.LFE88:
 1873              		.section	.text.LCD_LCDBSTCON_VLCDCFG_Get,"ax",%progbits
 1874              		.align	2
 1875              		.global	LCD_LCDBSTCON_VLCDCFG_Get
 1876              		.code	16
 1877              		.thumb_func
 1879              	LCD_LCDBSTCON_VLCDCFG_Get:
 1880              	.LFB89:
 516:e:/LiteOS/LiteOS/targets/Cloud_FM33A0XX/GCC/../../../targets/Cloud_FM33A0XX/Drivers\fm33a0xx_lcd.c **** 
 517:e:/LiteOS/LiteOS/targets/Cloud_FM33A0XX/GCC/../../../targets/Cloud_FM33A0XX/Drivers\fm33a0xx_lcd.c **** uint32_t LCD_LCDBSTCON_VLCDCFG_Get(void)
 518:e:/LiteOS/LiteOS/targets/Cloud_FM33A0XX/GCC/../../../targets/Cloud_FM33A0XX/Drivers\fm33a0xx_lcd.c **** {
 1881              		.loc 1 518 0
 1882              		.cfi_startproc
 1883              		@ args = 0, pretend = 0, frame = 0
 1884              		@ frame_needed = 0, uses_anonymous_args = 0
 1885              		@ link register save eliminated.
 519:e:/LiteOS/LiteOS/targets/Cloud_FM33A0XX/GCC/../../../targets/Cloud_FM33A0XX/Drivers\fm33a0xx_lcd.c **** 	return (LCD->LCDBSTCON & LCD_LCDBSTCON_VLCDCFG_Msk);
 1886              		.loc 1 519 0
 1887 0000 024B     		ldr	r3, .L209
 1888 0002 DB6D     		ldr	r3, [r3, #92]
 1889 0004 7020     		movs	r0, #112
 1890 0006 1840     		ands	r0, r3
 520:e:/LiteOS/LiteOS/targets/Cloud_FM33A0XX/GCC/../../../targets/Cloud_FM33A0XX/Drivers\fm33a0xx_lcd.c **** }
 1891              		.loc 1 520 0
 1892              		@ sp needed
 1893 0008 7047     		bx	lr
 1894              	.L210:
 1895 000a C046     		.align	2
 1896              	.L209:
 1897 000c 000C0140 		.word	1073810432
 1898              		.cfi_endproc
 1899              	.LFE89:
 1901              		.section	.text.LCD_LCDBSTCON_BOOST_TEN_Setable,"ax",%progbits
 1902              		.align	2
 1903              		.global	LCD_LCDBSTCON_BOOST_TEN_Setable
 1904              		.code	16
 1905              		.thumb_func
 1907              	LCD_LCDBSTCON_BOOST_TEN_Setable:
 1908              	.LFB90:
 521:e:/LiteOS/LiteOS/targets/Cloud_FM33A0XX/GCC/../../../targets/Cloud_FM33A0XX/Drivers\fm33a0xx_lcd.c **** 
 522:e:/LiteOS/LiteOS/targets/Cloud_FM33A0XX/GCC/../../../targets/Cloud_FM33A0XX/Drivers\fm33a0xx_lcd.c **** /* Booster测试信号 相关函数 */
 523:e:/LiteOS/LiteOS/targets/Cloud_FM33A0XX/GCC/../../../targets/Cloud_FM33A0XX/Drivers\fm33a0xx_lcd.c **** void LCD_LCDBSTCON_BOOST_TEN_Setable(FunState NewState)
 524:e:/LiteOS/LiteOS/targets/Cloud_FM33A0XX/GCC/../../../targets/Cloud_FM33A0XX/Drivers\fm33a0xx_lcd.c **** {
 1909              		.loc 1 524 0
 1910              		.cfi_startproc
 1911              		@ args = 0, pretend = 0, frame = 0
 1912              		@ frame_needed = 0, uses_anonymous_args = 0
 1913              		@ link register save eliminated.
 1914              	.LVL69:
 525:e:/LiteOS/LiteOS/targets/Cloud_FM33A0XX/GCC/../../../targets/Cloud_FM33A0XX/Drivers\fm33a0xx_lcd.c **** 	if (NewState == ENABLE)
 1915              		.loc 1 525 0
 1916 0000 0128     		cmp	r0, #1
 1917 0002 05D1     		bne	.L212
 526:e:/LiteOS/LiteOS/targets/Cloud_FM33A0XX/GCC/../../../targets/Cloud_FM33A0XX/Drivers\fm33a0xx_lcd.c **** 	{
 527:e:/LiteOS/LiteOS/targets/Cloud_FM33A0XX/GCC/../../../targets/Cloud_FM33A0XX/Drivers\fm33a0xx_lcd.c **** 		LCD->LCDBSTCON |= (LCD_LCDBSTCON_BOOST_TEN_Msk);
 1918              		.loc 1 527 0
 1919 0004 054A     		ldr	r2, .L214
ARM GAS  C:\Users\WANGBI~1\AppData\Local\Temp\ccQL37zL.s 			page 42


 1920 0006 D16D     		ldr	r1, [r2, #92]
 1921 0008 0223     		movs	r3, #2
 1922 000a 0B43     		orrs	r3, r1
 1923 000c D365     		str	r3, [r2, #92]
 1924 000e 04E0     		b	.L211
 1925              	.L212:
 528:e:/LiteOS/LiteOS/targets/Cloud_FM33A0XX/GCC/../../../targets/Cloud_FM33A0XX/Drivers\fm33a0xx_lcd.c **** 	}
 529:e:/LiteOS/LiteOS/targets/Cloud_FM33A0XX/GCC/../../../targets/Cloud_FM33A0XX/Drivers\fm33a0xx_lcd.c **** 	else
 530:e:/LiteOS/LiteOS/targets/Cloud_FM33A0XX/GCC/../../../targets/Cloud_FM33A0XX/Drivers\fm33a0xx_lcd.c **** 	{
 531:e:/LiteOS/LiteOS/targets/Cloud_FM33A0XX/GCC/../../../targets/Cloud_FM33A0XX/Drivers\fm33a0xx_lcd.c **** 		LCD->LCDBSTCON &= ~(LCD_LCDBSTCON_BOOST_TEN_Msk);
 1926              		.loc 1 531 0
 1927 0010 024A     		ldr	r2, .L214
 1928 0012 D36D     		ldr	r3, [r2, #92]
 1929 0014 0221     		movs	r1, #2
 1930 0016 8B43     		bics	r3, r1
 1931 0018 D365     		str	r3, [r2, #92]
 1932              	.L211:
 532:e:/LiteOS/LiteOS/targets/Cloud_FM33A0XX/GCC/../../../targets/Cloud_FM33A0XX/Drivers\fm33a0xx_lcd.c **** 	}
 533:e:/LiteOS/LiteOS/targets/Cloud_FM33A0XX/GCC/../../../targets/Cloud_FM33A0XX/Drivers\fm33a0xx_lcd.c **** }
 1933              		.loc 1 533 0
 1934              		@ sp needed
 1935 001a 7047     		bx	lr
 1936              	.L215:
 1937              		.align	2
 1938              	.L214:
 1939 001c 000C0140 		.word	1073810432
 1940              		.cfi_endproc
 1941              	.LFE90:
 1943              		.section	.text.LCD_LCDBSTCON_BOOST_TEN_Getable,"ax",%progbits
 1944              		.align	2
 1945              		.global	LCD_LCDBSTCON_BOOST_TEN_Getable
 1946              		.code	16
 1947              		.thumb_func
 1949              	LCD_LCDBSTCON_BOOST_TEN_Getable:
 1950              	.LFB91:
 534:e:/LiteOS/LiteOS/targets/Cloud_FM33A0XX/GCC/../../../targets/Cloud_FM33A0XX/Drivers\fm33a0xx_lcd.c **** 
 535:e:/LiteOS/LiteOS/targets/Cloud_FM33A0XX/GCC/../../../targets/Cloud_FM33A0XX/Drivers\fm33a0xx_lcd.c **** FunState LCD_LCDBSTCON_BOOST_TEN_Getable(void)
 536:e:/LiteOS/LiteOS/targets/Cloud_FM33A0XX/GCC/../../../targets/Cloud_FM33A0XX/Drivers\fm33a0xx_lcd.c **** {
 1951              		.loc 1 536 0
 1952              		.cfi_startproc
 1953              		@ args = 0, pretend = 0, frame = 0
 1954              		@ frame_needed = 0, uses_anonymous_args = 0
 1955              		@ link register save eliminated.
 537:e:/LiteOS/LiteOS/targets/Cloud_FM33A0XX/GCC/../../../targets/Cloud_FM33A0XX/Drivers\fm33a0xx_lcd.c **** 	if (LCD->LCDBSTCON & (LCD_LCDBSTCON_BOOST_TEN_Msk))
 1956              		.loc 1 537 0
 1957 0000 034B     		ldr	r3, .L219
 1958 0002 DB6D     		ldr	r3, [r3, #92]
 1959 0004 9B07     		lsls	r3, r3, #30
 1960 0006 01D5     		bpl	.L218
 538:e:/LiteOS/LiteOS/targets/Cloud_FM33A0XX/GCC/../../../targets/Cloud_FM33A0XX/Drivers\fm33a0xx_lcd.c **** 	{
 539:e:/LiteOS/LiteOS/targets/Cloud_FM33A0XX/GCC/../../../targets/Cloud_FM33A0XX/Drivers\fm33a0xx_lcd.c **** 		return ENABLE;
 1961              		.loc 1 539 0
 1962 0008 0120     		movs	r0, #1
 1963 000a 00E0     		b	.L217
 1964              	.L218:
 540:e:/LiteOS/LiteOS/targets/Cloud_FM33A0XX/GCC/../../../targets/Cloud_FM33A0XX/Drivers\fm33a0xx_lcd.c **** 	}
 541:e:/LiteOS/LiteOS/targets/Cloud_FM33A0XX/GCC/../../../targets/Cloud_FM33A0XX/Drivers\fm33a0xx_lcd.c **** 	else
ARM GAS  C:\Users\WANGBI~1\AppData\Local\Temp\ccQL37zL.s 			page 43


 542:e:/LiteOS/LiteOS/targets/Cloud_FM33A0XX/GCC/../../../targets/Cloud_FM33A0XX/Drivers\fm33a0xx_lcd.c **** 	{
 543:e:/LiteOS/LiteOS/targets/Cloud_FM33A0XX/GCC/../../../targets/Cloud_FM33A0XX/Drivers\fm33a0xx_lcd.c **** 		return DISABLE;
 1965              		.loc 1 543 0
 1966 000c 0020     		movs	r0, #0
 1967              	.L217:
 544:e:/LiteOS/LiteOS/targets/Cloud_FM33A0XX/GCC/../../../targets/Cloud_FM33A0XX/Drivers\fm33a0xx_lcd.c **** 	}
 545:e:/LiteOS/LiteOS/targets/Cloud_FM33A0XX/GCC/../../../targets/Cloud_FM33A0XX/Drivers\fm33a0xx_lcd.c **** }
 1968              		.loc 1 545 0
 1969              		@ sp needed
 1970 000e 7047     		bx	lr
 1971              	.L220:
 1972              		.align	2
 1973              	.L219:
 1974 0010 000C0140 		.word	1073810432
 1975              		.cfi_endproc
 1976              	.LFE91:
 1978              		.section	.text.LCD_LCDBSTCON_BOOST_EN_Setable,"ax",%progbits
 1979              		.align	2
 1980              		.global	LCD_LCDBSTCON_BOOST_EN_Setable
 1981              		.code	16
 1982              		.thumb_func
 1984              	LCD_LCDBSTCON_BOOST_EN_Setable:
 1985              	.LFB92:
 546:e:/LiteOS/LiteOS/targets/Cloud_FM33A0XX/GCC/../../../targets/Cloud_FM33A0XX/Drivers\fm33a0xx_lcd.c **** 
 547:e:/LiteOS/LiteOS/targets/Cloud_FM33A0XX/GCC/../../../targets/Cloud_FM33A0XX/Drivers\fm33a0xx_lcd.c **** /* Booster使能信号 相关函数 */
 548:e:/LiteOS/LiteOS/targets/Cloud_FM33A0XX/GCC/../../../targets/Cloud_FM33A0XX/Drivers\fm33a0xx_lcd.c **** void LCD_LCDBSTCON_BOOST_EN_Setable(FunState NewState)
 549:e:/LiteOS/LiteOS/targets/Cloud_FM33A0XX/GCC/../../../targets/Cloud_FM33A0XX/Drivers\fm33a0xx_lcd.c **** {
 1986              		.loc 1 549 0
 1987              		.cfi_startproc
 1988              		@ args = 0, pretend = 0, frame = 0
 1989              		@ frame_needed = 0, uses_anonymous_args = 0
 1990              		@ link register save eliminated.
 1991              	.LVL70:
 550:e:/LiteOS/LiteOS/targets/Cloud_FM33A0XX/GCC/../../../targets/Cloud_FM33A0XX/Drivers\fm33a0xx_lcd.c **** 	if (NewState == ENABLE)
 1992              		.loc 1 550 0
 1993 0000 0128     		cmp	r0, #1
 1994 0002 05D1     		bne	.L222
 551:e:/LiteOS/LiteOS/targets/Cloud_FM33A0XX/GCC/../../../targets/Cloud_FM33A0XX/Drivers\fm33a0xx_lcd.c **** 	{
 552:e:/LiteOS/LiteOS/targets/Cloud_FM33A0XX/GCC/../../../targets/Cloud_FM33A0XX/Drivers\fm33a0xx_lcd.c **** 		LCD->LCDBSTCON |= (LCD_LCDBSTCON_BOOST_EN_Msk);
 1995              		.loc 1 552 0
 1996 0004 054A     		ldr	r2, .L224
 1997 0006 D16D     		ldr	r1, [r2, #92]
 1998 0008 0123     		movs	r3, #1
 1999 000a 0B43     		orrs	r3, r1
 2000 000c D365     		str	r3, [r2, #92]
 2001 000e 04E0     		b	.L221
 2002              	.L222:
 553:e:/LiteOS/LiteOS/targets/Cloud_FM33A0XX/GCC/../../../targets/Cloud_FM33A0XX/Drivers\fm33a0xx_lcd.c **** 	}
 554:e:/LiteOS/LiteOS/targets/Cloud_FM33A0XX/GCC/../../../targets/Cloud_FM33A0XX/Drivers\fm33a0xx_lcd.c **** 	else
 555:e:/LiteOS/LiteOS/targets/Cloud_FM33A0XX/GCC/../../../targets/Cloud_FM33A0XX/Drivers\fm33a0xx_lcd.c **** 	{
 556:e:/LiteOS/LiteOS/targets/Cloud_FM33A0XX/GCC/../../../targets/Cloud_FM33A0XX/Drivers\fm33a0xx_lcd.c **** 		LCD->LCDBSTCON &= ~(LCD_LCDBSTCON_BOOST_EN_Msk);
 2003              		.loc 1 556 0
 2004 0010 024A     		ldr	r2, .L224
 2005 0012 D36D     		ldr	r3, [r2, #92]
 2006 0014 0121     		movs	r1, #1
 2007 0016 8B43     		bics	r3, r1
 2008 0018 D365     		str	r3, [r2, #92]
ARM GAS  C:\Users\WANGBI~1\AppData\Local\Temp\ccQL37zL.s 			page 44


 2009              	.L221:
 557:e:/LiteOS/LiteOS/targets/Cloud_FM33A0XX/GCC/../../../targets/Cloud_FM33A0XX/Drivers\fm33a0xx_lcd.c **** 	}
 558:e:/LiteOS/LiteOS/targets/Cloud_FM33A0XX/GCC/../../../targets/Cloud_FM33A0XX/Drivers\fm33a0xx_lcd.c **** }
 2010              		.loc 1 558 0
 2011              		@ sp needed
 2012 001a 7047     		bx	lr
 2013              	.L225:
 2014              		.align	2
 2015              	.L224:
 2016 001c 000C0140 		.word	1073810432
 2017              		.cfi_endproc
 2018              	.LFE92:
 2020              		.section	.text.LCD_LCDBSTCON_BOOST_EN_Getable,"ax",%progbits
 2021              		.align	2
 2022              		.global	LCD_LCDBSTCON_BOOST_EN_Getable
 2023              		.code	16
 2024              		.thumb_func
 2026              	LCD_LCDBSTCON_BOOST_EN_Getable:
 2027              	.LFB93:
 559:e:/LiteOS/LiteOS/targets/Cloud_FM33A0XX/GCC/../../../targets/Cloud_FM33A0XX/Drivers\fm33a0xx_lcd.c **** 
 560:e:/LiteOS/LiteOS/targets/Cloud_FM33A0XX/GCC/../../../targets/Cloud_FM33A0XX/Drivers\fm33a0xx_lcd.c **** FunState LCD_LCDBSTCON_BOOST_EN_Getable(void)
 561:e:/LiteOS/LiteOS/targets/Cloud_FM33A0XX/GCC/../../../targets/Cloud_FM33A0XX/Drivers\fm33a0xx_lcd.c **** {
 2028              		.loc 1 561 0
 2029              		.cfi_startproc
 2030              		@ args = 0, pretend = 0, frame = 0
 2031              		@ frame_needed = 0, uses_anonymous_args = 0
 2032              		@ link register save eliminated.
 562:e:/LiteOS/LiteOS/targets/Cloud_FM33A0XX/GCC/../../../targets/Cloud_FM33A0XX/Drivers\fm33a0xx_lcd.c **** 	if (LCD->LCDBSTCON & (LCD_LCDBSTCON_BOOST_EN_Msk))
 2033              		.loc 1 562 0
 2034 0000 034B     		ldr	r3, .L229
 2035 0002 DB6D     		ldr	r3, [r3, #92]
 2036 0004 DB07     		lsls	r3, r3, #31
 2037 0006 01D5     		bpl	.L228
 563:e:/LiteOS/LiteOS/targets/Cloud_FM33A0XX/GCC/../../../targets/Cloud_FM33A0XX/Drivers\fm33a0xx_lcd.c **** 	{
 564:e:/LiteOS/LiteOS/targets/Cloud_FM33A0XX/GCC/../../../targets/Cloud_FM33A0XX/Drivers\fm33a0xx_lcd.c **** 		return ENABLE;
 2038              		.loc 1 564 0
 2039 0008 0120     		movs	r0, #1
 2040 000a 00E0     		b	.L227
 2041              	.L228:
 565:e:/LiteOS/LiteOS/targets/Cloud_FM33A0XX/GCC/../../../targets/Cloud_FM33A0XX/Drivers\fm33a0xx_lcd.c **** 	}
 566:e:/LiteOS/LiteOS/targets/Cloud_FM33A0XX/GCC/../../../targets/Cloud_FM33A0XX/Drivers\fm33a0xx_lcd.c **** 	else
 567:e:/LiteOS/LiteOS/targets/Cloud_FM33A0XX/GCC/../../../targets/Cloud_FM33A0XX/Drivers\fm33a0xx_lcd.c **** 	{
 568:e:/LiteOS/LiteOS/targets/Cloud_FM33A0XX/GCC/../../../targets/Cloud_FM33A0XX/Drivers\fm33a0xx_lcd.c **** 		return DISABLE;
 2042              		.loc 1 568 0
 2043 000c 0020     		movs	r0, #0
 2044              	.L227:
 569:e:/LiteOS/LiteOS/targets/Cloud_FM33A0XX/GCC/../../../targets/Cloud_FM33A0XX/Drivers\fm33a0xx_lcd.c **** 	}
 570:e:/LiteOS/LiteOS/targets/Cloud_FM33A0XX/GCC/../../../targets/Cloud_FM33A0XX/Drivers\fm33a0xx_lcd.c **** }
 2045              		.loc 1 570 0
 2046              		@ sp needed
 2047 000e 7047     		bx	lr
 2048              	.L230:
 2049              		.align	2
 2050              	.L229:
 2051 0010 000C0140 		.word	1073810432
 2052              		.cfi_endproc
 2053              	.LFE93:
ARM GAS  C:\Users\WANGBI~1\AppData\Local\Temp\ccQL37zL.s 			page 45


 2055              		.section	.text.LCD_COM_EN_Write,"ax",%progbits
 2056              		.align	2
 2057              		.global	LCD_COM_EN_Write
 2058              		.code	16
 2059              		.thumb_func
 2061              	LCD_COM_EN_Write:
 2062              	.LFB94:
 571:e:/LiteOS/LiteOS/targets/Cloud_FM33A0XX/GCC/../../../targets/Cloud_FM33A0XX/Drivers\fm33a0xx_lcd.c **** 
 572:e:/LiteOS/LiteOS/targets/Cloud_FM33A0XX/GCC/../../../targets/Cloud_FM33A0XX/Drivers\fm33a0xx_lcd.c **** /* LCD COM0~3输出使能控制 相关函数 */
 573:e:/LiteOS/LiteOS/targets/Cloud_FM33A0XX/GCC/../../../targets/Cloud_FM33A0XX/Drivers\fm33a0xx_lcd.c **** void LCD_COM_EN_Write(uint32_t SetValue)
 574:e:/LiteOS/LiteOS/targets/Cloud_FM33A0XX/GCC/../../../targets/Cloud_FM33A0XX/Drivers\fm33a0xx_lcd.c **** {
 2063              		.loc 1 574 0
 2064              		.cfi_startproc
 2065              		@ args = 0, pretend = 0, frame = 0
 2066              		@ frame_needed = 0, uses_anonymous_args = 0
 2067              		@ link register save eliminated.
 2068              	.LVL71:
 575:e:/LiteOS/LiteOS/targets/Cloud_FM33A0XX/GCC/../../../targets/Cloud_FM33A0XX/Drivers\fm33a0xx_lcd.c **** 	LCD->COM_EN = (SetValue & LCD_COM_EN_COMEN_Msk);
 2069              		.loc 1 575 0
 2070 0000 0F23     		movs	r3, #15
 2071 0002 1840     		ands	r0, r3
 2072              	.LVL72:
 2073 0004 014B     		ldr	r3, .L232
 2074 0006 1865     		str	r0, [r3, #80]
 576:e:/LiteOS/LiteOS/targets/Cloud_FM33A0XX/GCC/../../../targets/Cloud_FM33A0XX/Drivers\fm33a0xx_lcd.c **** }
 2075              		.loc 1 576 0
 2076              		@ sp needed
 2077 0008 7047     		bx	lr
 2078              	.L233:
 2079 000a C046     		.align	2
 2080              	.L232:
 2081 000c 000C0140 		.word	1073810432
 2082              		.cfi_endproc
 2083              	.LFE94:
 2085              		.section	.text.LCD_COM_EN_Read,"ax",%progbits
 2086              		.align	2
 2087              		.global	LCD_COM_EN_Read
 2088              		.code	16
 2089              		.thumb_func
 2091              	LCD_COM_EN_Read:
 2092              	.LFB95:
 577:e:/LiteOS/LiteOS/targets/Cloud_FM33A0XX/GCC/../../../targets/Cloud_FM33A0XX/Drivers\fm33a0xx_lcd.c **** 
 578:e:/LiteOS/LiteOS/targets/Cloud_FM33A0XX/GCC/../../../targets/Cloud_FM33A0XX/Drivers\fm33a0xx_lcd.c **** uint32_t LCD_COM_EN_Read(void)
 579:e:/LiteOS/LiteOS/targets/Cloud_FM33A0XX/GCC/../../../targets/Cloud_FM33A0XX/Drivers\fm33a0xx_lcd.c **** {
 2093              		.loc 1 579 0
 2094              		.cfi_startproc
 2095              		@ args = 0, pretend = 0, frame = 0
 2096              		@ frame_needed = 0, uses_anonymous_args = 0
 2097              		@ link register save eliminated.
 580:e:/LiteOS/LiteOS/targets/Cloud_FM33A0XX/GCC/../../../targets/Cloud_FM33A0XX/Drivers\fm33a0xx_lcd.c **** 	return (LCD->COM_EN & LCD_COM_EN_COMEN_Msk);
 2098              		.loc 1 580 0
 2099 0000 024B     		ldr	r3, .L235
 2100 0002 1B6D     		ldr	r3, [r3, #80]
 2101 0004 0F20     		movs	r0, #15
 2102 0006 1840     		ands	r0, r3
 581:e:/LiteOS/LiteOS/targets/Cloud_FM33A0XX/GCC/../../../targets/Cloud_FM33A0XX/Drivers\fm33a0xx_lcd.c **** }
 2103              		.loc 1 581 0
ARM GAS  C:\Users\WANGBI~1\AppData\Local\Temp\ccQL37zL.s 			page 46


 2104              		@ sp needed
 2105 0008 7047     		bx	lr
 2106              	.L236:
 2107 000a C046     		.align	2
 2108              	.L235:
 2109 000c 000C0140 		.word	1073810432
 2110              		.cfi_endproc
 2111              	.LFE95:
 2113              		.section	.text.LCD_SEG_EN0_Write,"ax",%progbits
 2114              		.align	2
 2115              		.global	LCD_SEG_EN0_Write
 2116              		.code	16
 2117              		.thumb_func
 2119              	LCD_SEG_EN0_Write:
 2120              	.LFB96:
 582:e:/LiteOS/LiteOS/targets/Cloud_FM33A0XX/GCC/../../../targets/Cloud_FM33A0XX/Drivers\fm33a0xx_lcd.c **** 
 583:e:/LiteOS/LiteOS/targets/Cloud_FM33A0XX/GCC/../../../targets/Cloud_FM33A0XX/Drivers\fm33a0xx_lcd.c **** /* LCD SEG0~31输出使能控制 相关函数 */
 584:e:/LiteOS/LiteOS/targets/Cloud_FM33A0XX/GCC/../../../targets/Cloud_FM33A0XX/Drivers\fm33a0xx_lcd.c **** void LCD_SEG_EN0_Write(uint32_t SetValue)
 585:e:/LiteOS/LiteOS/targets/Cloud_FM33A0XX/GCC/../../../targets/Cloud_FM33A0XX/Drivers\fm33a0xx_lcd.c **** {
 2121              		.loc 1 585 0
 2122              		.cfi_startproc
 2123              		@ args = 0, pretend = 0, frame = 0
 2124              		@ frame_needed = 0, uses_anonymous_args = 0
 2125              		@ link register save eliminated.
 2126              	.LVL73:
 586:e:/LiteOS/LiteOS/targets/Cloud_FM33A0XX/GCC/../../../targets/Cloud_FM33A0XX/Drivers\fm33a0xx_lcd.c **** 	LCD->SEG_EN0 = (SetValue);
 2127              		.loc 1 586 0
 2128 0000 014B     		ldr	r3, .L238
 2129 0002 5865     		str	r0, [r3, #84]
 587:e:/LiteOS/LiteOS/targets/Cloud_FM33A0XX/GCC/../../../targets/Cloud_FM33A0XX/Drivers\fm33a0xx_lcd.c **** }
 2130              		.loc 1 587 0
 2131              		@ sp needed
 2132 0004 7047     		bx	lr
 2133              	.L239:
 2134 0006 C046     		.align	2
 2135              	.L238:
 2136 0008 000C0140 		.word	1073810432
 2137              		.cfi_endproc
 2138              	.LFE96:
 2140              		.section	.text.LCD_SEG_EN0_Read,"ax",%progbits
 2141              		.align	2
 2142              		.global	LCD_SEG_EN0_Read
 2143              		.code	16
 2144              		.thumb_func
 2146              	LCD_SEG_EN0_Read:
 2147              	.LFB97:
 588:e:/LiteOS/LiteOS/targets/Cloud_FM33A0XX/GCC/../../../targets/Cloud_FM33A0XX/Drivers\fm33a0xx_lcd.c **** 
 589:e:/LiteOS/LiteOS/targets/Cloud_FM33A0XX/GCC/../../../targets/Cloud_FM33A0XX/Drivers\fm33a0xx_lcd.c **** uint32_t LCD_SEG_EN0_Read(void)
 590:e:/LiteOS/LiteOS/targets/Cloud_FM33A0XX/GCC/../../../targets/Cloud_FM33A0XX/Drivers\fm33a0xx_lcd.c **** {
 2148              		.loc 1 590 0
 2149              		.cfi_startproc
 2150              		@ args = 0, pretend = 0, frame = 0
 2151              		@ frame_needed = 0, uses_anonymous_args = 0
 2152              		@ link register save eliminated.
 591:e:/LiteOS/LiteOS/targets/Cloud_FM33A0XX/GCC/../../../targets/Cloud_FM33A0XX/Drivers\fm33a0xx_lcd.c **** 	return (LCD->SEG_EN0);
 2153              		.loc 1 591 0
 2154 0000 014B     		ldr	r3, .L241
ARM GAS  C:\Users\WANGBI~1\AppData\Local\Temp\ccQL37zL.s 			page 47


 2155 0002 586D     		ldr	r0, [r3, #84]
 592:e:/LiteOS/LiteOS/targets/Cloud_FM33A0XX/GCC/../../../targets/Cloud_FM33A0XX/Drivers\fm33a0xx_lcd.c **** }
 2156              		.loc 1 592 0
 2157              		@ sp needed
 2158 0004 7047     		bx	lr
 2159              	.L242:
 2160 0006 C046     		.align	2
 2161              	.L241:
 2162 0008 000C0140 		.word	1073810432
 2163              		.cfi_endproc
 2164              	.LFE97:
 2166              		.section	.text.LCD_SEG_EN1_Write,"ax",%progbits
 2167              		.align	2
 2168              		.global	LCD_SEG_EN1_Write
 2169              		.code	16
 2170              		.thumb_func
 2172              	LCD_SEG_EN1_Write:
 2173              	.LFB98:
 593:e:/LiteOS/LiteOS/targets/Cloud_FM33A0XX/GCC/../../../targets/Cloud_FM33A0XX/Drivers\fm33a0xx_lcd.c **** 
 594:e:/LiteOS/LiteOS/targets/Cloud_FM33A0XX/GCC/../../../targets/Cloud_FM33A0XX/Drivers\fm33a0xx_lcd.c **** /* LCD SEG32~43,COM4~7输出使能控制 相关函数 */
 595:e:/LiteOS/LiteOS/targets/Cloud_FM33A0XX/GCC/../../../targets/Cloud_FM33A0XX/Drivers\fm33a0xx_lcd.c **** void LCD_SEG_EN1_Write(uint32_t SetValue)
 596:e:/LiteOS/LiteOS/targets/Cloud_FM33A0XX/GCC/../../../targets/Cloud_FM33A0XX/Drivers\fm33a0xx_lcd.c **** {
 2174              		.loc 1 596 0
 2175              		.cfi_startproc
 2176              		@ args = 0, pretend = 0, frame = 0
 2177              		@ frame_needed = 0, uses_anonymous_args = 0
 2178              		@ link register save eliminated.
 2179              	.LVL74:
 597:e:/LiteOS/LiteOS/targets/Cloud_FM33A0XX/GCC/../../../targets/Cloud_FM33A0XX/Drivers\fm33a0xx_lcd.c **** 	LCD->SEG_EN1 = (SetValue & LCD_SEG_EN1_SEGENx_Msk);
 2180              		.loc 1 597 0
 2181 0000 0005     		lsls	r0, r0, #20
 2182              	.LVL75:
 2183 0002 000D     		lsrs	r0, r0, #20
 2184 0004 014B     		ldr	r3, .L244
 2185 0006 9865     		str	r0, [r3, #88]
 598:e:/LiteOS/LiteOS/targets/Cloud_FM33A0XX/GCC/../../../targets/Cloud_FM33A0XX/Drivers\fm33a0xx_lcd.c **** }
 2186              		.loc 1 598 0
 2187              		@ sp needed
 2188 0008 7047     		bx	lr
 2189              	.L245:
 2190 000a C046     		.align	2
 2191              	.L244:
 2192 000c 000C0140 		.word	1073810432
 2193              		.cfi_endproc
 2194              	.LFE98:
 2196              		.section	.text.LCD_SEG_EN1_Read,"ax",%progbits
 2197              		.align	2
 2198              		.global	LCD_SEG_EN1_Read
 2199              		.code	16
 2200              		.thumb_func
 2202              	LCD_SEG_EN1_Read:
 2203              	.LFB99:
 599:e:/LiteOS/LiteOS/targets/Cloud_FM33A0XX/GCC/../../../targets/Cloud_FM33A0XX/Drivers\fm33a0xx_lcd.c **** 
 600:e:/LiteOS/LiteOS/targets/Cloud_FM33A0XX/GCC/../../../targets/Cloud_FM33A0XX/Drivers\fm33a0xx_lcd.c **** uint32_t LCD_SEG_EN1_Read(void)
 601:e:/LiteOS/LiteOS/targets/Cloud_FM33A0XX/GCC/../../../targets/Cloud_FM33A0XX/Drivers\fm33a0xx_lcd.c **** {
 2204              		.loc 1 601 0
 2205              		.cfi_startproc
ARM GAS  C:\Users\WANGBI~1\AppData\Local\Temp\ccQL37zL.s 			page 48


 2206              		@ args = 0, pretend = 0, frame = 0
 2207              		@ frame_needed = 0, uses_anonymous_args = 0
 2208              		@ link register save eliminated.
 602:e:/LiteOS/LiteOS/targets/Cloud_FM33A0XX/GCC/../../../targets/Cloud_FM33A0XX/Drivers\fm33a0xx_lcd.c **** 	return (LCD->SEG_EN1 & LCD_SEG_EN1_SEGENx_Msk);
 2209              		.loc 1 602 0
 2210 0000 024B     		ldr	r3, .L247
 2211 0002 986D     		ldr	r0, [r3, #88]
 2212 0004 0005     		lsls	r0, r0, #20
 2213 0006 000D     		lsrs	r0, r0, #20
 603:e:/LiteOS/LiteOS/targets/Cloud_FM33A0XX/GCC/../../../targets/Cloud_FM33A0XX/Drivers\fm33a0xx_lcd.c **** }
 2214              		.loc 1 603 0
 2215              		@ sp needed
 2216 0008 7047     		bx	lr
 2217              	.L248:
 2218 000a C046     		.align	2
 2219              	.L247:
 2220 000c 000C0140 		.word	1073810432
 2221              		.cfi_endproc
 2222              	.LFE99:
 2224              		.section	.text.LCD_Deinit,"ax",%progbits
 2225              		.align	2
 2226              		.global	LCD_Deinit
 2227              		.code	16
 2228              		.thumb_func
 2230              	LCD_Deinit:
 2231              	.LFB100:
 604:e:/LiteOS/LiteOS/targets/Cloud_FM33A0XX/GCC/../../../targets/Cloud_FM33A0XX/Drivers\fm33a0xx_lcd.c **** 
 605:e:/LiteOS/LiteOS/targets/Cloud_FM33A0XX/GCC/../../../targets/Cloud_FM33A0XX/Drivers\fm33a0xx_lcd.c **** void LCD_Deinit(void)
 606:e:/LiteOS/LiteOS/targets/Cloud_FM33A0XX/GCC/../../../targets/Cloud_FM33A0XX/Drivers\fm33a0xx_lcd.c **** {
 2232              		.loc 1 606 0
 2233              		.cfi_startproc
 2234              		@ args = 0, pretend = 0, frame = 0
 2235              		@ frame_needed = 0, uses_anonymous_args = 0
 2236              		@ link register save eliminated.
 607:e:/LiteOS/LiteOS/targets/Cloud_FM33A0XX/GCC/../../../targets/Cloud_FM33A0XX/Drivers\fm33a0xx_lcd.c **** 	LCD->DISPCTRL = 0x00000000;
 2237              		.loc 1 607 0
 2238 0000 094B     		ldr	r3, .L250
 2239 0002 0022     		movs	r2, #0
 2240 0004 1A60     		str	r2, [r3]
 608:e:/LiteOS/LiteOS/targets/Cloud_FM33A0XX/GCC/../../../targets/Cloud_FM33A0XX/Drivers\fm33a0xx_lcd.c **** 	LCD->LCDTEST = 0x00000000;
 2241              		.loc 1 608 0
 2242 0006 5A60     		str	r2, [r3, #4]
 609:e:/LiteOS/LiteOS/targets/Cloud_FM33A0XX/GCC/../../../targets/Cloud_FM33A0XX/Drivers\fm33a0xx_lcd.c **** 	LCD->DF = 0x00000000;
 2243              		.loc 1 609 0
 2244 0008 9A60     		str	r2, [r3, #8]
 610:e:/LiteOS/LiteOS/targets/Cloud_FM33A0XX/GCC/../../../targets/Cloud_FM33A0XX/Drivers\fm33a0xx_lcd.c **** 	LCD->TON = 0x00000000;
 2245              		.loc 1 610 0
 2246 000a DA60     		str	r2, [r3, #12]
 611:e:/LiteOS/LiteOS/targets/Cloud_FM33A0XX/GCC/../../../targets/Cloud_FM33A0XX/Drivers\fm33a0xx_lcd.c **** 	LCD->TOFF = 0x00000000;
 2247              		.loc 1 611 0
 2248 000c 1A61     		str	r2, [r3, #16]
 612:e:/LiteOS/LiteOS/targets/Cloud_FM33A0XX/GCC/../../../targets/Cloud_FM33A0XX/Drivers\fm33a0xx_lcd.c **** 	LCD->DISPIE = 0x00000000;
 2249              		.loc 1 612 0
 2250 000e 5A61     		str	r2, [r3, #20]
 613:e:/LiteOS/LiteOS/targets/Cloud_FM33A0XX/GCC/../../../targets/Cloud_FM33A0XX/Drivers\fm33a0xx_lcd.c **** 	LCD->DISPIF = 0x00000000;
 2251              		.loc 1 613 0
 2252 0010 9A61     		str	r2, [r3, #24]
ARM GAS  C:\Users\WANGBI~1\AppData\Local\Temp\ccQL37zL.s 			page 49


 614:e:/LiteOS/LiteOS/targets/Cloud_FM33A0XX/GCC/../../../targets/Cloud_FM33A0XX/Drivers\fm33a0xx_lcd.c **** 	LCD->LCDSET = 0x00000000;
 2253              		.loc 1 614 0
 2254 0012 DA61     		str	r2, [r3, #28]
 615:e:/LiteOS/LiteOS/targets/Cloud_FM33A0XX/GCC/../../../targets/Cloud_FM33A0XX/Drivers\fm33a0xx_lcd.c **** 	LCD->LCDDRV = 0x00000002;
 2255              		.loc 1 615 0
 2256 0014 0221     		movs	r1, #2
 2257 0016 1962     		str	r1, [r3, #32]
 616:e:/LiteOS/LiteOS/targets/Cloud_FM33A0XX/GCC/../../../targets/Cloud_FM33A0XX/Drivers\fm33a0xx_lcd.c **** 	LCD->LCDBIAS = 0x0000000E;
 2258              		.loc 1 616 0
 2259 0018 0C31     		adds	r1, r1, #12
 2260 001a D964     		str	r1, [r3, #76]
 617:e:/LiteOS/LiteOS/targets/Cloud_FM33A0XX/GCC/../../../targets/Cloud_FM33A0XX/Drivers\fm33a0xx_lcd.c **** 	LCD->LCDBSTCON = 0x00000000;
 2261              		.loc 1 617 0
 2262 001c DA65     		str	r2, [r3, #92]
 618:e:/LiteOS/LiteOS/targets/Cloud_FM33A0XX/GCC/../../../targets/Cloud_FM33A0XX/Drivers\fm33a0xx_lcd.c **** 	LCD->COM_EN = 0x00000000;
 2263              		.loc 1 618 0
 2264 001e 1A65     		str	r2, [r3, #80]
 619:e:/LiteOS/LiteOS/targets/Cloud_FM33A0XX/GCC/../../../targets/Cloud_FM33A0XX/Drivers\fm33a0xx_lcd.c **** 	LCD->SEG_EN0 = 0x00000000;
 2265              		.loc 1 619 0
 2266 0020 5A65     		str	r2, [r3, #84]
 620:e:/LiteOS/LiteOS/targets/Cloud_FM33A0XX/GCC/../../../targets/Cloud_FM33A0XX/Drivers\fm33a0xx_lcd.c **** 	LCD->SEG_EN1 = 0x00000000;
 2267              		.loc 1 620 0
 2268 0022 9A65     		str	r2, [r3, #88]
 621:e:/LiteOS/LiteOS/targets/Cloud_FM33A0XX/GCC/../../../targets/Cloud_FM33A0XX/Drivers\fm33a0xx_lcd.c **** }
 2269              		.loc 1 621 0
 2270              		@ sp needed
 2271 0024 7047     		bx	lr
 2272              	.L251:
 2273 0026 C046     		.align	2
 2274              	.L250:
 2275 0028 000C0140 		.word	1073810432
 2276              		.cfi_endproc
 2277              	.LFE100:
 2279              		.section	.text.LCD_DISPDATAx_Refresh,"ax",%progbits
 2280              		.align	2
 2281              		.global	LCD_DISPDATAx_Refresh
 2282              		.code	16
 2283              		.thumb_func
 2285              	LCD_DISPDATAx_Refresh:
 2286              	.LFB101:
 622:e:/LiteOS/LiteOS/targets/Cloud_FM33A0XX/GCC/../../../targets/Cloud_FM33A0XX/Drivers\fm33a0xx_lcd.c **** //Code_End
 623:e:/LiteOS/LiteOS/targets/Cloud_FM33A0XX/GCC/../../../targets/Cloud_FM33A0XX/Drivers\fm33a0xx_lcd.c **** 
 624:e:/LiteOS/LiteOS/targets/Cloud_FM33A0XX/GCC/../../../targets/Cloud_FM33A0XX/Drivers\fm33a0xx_lcd.c **** /*DISPDATAx显示数据寄存器刷新*/
 625:e:/LiteOS/LiteOS/targets/Cloud_FM33A0XX/GCC/../../../targets/Cloud_FM33A0XX/Drivers\fm33a0xx_lcd.c **** void LCD_DISPDATAx_Refresh(uint32_t* DispBuf)
 626:e:/LiteOS/LiteOS/targets/Cloud_FM33A0XX/GCC/../../../targets/Cloud_FM33A0XX/Drivers\fm33a0xx_lcd.c **** {
 2287              		.loc 1 626 0
 2288              		.cfi_startproc
 2289              		@ args = 0, pretend = 0, frame = 0
 2290              		@ frame_needed = 0, uses_anonymous_args = 0
 2291              		@ link register save eliminated.
 2292              	.LVL76:
 627:e:/LiteOS/LiteOS/targets/Cloud_FM33A0XX/GCC/../../../targets/Cloud_FM33A0XX/Drivers\fm33a0xx_lcd.c ****     LCD->DISPDATA0 = DispBuf[0];
 2293              		.loc 1 627 0
 2294 0000 0A4B     		ldr	r3, .L253
 2295 0002 0268     		ldr	r2, [r0]
 2296 0004 5A62     		str	r2, [r3, #36]
 628:e:/LiteOS/LiteOS/targets/Cloud_FM33A0XX/GCC/../../../targets/Cloud_FM33A0XX/Drivers\fm33a0xx_lcd.c ****     LCD->DISPDATA1 = DispBuf[1];
ARM GAS  C:\Users\WANGBI~1\AppData\Local\Temp\ccQL37zL.s 			page 50


 2297              		.loc 1 628 0
 2298 0006 4268     		ldr	r2, [r0, #4]
 2299 0008 9A62     		str	r2, [r3, #40]
 629:e:/LiteOS/LiteOS/targets/Cloud_FM33A0XX/GCC/../../../targets/Cloud_FM33A0XX/Drivers\fm33a0xx_lcd.c ****     LCD->DISPDATA2 = DispBuf[2];
 2300              		.loc 1 629 0
 2301 000a 8268     		ldr	r2, [r0, #8]
 2302 000c DA62     		str	r2, [r3, #44]
 630:e:/LiteOS/LiteOS/targets/Cloud_FM33A0XX/GCC/../../../targets/Cloud_FM33A0XX/Drivers\fm33a0xx_lcd.c ****     LCD->DISPDATA3 = DispBuf[3];
 2303              		.loc 1 630 0
 2304 000e C268     		ldr	r2, [r0, #12]
 2305 0010 1A63     		str	r2, [r3, #48]
 631:e:/LiteOS/LiteOS/targets/Cloud_FM33A0XX/GCC/../../../targets/Cloud_FM33A0XX/Drivers\fm33a0xx_lcd.c ****     LCD->DISPDATA4 = DispBuf[4];
 2306              		.loc 1 631 0
 2307 0012 0269     		ldr	r2, [r0, #16]
 2308 0014 5A63     		str	r2, [r3, #52]
 632:e:/LiteOS/LiteOS/targets/Cloud_FM33A0XX/GCC/../../../targets/Cloud_FM33A0XX/Drivers\fm33a0xx_lcd.c ****     LCD->DISPDATA5 = DispBuf[5];
 2309              		.loc 1 632 0
 2310 0016 4269     		ldr	r2, [r0, #20]
 2311 0018 9A63     		str	r2, [r3, #56]
 633:e:/LiteOS/LiteOS/targets/Cloud_FM33A0XX/GCC/../../../targets/Cloud_FM33A0XX/Drivers\fm33a0xx_lcd.c ****     LCD->DISPDATA6 = DispBuf[6];
 2312              		.loc 1 633 0
 2313 001a 8269     		ldr	r2, [r0, #24]
 2314 001c DA63     		str	r2, [r3, #60]
 634:e:/LiteOS/LiteOS/targets/Cloud_FM33A0XX/GCC/../../../targets/Cloud_FM33A0XX/Drivers\fm33a0xx_lcd.c ****     LCD->DISPDATA7 = DispBuf[7];
 2315              		.loc 1 634 0
 2316 001e C269     		ldr	r2, [r0, #28]
 2317 0020 1A64     		str	r2, [r3, #64]
 635:e:/LiteOS/LiteOS/targets/Cloud_FM33A0XX/GCC/../../../targets/Cloud_FM33A0XX/Drivers\fm33a0xx_lcd.c ****     LCD->DISPDATA8 = DispBuf[8];
 2318              		.loc 1 635 0
 2319 0022 026A     		ldr	r2, [r0, #32]
 2320 0024 5A64     		str	r2, [r3, #68]
 636:e:/LiteOS/LiteOS/targets/Cloud_FM33A0XX/GCC/../../../targets/Cloud_FM33A0XX/Drivers\fm33a0xx_lcd.c ****     LCD->DISPDATA9 = DispBuf[9];
 2321              		.loc 1 636 0
 2322 0026 426A     		ldr	r2, [r0, #36]
 2323 0028 9A64     		str	r2, [r3, #72]
 637:e:/LiteOS/LiteOS/targets/Cloud_FM33A0XX/GCC/../../../targets/Cloud_FM33A0XX/Drivers\fm33a0xx_lcd.c **** }
 2324              		.loc 1 637 0
 2325              		@ sp needed
 2326 002a 7047     		bx	lr
 2327              	.L254:
 2328              		.align	2
 2329              	.L253:
 2330 002c 000C0140 		.word	1073810432
 2331              		.cfi_endproc
 2332              	.LFE101:
 2334              		.section	.text.LCD_Boost_Init,"ax",%progbits
 2335              		.align	2
 2336              		.global	LCD_Boost_Init
 2337              		.code	16
 2338              		.thumb_func
 2340              	LCD_Boost_Init:
 2341              	.LFB102:
 638:e:/LiteOS/LiteOS/targets/Cloud_FM33A0XX/GCC/../../../targets/Cloud_FM33A0XX/Drivers\fm33a0xx_lcd.c **** 
 639:e:/LiteOS/LiteOS/targets/Cloud_FM33A0XX/GCC/../../../targets/Cloud_FM33A0XX/Drivers\fm33a0xx_lcd.c **** /*lcd boost功能配置*/
 640:e:/LiteOS/LiteOS/targets/Cloud_FM33A0XX/GCC/../../../targets/Cloud_FM33A0XX/Drivers\fm33a0xx_lcd.c **** void LCD_Boost_Init(LCD_Boost_InitTypeDef* para)
 641:e:/LiteOS/LiteOS/targets/Cloud_FM33A0XX/GCC/../../../targets/Cloud_FM33A0XX/Drivers\fm33a0xx_lcd.c **** {
 2342              		.loc 1 641 0
ARM GAS  C:\Users\WANGBI~1\AppData\Local\Temp\ccQL37zL.s 			page 51


 2343              		.cfi_startproc
 2344              		@ args = 0, pretend = 0, frame = 0
 2345              		@ frame_needed = 0, uses_anonymous_args = 0
 2346              	.LVL77:
 2347 0000 10B5     		push	{r4, lr}
 2348              	.LCFI0:
 2349              		.cfi_def_cfa_offset 8
 2350              		.cfi_offset 4, -8
 2351              		.cfi_offset 14, -4
 2352 0002 0400     		movs	r4, r0
 642:e:/LiteOS/LiteOS/targets/Cloud_FM33A0XX/GCC/../../../targets/Cloud_FM33A0XX/Drivers\fm33a0xx_lcd.c **** 	LCD_LCDBSTCON_OSC_CFG_Set(para->OSC_CFG);
 2353              		.loc 1 642 0
 2354 0004 0068     		ldr	r0, [r0]
 2355              	.LVL78:
 2356 0006 FFF7FEFF 		bl	LCD_LCDBSTCON_OSC_CFG_Set
 2357              	.LVL79:
 643:e:/LiteOS/LiteOS/targets/Cloud_FM33A0XX/GCC/../../../targets/Cloud_FM33A0XX/Drivers\fm33a0xx_lcd.c **** 	LCD_LCDBSTCON_VLCDCFG_Set(para->VLCDCFG);
 2358              		.loc 1 643 0
 2359 000a 6068     		ldr	r0, [r4, #4]
 2360 000c FFF7FEFF 		bl	LCD_LCDBSTCON_VLCDCFG_Set
 2361              	.LVL80:
 644:e:/LiteOS/LiteOS/targets/Cloud_FM33A0XX/GCC/../../../targets/Cloud_FM33A0XX/Drivers\fm33a0xx_lcd.c **** 	LCD_LCDBSTCON_BUFENB_Setable(para->BUFENB);
 2362              		.loc 1 644 0
 2363 0010 207A     		ldrb	r0, [r4, #8]
 2364 0012 FFF7FEFF 		bl	LCD_LCDBSTCON_BUFENB_Setable
 2365              	.LVL81:
 645:e:/LiteOS/LiteOS/targets/Cloud_FM33A0XX/GCC/../../../targets/Cloud_FM33A0XX/Drivers\fm33a0xx_lcd.c **** 	LCD_LCDBSTCON_BUFBYP_Setable(para->BUFBYP);
 2366              		.loc 1 645 0
 2367 0016 607A     		ldrb	r0, [r4, #9]
 2368 0018 FFF7FEFF 		bl	LCD_LCDBSTCON_BUFBYP_Setable
 2369              	.LVL82:
 646:e:/LiteOS/LiteOS/targets/Cloud_FM33A0XX/GCC/../../../targets/Cloud_FM33A0XX/Drivers\fm33a0xx_lcd.c **** 	LCD_LCDBSTCON_VLCDPD_Setable(para->VLCDPD);	
 2370              		.loc 1 646 0
 2371 001c A07A     		ldrb	r0, [r4, #10]
 2372 001e FFF7FEFF 		bl	LCD_LCDBSTCON_VLCDPD_Setable
 2373              	.LVL83:
 647:e:/LiteOS/LiteOS/targets/Cloud_FM33A0XX/GCC/../../../targets/Cloud_FM33A0XX/Drivers\fm33a0xx_lcd.c **** 	LCD_LCDBSTCON_BOOST_TEN_Setable(para->BOOST_TEN);
 2374              		.loc 1 647 0
 2375 0022 E07A     		ldrb	r0, [r4, #11]
 2376 0024 FFF7FEFF 		bl	LCD_LCDBSTCON_BOOST_TEN_Setable
 2377              	.LVL84:
 648:e:/LiteOS/LiteOS/targets/Cloud_FM33A0XX/GCC/../../../targets/Cloud_FM33A0XX/Drivers\fm33a0xx_lcd.c **** 	LCD_LCDBSTCON_BOOST_EN_Setable(para->BOOST_EN);
 2378              		.loc 1 648 0
 2379 0028 207B     		ldrb	r0, [r4, #12]
 2380 002a FFF7FEFF 		bl	LCD_LCDBSTCON_BOOST_EN_Setable
 2381              	.LVL85:
 649:e:/LiteOS/LiteOS/targets/Cloud_FM33A0XX/GCC/../../../targets/Cloud_FM33A0XX/Drivers\fm33a0xx_lcd.c **** }
 2382              		.loc 1 649 0
 2383              		@ sp needed
 2384              	.LVL86:
 2385 002e 10BD     		pop	{r4, pc}
 2386              		.cfi_endproc
 2387              	.LFE102:
 2389              		.section	.text.LCD_Init,"ax",%progbits
 2390              		.align	2
 2391              		.global	LCD_Init
 2392              		.code	16
ARM GAS  C:\Users\WANGBI~1\AppData\Local\Temp\ccQL37zL.s 			page 52


 2393              		.thumb_func
 2395              	LCD_Init:
 2396              	.LFB103:
 650:e:/LiteOS/LiteOS/targets/Cloud_FM33A0XX/GCC/../../../targets/Cloud_FM33A0XX/Drivers\fm33a0xx_lcd.c **** 
 651:e:/LiteOS/LiteOS/targets/Cloud_FM33A0XX/GCC/../../../targets/Cloud_FM33A0XX/Drivers\fm33a0xx_lcd.c **** /*LCD显示功能配置*/
 652:e:/LiteOS/LiteOS/targets/Cloud_FM33A0XX/GCC/../../../targets/Cloud_FM33A0XX/Drivers\fm33a0xx_lcd.c **** void LCD_Init(LCD_InitTypeDef* para)
 653:e:/LiteOS/LiteOS/targets/Cloud_FM33A0XX/GCC/../../../targets/Cloud_FM33A0XX/Drivers\fm33a0xx_lcd.c **** {
 2397              		.loc 1 653 0
 2398              		.cfi_startproc
 2399              		@ args = 0, pretend = 0, frame = 0
 2400              		@ frame_needed = 0, uses_anonymous_args = 0
 2401              	.LVL87:
 2402 0000 10B5     		push	{r4, lr}
 2403              	.LCFI1:
 2404              		.cfi_def_cfa_offset 8
 2405              		.cfi_offset 4, -8
 2406              		.cfi_offset 14, -4
 2407 0002 0400     		movs	r4, r0
 654:e:/LiteOS/LiteOS/targets/Cloud_FM33A0XX/GCC/../../../targets/Cloud_FM33A0XX/Drivers\fm33a0xx_lcd.c **** 	LCD_LCDSET_LMUX_Set(para->LMUX);
 2408              		.loc 1 654 0
 2409 0004 0068     		ldr	r0, [r0]
 2410              	.LVL88:
 2411 0006 FFF7FEFF 		bl	LCD_LCDSET_LMUX_Set
 2412              	.LVL89:
 655:e:/LiteOS/LiteOS/targets/Cloud_FM33A0XX/GCC/../../../targets/Cloud_FM33A0XX/Drivers\fm33a0xx_lcd.c **** 	LCD_LCDDRV_ENMODE_Set(para->ENMODE);
 2413              		.loc 1 655 0
 2414 000a 6068     		ldr	r0, [r4, #4]
 2415 000c FFF7FEFF 		bl	LCD_LCDDRV_ENMODE_Set
 2416              	.LVL90:
 656:e:/LiteOS/LiteOS/targets/Cloud_FM33A0XX/GCC/../../../targets/Cloud_FM33A0XX/Drivers\fm33a0xx_lcd.c **** 	LCD_LCDSET_WFT_Set(para->WFT);
 2417              		.loc 1 656 0
 2418 0010 A068     		ldr	r0, [r4, #8]
 2419 0012 FFF7FEFF 		bl	LCD_LCDSET_WFT_Set
 2420              	.LVL91:
 657:e:/LiteOS/LiteOS/targets/Cloud_FM33A0XX/GCC/../../../targets/Cloud_FM33A0XX/Drivers\fm33a0xx_lcd.c **** 	LCD_DF_Write(para->DF);
 2421              		.loc 1 657 0
 2422 0016 E068     		ldr	r0, [r4, #12]
 2423 0018 FFF7FEFF 		bl	LCD_DF_Write
 2424              	.LVL92:
 658:e:/LiteOS/LiteOS/targets/Cloud_FM33A0XX/GCC/../../../targets/Cloud_FM33A0XX/Drivers\fm33a0xx_lcd.c **** 	LCD_LCDSET_BIASMD_Set(para->BIASMD);
 2425              		.loc 1 658 0
 2426 001c 2069     		ldr	r0, [r4, #16]
 2427 001e FFF7FEFF 		bl	LCD_LCDSET_BIASMD_Set
 2428              	.LVL93:
 659:e:/LiteOS/LiteOS/targets/Cloud_FM33A0XX/GCC/../../../targets/Cloud_FM33A0XX/Drivers\fm33a0xx_lcd.c **** 	LCD_LCDDRV_SCFSEL_Set(para->SCFSEL);
 2429              		.loc 1 659 0
 2430 0022 6069     		ldr	r0, [r4, #20]
 2431 0024 FFF7FEFF 		bl	LCD_LCDDRV_SCFSEL_Set
 2432              	.LVL94:
 660:e:/LiteOS/LiteOS/targets/Cloud_FM33A0XX/GCC/../../../targets/Cloud_FM33A0XX/Drivers\fm33a0xx_lcd.c **** 	LCD_LCDDRV_SC_CTRL_Set(para->SC_CTRL);
 2433              		.loc 1 660 0
 2434 0028 A069     		ldr	r0, [r4, #24]
 2435 002a FFF7FEFF 		bl	LCD_LCDDRV_SC_CTRL_Set
 2436              	.LVL95:
 661:e:/LiteOS/LiteOS/targets/Cloud_FM33A0XX/GCC/../../../targets/Cloud_FM33A0XX/Drivers\fm33a0xx_lcd.c **** 	LCD_LCDDRV_IC_CTRL_Set(para->IC_CTRL);	
 2437              		.loc 1 661 0
 2438 002e E069     		ldr	r0, [r4, #28]
ARM GAS  C:\Users\WANGBI~1\AppData\Local\Temp\ccQL37zL.s 			page 53


 2439 0030 FFF7FEFF 		bl	LCD_LCDDRV_IC_CTRL_Set
 2440              	.LVL96:
 662:e:/LiteOS/LiteOS/targets/Cloud_FM33A0XX/GCC/../../../targets/Cloud_FM33A0XX/Drivers\fm33a0xx_lcd.c **** 	LCD_LCDBIAS_Write(para->LCDBIAS);
 2441              		.loc 1 662 0
 2442 0034 206A     		ldr	r0, [r4, #32]
 2443 0036 FFF7FEFF 		bl	LCD_LCDBIAS_Write
 2444              	.LVL97:
 663:e:/LiteOS/LiteOS/targets/Cloud_FM33A0XX/GCC/../../../targets/Cloud_FM33A0XX/Drivers\fm33a0xx_lcd.c **** 	LCD_DISPCTRL_ANTIPOLAR_Setable(para->ANTIPOLAR);
 2445              		.loc 1 663 0
 2446 003a 2423     		movs	r3, #36
 2447 003c E05C     		ldrb	r0, [r4, r3]
 2448 003e FFF7FEFF 		bl	LCD_DISPCTRL_ANTIPOLAR_Setable
 2449              	.LVL98:
 664:e:/LiteOS/LiteOS/targets/Cloud_FM33A0XX/GCC/../../../targets/Cloud_FM33A0XX/Drivers\fm33a0xx_lcd.c **** 	
 665:e:/LiteOS/LiteOS/targets/Cloud_FM33A0XX/GCC/../../../targets/Cloud_FM33A0XX/Drivers\fm33a0xx_lcd.c **** 	LCD_DISPCTRL_TEST_Setable(para->TEST);
 2450              		.loc 1 665 0
 2451 0042 2523     		movs	r3, #37
 2452 0044 E05C     		ldrb	r0, [r4, r3]
 2453 0046 FFF7FEFF 		bl	LCD_DISPCTRL_TEST_Setable
 2454              	.LVL99:
 666:e:/LiteOS/LiteOS/targets/Cloud_FM33A0XX/GCC/../../../targets/Cloud_FM33A0XX/Drivers\fm33a0xx_lcd.c **** 	LCD_DISPCTRL_DISPMD_Setable(para->DISPMD);
 2455              		.loc 1 666 0
 2456 004a 2623     		movs	r3, #38
 2457 004c E05C     		ldrb	r0, [r4, r3]
 2458 004e FFF7FEFF 		bl	LCD_DISPCTRL_DISPMD_Setable
 2459              	.LVL100:
 667:e:/LiteOS/LiteOS/targets/Cloud_FM33A0XX/GCC/../../../targets/Cloud_FM33A0XX/Drivers\fm33a0xx_lcd.c **** 
 668:e:/LiteOS/LiteOS/targets/Cloud_FM33A0XX/GCC/../../../targets/Cloud_FM33A0XX/Drivers\fm33a0xx_lcd.c **** 	LCD_LCDTEST_LCCTRL_Set(para->LCCTRL);
 2460              		.loc 1 668 0
 2461 0052 A06A     		ldr	r0, [r4, #40]
 2462 0054 FFF7FEFF 		bl	LCD_LCDTEST_LCCTRL_Set
 2463              	.LVL101:
 669:e:/LiteOS/LiteOS/targets/Cloud_FM33A0XX/GCC/../../../targets/Cloud_FM33A0XX/Drivers\fm33a0xx_lcd.c **** 	LCD_LCDTEST_TESTEN_Setable(para->TESTEN);
 2464              		.loc 1 669 0
 2465 0058 2C23     		movs	r3, #44
 2466 005a E05C     		ldrb	r0, [r4, r3]
 2467 005c FFF7FEFF 		bl	LCD_LCDTEST_TESTEN_Setable
 2468              	.LVL102:
 670:e:/LiteOS/LiteOS/targets/Cloud_FM33A0XX/GCC/../../../targets/Cloud_FM33A0XX/Drivers\fm33a0xx_lcd.c **** 	
 671:e:/LiteOS/LiteOS/targets/Cloud_FM33A0XX/GCC/../../../targets/Cloud_FM33A0XX/Drivers\fm33a0xx_lcd.c **** 	LCD_DISPCTRL_FLICK_Setable(para->FLICK);	
 2469              		.loc 1 671 0
 2470 0060 2D23     		movs	r3, #45
 2471 0062 E05C     		ldrb	r0, [r4, r3]
 2472 0064 FFF7FEFF 		bl	LCD_DISPCTRL_FLICK_Setable
 2473              	.LVL103:
 672:e:/LiteOS/LiteOS/targets/Cloud_FM33A0XX/GCC/../../../targets/Cloud_FM33A0XX/Drivers\fm33a0xx_lcd.c **** 	LCD_TON_Write(para->TON);
 2474              		.loc 1 672 0
 2475 0068 206B     		ldr	r0, [r4, #48]
 2476 006a FFF7FEFF 		bl	LCD_TON_Write
 2477              	.LVL104:
 673:e:/LiteOS/LiteOS/targets/Cloud_FM33A0XX/GCC/../../../targets/Cloud_FM33A0XX/Drivers\fm33a0xx_lcd.c **** 	LCD_TOFF_Write(para->TOFF);
 2478              		.loc 1 673 0
 2479 006e 606B     		ldr	r0, [r4, #52]
 2480 0070 FFF7FEFF 		bl	LCD_TOFF_Write
 2481              	.LVL105:
 674:e:/LiteOS/LiteOS/targets/Cloud_FM33A0XX/GCC/../../../targets/Cloud_FM33A0XX/Drivers\fm33a0xx_lcd.c **** 	LCD_DISPIE_DONIE_Setable(para->DONIE);
 2482              		.loc 1 674 0
ARM GAS  C:\Users\WANGBI~1\AppData\Local\Temp\ccQL37zL.s 			page 54


 2483 0074 3823     		movs	r3, #56
 2484 0076 E05C     		ldrb	r0, [r4, r3]
 2485 0078 FFF7FEFF 		bl	LCD_DISPIE_DONIE_Setable
 2486              	.LVL106:
 675:e:/LiteOS/LiteOS/targets/Cloud_FM33A0XX/GCC/../../../targets/Cloud_FM33A0XX/Drivers\fm33a0xx_lcd.c **** 	LCD_DISPIE_DOFFIE_Setable(para->DOFFIE);
 2487              		.loc 1 675 0
 2488 007c 3923     		movs	r3, #57
 2489 007e E05C     		ldrb	r0, [r4, r3]
 2490 0080 FFF7FEFF 		bl	LCD_DISPIE_DOFFIE_Setable
 2491              	.LVL107:
 676:e:/LiteOS/LiteOS/targets/Cloud_FM33A0XX/GCC/../../../targets/Cloud_FM33A0XX/Drivers\fm33a0xx_lcd.c **** 	LCD_DISPIF_DONIF_Clr();
 2492              		.loc 1 676 0
 2493 0084 FFF7FEFF 		bl	LCD_DISPIF_DONIF_Clr
 2494              	.LVL108:
 677:e:/LiteOS/LiteOS/targets/Cloud_FM33A0XX/GCC/../../../targets/Cloud_FM33A0XX/Drivers\fm33a0xx_lcd.c **** 	LCD_DISPIF_DOFFIF_Clr();
 2495              		.loc 1 677 0
 2496 0088 FFF7FEFF 		bl	LCD_DISPIF_DOFFIF_Clr
 2497              	.LVL109:
 678:e:/LiteOS/LiteOS/targets/Cloud_FM33A0XX/GCC/../../../targets/Cloud_FM33A0XX/Drivers\fm33a0xx_lcd.c **** 	
 679:e:/LiteOS/LiteOS/targets/Cloud_FM33A0XX/GCC/../../../targets/Cloud_FM33A0XX/Drivers\fm33a0xx_lcd.c **** 	LCD_DISPCTRL_LCDEN_Setable(para->LCDEN);	
 2498              		.loc 1 679 0
 2499 008c 3A23     		movs	r3, #58
 2500 008e E05C     		ldrb	r0, [r4, r3]
 2501 0090 FFF7FEFF 		bl	LCD_DISPCTRL_LCDEN_Setable
 2502              	.LVL110:
 680:e:/LiteOS/LiteOS/targets/Cloud_FM33A0XX/GCC/../../../targets/Cloud_FM33A0XX/Drivers\fm33a0xx_lcd.c **** }
 2503              		.loc 1 680 0
 2504              		@ sp needed
 2505              	.LVL111:
 2506 0094 10BD     		pop	{r4, pc}
 2507              		.cfi_endproc
 2508              	.LFE103:
 2510              		.text
 2511              	.Letext0:
 2512              		.file 2 "e:\\liteos\\liteos\\targets\\cloud_fm33a0xx\\device\\include\\fm33a0xx.h"
 2513              		.file 3 "d:\\gnu tools arm embedded\\5.4 2016q3\\arm-none-eabi\\include\\machine\\_default_types.h
 2514              		.file 4 "d:\\gnu tools arm embedded\\5.4 2016q3\\arm-none-eabi\\include\\sys\\_stdint.h"
 2515              		.file 5 "e:\\liteos\\liteos\\targets\\cloud_fm33a0xx\\drivers\\fm33A0xx_lcd.h"
ARM GAS  C:\Users\WANGBI~1\AppData\Local\Temp\ccQL37zL.s 			page 55

