ARM GAS  C:\Users\WANGBI~1\AppData\Local\Temp\cc90GDgC.s 			page 1


   1              		.syntax unified
   2              		.cpu cortex-m0plus
   3              		.fpu softvfp
   4              		.eabi_attribute 20, 1
   5              		.eabi_attribute 21, 1
   6              		.eabi_attribute 23, 3
   7              		.eabi_attribute 24, 1
   8              		.eabi_attribute 25, 1
   9              		.eabi_attribute 26, 1
  10              		.eabi_attribute 30, 1
  11              		.eabi_attribute 34, 0
  12              		.eabi_attribute 18, 4
  13              		.thumb
  14              		.syntax unified
  15              		.file	"fm33a0xx_pmu.c"
  16              		.text
  17              	.Ltext0:
  18              		.cfi_sections	.debug_frame
  19              		.section	.text.PMU_LPMCFG_XTOFF_Set,"ax",%progbits
  20              		.align	2
  21              		.global	PMU_LPMCFG_XTOFF_Set
  22              		.code	16
  23              		.thumb_func
  25              	PMU_LPMCFG_XTOFF_Set:
  26              	.LFB36:
  27              		.file 1 "e:/LiteOS/LiteOS/targets/Cloud_FM33A0XX/GCC/../../../targets/Cloud_FM33A0XX/Drivers/fm33a
   1:e:/LiteOS/LiteOS/targets/Cloud_FM33A0XX/GCC/../../../targets/Cloud_FM33A0XX/Drivers\fm33a0xx_pmu.c **** /**
   2:e:/LiteOS/LiteOS/targets/Cloud_FM33A0XX/GCC/../../../targets/Cloud_FM33A0XX/Drivers\fm33a0xx_pmu.c ****   ******************************************************************************
   3:e:/LiteOS/LiteOS/targets/Cloud_FM33A0XX/GCC/../../../targets/Cloud_FM33A0XX/Drivers\fm33a0xx_pmu.c ****   * @file    fm33a0xx_pmu.c
   4:e:/LiteOS/LiteOS/targets/Cloud_FM33A0XX/GCC/../../../targets/Cloud_FM33A0XX/Drivers\fm33a0xx_pmu.c ****   * @author  FM33a0xx Application Team
   5:e:/LiteOS/LiteOS/targets/Cloud_FM33A0XX/GCC/../../../targets/Cloud_FM33A0XX/Drivers\fm33a0xx_pmu.c ****   * @version V2.0.1
   6:e:/LiteOS/LiteOS/targets/Cloud_FM33A0XX/GCC/../../../targets/Cloud_FM33A0XX/Drivers\fm33a0xx_pmu.c ****   * @date    27-12-2017
   7:e:/LiteOS/LiteOS/targets/Cloud_FM33A0XX/GCC/../../../targets/Cloud_FM33A0XX/Drivers\fm33a0xx_pmu.c ****   * @brief   
   8:e:/LiteOS/LiteOS/targets/Cloud_FM33A0XX/GCC/../../../targets/Cloud_FM33A0XX/Drivers\fm33a0xx_pmu.c ****   *
   9:e:/LiteOS/LiteOS/targets/Cloud_FM33A0XX/GCC/../../../targets/Cloud_FM33A0XX/Drivers\fm33a0xx_pmu.c **** */
  10:e:/LiteOS/LiteOS/targets/Cloud_FM33A0XX/GCC/../../../targets/Cloud_FM33A0XX/Drivers\fm33a0xx_pmu.c **** 
  11:e:/LiteOS/LiteOS/targets/Cloud_FM33A0XX/GCC/../../../targets/Cloud_FM33A0XX/Drivers\fm33a0xx_pmu.c **** /* Includes ------------------------------------------------------------------*/
  12:e:/LiteOS/LiteOS/targets/Cloud_FM33A0XX/GCC/../../../targets/Cloud_FM33A0XX/Drivers\fm33a0xx_pmu.c **** #include "fm33A0xx_pmu.h" 
  13:e:/LiteOS/LiteOS/targets/Cloud_FM33A0XX/GCC/../../../targets/Cloud_FM33A0XX/Drivers\fm33a0xx_pmu.c **** 
  14:e:/LiteOS/LiteOS/targets/Cloud_FM33A0XX/GCC/../../../targets/Cloud_FM33A0XX/Drivers\fm33a0xx_pmu.c **** /** @addtogroup fm33a0xx_StdPeriph_Driver
  15:e:/LiteOS/LiteOS/targets/Cloud_FM33A0XX/GCC/../../../targets/Cloud_FM33A0XX/Drivers\fm33a0xx_pmu.c ****   * @{
  16:e:/LiteOS/LiteOS/targets/Cloud_FM33A0XX/GCC/../../../targets/Cloud_FM33A0XX/Drivers\fm33a0xx_pmu.c ****   */
  17:e:/LiteOS/LiteOS/targets/Cloud_FM33A0XX/GCC/../../../targets/Cloud_FM33A0XX/Drivers\fm33a0xx_pmu.c **** 
  18:e:/LiteOS/LiteOS/targets/Cloud_FM33A0XX/GCC/../../../targets/Cloud_FM33A0XX/Drivers\fm33a0xx_pmu.c **** /** @defgroup PMU 
  19:e:/LiteOS/LiteOS/targets/Cloud_FM33A0XX/GCC/../../../targets/Cloud_FM33A0XX/Drivers\fm33a0xx_pmu.c ****   * @brief PMU driver modules
  20:e:/LiteOS/LiteOS/targets/Cloud_FM33A0XX/GCC/../../../targets/Cloud_FM33A0XX/Drivers\fm33a0xx_pmu.c ****   * @{
  21:e:/LiteOS/LiteOS/targets/Cloud_FM33A0XX/GCC/../../../targets/Cloud_FM33A0XX/Drivers\fm33a0xx_pmu.c ****   */ 
  22:e:/LiteOS/LiteOS/targets/Cloud_FM33A0XX/GCC/../../../targets/Cloud_FM33A0XX/Drivers\fm33a0xx_pmu.c **** 
  23:e:/LiteOS/LiteOS/targets/Cloud_FM33A0XX/GCC/../../../targets/Cloud_FM33A0XX/Drivers\fm33a0xx_pmu.c **** /* Private typedef -----------------------------------------------------------*/
  24:e:/LiteOS/LiteOS/targets/Cloud_FM33A0XX/GCC/../../../targets/Cloud_FM33A0XX/Drivers\fm33a0xx_pmu.c **** /* Private define ------------------------------------------------------------*/
  25:e:/LiteOS/LiteOS/targets/Cloud_FM33A0XX/GCC/../../../targets/Cloud_FM33A0XX/Drivers\fm33a0xx_pmu.c **** 
  26:e:/LiteOS/LiteOS/targets/Cloud_FM33A0XX/GCC/../../../targets/Cloud_FM33A0XX/Drivers\fm33a0xx_pmu.c **** /* Private macro -------------------------------------------------------------*/
  27:e:/LiteOS/LiteOS/targets/Cloud_FM33A0XX/GCC/../../../targets/Cloud_FM33A0XX/Drivers\fm33a0xx_pmu.c **** /* Private variables ---------------------------------------------------------*/
  28:e:/LiteOS/LiteOS/targets/Cloud_FM33A0XX/GCC/../../../targets/Cloud_FM33A0XX/Drivers\fm33a0xx_pmu.c **** 
  29:e:/LiteOS/LiteOS/targets/Cloud_FM33A0XX/GCC/../../../targets/Cloud_FM33A0XX/Drivers\fm33a0xx_pmu.c **** 
  30:e:/LiteOS/LiteOS/targets/Cloud_FM33A0XX/GCC/../../../targets/Cloud_FM33A0XX/Drivers\fm33a0xx_pmu.c **** /* Private function prototypes -----------------------------------------------*/
  31:e:/LiteOS/LiteOS/targets/Cloud_FM33A0XX/GCC/../../../targets/Cloud_FM33A0XX/Drivers\fm33a0xx_pmu.c **** /* Private functions ---------------------------------------------------------*/
ARM GAS  C:\Users\WANGBI~1\AppData\Local\Temp\cc90GDgC.s 			page 2


  32:e:/LiteOS/LiteOS/targets/Cloud_FM33A0XX/GCC/../../../targets/Cloud_FM33A0XX/Drivers\fm33a0xx_pmu.c **** 
  33:e:/LiteOS/LiteOS/targets/Cloud_FM33A0XX/GCC/../../../targets/Cloud_FM33A0XX/Drivers\fm33a0xx_pmu.c **** /** @defgroup PMU_Private_Functions
  34:e:/LiteOS/LiteOS/targets/Cloud_FM33A0XX/GCC/../../../targets/Cloud_FM33A0XX/Drivers\fm33a0xx_pmu.c ****   * @{
  35:e:/LiteOS/LiteOS/targets/Cloud_FM33A0XX/GCC/../../../targets/Cloud_FM33A0XX/Drivers\fm33a0xx_pmu.c ****   */
  36:e:/LiteOS/LiteOS/targets/Cloud_FM33A0XX/GCC/../../../targets/Cloud_FM33A0XX/Drivers\fm33a0xx_pmu.c **** 
  37:e:/LiteOS/LiteOS/targets/Cloud_FM33A0XX/GCC/../../../targets/Cloud_FM33A0XX/Drivers\fm33a0xx_pmu.c **** 
  38:e:/LiteOS/LiteOS/targets/Cloud_FM33A0XX/GCC/../../../targets/Cloud_FM33A0XX/Drivers\fm33a0xx_pmu.c **** //Code_Start
  39:e:/LiteOS/LiteOS/targets/Cloud_FM33A0XX/GCC/../../../targets/Cloud_FM33A0XX/Drivers\fm33a0xx_pmu.c **** //2018-04-02-13-22-03
  40:e:/LiteOS/LiteOS/targets/Cloud_FM33A0XX/GCC/../../../targets/Cloud_FM33A0XX/Drivers\fm33a0xx_pmu.c **** //FM33A0XX_Driver_Gen_V1.4
  41:e:/LiteOS/LiteOS/targets/Cloud_FM33A0XX/GCC/../../../targets/Cloud_FM33A0XX/Drivers\fm33a0xx_pmu.c **** 
  42:e:/LiteOS/LiteOS/targets/Cloud_FM33A0XX/GCC/../../../targets/Cloud_FM33A0XX/Drivers\fm33a0xx_pmu.c **** /* 关闭XTLF 相关函数 */
  43:e:/LiteOS/LiteOS/targets/Cloud_FM33A0XX/GCC/../../../targets/Cloud_FM33A0XX/Drivers\fm33a0xx_pmu.c **** void PMU_LPMCFG_XTOFF_Set(uint32_t SetValue)
  44:e:/LiteOS/LiteOS/targets/Cloud_FM33A0XX/GCC/../../../targets/Cloud_FM33A0XX/Drivers\fm33a0xx_pmu.c **** {
  28              		.loc 1 44 0
  29              		.cfi_startproc
  30              		@ args = 0, pretend = 0, frame = 0
  31              		@ frame_needed = 0, uses_anonymous_args = 0
  32              		@ link register save eliminated.
  33              	.LVL0:
  45:e:/LiteOS/LiteOS/targets/Cloud_FM33A0XX/GCC/../../../targets/Cloud_FM33A0XX/Drivers\fm33a0xx_pmu.c **** 	uint32_t tmpreg;
  46:e:/LiteOS/LiteOS/targets/Cloud_FM33A0XX/GCC/../../../targets/Cloud_FM33A0XX/Drivers\fm33a0xx_pmu.c **** 	tmpreg = PMU->LPMCFG;
  34              		.loc 1 46 0
  35 0000 0449     		ldr	r1, .L2
  36 0002 0A68     		ldr	r2, [r1]
  37              	.LVL1:
  47:e:/LiteOS/LiteOS/targets/Cloud_FM33A0XX/GCC/../../../targets/Cloud_FM33A0XX/Drivers\fm33a0xx_pmu.c **** 	tmpreg &= ~(PMU_LPMCFG_XTOFF_Msk);
  38              		.loc 1 47 0
  39 0004 044B     		ldr	r3, .L2+4
  40 0006 1A40     		ands	r2, r3
  41              	.LVL2:
  48:e:/LiteOS/LiteOS/targets/Cloud_FM33A0XX/GCC/../../../targets/Cloud_FM33A0XX/Drivers\fm33a0xx_pmu.c **** 	tmpreg |= (SetValue & PMU_LPMCFG_XTOFF_Msk);
  42              		.loc 1 48 0
  43 0008 C023     		movs	r3, #192
  44 000a 1B03     		lsls	r3, r3, #12
  45 000c 1840     		ands	r0, r3
  46              	.LVL3:
  47 000e 1043     		orrs	r0, r2
  48              	.LVL4:
  49:e:/LiteOS/LiteOS/targets/Cloud_FM33A0XX/GCC/../../../targets/Cloud_FM33A0XX/Drivers\fm33a0xx_pmu.c **** 	PMU->LPMCFG = tmpreg;
  49              		.loc 1 49 0
  50 0010 0860     		str	r0, [r1]
  50:e:/LiteOS/LiteOS/targets/Cloud_FM33A0XX/GCC/../../../targets/Cloud_FM33A0XX/Drivers\fm33a0xx_pmu.c **** }
  51              		.loc 1 50 0
  52              		@ sp needed
  53 0012 7047     		bx	lr
  54              	.L3:
  55              		.align	2
  56              	.L2:
  57 0014 00010040 		.word	1073742080
  58 0018 FFFFF3FF 		.word	-786433
  59              		.cfi_endproc
  60              	.LFE36:
  62              		.section	.text.PMU_LPMCFG_XTOFF_Get,"ax",%progbits
  63              		.align	2
  64              		.global	PMU_LPMCFG_XTOFF_Get
  65              		.code	16
  66              		.thumb_func
ARM GAS  C:\Users\WANGBI~1\AppData\Local\Temp\cc90GDgC.s 			page 3


  68              	PMU_LPMCFG_XTOFF_Get:
  69              	.LFB37:
  51:e:/LiteOS/LiteOS/targets/Cloud_FM33A0XX/GCC/../../../targets/Cloud_FM33A0XX/Drivers\fm33a0xx_pmu.c **** 
  52:e:/LiteOS/LiteOS/targets/Cloud_FM33A0XX/GCC/../../../targets/Cloud_FM33A0XX/Drivers\fm33a0xx_pmu.c **** uint32_t PMU_LPMCFG_XTOFF_Get(void)
  53:e:/LiteOS/LiteOS/targets/Cloud_FM33A0XX/GCC/../../../targets/Cloud_FM33A0XX/Drivers\fm33a0xx_pmu.c **** {
  70              		.loc 1 53 0
  71              		.cfi_startproc
  72              		@ args = 0, pretend = 0, frame = 0
  73              		@ frame_needed = 0, uses_anonymous_args = 0
  74              		@ link register save eliminated.
  54:e:/LiteOS/LiteOS/targets/Cloud_FM33A0XX/GCC/../../../targets/Cloud_FM33A0XX/Drivers\fm33a0xx_pmu.c **** 	return (PMU->LPMCFG & PMU_LPMCFG_XTOFF_Msk);
  75              		.loc 1 54 0
  76 0000 024B     		ldr	r3, .L5
  77 0002 1868     		ldr	r0, [r3]
  78 0004 C023     		movs	r3, #192
  79 0006 1B03     		lsls	r3, r3, #12
  80 0008 1840     		ands	r0, r3
  55:e:/LiteOS/LiteOS/targets/Cloud_FM33A0XX/GCC/../../../targets/Cloud_FM33A0XX/Drivers\fm33a0xx_pmu.c **** }
  81              		.loc 1 55 0
  82              		@ sp needed
  83 000a 7047     		bx	lr
  84              	.L6:
  85              		.align	2
  86              	.L5:
  87 000c 00010040 		.word	1073742080
  88              		.cfi_endproc
  89              	.LFE37:
  91              		.section	.text.PMU_LPMCFG_LDO15EN_Chk,"ax",%progbits
  92              		.align	2
  93              		.global	PMU_LPMCFG_LDO15EN_Chk
  94              		.code	16
  95              		.thumb_func
  97              	PMU_LPMCFG_LDO15EN_Chk:
  98              	.LFB38:
  56:e:/LiteOS/LiteOS/targets/Cloud_FM33A0XX/GCC/../../../targets/Cloud_FM33A0XX/Drivers\fm33a0xx_pmu.c **** 
  57:e:/LiteOS/LiteOS/targets/Cloud_FM33A0XX/GCC/../../../targets/Cloud_FM33A0XX/Drivers\fm33a0xx_pmu.c **** /* LDO15使能状态，只读 相关函数 */
  58:e:/LiteOS/LiteOS/targets/Cloud_FM33A0XX/GCC/../../../targets/Cloud_FM33A0XX/Drivers\fm33a0xx_pmu.c **** FlagStatus PMU_LPMCFG_LDO15EN_Chk(void)
  59:e:/LiteOS/LiteOS/targets/Cloud_FM33A0XX/GCC/../../../targets/Cloud_FM33A0XX/Drivers\fm33a0xx_pmu.c **** {
  99              		.loc 1 59 0
 100              		.cfi_startproc
 101              		@ args = 0, pretend = 0, frame = 0
 102              		@ frame_needed = 0, uses_anonymous_args = 0
 103              		@ link register save eliminated.
  60:e:/LiteOS/LiteOS/targets/Cloud_FM33A0XX/GCC/../../../targets/Cloud_FM33A0XX/Drivers\fm33a0xx_pmu.c **** 	if (PMU->LPMCFG & PMU_LPMCFG_LDO15EN_Msk)
 104              		.loc 1 60 0
 105 0000 034B     		ldr	r3, .L10
 106 0002 1B68     		ldr	r3, [r3]
 107 0004 9B03     		lsls	r3, r3, #14
 108 0006 01D5     		bpl	.L9
  61:e:/LiteOS/LiteOS/targets/Cloud_FM33A0XX/GCC/../../../targets/Cloud_FM33A0XX/Drivers\fm33a0xx_pmu.c **** 	{
  62:e:/LiteOS/LiteOS/targets/Cloud_FM33A0XX/GCC/../../../targets/Cloud_FM33A0XX/Drivers\fm33a0xx_pmu.c **** 		return SET;
 109              		.loc 1 62 0
 110 0008 0120     		movs	r0, #1
 111 000a 00E0     		b	.L8
 112              	.L9:
  63:e:/LiteOS/LiteOS/targets/Cloud_FM33A0XX/GCC/../../../targets/Cloud_FM33A0XX/Drivers\fm33a0xx_pmu.c **** 	}
  64:e:/LiteOS/LiteOS/targets/Cloud_FM33A0XX/GCC/../../../targets/Cloud_FM33A0XX/Drivers\fm33a0xx_pmu.c **** 	else
ARM GAS  C:\Users\WANGBI~1\AppData\Local\Temp\cc90GDgC.s 			page 4


  65:e:/LiteOS/LiteOS/targets/Cloud_FM33A0XX/GCC/../../../targets/Cloud_FM33A0XX/Drivers\fm33a0xx_pmu.c **** 	{
  66:e:/LiteOS/LiteOS/targets/Cloud_FM33A0XX/GCC/../../../targets/Cloud_FM33A0XX/Drivers\fm33a0xx_pmu.c **** 		return RESET;
 113              		.loc 1 66 0
 114 000c 0020     		movs	r0, #0
 115              	.L8:
  67:e:/LiteOS/LiteOS/targets/Cloud_FM33A0XX/GCC/../../../targets/Cloud_FM33A0XX/Drivers\fm33a0xx_pmu.c **** 	}
  68:e:/LiteOS/LiteOS/targets/Cloud_FM33A0XX/GCC/../../../targets/Cloud_FM33A0XX/Drivers\fm33a0xx_pmu.c **** }
 116              		.loc 1 68 0
 117              		@ sp needed
 118 000e 7047     		bx	lr
 119              	.L11:
 120              		.align	2
 121              	.L10:
 122 0010 00010040 		.word	1073742080
 123              		.cfi_endproc
 124              	.LFE38:
 126              		.section	.text.PMU_LPMCFG_DSLPRAM_EXT_Set,"ax",%progbits
 127              		.align	2
 128              		.global	PMU_LPMCFG_DSLPRAM_EXT_Set
 129              		.code	16
 130              		.thumb_func
 132              	PMU_LPMCFG_DSLPRAM_EXT_Set:
 133              	.LFB39:
  69:e:/LiteOS/LiteOS/targets/Cloud_FM33A0XX/GCC/../../../targets/Cloud_FM33A0XX/Drivers\fm33a0xx_pmu.c **** 
  70:e:/LiteOS/LiteOS/targets/Cloud_FM33A0XX/GCC/../../../targets/Cloud_FM33A0XX/Drivers\fm33a0xx_pmu.c **** /* DeepSleep模式下RAM数据保持配置位 相关函数 */
  71:e:/LiteOS/LiteOS/targets/Cloud_FM33A0XX/GCC/../../../targets/Cloud_FM33A0XX/Drivers\fm33a0xx_pmu.c **** void PMU_LPMCFG_DSLPRAM_EXT_Set(uint32_t SetValue)
  72:e:/LiteOS/LiteOS/targets/Cloud_FM33A0XX/GCC/../../../targets/Cloud_FM33A0XX/Drivers\fm33a0xx_pmu.c **** {
 134              		.loc 1 72 0
 135              		.cfi_startproc
 136              		@ args = 0, pretend = 0, frame = 0
 137              		@ frame_needed = 0, uses_anonymous_args = 0
 138              		@ link register save eliminated.
 139              	.LVL5:
  73:e:/LiteOS/LiteOS/targets/Cloud_FM33A0XX/GCC/../../../targets/Cloud_FM33A0XX/Drivers\fm33a0xx_pmu.c **** 	uint32_t tmpreg;
  74:e:/LiteOS/LiteOS/targets/Cloud_FM33A0XX/GCC/../../../targets/Cloud_FM33A0XX/Drivers\fm33a0xx_pmu.c **** 	tmpreg = PMU->LPMCFG;
 140              		.loc 1 74 0
 141 0000 0449     		ldr	r1, .L13
 142 0002 0A68     		ldr	r2, [r1]
 143              	.LVL6:
  75:e:/LiteOS/LiteOS/targets/Cloud_FM33A0XX/GCC/../../../targets/Cloud_FM33A0XX/Drivers\fm33a0xx_pmu.c **** 	tmpreg &= ~(PMU_LPMCFG_DSLPRAM_EXT_Msk);
 144              		.loc 1 75 0
 145 0004 044B     		ldr	r3, .L13+4
 146 0006 1A40     		ands	r2, r3
 147              	.LVL7:
  76:e:/LiteOS/LiteOS/targets/Cloud_FM33A0XX/GCC/../../../targets/Cloud_FM33A0XX/Drivers\fm33a0xx_pmu.c **** 	tmpreg |= (SetValue & PMU_LPMCFG_DSLPRAM_EXT_Msk);
 148              		.loc 1 76 0
 149 0008 8023     		movs	r3, #128
 150 000a DB00     		lsls	r3, r3, #3
 151 000c 1840     		ands	r0, r3
 152              	.LVL8:
 153 000e 1043     		orrs	r0, r2
 154              	.LVL9:
  77:e:/LiteOS/LiteOS/targets/Cloud_FM33A0XX/GCC/../../../targets/Cloud_FM33A0XX/Drivers\fm33a0xx_pmu.c **** 	PMU->LPMCFG = tmpreg;
 155              		.loc 1 77 0
 156 0010 0860     		str	r0, [r1]
  78:e:/LiteOS/LiteOS/targets/Cloud_FM33A0XX/GCC/../../../targets/Cloud_FM33A0XX/Drivers\fm33a0xx_pmu.c **** }
 157              		.loc 1 78 0
ARM GAS  C:\Users\WANGBI~1\AppData\Local\Temp\cc90GDgC.s 			page 5


 158              		@ sp needed
 159 0012 7047     		bx	lr
 160              	.L14:
 161              		.align	2
 162              	.L13:
 163 0014 00010040 		.word	1073742080
 164 0018 FFFBFFFF 		.word	-1025
 165              		.cfi_endproc
 166              	.LFE39:
 168              		.section	.text.PMU_LPMCFG_DSLPRAM_EXT_Get,"ax",%progbits
 169              		.align	2
 170              		.global	PMU_LPMCFG_DSLPRAM_EXT_Get
 171              		.code	16
 172              		.thumb_func
 174              	PMU_LPMCFG_DSLPRAM_EXT_Get:
 175              	.LFB40:
  79:e:/LiteOS/LiteOS/targets/Cloud_FM33A0XX/GCC/../../../targets/Cloud_FM33A0XX/Drivers\fm33a0xx_pmu.c **** 
  80:e:/LiteOS/LiteOS/targets/Cloud_FM33A0XX/GCC/../../../targets/Cloud_FM33A0XX/Drivers\fm33a0xx_pmu.c **** uint32_t PMU_LPMCFG_DSLPRAM_EXT_Get(void)
  81:e:/LiteOS/LiteOS/targets/Cloud_FM33A0XX/GCC/../../../targets/Cloud_FM33A0XX/Drivers\fm33a0xx_pmu.c **** {
 176              		.loc 1 81 0
 177              		.cfi_startproc
 178              		@ args = 0, pretend = 0, frame = 0
 179              		@ frame_needed = 0, uses_anonymous_args = 0
 180              		@ link register save eliminated.
  82:e:/LiteOS/LiteOS/targets/Cloud_FM33A0XX/GCC/../../../targets/Cloud_FM33A0XX/Drivers\fm33a0xx_pmu.c **** 	return (PMU->LPMCFG & PMU_LPMCFG_DSLPRAM_EXT_Msk);
 181              		.loc 1 82 0
 182 0000 024B     		ldr	r3, .L16
 183 0002 1868     		ldr	r0, [r3]
 184 0004 8023     		movs	r3, #128
 185 0006 DB00     		lsls	r3, r3, #3
 186 0008 1840     		ands	r0, r3
  83:e:/LiteOS/LiteOS/targets/Cloud_FM33A0XX/GCC/../../../targets/Cloud_FM33A0XX/Drivers\fm33a0xx_pmu.c **** }
 187              		.loc 1 83 0
 188              		@ sp needed
 189 000a 7047     		bx	lr
 190              	.L17:
 191              		.align	2
 192              	.L16:
 193 000c 00010040 		.word	1073742080
 194              		.cfi_endproc
 195              	.LFE40:
 197              		.section	.text.PMU_LPMCFG_SLPDP_Set,"ax",%progbits
 198              		.align	2
 199              		.global	PMU_LPMCFG_SLPDP_Set
 200              		.code	16
 201              		.thumb_func
 203              	PMU_LPMCFG_SLPDP_Set:
 204              	.LFB41:
  84:e:/LiteOS/LiteOS/targets/Cloud_FM33A0XX/GCC/../../../targets/Cloud_FM33A0XX/Drivers\fm33a0xx_pmu.c **** 
  85:e:/LiteOS/LiteOS/targets/Cloud_FM33A0XX/GCC/../../../targets/Cloud_FM33A0XX/Drivers\fm33a0xx_pmu.c **** /* DeepSleep控制寄 相关函数 */
  86:e:/LiteOS/LiteOS/targets/Cloud_FM33A0XX/GCC/../../../targets/Cloud_FM33A0XX/Drivers\fm33a0xx_pmu.c **** void PMU_LPMCFG_SLPDP_Set(uint32_t SetValue)
  87:e:/LiteOS/LiteOS/targets/Cloud_FM33A0XX/GCC/../../../targets/Cloud_FM33A0XX/Drivers\fm33a0xx_pmu.c **** {
 205              		.loc 1 87 0
 206              		.cfi_startproc
 207              		@ args = 0, pretend = 0, frame = 0
 208              		@ frame_needed = 0, uses_anonymous_args = 0
 209              		@ link register save eliminated.
ARM GAS  C:\Users\WANGBI~1\AppData\Local\Temp\cc90GDgC.s 			page 6


 210              	.LVL10:
  88:e:/LiteOS/LiteOS/targets/Cloud_FM33A0XX/GCC/../../../targets/Cloud_FM33A0XX/Drivers\fm33a0xx_pmu.c **** 	uint32_t tmpreg;
  89:e:/LiteOS/LiteOS/targets/Cloud_FM33A0XX/GCC/../../../targets/Cloud_FM33A0XX/Drivers\fm33a0xx_pmu.c **** 	tmpreg = PMU->LPMCFG;
 211              		.loc 1 89 0
 212 0000 0449     		ldr	r1, .L19
 213 0002 0A68     		ldr	r2, [r1]
 214              	.LVL11:
  90:e:/LiteOS/LiteOS/targets/Cloud_FM33A0XX/GCC/../../../targets/Cloud_FM33A0XX/Drivers\fm33a0xx_pmu.c **** 	tmpreg &= ~(PMU_LPMCFG_SLPDP_Msk);
 215              		.loc 1 90 0
 216 0004 044B     		ldr	r3, .L19+4
 217 0006 1A40     		ands	r2, r3
 218              	.LVL12:
  91:e:/LiteOS/LiteOS/targets/Cloud_FM33A0XX/GCC/../../../targets/Cloud_FM33A0XX/Drivers\fm33a0xx_pmu.c **** 	tmpreg |= (SetValue & PMU_LPMCFG_SLPDP_Msk);
 219              		.loc 1 91 0
 220 0008 8023     		movs	r3, #128
 221 000a 9B00     		lsls	r3, r3, #2
 222 000c 1840     		ands	r0, r3
 223              	.LVL13:
 224 000e 1043     		orrs	r0, r2
 225              	.LVL14:
  92:e:/LiteOS/LiteOS/targets/Cloud_FM33A0XX/GCC/../../../targets/Cloud_FM33A0XX/Drivers\fm33a0xx_pmu.c **** 	PMU->LPMCFG = tmpreg;
 226              		.loc 1 92 0
 227 0010 0860     		str	r0, [r1]
  93:e:/LiteOS/LiteOS/targets/Cloud_FM33A0XX/GCC/../../../targets/Cloud_FM33A0XX/Drivers\fm33a0xx_pmu.c **** }
 228              		.loc 1 93 0
 229              		@ sp needed
 230 0012 7047     		bx	lr
 231              	.L20:
 232              		.align	2
 233              	.L19:
 234 0014 00010040 		.word	1073742080
 235 0018 FFFDFFFF 		.word	-513
 236              		.cfi_endproc
 237              	.LFE41:
 239              		.section	.text.PMU_LPMCFG_SLPDP_Get,"ax",%progbits
 240              		.align	2
 241              		.global	PMU_LPMCFG_SLPDP_Get
 242              		.code	16
 243              		.thumb_func
 245              	PMU_LPMCFG_SLPDP_Get:
 246              	.LFB42:
  94:e:/LiteOS/LiteOS/targets/Cloud_FM33A0XX/GCC/../../../targets/Cloud_FM33A0XX/Drivers\fm33a0xx_pmu.c **** 
  95:e:/LiteOS/LiteOS/targets/Cloud_FM33A0XX/GCC/../../../targets/Cloud_FM33A0XX/Drivers\fm33a0xx_pmu.c **** uint32_t PMU_LPMCFG_SLPDP_Get(void)
  96:e:/LiteOS/LiteOS/targets/Cloud_FM33A0XX/GCC/../../../targets/Cloud_FM33A0XX/Drivers\fm33a0xx_pmu.c **** {
 247              		.loc 1 96 0
 248              		.cfi_startproc
 249              		@ args = 0, pretend = 0, frame = 0
 250              		@ frame_needed = 0, uses_anonymous_args = 0
 251              		@ link register save eliminated.
  97:e:/LiteOS/LiteOS/targets/Cloud_FM33A0XX/GCC/../../../targets/Cloud_FM33A0XX/Drivers\fm33a0xx_pmu.c **** 	return (PMU->LPMCFG & PMU_LPMCFG_SLPDP_Msk);
 252              		.loc 1 97 0
 253 0000 024B     		ldr	r3, .L22
 254 0002 1868     		ldr	r0, [r3]
 255 0004 8023     		movs	r3, #128
 256 0006 9B00     		lsls	r3, r3, #2
 257 0008 1840     		ands	r0, r3
  98:e:/LiteOS/LiteOS/targets/Cloud_FM33A0XX/GCC/../../../targets/Cloud_FM33A0XX/Drivers\fm33a0xx_pmu.c **** }
ARM GAS  C:\Users\WANGBI~1\AppData\Local\Temp\cc90GDgC.s 			page 7


 258              		.loc 1 98 0
 259              		@ sp needed
 260 000a 7047     		bx	lr
 261              	.L23:
 262              		.align	2
 263              	.L22:
 264 000c 00010040 		.word	1073742080
 265              		.cfi_endproc
 266              	.LFE42:
 268              		.section	.text.PMU_LPMCFG_CVS_Setable,"ax",%progbits
 269              		.align	2
 270              		.global	PMU_LPMCFG_CVS_Setable
 271              		.code	16
 272              		.thumb_func
 274              	PMU_LPMCFG_CVS_Setable:
 275              	.LFB43:
  99:e:/LiteOS/LiteOS/targets/Cloud_FM33A0XX/GCC/../../../targets/Cloud_FM33A0XX/Drivers\fm33a0xx_pmu.c **** 
 100:e:/LiteOS/LiteOS/targets/Cloud_FM33A0XX/GCC/../../../targets/Cloud_FM33A0XX/Drivers\fm33a0xx_pmu.c **** /* 低功耗模式内核电压降低 相关函数 */
 101:e:/LiteOS/LiteOS/targets/Cloud_FM33A0XX/GCC/../../../targets/Cloud_FM33A0XX/Drivers\fm33a0xx_pmu.c **** void PMU_LPMCFG_CVS_Setable(FunState NewState)
 102:e:/LiteOS/LiteOS/targets/Cloud_FM33A0XX/GCC/../../../targets/Cloud_FM33A0XX/Drivers\fm33a0xx_pmu.c **** {
 276              		.loc 1 102 0
 277              		.cfi_startproc
 278              		@ args = 0, pretend = 0, frame = 0
 279              		@ frame_needed = 0, uses_anonymous_args = 0
 280              		@ link register save eliminated.
 281              	.LVL15:
 103:e:/LiteOS/LiteOS/targets/Cloud_FM33A0XX/GCC/../../../targets/Cloud_FM33A0XX/Drivers\fm33a0xx_pmu.c **** 	if (NewState == ENABLE)
 282              		.loc 1 103 0
 283 0000 0128     		cmp	r0, #1
 284 0002 06D1     		bne	.L25
 104:e:/LiteOS/LiteOS/targets/Cloud_FM33A0XX/GCC/../../../targets/Cloud_FM33A0XX/Drivers\fm33a0xx_pmu.c **** 	{
 105:e:/LiteOS/LiteOS/targets/Cloud_FM33A0XX/GCC/../../../targets/Cloud_FM33A0XX/Drivers\fm33a0xx_pmu.c **** 		PMU->LPMCFG |= (PMU_LPMCFG_CVS_Msk);
 285              		.loc 1 105 0
 286 0004 064A     		ldr	r2, .L27
 287 0006 1368     		ldr	r3, [r2]
 288 0008 8021     		movs	r1, #128
 289 000a 4900     		lsls	r1, r1, #1
 290 000c 0B43     		orrs	r3, r1
 291 000e 1360     		str	r3, [r2]
 292 0010 04E0     		b	.L24
 293              	.L25:
 106:e:/LiteOS/LiteOS/targets/Cloud_FM33A0XX/GCC/../../../targets/Cloud_FM33A0XX/Drivers\fm33a0xx_pmu.c **** 	}
 107:e:/LiteOS/LiteOS/targets/Cloud_FM33A0XX/GCC/../../../targets/Cloud_FM33A0XX/Drivers\fm33a0xx_pmu.c **** 	else
 108:e:/LiteOS/LiteOS/targets/Cloud_FM33A0XX/GCC/../../../targets/Cloud_FM33A0XX/Drivers\fm33a0xx_pmu.c **** 	{
 109:e:/LiteOS/LiteOS/targets/Cloud_FM33A0XX/GCC/../../../targets/Cloud_FM33A0XX/Drivers\fm33a0xx_pmu.c **** 		PMU->LPMCFG &= ~(PMU_LPMCFG_CVS_Msk);
 294              		.loc 1 109 0
 295 0012 034A     		ldr	r2, .L27
 296 0014 1168     		ldr	r1, [r2]
 297 0016 034B     		ldr	r3, .L27+4
 298 0018 0B40     		ands	r3, r1
 299 001a 1360     		str	r3, [r2]
 300              	.L24:
 110:e:/LiteOS/LiteOS/targets/Cloud_FM33A0XX/GCC/../../../targets/Cloud_FM33A0XX/Drivers\fm33a0xx_pmu.c **** 	}
 111:e:/LiteOS/LiteOS/targets/Cloud_FM33A0XX/GCC/../../../targets/Cloud_FM33A0XX/Drivers\fm33a0xx_pmu.c **** }
 301              		.loc 1 111 0
 302              		@ sp needed
 303 001c 7047     		bx	lr
ARM GAS  C:\Users\WANGBI~1\AppData\Local\Temp\cc90GDgC.s 			page 8


 304              	.L28:
 305 001e C046     		.align	2
 306              	.L27:
 307 0020 00010040 		.word	1073742080
 308 0024 FFFEFFFF 		.word	-257
 309              		.cfi_endproc
 310              	.LFE43:
 312              		.section	.text.PMU_LPMCFG_CVS_Getable,"ax",%progbits
 313              		.align	2
 314              		.global	PMU_LPMCFG_CVS_Getable
 315              		.code	16
 316              		.thumb_func
 318              	PMU_LPMCFG_CVS_Getable:
 319              	.LFB44:
 112:e:/LiteOS/LiteOS/targets/Cloud_FM33A0XX/GCC/../../../targets/Cloud_FM33A0XX/Drivers\fm33a0xx_pmu.c **** 
 113:e:/LiteOS/LiteOS/targets/Cloud_FM33A0XX/GCC/../../../targets/Cloud_FM33A0XX/Drivers\fm33a0xx_pmu.c **** FunState PMU_LPMCFG_CVS_Getable(void)
 114:e:/LiteOS/LiteOS/targets/Cloud_FM33A0XX/GCC/../../../targets/Cloud_FM33A0XX/Drivers\fm33a0xx_pmu.c **** {
 320              		.loc 1 114 0
 321              		.cfi_startproc
 322              		@ args = 0, pretend = 0, frame = 0
 323              		@ frame_needed = 0, uses_anonymous_args = 0
 324              		@ link register save eliminated.
 115:e:/LiteOS/LiteOS/targets/Cloud_FM33A0XX/GCC/../../../targets/Cloud_FM33A0XX/Drivers\fm33a0xx_pmu.c **** 	if (PMU->LPMCFG & (PMU_LPMCFG_CVS_Msk))
 325              		.loc 1 115 0
 326 0000 034B     		ldr	r3, .L32
 327 0002 1B68     		ldr	r3, [r3]
 328 0004 DB05     		lsls	r3, r3, #23
 329 0006 01D5     		bpl	.L31
 116:e:/LiteOS/LiteOS/targets/Cloud_FM33A0XX/GCC/../../../targets/Cloud_FM33A0XX/Drivers\fm33a0xx_pmu.c **** 	{
 117:e:/LiteOS/LiteOS/targets/Cloud_FM33A0XX/GCC/../../../targets/Cloud_FM33A0XX/Drivers\fm33a0xx_pmu.c **** 		return ENABLE;
 330              		.loc 1 117 0
 331 0008 0120     		movs	r0, #1
 332 000a 00E0     		b	.L30
 333              	.L31:
 118:e:/LiteOS/LiteOS/targets/Cloud_FM33A0XX/GCC/../../../targets/Cloud_FM33A0XX/Drivers\fm33a0xx_pmu.c **** 	}
 119:e:/LiteOS/LiteOS/targets/Cloud_FM33A0XX/GCC/../../../targets/Cloud_FM33A0XX/Drivers\fm33a0xx_pmu.c **** 	else
 120:e:/LiteOS/LiteOS/targets/Cloud_FM33A0XX/GCC/../../../targets/Cloud_FM33A0XX/Drivers\fm33a0xx_pmu.c **** 	{
 121:e:/LiteOS/LiteOS/targets/Cloud_FM33A0XX/GCC/../../../targets/Cloud_FM33A0XX/Drivers\fm33a0xx_pmu.c **** 		return DISABLE;
 334              		.loc 1 121 0
 335 000c 0020     		movs	r0, #0
 336              	.L30:
 122:e:/LiteOS/LiteOS/targets/Cloud_FM33A0XX/GCC/../../../targets/Cloud_FM33A0XX/Drivers\fm33a0xx_pmu.c **** 	}
 123:e:/LiteOS/LiteOS/targets/Cloud_FM33A0XX/GCC/../../../targets/Cloud_FM33A0XX/Drivers\fm33a0xx_pmu.c **** }
 337              		.loc 1 123 0
 338              		@ sp needed
 339 000e 7047     		bx	lr
 340              	.L33:
 341              		.align	2
 342              	.L32:
 343 0010 00010040 		.word	1073742080
 344              		.cfi_endproc
 345              	.LFE44:
 347              		.section	.text.PMU_LPMCFG_PMOD_Set,"ax",%progbits
 348              		.align	2
 349              		.global	PMU_LPMCFG_PMOD_Set
 350              		.code	16
 351              		.thumb_func
ARM GAS  C:\Users\WANGBI~1\AppData\Local\Temp\cc90GDgC.s 			page 9


 353              	PMU_LPMCFG_PMOD_Set:
 354              	.LFB45:
 124:e:/LiteOS/LiteOS/targets/Cloud_FM33A0XX/GCC/../../../targets/Cloud_FM33A0XX/Drivers\fm33a0xx_pmu.c **** 
 125:e:/LiteOS/LiteOS/targets/Cloud_FM33A0XX/GCC/../../../targets/Cloud_FM33A0XX/Drivers\fm33a0xx_pmu.c **** /* 低功耗模式配置寄存器 相关函数 */
 126:e:/LiteOS/LiteOS/targets/Cloud_FM33A0XX/GCC/../../../targets/Cloud_FM33A0XX/Drivers\fm33a0xx_pmu.c **** void PMU_LPMCFG_PMOD_Set(uint32_t SetValue)
 127:e:/LiteOS/LiteOS/targets/Cloud_FM33A0XX/GCC/../../../targets/Cloud_FM33A0XX/Drivers\fm33a0xx_pmu.c **** {
 355              		.loc 1 127 0
 356              		.cfi_startproc
 357              		@ args = 0, pretend = 0, frame = 0
 358              		@ frame_needed = 0, uses_anonymous_args = 0
 359              		@ link register save eliminated.
 360              	.LVL16:
 128:e:/LiteOS/LiteOS/targets/Cloud_FM33A0XX/GCC/../../../targets/Cloud_FM33A0XX/Drivers\fm33a0xx_pmu.c **** 	uint32_t tmpreg;
 129:e:/LiteOS/LiteOS/targets/Cloud_FM33A0XX/GCC/../../../targets/Cloud_FM33A0XX/Drivers\fm33a0xx_pmu.c **** 	tmpreg = PMU->LPMCFG;
 361              		.loc 1 129 0
 362 0000 034A     		ldr	r2, .L35
 363 0002 1368     		ldr	r3, [r2]
 364              	.LVL17:
 130:e:/LiteOS/LiteOS/targets/Cloud_FM33A0XX/GCC/../../../targets/Cloud_FM33A0XX/Drivers\fm33a0xx_pmu.c **** 	tmpreg &= ~(PMU_LPMCFG_PMOD_Msk);
 365              		.loc 1 130 0
 366 0004 0321     		movs	r1, #3
 367 0006 8B43     		bics	r3, r1
 368              	.LVL18:
 131:e:/LiteOS/LiteOS/targets/Cloud_FM33A0XX/GCC/../../../targets/Cloud_FM33A0XX/Drivers\fm33a0xx_pmu.c **** 	tmpreg |= (SetValue & PMU_LPMCFG_PMOD_Msk);
 369              		.loc 1 131 0
 370 0008 0840     		ands	r0, r1
 371              	.LVL19:
 372 000a 1843     		orrs	r0, r3
 373              	.LVL20:
 132:e:/LiteOS/LiteOS/targets/Cloud_FM33A0XX/GCC/../../../targets/Cloud_FM33A0XX/Drivers\fm33a0xx_pmu.c **** 	PMU->LPMCFG = tmpreg;
 374              		.loc 1 132 0
 375 000c 1060     		str	r0, [r2]
 133:e:/LiteOS/LiteOS/targets/Cloud_FM33A0XX/GCC/../../../targets/Cloud_FM33A0XX/Drivers\fm33a0xx_pmu.c **** }
 376              		.loc 1 133 0
 377              		@ sp needed
 378 000e 7047     		bx	lr
 379              	.L36:
 380              		.align	2
 381              	.L35:
 382 0010 00010040 		.word	1073742080
 383              		.cfi_endproc
 384              	.LFE45:
 386              		.section	.text.PMU_LPMCFG_PMOD_Get,"ax",%progbits
 387              		.align	2
 388              		.global	PMU_LPMCFG_PMOD_Get
 389              		.code	16
 390              		.thumb_func
 392              	PMU_LPMCFG_PMOD_Get:
 393              	.LFB46:
 134:e:/LiteOS/LiteOS/targets/Cloud_FM33A0XX/GCC/../../../targets/Cloud_FM33A0XX/Drivers\fm33a0xx_pmu.c **** 
 135:e:/LiteOS/LiteOS/targets/Cloud_FM33A0XX/GCC/../../../targets/Cloud_FM33A0XX/Drivers\fm33a0xx_pmu.c **** uint32_t PMU_LPMCFG_PMOD_Get(void)
 136:e:/LiteOS/LiteOS/targets/Cloud_FM33A0XX/GCC/../../../targets/Cloud_FM33A0XX/Drivers\fm33a0xx_pmu.c **** {
 394              		.loc 1 136 0
 395              		.cfi_startproc
 396              		@ args = 0, pretend = 0, frame = 0
 397              		@ frame_needed = 0, uses_anonymous_args = 0
 398              		@ link register save eliminated.
ARM GAS  C:\Users\WANGBI~1\AppData\Local\Temp\cc90GDgC.s 			page 10


 137:e:/LiteOS/LiteOS/targets/Cloud_FM33A0XX/GCC/../../../targets/Cloud_FM33A0XX/Drivers\fm33a0xx_pmu.c **** 	return (PMU->LPMCFG & PMU_LPMCFG_PMOD_Msk);
 399              		.loc 1 137 0
 400 0000 024B     		ldr	r3, .L38
 401 0002 1B68     		ldr	r3, [r3]
 402 0004 0320     		movs	r0, #3
 403 0006 1840     		ands	r0, r3
 138:e:/LiteOS/LiteOS/targets/Cloud_FM33A0XX/GCC/../../../targets/Cloud_FM33A0XX/Drivers\fm33a0xx_pmu.c **** }
 404              		.loc 1 138 0
 405              		@ sp needed
 406 0008 7047     		bx	lr
 407              	.L39:
 408 000a C046     		.align	2
 409              	.L38:
 410 000c 00010040 		.word	1073742080
 411              		.cfi_endproc
 412              	.LFE46:
 414              		.section	.text.PMU_WKDLYCON_TRHR_Set,"ax",%progbits
 415              		.align	2
 416              		.global	PMU_WKDLYCON_TRHR_Set
 417              		.code	16
 418              		.thumb_func
 420              	PMU_WKDLYCON_TRHR_Set:
 421              	.LFB47:
 139:e:/LiteOS/LiteOS/targets/Cloud_FM33A0XX/GCC/../../../targets/Cloud_FM33A0XX/Drivers\fm33a0xx_pmu.c **** 
 140:e:/LiteOS/LiteOS/targets/Cloud_FM33A0XX/GCC/../../../targets/Cloud_FM33A0XX/Drivers\fm33a0xx_pmu.c **** /* 唤醒时间控制寄存器 相关函数 */
 141:e:/LiteOS/LiteOS/targets/Cloud_FM33A0XX/GCC/../../../targets/Cloud_FM33A0XX/Drivers\fm33a0xx_pmu.c **** void PMU_WKDLYCON_TRHR_Set(uint32_t SetValue)
 142:e:/LiteOS/LiteOS/targets/Cloud_FM33A0XX/GCC/../../../targets/Cloud_FM33A0XX/Drivers\fm33a0xx_pmu.c **** {
 422              		.loc 1 142 0
 423              		.cfi_startproc
 424              		@ args = 0, pretend = 0, frame = 0
 425              		@ frame_needed = 0, uses_anonymous_args = 0
 426              		@ link register save eliminated.
 427              	.LVL21:
 143:e:/LiteOS/LiteOS/targets/Cloud_FM33A0XX/GCC/../../../targets/Cloud_FM33A0XX/Drivers\fm33a0xx_pmu.c **** 	uint32_t tmpreg;
 144:e:/LiteOS/LiteOS/targets/Cloud_FM33A0XX/GCC/../../../targets/Cloud_FM33A0XX/Drivers\fm33a0xx_pmu.c **** 	tmpreg = PMU->WKDLYCON;
 428              		.loc 1 144 0
 429 0000 034A     		ldr	r2, .L41
 430 0002 5368     		ldr	r3, [r2, #4]
 431              	.LVL22:
 145:e:/LiteOS/LiteOS/targets/Cloud_FM33A0XX/GCC/../../../targets/Cloud_FM33A0XX/Drivers\fm33a0xx_pmu.c **** 	tmpreg &= ~(PMU_WKDLYCON_TRHR_Msk);
 432              		.loc 1 145 0
 433 0004 0321     		movs	r1, #3
 434 0006 8B43     		bics	r3, r1
 435              	.LVL23:
 146:e:/LiteOS/LiteOS/targets/Cloud_FM33A0XX/GCC/../../../targets/Cloud_FM33A0XX/Drivers\fm33a0xx_pmu.c **** 	tmpreg |= (SetValue & PMU_WKDLYCON_TRHR_Msk);
 436              		.loc 1 146 0
 437 0008 0840     		ands	r0, r1
 438              	.LVL24:
 439 000a 1843     		orrs	r0, r3
 440              	.LVL25:
 147:e:/LiteOS/LiteOS/targets/Cloud_FM33A0XX/GCC/../../../targets/Cloud_FM33A0XX/Drivers\fm33a0xx_pmu.c **** 	PMU->WKDLYCON = tmpreg;
 441              		.loc 1 147 0
 442 000c 5060     		str	r0, [r2, #4]
 148:e:/LiteOS/LiteOS/targets/Cloud_FM33A0XX/GCC/../../../targets/Cloud_FM33A0XX/Drivers\fm33a0xx_pmu.c **** }
 443              		.loc 1 148 0
 444              		@ sp needed
 445 000e 7047     		bx	lr
ARM GAS  C:\Users\WANGBI~1\AppData\Local\Temp\cc90GDgC.s 			page 11


 446              	.L42:
 447              		.align	2
 448              	.L41:
 449 0010 00010040 		.word	1073742080
 450              		.cfi_endproc
 451              	.LFE47:
 453              		.section	.text.PMU_WKDLYCON_TRHR_Get,"ax",%progbits
 454              		.align	2
 455              		.global	PMU_WKDLYCON_TRHR_Get
 456              		.code	16
 457              		.thumb_func
 459              	PMU_WKDLYCON_TRHR_Get:
 460              	.LFB48:
 149:e:/LiteOS/LiteOS/targets/Cloud_FM33A0XX/GCC/../../../targets/Cloud_FM33A0XX/Drivers\fm33a0xx_pmu.c **** 
 150:e:/LiteOS/LiteOS/targets/Cloud_FM33A0XX/GCC/../../../targets/Cloud_FM33A0XX/Drivers\fm33a0xx_pmu.c **** uint32_t PMU_WKDLYCON_TRHR_Get(void)
 151:e:/LiteOS/LiteOS/targets/Cloud_FM33A0XX/GCC/../../../targets/Cloud_FM33A0XX/Drivers\fm33a0xx_pmu.c **** {
 461              		.loc 1 151 0
 462              		.cfi_startproc
 463              		@ args = 0, pretend = 0, frame = 0
 464              		@ frame_needed = 0, uses_anonymous_args = 0
 465              		@ link register save eliminated.
 152:e:/LiteOS/LiteOS/targets/Cloud_FM33A0XX/GCC/../../../targets/Cloud_FM33A0XX/Drivers\fm33a0xx_pmu.c **** 	return (PMU->WKDLYCON & PMU_WKDLYCON_TRHR_Msk);
 466              		.loc 1 152 0
 467 0000 024B     		ldr	r3, .L44
 468 0002 5B68     		ldr	r3, [r3, #4]
 469 0004 0320     		movs	r0, #3
 470 0006 1840     		ands	r0, r3
 153:e:/LiteOS/LiteOS/targets/Cloud_FM33A0XX/GCC/../../../targets/Cloud_FM33A0XX/Drivers\fm33a0xx_pmu.c **** }
 471              		.loc 1 153 0
 472              		@ sp needed
 473 0008 7047     		bx	lr
 474              	.L45:
 475 000a C046     		.align	2
 476              	.L44:
 477 000c 00010040 		.word	1073742080
 478              		.cfi_endproc
 479              	.LFE48:
 481              		.section	.text.PMU_WKPFLAG_DBGWKF_Clr,"ax",%progbits
 482              		.align	2
 483              		.global	PMU_WKPFLAG_DBGWKF_Clr
 484              		.code	16
 485              		.thumb_func
 487              	PMU_WKPFLAG_DBGWKF_Clr:
 488              	.LFB49:
 154:e:/LiteOS/LiteOS/targets/Cloud_FM33A0XX/GCC/../../../targets/Cloud_FM33A0XX/Drivers\fm33a0xx_pmu.c **** 
 155:e:/LiteOS/LiteOS/targets/Cloud_FM33A0XX/GCC/../../../targets/Cloud_FM33A0XX/Drivers\fm33a0xx_pmu.c **** /* CPU Debugger唤醒标志 相关函数 */
 156:e:/LiteOS/LiteOS/targets/Cloud_FM33A0XX/GCC/../../../targets/Cloud_FM33A0XX/Drivers\fm33a0xx_pmu.c **** void PMU_WKPFLAG_DBGWKF_Clr(void)
 157:e:/LiteOS/LiteOS/targets/Cloud_FM33A0XX/GCC/../../../targets/Cloud_FM33A0XX/Drivers\fm33a0xx_pmu.c **** {
 489              		.loc 1 157 0
 490              		.cfi_startproc
 491              		@ args = 0, pretend = 0, frame = 0
 492              		@ frame_needed = 0, uses_anonymous_args = 0
 493              		@ link register save eliminated.
 158:e:/LiteOS/LiteOS/targets/Cloud_FM33A0XX/GCC/../../../targets/Cloud_FM33A0XX/Drivers\fm33a0xx_pmu.c **** 	PMU->WKPFLAG = PMU_WKPFLAG_DBGWKF_Msk;
 494              		.loc 1 158 0
 495 0000 8022     		movs	r2, #128
 496 0002 5200     		lsls	r2, r2, #1
ARM GAS  C:\Users\WANGBI~1\AppData\Local\Temp\cc90GDgC.s 			page 12


 497 0004 014B     		ldr	r3, .L47
 498 0006 9A60     		str	r2, [r3, #8]
 159:e:/LiteOS/LiteOS/targets/Cloud_FM33A0XX/GCC/../../../targets/Cloud_FM33A0XX/Drivers\fm33a0xx_pmu.c **** }
 499              		.loc 1 159 0
 500              		@ sp needed
 501 0008 7047     		bx	lr
 502              	.L48:
 503 000a C046     		.align	2
 504              	.L47:
 505 000c 00010040 		.word	1073742080
 506              		.cfi_endproc
 507              	.LFE49:
 509              		.section	.text.PMU_WKPFLAG_DBGWKF_Chk,"ax",%progbits
 510              		.align	2
 511              		.global	PMU_WKPFLAG_DBGWKF_Chk
 512              		.code	16
 513              		.thumb_func
 515              	PMU_WKPFLAG_DBGWKF_Chk:
 516              	.LFB50:
 160:e:/LiteOS/LiteOS/targets/Cloud_FM33A0XX/GCC/../../../targets/Cloud_FM33A0XX/Drivers\fm33a0xx_pmu.c **** 
 161:e:/LiteOS/LiteOS/targets/Cloud_FM33A0XX/GCC/../../../targets/Cloud_FM33A0XX/Drivers\fm33a0xx_pmu.c **** FlagStatus PMU_WKPFLAG_DBGWKF_Chk(void)
 162:e:/LiteOS/LiteOS/targets/Cloud_FM33A0XX/GCC/../../../targets/Cloud_FM33A0XX/Drivers\fm33a0xx_pmu.c **** {
 517              		.loc 1 162 0
 518              		.cfi_startproc
 519              		@ args = 0, pretend = 0, frame = 0
 520              		@ frame_needed = 0, uses_anonymous_args = 0
 521              		@ link register save eliminated.
 163:e:/LiteOS/LiteOS/targets/Cloud_FM33A0XX/GCC/../../../targets/Cloud_FM33A0XX/Drivers\fm33a0xx_pmu.c **** 	if (PMU->WKPFLAG & PMU_WKPFLAG_DBGWKF_Msk)
 522              		.loc 1 163 0
 523 0000 034B     		ldr	r3, .L52
 524 0002 9B68     		ldr	r3, [r3, #8]
 525 0004 DB05     		lsls	r3, r3, #23
 526 0006 01D5     		bpl	.L51
 164:e:/LiteOS/LiteOS/targets/Cloud_FM33A0XX/GCC/../../../targets/Cloud_FM33A0XX/Drivers\fm33a0xx_pmu.c **** 	{
 165:e:/LiteOS/LiteOS/targets/Cloud_FM33A0XX/GCC/../../../targets/Cloud_FM33A0XX/Drivers\fm33a0xx_pmu.c **** 		return SET;
 527              		.loc 1 165 0
 528 0008 0120     		movs	r0, #1
 529 000a 00E0     		b	.L50
 530              	.L51:
 166:e:/LiteOS/LiteOS/targets/Cloud_FM33A0XX/GCC/../../../targets/Cloud_FM33A0XX/Drivers\fm33a0xx_pmu.c **** 	}
 167:e:/LiteOS/LiteOS/targets/Cloud_FM33A0XX/GCC/../../../targets/Cloud_FM33A0XX/Drivers\fm33a0xx_pmu.c **** 	else
 168:e:/LiteOS/LiteOS/targets/Cloud_FM33A0XX/GCC/../../../targets/Cloud_FM33A0XX/Drivers\fm33a0xx_pmu.c **** 	{
 169:e:/LiteOS/LiteOS/targets/Cloud_FM33A0XX/GCC/../../../targets/Cloud_FM33A0XX/Drivers\fm33a0xx_pmu.c **** 		return RESET;
 531              		.loc 1 169 0
 532 000c 0020     		movs	r0, #0
 533              	.L50:
 170:e:/LiteOS/LiteOS/targets/Cloud_FM33A0XX/GCC/../../../targets/Cloud_FM33A0XX/Drivers\fm33a0xx_pmu.c **** 	}
 171:e:/LiteOS/LiteOS/targets/Cloud_FM33A0XX/GCC/../../../targets/Cloud_FM33A0XX/Drivers\fm33a0xx_pmu.c **** }
 534              		.loc 1 171 0
 535              		@ sp needed
 536 000e 7047     		bx	lr
 537              	.L53:
 538              		.align	2
 539              	.L52:
 540 0010 00010040 		.word	1073742080
 541              		.cfi_endproc
 542              	.LFE50:
ARM GAS  C:\Users\WANGBI~1\AppData\Local\Temp\cc90GDgC.s 			page 13


 544              		.section	.text.PMU_LPREIE_SLPEIE_Setable,"ax",%progbits
 545              		.align	2
 546              		.global	PMU_LPREIE_SLPEIE_Setable
 547              		.code	16
 548              		.thumb_func
 550              	PMU_LPREIE_SLPEIE_Setable:
 551              	.LFB51:
 172:e:/LiteOS/LiteOS/targets/Cloud_FM33A0XX/GCC/../../../targets/Cloud_FM33A0XX/Drivers\fm33a0xx_pmu.c **** 
 173:e:/LiteOS/LiteOS/targets/Cloud_FM33A0XX/GCC/../../../targets/Cloud_FM33A0XX/Drivers\fm33a0xx_pmu.c **** /* SLEEP错误中断使能 相关函数 */
 174:e:/LiteOS/LiteOS/targets/Cloud_FM33A0XX/GCC/../../../targets/Cloud_FM33A0XX/Drivers\fm33a0xx_pmu.c **** void PMU_LPREIE_SLPEIE_Setable(FunState NewState)
 175:e:/LiteOS/LiteOS/targets/Cloud_FM33A0XX/GCC/../../../targets/Cloud_FM33A0XX/Drivers\fm33a0xx_pmu.c **** {
 552              		.loc 1 175 0
 553              		.cfi_startproc
 554              		@ args = 0, pretend = 0, frame = 0
 555              		@ frame_needed = 0, uses_anonymous_args = 0
 556              		@ link register save eliminated.
 557              	.LVL26:
 176:e:/LiteOS/LiteOS/targets/Cloud_FM33A0XX/GCC/../../../targets/Cloud_FM33A0XX/Drivers\fm33a0xx_pmu.c **** 	if (NewState == ENABLE)
 558              		.loc 1 176 0
 559 0000 0128     		cmp	r0, #1
 560 0002 05D1     		bne	.L55
 177:e:/LiteOS/LiteOS/targets/Cloud_FM33A0XX/GCC/../../../targets/Cloud_FM33A0XX/Drivers\fm33a0xx_pmu.c **** 	{
 178:e:/LiteOS/LiteOS/targets/Cloud_FM33A0XX/GCC/../../../targets/Cloud_FM33A0XX/Drivers\fm33a0xx_pmu.c **** 		PMU->LPREIE |= (PMU_LPREIE_SLPEIE_Msk);
 561              		.loc 1 178 0
 562 0004 054A     		ldr	r2, .L57
 563 0006 D168     		ldr	r1, [r2, #12]
 564 0008 0223     		movs	r3, #2
 565 000a 0B43     		orrs	r3, r1
 566 000c D360     		str	r3, [r2, #12]
 567 000e 04E0     		b	.L54
 568              	.L55:
 179:e:/LiteOS/LiteOS/targets/Cloud_FM33A0XX/GCC/../../../targets/Cloud_FM33A0XX/Drivers\fm33a0xx_pmu.c **** 	}
 180:e:/LiteOS/LiteOS/targets/Cloud_FM33A0XX/GCC/../../../targets/Cloud_FM33A0XX/Drivers\fm33a0xx_pmu.c **** 	else
 181:e:/LiteOS/LiteOS/targets/Cloud_FM33A0XX/GCC/../../../targets/Cloud_FM33A0XX/Drivers\fm33a0xx_pmu.c **** 	{
 182:e:/LiteOS/LiteOS/targets/Cloud_FM33A0XX/GCC/../../../targets/Cloud_FM33A0XX/Drivers\fm33a0xx_pmu.c **** 		PMU->LPREIE &= ~(PMU_LPREIE_SLPEIE_Msk);
 569              		.loc 1 182 0
 570 0010 024A     		ldr	r2, .L57
 571 0012 D368     		ldr	r3, [r2, #12]
 572 0014 0221     		movs	r1, #2
 573 0016 8B43     		bics	r3, r1
 574 0018 D360     		str	r3, [r2, #12]
 575              	.L54:
 183:e:/LiteOS/LiteOS/targets/Cloud_FM33A0XX/GCC/../../../targets/Cloud_FM33A0XX/Drivers\fm33a0xx_pmu.c **** 	}
 184:e:/LiteOS/LiteOS/targets/Cloud_FM33A0XX/GCC/../../../targets/Cloud_FM33A0XX/Drivers\fm33a0xx_pmu.c **** }
 576              		.loc 1 184 0
 577              		@ sp needed
 578 001a 7047     		bx	lr
 579              	.L58:
 580              		.align	2
 581              	.L57:
 582 001c 00010040 		.word	1073742080
 583              		.cfi_endproc
 584              	.LFE51:
 586              		.section	.text.PMU_LPREIE_SLPEIE_Getable,"ax",%progbits
 587              		.align	2
 588              		.global	PMU_LPREIE_SLPEIE_Getable
 589              		.code	16
ARM GAS  C:\Users\WANGBI~1\AppData\Local\Temp\cc90GDgC.s 			page 14


 590              		.thumb_func
 592              	PMU_LPREIE_SLPEIE_Getable:
 593              	.LFB52:
 185:e:/LiteOS/LiteOS/targets/Cloud_FM33A0XX/GCC/../../../targets/Cloud_FM33A0XX/Drivers\fm33a0xx_pmu.c **** 
 186:e:/LiteOS/LiteOS/targets/Cloud_FM33A0XX/GCC/../../../targets/Cloud_FM33A0XX/Drivers\fm33a0xx_pmu.c **** FunState PMU_LPREIE_SLPEIE_Getable(void)
 187:e:/LiteOS/LiteOS/targets/Cloud_FM33A0XX/GCC/../../../targets/Cloud_FM33A0XX/Drivers\fm33a0xx_pmu.c **** {
 594              		.loc 1 187 0
 595              		.cfi_startproc
 596              		@ args = 0, pretend = 0, frame = 0
 597              		@ frame_needed = 0, uses_anonymous_args = 0
 598              		@ link register save eliminated.
 188:e:/LiteOS/LiteOS/targets/Cloud_FM33A0XX/GCC/../../../targets/Cloud_FM33A0XX/Drivers\fm33a0xx_pmu.c **** 	if (PMU->LPREIE & (PMU_LPREIE_SLPEIE_Msk))
 599              		.loc 1 188 0
 600 0000 034B     		ldr	r3, .L62
 601 0002 DB68     		ldr	r3, [r3, #12]
 602 0004 9B07     		lsls	r3, r3, #30
 603 0006 01D5     		bpl	.L61
 189:e:/LiteOS/LiteOS/targets/Cloud_FM33A0XX/GCC/../../../targets/Cloud_FM33A0XX/Drivers\fm33a0xx_pmu.c **** 	{
 190:e:/LiteOS/LiteOS/targets/Cloud_FM33A0XX/GCC/../../../targets/Cloud_FM33A0XX/Drivers\fm33a0xx_pmu.c **** 		return ENABLE;
 604              		.loc 1 190 0
 605 0008 0120     		movs	r0, #1
 606 000a 00E0     		b	.L60
 607              	.L61:
 191:e:/LiteOS/LiteOS/targets/Cloud_FM33A0XX/GCC/../../../targets/Cloud_FM33A0XX/Drivers\fm33a0xx_pmu.c **** 	}
 192:e:/LiteOS/LiteOS/targets/Cloud_FM33A0XX/GCC/../../../targets/Cloud_FM33A0XX/Drivers\fm33a0xx_pmu.c **** 	else
 193:e:/LiteOS/LiteOS/targets/Cloud_FM33A0XX/GCC/../../../targets/Cloud_FM33A0XX/Drivers\fm33a0xx_pmu.c **** 	{
 194:e:/LiteOS/LiteOS/targets/Cloud_FM33A0XX/GCC/../../../targets/Cloud_FM33A0XX/Drivers\fm33a0xx_pmu.c **** 		return DISABLE;
 608              		.loc 1 194 0
 609 000c 0020     		movs	r0, #0
 610              	.L60:
 195:e:/LiteOS/LiteOS/targets/Cloud_FM33A0XX/GCC/../../../targets/Cloud_FM33A0XX/Drivers\fm33a0xx_pmu.c **** 	}
 196:e:/LiteOS/LiteOS/targets/Cloud_FM33A0XX/GCC/../../../targets/Cloud_FM33A0XX/Drivers\fm33a0xx_pmu.c **** }
 611              		.loc 1 196 0
 612              		@ sp needed
 613 000e 7047     		bx	lr
 614              	.L63:
 615              		.align	2
 616              	.L62:
 617 0010 00010040 		.word	1073742080
 618              		.cfi_endproc
 619              	.LFE52:
 621              		.section	.text.PMU_LPREIE_LPREIE_Setable,"ax",%progbits
 622              		.align	2
 623              		.global	PMU_LPREIE_LPREIE_Setable
 624              		.code	16
 625              		.thumb_func
 627              	PMU_LPREIE_LPREIE_Setable:
 628              	.LFB53:
 197:e:/LiteOS/LiteOS/targets/Cloud_FM33A0XX/GCC/../../../targets/Cloud_FM33A0XX/Drivers\fm33a0xx_pmu.c **** 
 198:e:/LiteOS/LiteOS/targets/Cloud_FM33A0XX/GCC/../../../targets/Cloud_FM33A0XX/Drivers\fm33a0xx_pmu.c **** /* LPRUN错误中断使能 相关函数 */
 199:e:/LiteOS/LiteOS/targets/Cloud_FM33A0XX/GCC/../../../targets/Cloud_FM33A0XX/Drivers\fm33a0xx_pmu.c **** void PMU_LPREIE_LPREIE_Setable(FunState NewState)
 200:e:/LiteOS/LiteOS/targets/Cloud_FM33A0XX/GCC/../../../targets/Cloud_FM33A0XX/Drivers\fm33a0xx_pmu.c **** {
 629              		.loc 1 200 0
 630              		.cfi_startproc
 631              		@ args = 0, pretend = 0, frame = 0
 632              		@ frame_needed = 0, uses_anonymous_args = 0
 633              		@ link register save eliminated.
ARM GAS  C:\Users\WANGBI~1\AppData\Local\Temp\cc90GDgC.s 			page 15


 634              	.LVL27:
 201:e:/LiteOS/LiteOS/targets/Cloud_FM33A0XX/GCC/../../../targets/Cloud_FM33A0XX/Drivers\fm33a0xx_pmu.c **** 	if (NewState == ENABLE)
 635              		.loc 1 201 0
 636 0000 0128     		cmp	r0, #1
 637 0002 05D1     		bne	.L65
 202:e:/LiteOS/LiteOS/targets/Cloud_FM33A0XX/GCC/../../../targets/Cloud_FM33A0XX/Drivers\fm33a0xx_pmu.c **** 	{
 203:e:/LiteOS/LiteOS/targets/Cloud_FM33A0XX/GCC/../../../targets/Cloud_FM33A0XX/Drivers\fm33a0xx_pmu.c **** 		PMU->LPREIE |= (PMU_LPREIE_LPREIE_Msk);
 638              		.loc 1 203 0
 639 0004 054A     		ldr	r2, .L67
 640 0006 D168     		ldr	r1, [r2, #12]
 641 0008 0123     		movs	r3, #1
 642 000a 0B43     		orrs	r3, r1
 643 000c D360     		str	r3, [r2, #12]
 644 000e 04E0     		b	.L64
 645              	.L65:
 204:e:/LiteOS/LiteOS/targets/Cloud_FM33A0XX/GCC/../../../targets/Cloud_FM33A0XX/Drivers\fm33a0xx_pmu.c **** 	}
 205:e:/LiteOS/LiteOS/targets/Cloud_FM33A0XX/GCC/../../../targets/Cloud_FM33A0XX/Drivers\fm33a0xx_pmu.c **** 	else
 206:e:/LiteOS/LiteOS/targets/Cloud_FM33A0XX/GCC/../../../targets/Cloud_FM33A0XX/Drivers\fm33a0xx_pmu.c **** 	{
 207:e:/LiteOS/LiteOS/targets/Cloud_FM33A0XX/GCC/../../../targets/Cloud_FM33A0XX/Drivers\fm33a0xx_pmu.c **** 		PMU->LPREIE &= ~(PMU_LPREIE_LPREIE_Msk);
 646              		.loc 1 207 0
 647 0010 024A     		ldr	r2, .L67
 648 0012 D368     		ldr	r3, [r2, #12]
 649 0014 0121     		movs	r1, #1
 650 0016 8B43     		bics	r3, r1
 651 0018 D360     		str	r3, [r2, #12]
 652              	.L64:
 208:e:/LiteOS/LiteOS/targets/Cloud_FM33A0XX/GCC/../../../targets/Cloud_FM33A0XX/Drivers\fm33a0xx_pmu.c **** 	}
 209:e:/LiteOS/LiteOS/targets/Cloud_FM33A0XX/GCC/../../../targets/Cloud_FM33A0XX/Drivers\fm33a0xx_pmu.c **** }
 653              		.loc 1 209 0
 654              		@ sp needed
 655 001a 7047     		bx	lr
 656              	.L68:
 657              		.align	2
 658              	.L67:
 659 001c 00010040 		.word	1073742080
 660              		.cfi_endproc
 661              	.LFE53:
 663              		.section	.text.PMU_LPREIE_LPREIE_Getable,"ax",%progbits
 664              		.align	2
 665              		.global	PMU_LPREIE_LPREIE_Getable
 666              		.code	16
 667              		.thumb_func
 669              	PMU_LPREIE_LPREIE_Getable:
 670              	.LFB54:
 210:e:/LiteOS/LiteOS/targets/Cloud_FM33A0XX/GCC/../../../targets/Cloud_FM33A0XX/Drivers\fm33a0xx_pmu.c **** 
 211:e:/LiteOS/LiteOS/targets/Cloud_FM33A0XX/GCC/../../../targets/Cloud_FM33A0XX/Drivers\fm33a0xx_pmu.c **** FunState PMU_LPREIE_LPREIE_Getable(void)
 212:e:/LiteOS/LiteOS/targets/Cloud_FM33A0XX/GCC/../../../targets/Cloud_FM33A0XX/Drivers\fm33a0xx_pmu.c **** {
 671              		.loc 1 212 0
 672              		.cfi_startproc
 673              		@ args = 0, pretend = 0, frame = 0
 674              		@ frame_needed = 0, uses_anonymous_args = 0
 675              		@ link register save eliminated.
 213:e:/LiteOS/LiteOS/targets/Cloud_FM33A0XX/GCC/../../../targets/Cloud_FM33A0XX/Drivers\fm33a0xx_pmu.c **** 	if (PMU->LPREIE & (PMU_LPREIE_LPREIE_Msk))
 676              		.loc 1 213 0
 677 0000 034B     		ldr	r3, .L72
 678 0002 DB68     		ldr	r3, [r3, #12]
 679 0004 DB07     		lsls	r3, r3, #31
ARM GAS  C:\Users\WANGBI~1\AppData\Local\Temp\cc90GDgC.s 			page 16


 680 0006 01D5     		bpl	.L71
 214:e:/LiteOS/LiteOS/targets/Cloud_FM33A0XX/GCC/../../../targets/Cloud_FM33A0XX/Drivers\fm33a0xx_pmu.c **** 	{
 215:e:/LiteOS/LiteOS/targets/Cloud_FM33A0XX/GCC/../../../targets/Cloud_FM33A0XX/Drivers\fm33a0xx_pmu.c **** 		return ENABLE;
 681              		.loc 1 215 0
 682 0008 0120     		movs	r0, #1
 683 000a 00E0     		b	.L70
 684              	.L71:
 216:e:/LiteOS/LiteOS/targets/Cloud_FM33A0XX/GCC/../../../targets/Cloud_FM33A0XX/Drivers\fm33a0xx_pmu.c **** 	}
 217:e:/LiteOS/LiteOS/targets/Cloud_FM33A0XX/GCC/../../../targets/Cloud_FM33A0XX/Drivers\fm33a0xx_pmu.c **** 	else
 218:e:/LiteOS/LiteOS/targets/Cloud_FM33A0XX/GCC/../../../targets/Cloud_FM33A0XX/Drivers\fm33a0xx_pmu.c **** 	{
 219:e:/LiteOS/LiteOS/targets/Cloud_FM33A0XX/GCC/../../../targets/Cloud_FM33A0XX/Drivers\fm33a0xx_pmu.c **** 		return DISABLE;
 685              		.loc 1 219 0
 686 000c 0020     		movs	r0, #0
 687              	.L70:
 220:e:/LiteOS/LiteOS/targets/Cloud_FM33A0XX/GCC/../../../targets/Cloud_FM33A0XX/Drivers\fm33a0xx_pmu.c **** 	}
 221:e:/LiteOS/LiteOS/targets/Cloud_FM33A0XX/GCC/../../../targets/Cloud_FM33A0XX/Drivers\fm33a0xx_pmu.c **** }
 688              		.loc 1 221 0
 689              		@ sp needed
 690 000e 7047     		bx	lr
 691              	.L73:
 692              		.align	2
 693              	.L72:
 694 0010 00010040 		.word	1073742080
 695              		.cfi_endproc
 696              	.LFE54:
 698              		.section	.text.PMU_LPREIF_SLPEIF_Clr,"ax",%progbits
 699              		.align	2
 700              		.global	PMU_LPREIF_SLPEIF_Clr
 701              		.code	16
 702              		.thumb_func
 704              	PMU_LPREIF_SLPEIF_Clr:
 705              	.LFB55:
 222:e:/LiteOS/LiteOS/targets/Cloud_FM33A0XX/GCC/../../../targets/Cloud_FM33A0XX/Drivers\fm33a0xx_pmu.c **** 
 223:e:/LiteOS/LiteOS/targets/Cloud_FM33A0XX/GCC/../../../targets/Cloud_FM33A0XX/Drivers\fm33a0xx_pmu.c **** /* SLEEP错误中断标志，硬件置位，软件写1清零,在PMOD=2’h2后，CPU执行WFI/WFE指令前置位了SLEEPDEEP寄存
 224:e:/LiteOS/LiteOS/targets/Cloud_FM33A0XX/GCC/../../../targets/Cloud_FM33A0XX/Drivers\fm33a0xx_pmu.c **** void PMU_LPREIF_SLPEIF_Clr(void)
 225:e:/LiteOS/LiteOS/targets/Cloud_FM33A0XX/GCC/../../../targets/Cloud_FM33A0XX/Drivers\fm33a0xx_pmu.c **** {
 706              		.loc 1 225 0
 707              		.cfi_startproc
 708              		@ args = 0, pretend = 0, frame = 0
 709              		@ frame_needed = 0, uses_anonymous_args = 0
 710              		@ link register save eliminated.
 226:e:/LiteOS/LiteOS/targets/Cloud_FM33A0XX/GCC/../../../targets/Cloud_FM33A0XX/Drivers\fm33a0xx_pmu.c **** 	PMU->LPREIF = PMU_LPREIF_SLPEIF_Msk;
 711              		.loc 1 226 0
 712 0000 0222     		movs	r2, #2
 713 0002 014B     		ldr	r3, .L75
 714 0004 1A61     		str	r2, [r3, #16]
 227:e:/LiteOS/LiteOS/targets/Cloud_FM33A0XX/GCC/../../../targets/Cloud_FM33A0XX/Drivers\fm33a0xx_pmu.c **** }
 715              		.loc 1 227 0
 716              		@ sp needed
 717 0006 7047     		bx	lr
 718              	.L76:
 719              		.align	2
 720              	.L75:
 721 0008 00010040 		.word	1073742080
 722              		.cfi_endproc
 723              	.LFE55:
 725              		.section	.text.PMU_LPREIF_SLPEIF_Chk,"ax",%progbits
ARM GAS  C:\Users\WANGBI~1\AppData\Local\Temp\cc90GDgC.s 			page 17


 726              		.align	2
 727              		.global	PMU_LPREIF_SLPEIF_Chk
 728              		.code	16
 729              		.thumb_func
 731              	PMU_LPREIF_SLPEIF_Chk:
 732              	.LFB56:
 228:e:/LiteOS/LiteOS/targets/Cloud_FM33A0XX/GCC/../../../targets/Cloud_FM33A0XX/Drivers\fm33a0xx_pmu.c **** 
 229:e:/LiteOS/LiteOS/targets/Cloud_FM33A0XX/GCC/../../../targets/Cloud_FM33A0XX/Drivers\fm33a0xx_pmu.c **** FlagStatus PMU_LPREIF_SLPEIF_Chk(void)
 230:e:/LiteOS/LiteOS/targets/Cloud_FM33A0XX/GCC/../../../targets/Cloud_FM33A0XX/Drivers\fm33a0xx_pmu.c **** {
 733              		.loc 1 230 0
 734              		.cfi_startproc
 735              		@ args = 0, pretend = 0, frame = 0
 736              		@ frame_needed = 0, uses_anonymous_args = 0
 737              		@ link register save eliminated.
 231:e:/LiteOS/LiteOS/targets/Cloud_FM33A0XX/GCC/../../../targets/Cloud_FM33A0XX/Drivers\fm33a0xx_pmu.c **** 	if (PMU->LPREIF & PMU_LPREIF_SLPEIF_Msk)
 738              		.loc 1 231 0
 739 0000 034B     		ldr	r3, .L80
 740 0002 1B69     		ldr	r3, [r3, #16]
 741 0004 9B07     		lsls	r3, r3, #30
 742 0006 01D5     		bpl	.L79
 232:e:/LiteOS/LiteOS/targets/Cloud_FM33A0XX/GCC/../../../targets/Cloud_FM33A0XX/Drivers\fm33a0xx_pmu.c **** 	{
 233:e:/LiteOS/LiteOS/targets/Cloud_FM33A0XX/GCC/../../../targets/Cloud_FM33A0XX/Drivers\fm33a0xx_pmu.c **** 		return SET;
 743              		.loc 1 233 0
 744 0008 0120     		movs	r0, #1
 745 000a 00E0     		b	.L78
 746              	.L79:
 234:e:/LiteOS/LiteOS/targets/Cloud_FM33A0XX/GCC/../../../targets/Cloud_FM33A0XX/Drivers\fm33a0xx_pmu.c **** 	}
 235:e:/LiteOS/LiteOS/targets/Cloud_FM33A0XX/GCC/../../../targets/Cloud_FM33A0XX/Drivers\fm33a0xx_pmu.c **** 	else
 236:e:/LiteOS/LiteOS/targets/Cloud_FM33A0XX/GCC/../../../targets/Cloud_FM33A0XX/Drivers\fm33a0xx_pmu.c **** 	{
 237:e:/LiteOS/LiteOS/targets/Cloud_FM33A0XX/GCC/../../../targets/Cloud_FM33A0XX/Drivers\fm33a0xx_pmu.c **** 		return RESET;
 747              		.loc 1 237 0
 748 000c 0020     		movs	r0, #0
 749              	.L78:
 238:e:/LiteOS/LiteOS/targets/Cloud_FM33A0XX/GCC/../../../targets/Cloud_FM33A0XX/Drivers\fm33a0xx_pmu.c **** 	}
 239:e:/LiteOS/LiteOS/targets/Cloud_FM33A0XX/GCC/../../../targets/Cloud_FM33A0XX/Drivers\fm33a0xx_pmu.c **** }
 750              		.loc 1 239 0
 751              		@ sp needed
 752 000e 7047     		bx	lr
 753              	.L81:
 754              		.align	2
 755              	.L80:
 756 0010 00010040 		.word	1073742080
 757              		.cfi_endproc
 758              	.LFE56:
 760              		.section	.text.PMU_LPREIF_LPREIF_Clr,"ax",%progbits
 761              		.align	2
 762              		.global	PMU_LPREIF_LPREIF_Clr
 763              		.code	16
 764              		.thumb_func
 766              	PMU_LPREIF_LPREIF_Clr:
 767              	.LFB57:
 240:e:/LiteOS/LiteOS/targets/Cloud_FM33A0XX/GCC/../../../targets/Cloud_FM33A0XX/Drivers\fm33a0xx_pmu.c **** 
 241:e:/LiteOS/LiteOS/targets/Cloud_FM33A0XX/GCC/../../../targets/Cloud_FM33A0XX/Drivers\fm33a0xx_pmu.c **** /* LPRUN错误中断标志，硬件置位，软件写1清零；软件进入LPRUN模式时如果触发了LPREIF，则芯片仍将停留在A
 242:e:/LiteOS/LiteOS/targets/Cloud_FM33A0XX/GCC/../../../targets/Cloud_FM33A0XX/Drivers\fm33a0xx_pmu.c **** 1） HSCLK选择不是LSCLK或RCLP，或
 243:e:/LiteOS/LiteOS/targets/Cloud_FM33A0XX/GCC/../../../targets/Cloud_FM33A0XX/Drivers\fm33a0xx_pmu.c **** 2） RCHF、PLL、ADC使能未关闭
 244:e:/LiteOS/LiteOS/targets/Cloud_FM33A0XX/GCC/../../../targets/Cloud_FM33A0XX/Drivers\fm33a0xx_pmu.c ****  相关函数 */
 245:e:/LiteOS/LiteOS/targets/Cloud_FM33A0XX/GCC/../../../targets/Cloud_FM33A0XX/Drivers\fm33a0xx_pmu.c **** void PMU_LPREIF_LPREIF_Clr(void)
ARM GAS  C:\Users\WANGBI~1\AppData\Local\Temp\cc90GDgC.s 			page 18


 246:e:/LiteOS/LiteOS/targets/Cloud_FM33A0XX/GCC/../../../targets/Cloud_FM33A0XX/Drivers\fm33a0xx_pmu.c **** {
 768              		.loc 1 246 0
 769              		.cfi_startproc
 770              		@ args = 0, pretend = 0, frame = 0
 771              		@ frame_needed = 0, uses_anonymous_args = 0
 772              		@ link register save eliminated.
 247:e:/LiteOS/LiteOS/targets/Cloud_FM33A0XX/GCC/../../../targets/Cloud_FM33A0XX/Drivers\fm33a0xx_pmu.c **** 	PMU->LPREIF = PMU_LPREIF_LPREIF_Msk;
 773              		.loc 1 247 0
 774 0000 0122     		movs	r2, #1
 775 0002 014B     		ldr	r3, .L83
 776 0004 1A61     		str	r2, [r3, #16]
 248:e:/LiteOS/LiteOS/targets/Cloud_FM33A0XX/GCC/../../../targets/Cloud_FM33A0XX/Drivers\fm33a0xx_pmu.c **** }
 777              		.loc 1 248 0
 778              		@ sp needed
 779 0006 7047     		bx	lr
 780              	.L84:
 781              		.align	2
 782              	.L83:
 783 0008 00010040 		.word	1073742080
 784              		.cfi_endproc
 785              	.LFE57:
 787              		.section	.text.PMU_LPREIF_LPREIF_Chk,"ax",%progbits
 788              		.align	2
 789              		.global	PMU_LPREIF_LPREIF_Chk
 790              		.code	16
 791              		.thumb_func
 793              	PMU_LPREIF_LPREIF_Chk:
 794              	.LFB58:
 249:e:/LiteOS/LiteOS/targets/Cloud_FM33A0XX/GCC/../../../targets/Cloud_FM33A0XX/Drivers\fm33a0xx_pmu.c **** 
 250:e:/LiteOS/LiteOS/targets/Cloud_FM33A0XX/GCC/../../../targets/Cloud_FM33A0XX/Drivers\fm33a0xx_pmu.c **** FlagStatus PMU_LPREIF_LPREIF_Chk(void)
 251:e:/LiteOS/LiteOS/targets/Cloud_FM33A0XX/GCC/../../../targets/Cloud_FM33A0XX/Drivers\fm33a0xx_pmu.c **** {
 795              		.loc 1 251 0
 796              		.cfi_startproc
 797              		@ args = 0, pretend = 0, frame = 0
 798              		@ frame_needed = 0, uses_anonymous_args = 0
 799              		@ link register save eliminated.
 252:e:/LiteOS/LiteOS/targets/Cloud_FM33A0XX/GCC/../../../targets/Cloud_FM33A0XX/Drivers\fm33a0xx_pmu.c **** 	if (PMU->LPREIF & PMU_LPREIF_LPREIF_Msk)
 800              		.loc 1 252 0
 801 0000 034B     		ldr	r3, .L88
 802 0002 1B69     		ldr	r3, [r3, #16]
 803 0004 DB07     		lsls	r3, r3, #31
 804 0006 01D5     		bpl	.L87
 253:e:/LiteOS/LiteOS/targets/Cloud_FM33A0XX/GCC/../../../targets/Cloud_FM33A0XX/Drivers\fm33a0xx_pmu.c **** 	{
 254:e:/LiteOS/LiteOS/targets/Cloud_FM33A0XX/GCC/../../../targets/Cloud_FM33A0XX/Drivers\fm33a0xx_pmu.c **** 		return SET;
 805              		.loc 1 254 0
 806 0008 0120     		movs	r0, #1
 807 000a 00E0     		b	.L86
 808              	.L87:
 255:e:/LiteOS/LiteOS/targets/Cloud_FM33A0XX/GCC/../../../targets/Cloud_FM33A0XX/Drivers\fm33a0xx_pmu.c **** 	}
 256:e:/LiteOS/LiteOS/targets/Cloud_FM33A0XX/GCC/../../../targets/Cloud_FM33A0XX/Drivers\fm33a0xx_pmu.c **** 	else
 257:e:/LiteOS/LiteOS/targets/Cloud_FM33A0XX/GCC/../../../targets/Cloud_FM33A0XX/Drivers\fm33a0xx_pmu.c **** 	{
 258:e:/LiteOS/LiteOS/targets/Cloud_FM33A0XX/GCC/../../../targets/Cloud_FM33A0XX/Drivers\fm33a0xx_pmu.c **** 		return RESET;
 809              		.loc 1 258 0
 810 000c 0020     		movs	r0, #0
 811              	.L86:
 259:e:/LiteOS/LiteOS/targets/Cloud_FM33A0XX/GCC/../../../targets/Cloud_FM33A0XX/Drivers\fm33a0xx_pmu.c **** 	}
 260:e:/LiteOS/LiteOS/targets/Cloud_FM33A0XX/GCC/../../../targets/Cloud_FM33A0XX/Drivers\fm33a0xx_pmu.c **** }
ARM GAS  C:\Users\WANGBI~1\AppData\Local\Temp\cc90GDgC.s 			page 19


 812              		.loc 1 260 0
 813              		@ sp needed
 814 000e 7047     		bx	lr
 815              	.L89:
 816              		.align	2
 817              	.L88:
 818 0010 00010040 		.word	1073742080
 819              		.cfi_endproc
 820              	.LFE58:
 822              		.section	.text.PMU_Deinit,"ax",%progbits
 823              		.align	2
 824              		.global	PMU_Deinit
 825              		.code	16
 826              		.thumb_func
 828              	PMU_Deinit:
 829              	.LFB59:
 261:e:/LiteOS/LiteOS/targets/Cloud_FM33A0XX/GCC/../../../targets/Cloud_FM33A0XX/Drivers\fm33a0xx_pmu.c **** 
 262:e:/LiteOS/LiteOS/targets/Cloud_FM33A0XX/GCC/../../../targets/Cloud_FM33A0XX/Drivers\fm33a0xx_pmu.c **** 
 263:e:/LiteOS/LiteOS/targets/Cloud_FM33A0XX/GCC/../../../targets/Cloud_FM33A0XX/Drivers\fm33a0xx_pmu.c **** void PMU_Deinit(void)
 264:e:/LiteOS/LiteOS/targets/Cloud_FM33A0XX/GCC/../../../targets/Cloud_FM33A0XX/Drivers\fm33a0xx_pmu.c **** {
 830              		.loc 1 264 0
 831              		.cfi_startproc
 832              		@ args = 0, pretend = 0, frame = 0
 833              		@ frame_needed = 0, uses_anonymous_args = 0
 834              		@ link register save eliminated.
 265:e:/LiteOS/LiteOS/targets/Cloud_FM33A0XX/GCC/../../../targets/Cloud_FM33A0XX/Drivers\fm33a0xx_pmu.c **** 	PMU->LPMCFG = 0x00060000;
 835              		.loc 1 265 0
 836 0000 044B     		ldr	r3, .L91
 837 0002 C022     		movs	r2, #192
 838 0004 D202     		lsls	r2, r2, #11
 839 0006 1A60     		str	r2, [r3]
 266:e:/LiteOS/LiteOS/targets/Cloud_FM33A0XX/GCC/../../../targets/Cloud_FM33A0XX/Drivers\fm33a0xx_pmu.c **** 	PMU->WKDLYCON = 0x00000001;
 840              		.loc 1 266 0
 841 0008 0122     		movs	r2, #1
 842 000a 5A60     		str	r2, [r3, #4]
 267:e:/LiteOS/LiteOS/targets/Cloud_FM33A0XX/GCC/../../../targets/Cloud_FM33A0XX/Drivers\fm33a0xx_pmu.c **** 	//PMU->WKPFLAG = 0x00000000;
 268:e:/LiteOS/LiteOS/targets/Cloud_FM33A0XX/GCC/../../../targets/Cloud_FM33A0XX/Drivers\fm33a0xx_pmu.c **** 	PMU->LPREIE = 0x00000000;
 843              		.loc 1 268 0
 844 000c 0022     		movs	r2, #0
 845 000e DA60     		str	r2, [r3, #12]
 269:e:/LiteOS/LiteOS/targets/Cloud_FM33A0XX/GCC/../../../targets/Cloud_FM33A0XX/Drivers\fm33a0xx_pmu.c **** 	//PMU->LPREIF = 0x00000000;
 270:e:/LiteOS/LiteOS/targets/Cloud_FM33A0XX/GCC/../../../targets/Cloud_FM33A0XX/Drivers\fm33a0xx_pmu.c **** }
 846              		.loc 1 270 0
 847              		@ sp needed
 848 0010 7047     		bx	lr
 849              	.L92:
 850 0012 C046     		.align	2
 851              	.L91:
 852 0014 00010040 		.word	1073742080
 853              		.cfi_endproc
 854              	.LFE59:
 856              		.section	.text.PMU_WKPFLAG_WKPxF_ClrEx,"ax",%progbits
 857              		.align	2
 858              		.global	PMU_WKPFLAG_WKPxF_ClrEx
 859              		.code	16
 860              		.thumb_func
 862              	PMU_WKPFLAG_WKPxF_ClrEx:
ARM GAS  C:\Users\WANGBI~1\AppData\Local\Temp\cc90GDgC.s 			page 20


 863              	.LFB60:
 271:e:/LiteOS/LiteOS/targets/Cloud_FM33A0XX/GCC/../../../targets/Cloud_FM33A0XX/Drivers\fm33a0xx_pmu.c **** //Code_End		
 272:e:/LiteOS/LiteOS/targets/Cloud_FM33A0XX/GCC/../../../targets/Cloud_FM33A0XX/Drivers\fm33a0xx_pmu.c **** 
 273:e:/LiteOS/LiteOS/targets/Cloud_FM33A0XX/GCC/../../../targets/Cloud_FM33A0XX/Drivers\fm33a0xx_pmu.c **** ///* WKUP引脚使能PIN宏定义 */
 274:e:/LiteOS/LiteOS/targets/Cloud_FM33A0XX/GCC/../../../targets/Cloud_FM33A0XX/Drivers\fm33a0xx_pmu.c **** //在GPIO.h中
 275:e:/LiteOS/LiteOS/targets/Cloud_FM33A0XX/GCC/../../../targets/Cloud_FM33A0XX/Drivers\fm33a0xx_pmu.c **** //#define		PINWKEN_PD6		BIT7
 276:e:/LiteOS/LiteOS/targets/Cloud_FM33A0XX/GCC/../../../targets/Cloud_FM33A0XX/Drivers\fm33a0xx_pmu.c **** //#define		PINWKEN_PE9		BIT6
 277:e:/LiteOS/LiteOS/targets/Cloud_FM33A0XX/GCC/../../../targets/Cloud_FM33A0XX/Drivers\fm33a0xx_pmu.c **** //#define		PINWKEN_PE2		BIT5
 278:e:/LiteOS/LiteOS/targets/Cloud_FM33A0XX/GCC/../../../targets/Cloud_FM33A0XX/Drivers\fm33a0xx_pmu.c **** //#define		PINWKEN_PA13	BIT4
 279:e:/LiteOS/LiteOS/targets/Cloud_FM33A0XX/GCC/../../../targets/Cloud_FM33A0XX/Drivers\fm33a0xx_pmu.c **** //#define		PINWKEN_PG7		BIT3
 280:e:/LiteOS/LiteOS/targets/Cloud_FM33A0XX/GCC/../../../targets/Cloud_FM33A0XX/Drivers\fm33a0xx_pmu.c **** //#define		PINWKEN_PC13	BIT2
 281:e:/LiteOS/LiteOS/targets/Cloud_FM33A0XX/GCC/../../../targets/Cloud_FM33A0XX/Drivers\fm33a0xx_pmu.c **** //#define		PINWKEN_PB0		BIT1
 282:e:/LiteOS/LiteOS/targets/Cloud_FM33A0XX/GCC/../../../targets/Cloud_FM33A0XX/Drivers\fm33a0xx_pmu.c **** //#define		PINWKEN_PF5		BIT0
 283:e:/LiteOS/LiteOS/targets/Cloud_FM33A0XX/GCC/../../../targets/Cloud_FM33A0XX/Drivers\fm33a0xx_pmu.c **** /* CPU WKPxF唤醒标志 相关函数 */
 284:e:/LiteOS/LiteOS/targets/Cloud_FM33A0XX/GCC/../../../targets/Cloud_FM33A0XX/Drivers\fm33a0xx_pmu.c **** void PMU_WKPFLAG_WKPxF_ClrEx(uint32_t NWKPinDef)
 285:e:/LiteOS/LiteOS/targets/Cloud_FM33A0XX/GCC/../../../targets/Cloud_FM33A0XX/Drivers\fm33a0xx_pmu.c **** {
 864              		.loc 1 285 0
 865              		.cfi_startproc
 866              		@ args = 0, pretend = 0, frame = 0
 867              		@ frame_needed = 0, uses_anonymous_args = 0
 868              		@ link register save eliminated.
 869              	.LVL28:
 286:e:/LiteOS/LiteOS/targets/Cloud_FM33A0XX/GCC/../../../targets/Cloud_FM33A0XX/Drivers\fm33a0xx_pmu.c **** 	PMU->WKPFLAG = NWKPinDef;
 870              		.loc 1 286 0
 871 0000 014B     		ldr	r3, .L94
 872 0002 9860     		str	r0, [r3, #8]
 287:e:/LiteOS/LiteOS/targets/Cloud_FM33A0XX/GCC/../../../targets/Cloud_FM33A0XX/Drivers\fm33a0xx_pmu.c **** }
 873              		.loc 1 287 0
 874              		@ sp needed
 875 0004 7047     		bx	lr
 876              	.L95:
 877 0006 C046     		.align	2
 878              	.L94:
 879 0008 00010040 		.word	1073742080
 880              		.cfi_endproc
 881              	.LFE60:
 883              		.section	.text.PMU_WKPFLAG_WKPxF_ChkEx,"ax",%progbits
 884              		.align	2
 885              		.global	PMU_WKPFLAG_WKPxF_ChkEx
 886              		.code	16
 887              		.thumb_func
 889              	PMU_WKPFLAG_WKPxF_ChkEx:
 890              	.LFB61:
 288:e:/LiteOS/LiteOS/targets/Cloud_FM33A0XX/GCC/../../../targets/Cloud_FM33A0XX/Drivers\fm33a0xx_pmu.c **** 
 289:e:/LiteOS/LiteOS/targets/Cloud_FM33A0XX/GCC/../../../targets/Cloud_FM33A0XX/Drivers\fm33a0xx_pmu.c **** FlagStatus PMU_WKPFLAG_WKPxF_ChkEx(uint32_t NWKPinDef)
 290:e:/LiteOS/LiteOS/targets/Cloud_FM33A0XX/GCC/../../../targets/Cloud_FM33A0XX/Drivers\fm33a0xx_pmu.c **** {
 891              		.loc 1 290 0
 892              		.cfi_startproc
 893              		@ args = 0, pretend = 0, frame = 0
 894              		@ frame_needed = 0, uses_anonymous_args = 0
 895              		@ link register save eliminated.
 896              	.LVL29:
 291:e:/LiteOS/LiteOS/targets/Cloud_FM33A0XX/GCC/../../../targets/Cloud_FM33A0XX/Drivers\fm33a0xx_pmu.c **** 	if (PMU->WKPFLAG & NWKPinDef)
 897              		.loc 1 291 0
 898 0000 034B     		ldr	r3, .L99
 899 0002 9B68     		ldr	r3, [r3, #8]
 900 0004 1842     		tst	r0, r3
ARM GAS  C:\Users\WANGBI~1\AppData\Local\Temp\cc90GDgC.s 			page 21


 901 0006 01D0     		beq	.L98
 292:e:/LiteOS/LiteOS/targets/Cloud_FM33A0XX/GCC/../../../targets/Cloud_FM33A0XX/Drivers\fm33a0xx_pmu.c **** 	{
 293:e:/LiteOS/LiteOS/targets/Cloud_FM33A0XX/GCC/../../../targets/Cloud_FM33A0XX/Drivers\fm33a0xx_pmu.c **** 		return SET;
 902              		.loc 1 293 0
 903 0008 0120     		movs	r0, #1
 904              	.LVL30:
 905 000a 00E0     		b	.L97
 906              	.LVL31:
 907              	.L98:
 294:e:/LiteOS/LiteOS/targets/Cloud_FM33A0XX/GCC/../../../targets/Cloud_FM33A0XX/Drivers\fm33a0xx_pmu.c **** 	}
 295:e:/LiteOS/LiteOS/targets/Cloud_FM33A0XX/GCC/../../../targets/Cloud_FM33A0XX/Drivers\fm33a0xx_pmu.c **** 	else
 296:e:/LiteOS/LiteOS/targets/Cloud_FM33A0XX/GCC/../../../targets/Cloud_FM33A0XX/Drivers\fm33a0xx_pmu.c **** 	{
 297:e:/LiteOS/LiteOS/targets/Cloud_FM33A0XX/GCC/../../../targets/Cloud_FM33A0XX/Drivers\fm33a0xx_pmu.c **** 		return RESET;
 908              		.loc 1 297 0
 909 000c 0020     		movs	r0, #0
 910              	.LVL32:
 911              	.L97:
 298:e:/LiteOS/LiteOS/targets/Cloud_FM33A0XX/GCC/../../../targets/Cloud_FM33A0XX/Drivers\fm33a0xx_pmu.c **** 	}
 299:e:/LiteOS/LiteOS/targets/Cloud_FM33A0XX/GCC/../../../targets/Cloud_FM33A0XX/Drivers\fm33a0xx_pmu.c **** }
 912              		.loc 1 299 0
 913              		@ sp needed
 914 000e 7047     		bx	lr
 915              	.L100:
 916              		.align	2
 917              	.L99:
 918 0010 00010040 		.word	1073742080
 919              		.cfi_endproc
 920              	.LFE61:
 922              		.section	.text.PMU_SleepCfg_Init,"ax",%progbits
 923              		.align	2
 924              		.global	PMU_SleepCfg_Init
 925              		.code	16
 926              		.thumb_func
 928              	PMU_SleepCfg_Init:
 929              	.LFB62:
 300:e:/LiteOS/LiteOS/targets/Cloud_FM33A0XX/GCC/../../../targets/Cloud_FM33A0XX/Drivers\fm33a0xx_pmu.c **** 
 301:e:/LiteOS/LiteOS/targets/Cloud_FM33A0XX/GCC/../../../targets/Cloud_FM33A0XX/Drivers\fm33a0xx_pmu.c **** void PMU_SleepCfg_Init(PMU_SleepCfg_InitTypeDef* SleepCfg_InitStruct)
 302:e:/LiteOS/LiteOS/targets/Cloud_FM33A0XX/GCC/../../../targets/Cloud_FM33A0XX/Drivers\fm33a0xx_pmu.c **** {
 930              		.loc 1 302 0
 931              		.cfi_startproc
 932              		@ args = 0, pretend = 0, frame = 0
 933              		@ frame_needed = 0, uses_anonymous_args = 0
 934              	.LVL33:
 935 0000 10B5     		push	{r4, lr}
 936              	.LCFI0:
 937              		.cfi_def_cfa_offset 8
 938              		.cfi_offset 4, -8
 939              		.cfi_offset 14, -4
 940 0002 0400     		movs	r4, r0
 303:e:/LiteOS/LiteOS/targets/Cloud_FM33A0XX/GCC/../../../targets/Cloud_FM33A0XX/Drivers\fm33a0xx_pmu.c **** 	PMU_LPMCFG_SLPDP_Set(SleepCfg_InitStruct->SLPDP);				/*!<DeepSleep控制寄存器  */
 941              		.loc 1 303 0
 942 0004 4068     		ldr	r0, [r0, #4]
 943              	.LVL34:
 944 0006 FFF7FEFF 		bl	PMU_LPMCFG_SLPDP_Set
 945              	.LVL35:
 304:e:/LiteOS/LiteOS/targets/Cloud_FM33A0XX/GCC/../../../targets/Cloud_FM33A0XX/Drivers\fm33a0xx_pmu.c **** 	PMU_LPMCFG_DSLPRAM_EXT_Set(SleepCfg_InitStruct->DSLPRAM_EXT);	/*!<DeepSleep模式下RAM数据保持配置  
 946              		.loc 1 304 0
ARM GAS  C:\Users\WANGBI~1\AppData\Local\Temp\cc90GDgC.s 			page 22


 947 000a A068     		ldr	r0, [r4, #8]
 948 000c FFF7FEFF 		bl	PMU_LPMCFG_DSLPRAM_EXT_Set
 949              	.LVL36:
 305:e:/LiteOS/LiteOS/targets/Cloud_FM33A0XX/GCC/../../../targets/Cloud_FM33A0XX/Drivers\fm33a0xx_pmu.c **** 	PMU_LPMCFG_CVS_Setable(SleepCfg_InitStruct->CVS);				/*!<内核电压降低使能控制  */	
 950              		.loc 1 305 0
 951 0010 207B     		ldrb	r0, [r4, #12]
 952 0012 FFF7FEFF 		bl	PMU_LPMCFG_CVS_Setable
 953              	.LVL37:
 306:e:/LiteOS/LiteOS/targets/Cloud_FM33A0XX/GCC/../../../targets/Cloud_FM33A0XX/Drivers\fm33a0xx_pmu.c **** 	PMU_LPMCFG_XTOFF_Set(SleepCfg_InitStruct->XTOFF);				/*!<关闭XTLF，仅在SLEEP/DEEPSLEEP下起作用  */
 954              		.loc 1 306 0
 955 0016 2069     		ldr	r0, [r4, #16]
 956 0018 FFF7FEFF 		bl	PMU_LPMCFG_XTOFF_Set
 957              	.LVL38:
 307:e:/LiteOS/LiteOS/targets/Cloud_FM33A0XX/GCC/../../../targets/Cloud_FM33A0XX/Drivers\fm33a0xx_pmu.c **** 	SCB->SCR = SleepCfg_InitStruct->SCR;							/*!<M0系统控制寄存器，一般配置为0即可  */
 958              		.loc 1 307 0
 959 001c 034B     		ldr	r3, .L102
 960 001e 6269     		ldr	r2, [r4, #20]
 961 0020 1A61     		str	r2, [r3, #16]
 308:e:/LiteOS/LiteOS/targets/Cloud_FM33A0XX/GCC/../../../targets/Cloud_FM33A0XX/Drivers\fm33a0xx_pmu.c **** 	PMU_LPMCFG_PMOD_Set(SleepCfg_InitStruct->PMOD);					/*!<低功耗模式配置  */	
 962              		.loc 1 308 0
 963 0022 2068     		ldr	r0, [r4]
 964 0024 FFF7FEFF 		bl	PMU_LPMCFG_PMOD_Set
 965              	.LVL39:
 309:e:/LiteOS/LiteOS/targets/Cloud_FM33A0XX/GCC/../../../targets/Cloud_FM33A0XX/Drivers\fm33a0xx_pmu.c **** }
 966              		.loc 1 309 0
 967              		@ sp needed
 968              	.LVL40:
 969 0028 10BD     		pop	{r4, pc}
 970              	.L103:
 971 002a C046     		.align	2
 972              	.L102:
 973 002c 00ED00E0 		.word	-536810240
 974              		.cfi_endproc
 975              	.LFE62:
 977              		.text
 978              	.Letext0:
 979              		.file 2 "e:\\liteos\\liteos\\targets\\cloud_fm33a0xx\\device\\include\\fm33a0xx.h"
 980              		.file 3 "d:\\gnu tools arm embedded\\5.4 2016q3\\arm-none-eabi\\include\\machine\\_default_types.h
 981              		.file 4 "d:\\gnu tools arm embedded\\5.4 2016q3\\arm-none-eabi\\include\\sys\\_stdint.h"
 982              		.file 5 "e:\\liteos\\liteos\\targets\\cloud_fm33a0xx\\device\\include\\core_cm0plus.h"
 983              		.file 6 "e:\\liteos\\liteos\\targets\\cloud_fm33a0xx\\drivers\\fm33A0xx_pmu.h"
ARM GAS  C:\Users\WANGBI~1\AppData\Local\Temp\cc90GDgC.s 			page 23

