ARM GAS  C:\Users\WANGBI~1\AppData\Local\Temp\cc00eRbQ.s 			page 1


   1              		.syntax unified
   2              		.cpu cortex-m0plus
   3              		.fpu softvfp
   4              		.eabi_attribute 20, 1
   5              		.eabi_attribute 21, 1
   6              		.eabi_attribute 23, 3
   7              		.eabi_attribute 24, 1
   8              		.eabi_attribute 25, 1
   9              		.eabi_attribute 26, 1
  10              		.eabi_attribute 30, 1
  11              		.eabi_attribute 34, 0
  12              		.eabi_attribute 18, 4
  13              		.thumb
  14              		.syntax unified
  15              		.file	"fm33a0xx_btim.c"
  16              		.text
  17              	.Ltext0:
  18              		.cfi_sections	.debug_frame
  19              		.section	.text.BTIMx_BTCR1_CHEN_Setable,"ax",%progbits
  20              		.align	2
  21              		.global	BTIMx_BTCR1_CHEN_Setable
  22              		.code	16
  23              		.thumb_func
  25              	BTIMx_BTCR1_CHEN_Setable:
  26              	.LFB36:
  27              		.file 1 "e:/LiteOS/LiteOS/targets/Cloud_FM33A0XX/GCC/../../../targets/Cloud_FM33A0XX/Drivers/fm33a
   1:e:/LiteOS/LiteOS/targets/Cloud_FM33A0XX/GCC/../../../targets/Cloud_FM33A0XX/Drivers\fm33a0xx_btim.c **** /**
   2:e:/LiteOS/LiteOS/targets/Cloud_FM33A0XX/GCC/../../../targets/Cloud_FM33A0XX/Drivers\fm33a0xx_btim.c ****   ******************************************************************************
   3:e:/LiteOS/LiteOS/targets/Cloud_FM33A0XX/GCC/../../../targets/Cloud_FM33A0XX/Drivers\fm33a0xx_btim.c ****   * @file    fm33a0xx_btim.c
   4:e:/LiteOS/LiteOS/targets/Cloud_FM33A0XX/GCC/../../../targets/Cloud_FM33A0XX/Drivers\fm33a0xx_btim.c ****   * @author  FM33a0 Application Team
   5:e:/LiteOS/LiteOS/targets/Cloud_FM33A0XX/GCC/../../../targets/Cloud_FM33A0XX/Drivers\fm33a0xx_btim.c ****   * @version V2.0.1
   6:e:/LiteOS/LiteOS/targets/Cloud_FM33A0XX/GCC/../../../targets/Cloud_FM33A0XX/Drivers\fm33a0xx_btim.c ****   * @date    
   7:e:/LiteOS/LiteOS/targets/Cloud_FM33A0XX/GCC/../../../targets/Cloud_FM33A0XX/Drivers\fm33a0xx_btim.c ****   * @brief   This file provides firmware functions to manage the following 
   8:e:/LiteOS/LiteOS/targets/Cloud_FM33A0XX/GCC/../../../targets/Cloud_FM33A0XX/Drivers\fm33a0xx_btim.c ****   *          functionalities of....:
   9:e:/LiteOS/LiteOS/targets/Cloud_FM33A0XX/GCC/../../../targets/Cloud_FM33A0XX/Drivers\fm33a0xx_btim.c ****   *
  10:e:/LiteOS/LiteOS/targets/Cloud_FM33A0XX/GCC/../../../targets/Cloud_FM33A0XX/Drivers\fm33a0xx_btim.c **** */
  11:e:/LiteOS/LiteOS/targets/Cloud_FM33A0XX/GCC/../../../targets/Cloud_FM33A0XX/Drivers\fm33a0xx_btim.c **** 
  12:e:/LiteOS/LiteOS/targets/Cloud_FM33A0XX/GCC/../../../targets/Cloud_FM33A0XX/Drivers\fm33a0xx_btim.c **** /* Includes ------------------------------------------------------------------*/
  13:e:/LiteOS/LiteOS/targets/Cloud_FM33A0XX/GCC/../../../targets/Cloud_FM33A0XX/Drivers\fm33a0xx_btim.c **** #include "fm33A0xx_btim.h"  
  14:e:/LiteOS/LiteOS/targets/Cloud_FM33A0XX/GCC/../../../targets/Cloud_FM33A0XX/Drivers\fm33a0xx_btim.c **** 
  15:e:/LiteOS/LiteOS/targets/Cloud_FM33A0XX/GCC/../../../targets/Cloud_FM33A0XX/Drivers\fm33a0xx_btim.c **** 
  16:e:/LiteOS/LiteOS/targets/Cloud_FM33A0XX/GCC/../../../targets/Cloud_FM33A0XX/Drivers\fm33a0xx_btim.c **** /** @addtogroup fm33a0_StdPeriph_Driver
  17:e:/LiteOS/LiteOS/targets/Cloud_FM33A0XX/GCC/../../../targets/Cloud_FM33A0XX/Drivers\fm33a0xx_btim.c ****   * @{
  18:e:/LiteOS/LiteOS/targets/Cloud_FM33A0XX/GCC/../../../targets/Cloud_FM33A0XX/Drivers\fm33a0xx_btim.c ****   */
  19:e:/LiteOS/LiteOS/targets/Cloud_FM33A0XX/GCC/../../../targets/Cloud_FM33A0XX/Drivers\fm33a0xx_btim.c **** 
  20:e:/LiteOS/LiteOS/targets/Cloud_FM33A0XX/GCC/../../../targets/Cloud_FM33A0XX/Drivers\fm33a0xx_btim.c **** /** @defgroup BTIM 
  21:e:/LiteOS/LiteOS/targets/Cloud_FM33A0XX/GCC/../../../targets/Cloud_FM33A0XX/Drivers\fm33a0xx_btim.c ****   * @brief BTIM driver modules
  22:e:/LiteOS/LiteOS/targets/Cloud_FM33A0XX/GCC/../../../targets/Cloud_FM33A0XX/Drivers\fm33a0xx_btim.c ****   * @{
  23:e:/LiteOS/LiteOS/targets/Cloud_FM33A0XX/GCC/../../../targets/Cloud_FM33A0XX/Drivers\fm33a0xx_btim.c ****   */ 
  24:e:/LiteOS/LiteOS/targets/Cloud_FM33A0XX/GCC/../../../targets/Cloud_FM33A0XX/Drivers\fm33a0xx_btim.c **** 
  25:e:/LiteOS/LiteOS/targets/Cloud_FM33A0XX/GCC/../../../targets/Cloud_FM33A0XX/Drivers\fm33a0xx_btim.c **** /* Private typedef -----------------------------------------------------------*/
  26:e:/LiteOS/LiteOS/targets/Cloud_FM33A0XX/GCC/../../../targets/Cloud_FM33A0XX/Drivers\fm33a0xx_btim.c **** /* Private define ------------------------------------------------------------*/
  27:e:/LiteOS/LiteOS/targets/Cloud_FM33A0XX/GCC/../../../targets/Cloud_FM33A0XX/Drivers\fm33a0xx_btim.c **** 
  28:e:/LiteOS/LiteOS/targets/Cloud_FM33A0XX/GCC/../../../targets/Cloud_FM33A0XX/Drivers\fm33a0xx_btim.c **** /* Private macro -------------------------------------------------------------*/
  29:e:/LiteOS/LiteOS/targets/Cloud_FM33A0XX/GCC/../../../targets/Cloud_FM33A0XX/Drivers\fm33a0xx_btim.c **** /* Private variables ---------------------------------------------------------*/
  30:e:/LiteOS/LiteOS/targets/Cloud_FM33A0XX/GCC/../../../targets/Cloud_FM33A0XX/Drivers\fm33a0xx_btim.c **** 
  31:e:/LiteOS/LiteOS/targets/Cloud_FM33A0XX/GCC/../../../targets/Cloud_FM33A0XX/Drivers\fm33a0xx_btim.c **** /* Private function prototypes -----------------------------------------------*/
ARM GAS  C:\Users\WANGBI~1\AppData\Local\Temp\cc00eRbQ.s 			page 2


  32:e:/LiteOS/LiteOS/targets/Cloud_FM33A0XX/GCC/../../../targets/Cloud_FM33A0XX/Drivers\fm33a0xx_btim.c **** /* Private functions ---------------------------------------------------------*/
  33:e:/LiteOS/LiteOS/targets/Cloud_FM33A0XX/GCC/../../../targets/Cloud_FM33A0XX/Drivers\fm33a0xx_btim.c **** 
  34:e:/LiteOS/LiteOS/targets/Cloud_FM33A0XX/GCC/../../../targets/Cloud_FM33A0XX/Drivers\fm33a0xx_btim.c **** /** @defgroup BTIM_Private_Functions
  35:e:/LiteOS/LiteOS/targets/Cloud_FM33A0XX/GCC/../../../targets/Cloud_FM33A0XX/Drivers\fm33a0xx_btim.c ****   * @{
  36:e:/LiteOS/LiteOS/targets/Cloud_FM33A0XX/GCC/../../../targets/Cloud_FM33A0XX/Drivers\fm33a0xx_btim.c ****   */ 
  37:e:/LiteOS/LiteOS/targets/Cloud_FM33A0XX/GCC/../../../targets/Cloud_FM33A0XX/Drivers\fm33a0xx_btim.c **** 
  38:e:/LiteOS/LiteOS/targets/Cloud_FM33A0XX/GCC/../../../targets/Cloud_FM33A0XX/Drivers\fm33a0xx_btim.c **** //Code_Start
  39:e:/LiteOS/LiteOS/targets/Cloud_FM33A0XX/GCC/../../../targets/Cloud_FM33A0XX/Drivers\fm33a0xx_btim.c **** //2018-04-02-13-20-21
  40:e:/LiteOS/LiteOS/targets/Cloud_FM33A0XX/GCC/../../../targets/Cloud_FM33A0XX/Drivers\fm33a0xx_btim.c **** //FM33A0XX_Driver_Gen_V1.4
  41:e:/LiteOS/LiteOS/targets/Cloud_FM33A0XX/GCC/../../../targets/Cloud_FM33A0XX/Drivers\fm33a0xx_btim.c **** 
  42:e:/LiteOS/LiteOS/targets/Cloud_FM33A0XX/GCC/../../../targets/Cloud_FM33A0XX/Drivers\fm33a0xx_btim.c **** /* 高位计数器启动控制 相关函数 */
  43:e:/LiteOS/LiteOS/targets/Cloud_FM33A0XX/GCC/../../../targets/Cloud_FM33A0XX/Drivers\fm33a0xx_btim.c **** void BTIMx_BTCR1_CHEN_Setable(BTIMx_Type* BTIMx, FunState NewState)
  44:e:/LiteOS/LiteOS/targets/Cloud_FM33A0XX/GCC/../../../targets/Cloud_FM33A0XX/Drivers\fm33a0xx_btim.c **** {
  28              		.loc 1 44 0
  29              		.cfi_startproc
  30              		@ args = 0, pretend = 0, frame = 0
  31              		@ frame_needed = 0, uses_anonymous_args = 0
  32              		@ link register save eliminated.
  33              	.LVL0:
  45:e:/LiteOS/LiteOS/targets/Cloud_FM33A0XX/GCC/../../../targets/Cloud_FM33A0XX/Drivers\fm33a0xx_btim.c **** 	if (NewState == ENABLE)
  34              		.loc 1 45 0
  35 0000 0129     		cmp	r1, #1
  36 0002 04D1     		bne	.L2
  46:e:/LiteOS/LiteOS/targets/Cloud_FM33A0XX/GCC/../../../targets/Cloud_FM33A0XX/Drivers\fm33a0xx_btim.c **** 	{
  47:e:/LiteOS/LiteOS/targets/Cloud_FM33A0XX/GCC/../../../targets/Cloud_FM33A0XX/Drivers\fm33a0xx_btim.c **** 		BTIMx->BTCR1 |= (BTIMx_BTCR1_CHEN_Msk);
  37              		.loc 1 47 0
  38 0004 0268     		ldr	r2, [r0]
  39 0006 8023     		movs	r3, #128
  40 0008 1343     		orrs	r3, r2
  41 000a 0360     		str	r3, [r0]
  42 000c 03E0     		b	.L1
  43              	.L2:
  48:e:/LiteOS/LiteOS/targets/Cloud_FM33A0XX/GCC/../../../targets/Cloud_FM33A0XX/Drivers\fm33a0xx_btim.c **** 	}
  49:e:/LiteOS/LiteOS/targets/Cloud_FM33A0XX/GCC/../../../targets/Cloud_FM33A0XX/Drivers\fm33a0xx_btim.c **** 	else
  50:e:/LiteOS/LiteOS/targets/Cloud_FM33A0XX/GCC/../../../targets/Cloud_FM33A0XX/Drivers\fm33a0xx_btim.c **** 	{
  51:e:/LiteOS/LiteOS/targets/Cloud_FM33A0XX/GCC/../../../targets/Cloud_FM33A0XX/Drivers\fm33a0xx_btim.c **** 		BTIMx->BTCR1 &= ~(BTIMx_BTCR1_CHEN_Msk);
  44              		.loc 1 51 0
  45 000e 0368     		ldr	r3, [r0]
  46 0010 8022     		movs	r2, #128
  47 0012 9343     		bics	r3, r2
  48 0014 0360     		str	r3, [r0]
  49              	.L1:
  52:e:/LiteOS/LiteOS/targets/Cloud_FM33A0XX/GCC/../../../targets/Cloud_FM33A0XX/Drivers\fm33a0xx_btim.c **** 	}
  53:e:/LiteOS/LiteOS/targets/Cloud_FM33A0XX/GCC/../../../targets/Cloud_FM33A0XX/Drivers\fm33a0xx_btim.c **** }
  50              		.loc 1 53 0
  51              		@ sp needed
  52 0016 7047     		bx	lr
  53              		.cfi_endproc
  54              	.LFE36:
  56              		.section	.text.BTIMx_BTCR1_CHEN_Getable,"ax",%progbits
  57              		.align	2
  58              		.global	BTIMx_BTCR1_CHEN_Getable
  59              		.code	16
  60              		.thumb_func
  62              	BTIMx_BTCR1_CHEN_Getable:
  63              	.LFB37:
  54:e:/LiteOS/LiteOS/targets/Cloud_FM33A0XX/GCC/../../../targets/Cloud_FM33A0XX/Drivers\fm33a0xx_btim.c **** 
ARM GAS  C:\Users\WANGBI~1\AppData\Local\Temp\cc00eRbQ.s 			page 3


  55:e:/LiteOS/LiteOS/targets/Cloud_FM33A0XX/GCC/../../../targets/Cloud_FM33A0XX/Drivers\fm33a0xx_btim.c **** FunState BTIMx_BTCR1_CHEN_Getable(BTIMx_Type* BTIMx)
  56:e:/LiteOS/LiteOS/targets/Cloud_FM33A0XX/GCC/../../../targets/Cloud_FM33A0XX/Drivers\fm33a0xx_btim.c **** {
  64              		.loc 1 56 0
  65              		.cfi_startproc
  66              		@ args = 0, pretend = 0, frame = 0
  67              		@ frame_needed = 0, uses_anonymous_args = 0
  68              		@ link register save eliminated.
  69              	.LVL1:
  57:e:/LiteOS/LiteOS/targets/Cloud_FM33A0XX/GCC/../../../targets/Cloud_FM33A0XX/Drivers\fm33a0xx_btim.c **** 	if (BTIMx->BTCR1 & (BTIMx_BTCR1_CHEN_Msk))
  70              		.loc 1 57 0
  71 0000 0368     		ldr	r3, [r0]
  72 0002 1B06     		lsls	r3, r3, #24
  73 0004 01D5     		bpl	.L6
  58:e:/LiteOS/LiteOS/targets/Cloud_FM33A0XX/GCC/../../../targets/Cloud_FM33A0XX/Drivers\fm33a0xx_btim.c **** 	{
  59:e:/LiteOS/LiteOS/targets/Cloud_FM33A0XX/GCC/../../../targets/Cloud_FM33A0XX/Drivers\fm33a0xx_btim.c **** 		return ENABLE;
  74              		.loc 1 59 0
  75 0006 0120     		movs	r0, #1
  76              	.LVL2:
  77 0008 00E0     		b	.L5
  78              	.LVL3:
  79              	.L6:
  60:e:/LiteOS/LiteOS/targets/Cloud_FM33A0XX/GCC/../../../targets/Cloud_FM33A0XX/Drivers\fm33a0xx_btim.c **** 	}
  61:e:/LiteOS/LiteOS/targets/Cloud_FM33A0XX/GCC/../../../targets/Cloud_FM33A0XX/Drivers\fm33a0xx_btim.c **** 	else
  62:e:/LiteOS/LiteOS/targets/Cloud_FM33A0XX/GCC/../../../targets/Cloud_FM33A0XX/Drivers\fm33a0xx_btim.c **** 	{
  63:e:/LiteOS/LiteOS/targets/Cloud_FM33A0XX/GCC/../../../targets/Cloud_FM33A0XX/Drivers\fm33a0xx_btim.c **** 		return DISABLE;
  80              		.loc 1 63 0
  81 000a 0020     		movs	r0, #0
  82              	.LVL4:
  83              	.L5:
  64:e:/LiteOS/LiteOS/targets/Cloud_FM33A0XX/GCC/../../../targets/Cloud_FM33A0XX/Drivers\fm33a0xx_btim.c **** 	}
  65:e:/LiteOS/LiteOS/targets/Cloud_FM33A0XX/GCC/../../../targets/Cloud_FM33A0XX/Drivers\fm33a0xx_btim.c **** }
  84              		.loc 1 65 0
  85              		@ sp needed
  86 000c 7047     		bx	lr
  87              		.cfi_endproc
  88              	.LFE37:
  90 000e C046     		.section	.text.BTIMx_BTCR1_CLEN_Setable,"ax",%progbits
  91              		.align	2
  92              		.global	BTIMx_BTCR1_CLEN_Setable
  93              		.code	16
  94              		.thumb_func
  96              	BTIMx_BTCR1_CLEN_Setable:
  97              	.LFB38:
  66:e:/LiteOS/LiteOS/targets/Cloud_FM33A0XX/GCC/../../../targets/Cloud_FM33A0XX/Drivers\fm33a0xx_btim.c **** 
  67:e:/LiteOS/LiteOS/targets/Cloud_FM33A0XX/GCC/../../../targets/Cloud_FM33A0XX/Drivers\fm33a0xx_btim.c **** /* 低位计数器启动控制 相关函数 */
  68:e:/LiteOS/LiteOS/targets/Cloud_FM33A0XX/GCC/../../../targets/Cloud_FM33A0XX/Drivers\fm33a0xx_btim.c **** void BTIMx_BTCR1_CLEN_Setable(BTIMx_Type* BTIMx, FunState NewState)
  69:e:/LiteOS/LiteOS/targets/Cloud_FM33A0XX/GCC/../../../targets/Cloud_FM33A0XX/Drivers\fm33a0xx_btim.c **** {
  98              		.loc 1 69 0
  99              		.cfi_startproc
 100              		@ args = 0, pretend = 0, frame = 0
 101              		@ frame_needed = 0, uses_anonymous_args = 0
 102              		@ link register save eliminated.
 103              	.LVL5:
  70:e:/LiteOS/LiteOS/targets/Cloud_FM33A0XX/GCC/../../../targets/Cloud_FM33A0XX/Drivers\fm33a0xx_btim.c **** 	if (NewState == ENABLE)
 104              		.loc 1 70 0
 105 0000 0129     		cmp	r1, #1
 106 0002 04D1     		bne	.L8
ARM GAS  C:\Users\WANGBI~1\AppData\Local\Temp\cc00eRbQ.s 			page 4


  71:e:/LiteOS/LiteOS/targets/Cloud_FM33A0XX/GCC/../../../targets/Cloud_FM33A0XX/Drivers\fm33a0xx_btim.c **** 	{
  72:e:/LiteOS/LiteOS/targets/Cloud_FM33A0XX/GCC/../../../targets/Cloud_FM33A0XX/Drivers\fm33a0xx_btim.c **** 		BTIMx->BTCR1 |= (BTIMx_BTCR1_CLEN_Msk);
 107              		.loc 1 72 0
 108 0004 0268     		ldr	r2, [r0]
 109 0006 4023     		movs	r3, #64
 110 0008 1343     		orrs	r3, r2
 111 000a 0360     		str	r3, [r0]
 112 000c 03E0     		b	.L7
 113              	.L8:
  73:e:/LiteOS/LiteOS/targets/Cloud_FM33A0XX/GCC/../../../targets/Cloud_FM33A0XX/Drivers\fm33a0xx_btim.c **** 	}
  74:e:/LiteOS/LiteOS/targets/Cloud_FM33A0XX/GCC/../../../targets/Cloud_FM33A0XX/Drivers\fm33a0xx_btim.c **** 	else
  75:e:/LiteOS/LiteOS/targets/Cloud_FM33A0XX/GCC/../../../targets/Cloud_FM33A0XX/Drivers\fm33a0xx_btim.c **** 	{
  76:e:/LiteOS/LiteOS/targets/Cloud_FM33A0XX/GCC/../../../targets/Cloud_FM33A0XX/Drivers\fm33a0xx_btim.c **** 		BTIMx->BTCR1 &= ~(BTIMx_BTCR1_CLEN_Msk);
 114              		.loc 1 76 0
 115 000e 0368     		ldr	r3, [r0]
 116 0010 4022     		movs	r2, #64
 117 0012 9343     		bics	r3, r2
 118 0014 0360     		str	r3, [r0]
 119              	.L7:
  77:e:/LiteOS/LiteOS/targets/Cloud_FM33A0XX/GCC/../../../targets/Cloud_FM33A0XX/Drivers\fm33a0xx_btim.c **** 	}
  78:e:/LiteOS/LiteOS/targets/Cloud_FM33A0XX/GCC/../../../targets/Cloud_FM33A0XX/Drivers\fm33a0xx_btim.c **** }
 120              		.loc 1 78 0
 121              		@ sp needed
 122 0016 7047     		bx	lr
 123              		.cfi_endproc
 124              	.LFE38:
 126              		.section	.text.BTIMx_BTCR1_CLEN_Getable,"ax",%progbits
 127              		.align	2
 128              		.global	BTIMx_BTCR1_CLEN_Getable
 129              		.code	16
 130              		.thumb_func
 132              	BTIMx_BTCR1_CLEN_Getable:
 133              	.LFB39:
  79:e:/LiteOS/LiteOS/targets/Cloud_FM33A0XX/GCC/../../../targets/Cloud_FM33A0XX/Drivers\fm33a0xx_btim.c **** 
  80:e:/LiteOS/LiteOS/targets/Cloud_FM33A0XX/GCC/../../../targets/Cloud_FM33A0XX/Drivers\fm33a0xx_btim.c **** FunState BTIMx_BTCR1_CLEN_Getable(BTIMx_Type* BTIMx)
  81:e:/LiteOS/LiteOS/targets/Cloud_FM33A0XX/GCC/../../../targets/Cloud_FM33A0XX/Drivers\fm33a0xx_btim.c **** {
 134              		.loc 1 81 0
 135              		.cfi_startproc
 136              		@ args = 0, pretend = 0, frame = 0
 137              		@ frame_needed = 0, uses_anonymous_args = 0
 138              		@ link register save eliminated.
 139              	.LVL6:
  82:e:/LiteOS/LiteOS/targets/Cloud_FM33A0XX/GCC/../../../targets/Cloud_FM33A0XX/Drivers\fm33a0xx_btim.c **** 	if (BTIMx->BTCR1 & (BTIMx_BTCR1_CLEN_Msk))
 140              		.loc 1 82 0
 141 0000 0368     		ldr	r3, [r0]
 142 0002 5B06     		lsls	r3, r3, #25
 143 0004 01D5     		bpl	.L12
  83:e:/LiteOS/LiteOS/targets/Cloud_FM33A0XX/GCC/../../../targets/Cloud_FM33A0XX/Drivers\fm33a0xx_btim.c **** 	{
  84:e:/LiteOS/LiteOS/targets/Cloud_FM33A0XX/GCC/../../../targets/Cloud_FM33A0XX/Drivers\fm33a0xx_btim.c **** 		return ENABLE;
 144              		.loc 1 84 0
 145 0006 0120     		movs	r0, #1
 146              	.LVL7:
 147 0008 00E0     		b	.L11
 148              	.LVL8:
 149              	.L12:
  85:e:/LiteOS/LiteOS/targets/Cloud_FM33A0XX/GCC/../../../targets/Cloud_FM33A0XX/Drivers\fm33a0xx_btim.c **** 	}
  86:e:/LiteOS/LiteOS/targets/Cloud_FM33A0XX/GCC/../../../targets/Cloud_FM33A0XX/Drivers\fm33a0xx_btim.c **** 	else
ARM GAS  C:\Users\WANGBI~1\AppData\Local\Temp\cc00eRbQ.s 			page 5


  87:e:/LiteOS/LiteOS/targets/Cloud_FM33A0XX/GCC/../../../targets/Cloud_FM33A0XX/Drivers\fm33a0xx_btim.c **** 	{
  88:e:/LiteOS/LiteOS/targets/Cloud_FM33A0XX/GCC/../../../targets/Cloud_FM33A0XX/Drivers\fm33a0xx_btim.c **** 		return DISABLE;
 150              		.loc 1 88 0
 151 000a 0020     		movs	r0, #0
 152              	.LVL9:
 153              	.L11:
  89:e:/LiteOS/LiteOS/targets/Cloud_FM33A0XX/GCC/../../../targets/Cloud_FM33A0XX/Drivers\fm33a0xx_btim.c **** 	}
  90:e:/LiteOS/LiteOS/targets/Cloud_FM33A0XX/GCC/../../../targets/Cloud_FM33A0XX/Drivers\fm33a0xx_btim.c **** }
 154              		.loc 1 90 0
 155              		@ sp needed
 156 000c 7047     		bx	lr
 157              		.cfi_endproc
 158              	.LFE39:
 160 000e C046     		.section	.text.BTIMx_BTCR1_MODE_Set,"ax",%progbits
 161              		.align	2
 162              		.global	BTIMx_BTCR1_MODE_Set
 163              		.code	16
 164              		.thumb_func
 166              	BTIMx_BTCR1_MODE_Set:
 167              	.LFB40:
  91:e:/LiteOS/LiteOS/targets/Cloud_FM33A0XX/GCC/../../../targets/Cloud_FM33A0XX/Drivers\fm33a0xx_btim.c **** 
  92:e:/LiteOS/LiteOS/targets/Cloud_FM33A0XX/GCC/../../../targets/Cloud_FM33A0XX/Drivers\fm33a0xx_btim.c **** /* 工作模式选择 相关函数 */
  93:e:/LiteOS/LiteOS/targets/Cloud_FM33A0XX/GCC/../../../targets/Cloud_FM33A0XX/Drivers\fm33a0xx_btim.c **** void BTIMx_BTCR1_MODE_Set(BTIMx_Type* BTIMx, uint32_t SetValue)
  94:e:/LiteOS/LiteOS/targets/Cloud_FM33A0XX/GCC/../../../targets/Cloud_FM33A0XX/Drivers\fm33a0xx_btim.c **** {
 168              		.loc 1 94 0
 169              		.cfi_startproc
 170              		@ args = 0, pretend = 0, frame = 0
 171              		@ frame_needed = 0, uses_anonymous_args = 0
 172              		@ link register save eliminated.
 173              	.LVL10:
  95:e:/LiteOS/LiteOS/targets/Cloud_FM33A0XX/GCC/../../../targets/Cloud_FM33A0XX/Drivers\fm33a0xx_btim.c **** 	uint32_t tmpreg;
  96:e:/LiteOS/LiteOS/targets/Cloud_FM33A0XX/GCC/../../../targets/Cloud_FM33A0XX/Drivers\fm33a0xx_btim.c **** 	tmpreg = BTIMx->BTCR1;
 174              		.loc 1 96 0
 175 0000 0368     		ldr	r3, [r0]
 176              	.LVL11:
  97:e:/LiteOS/LiteOS/targets/Cloud_FM33A0XX/GCC/../../../targets/Cloud_FM33A0XX/Drivers\fm33a0xx_btim.c **** 	tmpreg &= ~(BTIMx_BTCR1_MODE_Msk);
 177              		.loc 1 97 0
 178 0002 2022     		movs	r2, #32
 179 0004 9343     		bics	r3, r2
 180              	.LVL12:
  98:e:/LiteOS/LiteOS/targets/Cloud_FM33A0XX/GCC/../../../targets/Cloud_FM33A0XX/Drivers\fm33a0xx_btim.c **** 	tmpreg |= (SetValue & BTIMx_BTCR1_MODE_Msk);
 181              		.loc 1 98 0
 182 0006 1140     		ands	r1, r2
 183              	.LVL13:
 184 0008 1943     		orrs	r1, r3
 185              	.LVL14:
  99:e:/LiteOS/LiteOS/targets/Cloud_FM33A0XX/GCC/../../../targets/Cloud_FM33A0XX/Drivers\fm33a0xx_btim.c **** 	BTIMx->BTCR1 = tmpreg;
 186              		.loc 1 99 0
 187 000a 0160     		str	r1, [r0]
 100:e:/LiteOS/LiteOS/targets/Cloud_FM33A0XX/GCC/../../../targets/Cloud_FM33A0XX/Drivers\fm33a0xx_btim.c **** }
 188              		.loc 1 100 0
 189              		@ sp needed
 190 000c 7047     		bx	lr
 191              		.cfi_endproc
 192              	.LFE40:
 194 000e C046     		.section	.text.BTIMx_BTCR1_MODE_Get,"ax",%progbits
 195              		.align	2
ARM GAS  C:\Users\WANGBI~1\AppData\Local\Temp\cc00eRbQ.s 			page 6


 196              		.global	BTIMx_BTCR1_MODE_Get
 197              		.code	16
 198              		.thumb_func
 200              	BTIMx_BTCR1_MODE_Get:
 201              	.LFB41:
 101:e:/LiteOS/LiteOS/targets/Cloud_FM33A0XX/GCC/../../../targets/Cloud_FM33A0XX/Drivers\fm33a0xx_btim.c **** 
 102:e:/LiteOS/LiteOS/targets/Cloud_FM33A0XX/GCC/../../../targets/Cloud_FM33A0XX/Drivers\fm33a0xx_btim.c **** uint32_t BTIMx_BTCR1_MODE_Get(BTIMx_Type* BTIMx)
 103:e:/LiteOS/LiteOS/targets/Cloud_FM33A0XX/GCC/../../../targets/Cloud_FM33A0XX/Drivers\fm33a0xx_btim.c **** {
 202              		.loc 1 103 0
 203              		.cfi_startproc
 204              		@ args = 0, pretend = 0, frame = 0
 205              		@ frame_needed = 0, uses_anonymous_args = 0
 206              		@ link register save eliminated.
 207              	.LVL15:
 104:e:/LiteOS/LiteOS/targets/Cloud_FM33A0XX/GCC/../../../targets/Cloud_FM33A0XX/Drivers\fm33a0xx_btim.c **** 	return (BTIMx->BTCR1 & BTIMx_BTCR1_MODE_Msk);
 208              		.loc 1 104 0
 209 0000 0368     		ldr	r3, [r0]
 210 0002 2020     		movs	r0, #32
 211              	.LVL16:
 212 0004 1840     		ands	r0, r3
 105:e:/LiteOS/LiteOS/targets/Cloud_FM33A0XX/GCC/../../../targets/Cloud_FM33A0XX/Drivers\fm33a0xx_btim.c **** }
 213              		.loc 1 105 0
 214              		@ sp needed
 215 0006 7047     		bx	lr
 216              		.cfi_endproc
 217              	.LFE41:
 219              		.section	.text.BTIMx_BTCR1_EDGESEL_Set,"ax",%progbits
 220              		.align	2
 221              		.global	BTIMx_BTCR1_EDGESEL_Set
 222              		.code	16
 223              		.thumb_func
 225              	BTIMx_BTCR1_EDGESEL_Set:
 226              	.LFB42:
 106:e:/LiteOS/LiteOS/targets/Cloud_FM33A0XX/GCC/../../../targets/Cloud_FM33A0XX/Drivers\fm33a0xx_btim.c **** 
 107:e:/LiteOS/LiteOS/targets/Cloud_FM33A0XX/GCC/../../../targets/Cloud_FM33A0XX/Drivers\fm33a0xx_btim.c **** /* 计数沿或捕捉沿选择 相关函数 */
 108:e:/LiteOS/LiteOS/targets/Cloud_FM33A0XX/GCC/../../../targets/Cloud_FM33A0XX/Drivers\fm33a0xx_btim.c **** void BTIMx_BTCR1_EDGESEL_Set(BTIMx_Type* BTIMx, uint32_t SetValue)
 109:e:/LiteOS/LiteOS/targets/Cloud_FM33A0XX/GCC/../../../targets/Cloud_FM33A0XX/Drivers\fm33a0xx_btim.c **** {
 227              		.loc 1 109 0
 228              		.cfi_startproc
 229              		@ args = 0, pretend = 0, frame = 0
 230              		@ frame_needed = 0, uses_anonymous_args = 0
 231              		@ link register save eliminated.
 232              	.LVL17:
 110:e:/LiteOS/LiteOS/targets/Cloud_FM33A0XX/GCC/../../../targets/Cloud_FM33A0XX/Drivers\fm33a0xx_btim.c **** 	uint32_t tmpreg;
 111:e:/LiteOS/LiteOS/targets/Cloud_FM33A0XX/GCC/../../../targets/Cloud_FM33A0XX/Drivers\fm33a0xx_btim.c **** 	tmpreg = BTIMx->BTCR1;
 233              		.loc 1 111 0
 234 0000 0368     		ldr	r3, [r0]
 235              	.LVL18:
 112:e:/LiteOS/LiteOS/targets/Cloud_FM33A0XX/GCC/../../../targets/Cloud_FM33A0XX/Drivers\fm33a0xx_btim.c **** 	tmpreg &= ~(BTIMx_BTCR1_EDGESEL_Msk);
 236              		.loc 1 112 0
 237 0002 1022     		movs	r2, #16
 238 0004 9343     		bics	r3, r2
 239              	.LVL19:
 113:e:/LiteOS/LiteOS/targets/Cloud_FM33A0XX/GCC/../../../targets/Cloud_FM33A0XX/Drivers\fm33a0xx_btim.c **** 	tmpreg |= (SetValue & BTIMx_BTCR1_EDGESEL_Msk);
 240              		.loc 1 113 0
 241 0006 1140     		ands	r1, r2
 242              	.LVL20:
ARM GAS  C:\Users\WANGBI~1\AppData\Local\Temp\cc00eRbQ.s 			page 7


 243 0008 1943     		orrs	r1, r3
 244              	.LVL21:
 114:e:/LiteOS/LiteOS/targets/Cloud_FM33A0XX/GCC/../../../targets/Cloud_FM33A0XX/Drivers\fm33a0xx_btim.c **** 	BTIMx->BTCR1 = tmpreg;
 245              		.loc 1 114 0
 246 000a 0160     		str	r1, [r0]
 115:e:/LiteOS/LiteOS/targets/Cloud_FM33A0XX/GCC/../../../targets/Cloud_FM33A0XX/Drivers\fm33a0xx_btim.c **** }
 247              		.loc 1 115 0
 248              		@ sp needed
 249 000c 7047     		bx	lr
 250              		.cfi_endproc
 251              	.LFE42:
 253 000e C046     		.section	.text.BTIMx_BTCR1_EDGESEL_Get,"ax",%progbits
 254              		.align	2
 255              		.global	BTIMx_BTCR1_EDGESEL_Get
 256              		.code	16
 257              		.thumb_func
 259              	BTIMx_BTCR1_EDGESEL_Get:
 260              	.LFB43:
 116:e:/LiteOS/LiteOS/targets/Cloud_FM33A0XX/GCC/../../../targets/Cloud_FM33A0XX/Drivers\fm33a0xx_btim.c **** 
 117:e:/LiteOS/LiteOS/targets/Cloud_FM33A0XX/GCC/../../../targets/Cloud_FM33A0XX/Drivers\fm33a0xx_btim.c **** uint32_t BTIMx_BTCR1_EDGESEL_Get(BTIMx_Type* BTIMx)
 118:e:/LiteOS/LiteOS/targets/Cloud_FM33A0XX/GCC/../../../targets/Cloud_FM33A0XX/Drivers\fm33a0xx_btim.c **** {
 261              		.loc 1 118 0
 262              		.cfi_startproc
 263              		@ args = 0, pretend = 0, frame = 0
 264              		@ frame_needed = 0, uses_anonymous_args = 0
 265              		@ link register save eliminated.
 266              	.LVL22:
 119:e:/LiteOS/LiteOS/targets/Cloud_FM33A0XX/GCC/../../../targets/Cloud_FM33A0XX/Drivers\fm33a0xx_btim.c **** 	return (BTIMx->BTCR1 & BTIMx_BTCR1_EDGESEL_Msk);
 267              		.loc 1 119 0
 268 0000 0368     		ldr	r3, [r0]
 269 0002 1020     		movs	r0, #16
 270              	.LVL23:
 271 0004 1840     		ands	r0, r3
 120:e:/LiteOS/LiteOS/targets/Cloud_FM33A0XX/GCC/../../../targets/Cloud_FM33A0XX/Drivers\fm33a0xx_btim.c **** }
 272              		.loc 1 120 0
 273              		@ sp needed
 274 0006 7047     		bx	lr
 275              		.cfi_endproc
 276              	.LFE43:
 278              		.section	.text.BTIMx_BTCR1_CAPMOD_Set,"ax",%progbits
 279              		.align	2
 280              		.global	BTIMx_BTCR1_CAPMOD_Set
 281              		.code	16
 282              		.thumb_func
 284              	BTIMx_BTCR1_CAPMOD_Set:
 285              	.LFB44:
 121:e:/LiteOS/LiteOS/targets/Cloud_FM33A0XX/GCC/../../../targets/Cloud_FM33A0XX/Drivers\fm33a0xx_btim.c **** 
 122:e:/LiteOS/LiteOS/targets/Cloud_FM33A0XX/GCC/../../../targets/Cloud_FM33A0XX/Drivers\fm33a0xx_btim.c **** /* 捕捉模式控制（仅捕捉模式下有效） 相关函数 */
 123:e:/LiteOS/LiteOS/targets/Cloud_FM33A0XX/GCC/../../../targets/Cloud_FM33A0XX/Drivers\fm33a0xx_btim.c **** void BTIMx_BTCR1_CAPMOD_Set(BTIMx_Type* BTIMx, uint32_t SetValue)
 124:e:/LiteOS/LiteOS/targets/Cloud_FM33A0XX/GCC/../../../targets/Cloud_FM33A0XX/Drivers\fm33a0xx_btim.c **** {
 286              		.loc 1 124 0
 287              		.cfi_startproc
 288              		@ args = 0, pretend = 0, frame = 0
 289              		@ frame_needed = 0, uses_anonymous_args = 0
 290              		@ link register save eliminated.
 291              	.LVL24:
 125:e:/LiteOS/LiteOS/targets/Cloud_FM33A0XX/GCC/../../../targets/Cloud_FM33A0XX/Drivers\fm33a0xx_btim.c **** 	uint32_t tmpreg;
ARM GAS  C:\Users\WANGBI~1\AppData\Local\Temp\cc00eRbQ.s 			page 8


 126:e:/LiteOS/LiteOS/targets/Cloud_FM33A0XX/GCC/../../../targets/Cloud_FM33A0XX/Drivers\fm33a0xx_btim.c **** 	tmpreg = BTIMx->BTCR1;
 292              		.loc 1 126 0
 293 0000 0368     		ldr	r3, [r0]
 294              	.LVL25:
 127:e:/LiteOS/LiteOS/targets/Cloud_FM33A0XX/GCC/../../../targets/Cloud_FM33A0XX/Drivers\fm33a0xx_btim.c **** 	tmpreg &= ~(BTIMx_BTCR1_CAPMOD_Msk);
 295              		.loc 1 127 0
 296 0002 0822     		movs	r2, #8
 297 0004 9343     		bics	r3, r2
 298              	.LVL26:
 128:e:/LiteOS/LiteOS/targets/Cloud_FM33A0XX/GCC/../../../targets/Cloud_FM33A0XX/Drivers\fm33a0xx_btim.c **** 	tmpreg |= (SetValue & BTIMx_BTCR1_CAPMOD_Msk);
 299              		.loc 1 128 0
 300 0006 1140     		ands	r1, r2
 301              	.LVL27:
 302 0008 1943     		orrs	r1, r3
 303              	.LVL28:
 129:e:/LiteOS/LiteOS/targets/Cloud_FM33A0XX/GCC/../../../targets/Cloud_FM33A0XX/Drivers\fm33a0xx_btim.c **** 	BTIMx->BTCR1 = tmpreg;
 304              		.loc 1 129 0
 305 000a 0160     		str	r1, [r0]
 130:e:/LiteOS/LiteOS/targets/Cloud_FM33A0XX/GCC/../../../targets/Cloud_FM33A0XX/Drivers\fm33a0xx_btim.c **** }
 306              		.loc 1 130 0
 307              		@ sp needed
 308 000c 7047     		bx	lr
 309              		.cfi_endproc
 310              	.LFE44:
 312 000e C046     		.section	.text.BTIMx_BTCR1_CAPMOD_Get,"ax",%progbits
 313              		.align	2
 314              		.global	BTIMx_BTCR1_CAPMOD_Get
 315              		.code	16
 316              		.thumb_func
 318              	BTIMx_BTCR1_CAPMOD_Get:
 319              	.LFB45:
 131:e:/LiteOS/LiteOS/targets/Cloud_FM33A0XX/GCC/../../../targets/Cloud_FM33A0XX/Drivers\fm33a0xx_btim.c **** 
 132:e:/LiteOS/LiteOS/targets/Cloud_FM33A0XX/GCC/../../../targets/Cloud_FM33A0XX/Drivers\fm33a0xx_btim.c **** uint32_t BTIMx_BTCR1_CAPMOD_Get(BTIMx_Type* BTIMx)
 133:e:/LiteOS/LiteOS/targets/Cloud_FM33A0XX/GCC/../../../targets/Cloud_FM33A0XX/Drivers\fm33a0xx_btim.c **** {
 320              		.loc 1 133 0
 321              		.cfi_startproc
 322              		@ args = 0, pretend = 0, frame = 0
 323              		@ frame_needed = 0, uses_anonymous_args = 0
 324              		@ link register save eliminated.
 325              	.LVL29:
 134:e:/LiteOS/LiteOS/targets/Cloud_FM33A0XX/GCC/../../../targets/Cloud_FM33A0XX/Drivers\fm33a0xx_btim.c **** 	return (BTIMx->BTCR1 & BTIMx_BTCR1_CAPMOD_Msk);
 326              		.loc 1 134 0
 327 0000 0368     		ldr	r3, [r0]
 328 0002 0820     		movs	r0, #8
 329              	.LVL30:
 330 0004 1840     		ands	r0, r3
 135:e:/LiteOS/LiteOS/targets/Cloud_FM33A0XX/GCC/../../../targets/Cloud_FM33A0XX/Drivers\fm33a0xx_btim.c **** }
 331              		.loc 1 135 0
 332              		@ sp needed
 333 0006 7047     		bx	lr
 334              		.cfi_endproc
 335              	.LFE45:
 337              		.section	.text.BTIMx_BTCR1_CAPCLR_Set,"ax",%progbits
 338              		.align	2
 339              		.global	BTIMx_BTCR1_CAPCLR_Set
 340              		.code	16
 341              		.thumb_func
ARM GAS  C:\Users\WANGBI~1\AppData\Local\Temp\cc00eRbQ.s 			page 9


 343              	BTIMx_BTCR1_CAPCLR_Set:
 344              	.LFB46:
 136:e:/LiteOS/LiteOS/targets/Cloud_FM33A0XX/GCC/../../../targets/Cloud_FM33A0XX/Drivers\fm33a0xx_btim.c **** 
 137:e:/LiteOS/LiteOS/targets/Cloud_FM33A0XX/GCC/../../../targets/Cloud_FM33A0XX/Drivers\fm33a0xx_btim.c **** /* 带清零捕捉模式控制 相关函数 */
 138:e:/LiteOS/LiteOS/targets/Cloud_FM33A0XX/GCC/../../../targets/Cloud_FM33A0XX/Drivers\fm33a0xx_btim.c **** void BTIMx_BTCR1_CAPCLR_Set(BTIMx_Type* BTIMx, uint32_t SetValue)
 139:e:/LiteOS/LiteOS/targets/Cloud_FM33A0XX/GCC/../../../targets/Cloud_FM33A0XX/Drivers\fm33a0xx_btim.c **** {
 345              		.loc 1 139 0
 346              		.cfi_startproc
 347              		@ args = 0, pretend = 0, frame = 0
 348              		@ frame_needed = 0, uses_anonymous_args = 0
 349              		@ link register save eliminated.
 350              	.LVL31:
 140:e:/LiteOS/LiteOS/targets/Cloud_FM33A0XX/GCC/../../../targets/Cloud_FM33A0XX/Drivers\fm33a0xx_btim.c **** 	uint32_t tmpreg;
 141:e:/LiteOS/LiteOS/targets/Cloud_FM33A0XX/GCC/../../../targets/Cloud_FM33A0XX/Drivers\fm33a0xx_btim.c **** 	tmpreg = BTIMx->BTCR1;
 351              		.loc 1 141 0
 352 0000 0368     		ldr	r3, [r0]
 353              	.LVL32:
 142:e:/LiteOS/LiteOS/targets/Cloud_FM33A0XX/GCC/../../../targets/Cloud_FM33A0XX/Drivers\fm33a0xx_btim.c **** 	tmpreg &= ~(BTIMx_BTCR1_CAPCLR_Msk);
 354              		.loc 1 142 0
 355 0002 0422     		movs	r2, #4
 356 0004 9343     		bics	r3, r2
 357              	.LVL33:
 143:e:/LiteOS/LiteOS/targets/Cloud_FM33A0XX/GCC/../../../targets/Cloud_FM33A0XX/Drivers\fm33a0xx_btim.c **** 	tmpreg |= (SetValue & BTIMx_BTCR1_CAPCLR_Msk);
 358              		.loc 1 143 0
 359 0006 1140     		ands	r1, r2
 360              	.LVL34:
 361 0008 1943     		orrs	r1, r3
 362              	.LVL35:
 144:e:/LiteOS/LiteOS/targets/Cloud_FM33A0XX/GCC/../../../targets/Cloud_FM33A0XX/Drivers\fm33a0xx_btim.c **** 	BTIMx->BTCR1 = tmpreg;
 363              		.loc 1 144 0
 364 000a 0160     		str	r1, [r0]
 145:e:/LiteOS/LiteOS/targets/Cloud_FM33A0XX/GCC/../../../targets/Cloud_FM33A0XX/Drivers\fm33a0xx_btim.c **** }
 365              		.loc 1 145 0
 366              		@ sp needed
 367 000c 7047     		bx	lr
 368              		.cfi_endproc
 369              	.LFE46:
 371 000e C046     		.section	.text.BTIMx_BTCR1_CAPCLR_Get,"ax",%progbits
 372              		.align	2
 373              		.global	BTIMx_BTCR1_CAPCLR_Get
 374              		.code	16
 375              		.thumb_func
 377              	BTIMx_BTCR1_CAPCLR_Get:
 378              	.LFB47:
 146:e:/LiteOS/LiteOS/targets/Cloud_FM33A0XX/GCC/../../../targets/Cloud_FM33A0XX/Drivers\fm33a0xx_btim.c **** 
 147:e:/LiteOS/LiteOS/targets/Cloud_FM33A0XX/GCC/../../../targets/Cloud_FM33A0XX/Drivers\fm33a0xx_btim.c **** uint32_t BTIMx_BTCR1_CAPCLR_Get(BTIMx_Type* BTIMx)
 148:e:/LiteOS/LiteOS/targets/Cloud_FM33A0XX/GCC/../../../targets/Cloud_FM33A0XX/Drivers\fm33a0xx_btim.c **** {
 379              		.loc 1 148 0
 380              		.cfi_startproc
 381              		@ args = 0, pretend = 0, frame = 0
 382              		@ frame_needed = 0, uses_anonymous_args = 0
 383              		@ link register save eliminated.
 384              	.LVL36:
 149:e:/LiteOS/LiteOS/targets/Cloud_FM33A0XX/GCC/../../../targets/Cloud_FM33A0XX/Drivers\fm33a0xx_btim.c **** 	return (BTIMx->BTCR1 & BTIMx_BTCR1_CAPCLR_Msk);
 385              		.loc 1 149 0
 386 0000 0368     		ldr	r3, [r0]
 387 0002 0420     		movs	r0, #4
ARM GAS  C:\Users\WANGBI~1\AppData\Local\Temp\cc00eRbQ.s 			page 10


 388              	.LVL37:
 389 0004 1840     		ands	r0, r3
 150:e:/LiteOS/LiteOS/targets/Cloud_FM33A0XX/GCC/../../../targets/Cloud_FM33A0XX/Drivers\fm33a0xx_btim.c **** }
 390              		.loc 1 150 0
 391              		@ sp needed
 392 0006 7047     		bx	lr
 393              		.cfi_endproc
 394              	.LFE47:
 396              		.section	.text.BTIMx_BTCR1_CAPONCE_Set,"ax",%progbits
 397              		.align	2
 398              		.global	BTIMx_BTCR1_CAPONCE_Set
 399              		.code	16
 400              		.thumb_func
 402              	BTIMx_BTCR1_CAPONCE_Set:
 403              	.LFB48:
 151:e:/LiteOS/LiteOS/targets/Cloud_FM33A0XX/GCC/../../../targets/Cloud_FM33A0XX/Drivers\fm33a0xx_btim.c **** 
 152:e:/LiteOS/LiteOS/targets/Cloud_FM33A0XX/GCC/../../../targets/Cloud_FM33A0XX/Drivers\fm33a0xx_btim.c **** /* 单次捕捉控制 相关函数 */
 153:e:/LiteOS/LiteOS/targets/Cloud_FM33A0XX/GCC/../../../targets/Cloud_FM33A0XX/Drivers\fm33a0xx_btim.c **** void BTIMx_BTCR1_CAPONCE_Set(BTIMx_Type* BTIMx, uint32_t SetValue)
 154:e:/LiteOS/LiteOS/targets/Cloud_FM33A0XX/GCC/../../../targets/Cloud_FM33A0XX/Drivers\fm33a0xx_btim.c **** {
 404              		.loc 1 154 0
 405              		.cfi_startproc
 406              		@ args = 0, pretend = 0, frame = 0
 407              		@ frame_needed = 0, uses_anonymous_args = 0
 408              		@ link register save eliminated.
 409              	.LVL38:
 155:e:/LiteOS/LiteOS/targets/Cloud_FM33A0XX/GCC/../../../targets/Cloud_FM33A0XX/Drivers\fm33a0xx_btim.c **** 	uint32_t tmpreg;
 156:e:/LiteOS/LiteOS/targets/Cloud_FM33A0XX/GCC/../../../targets/Cloud_FM33A0XX/Drivers\fm33a0xx_btim.c **** 	tmpreg = BTIMx->BTCR1;
 410              		.loc 1 156 0
 411 0000 0368     		ldr	r3, [r0]
 412              	.LVL39:
 157:e:/LiteOS/LiteOS/targets/Cloud_FM33A0XX/GCC/../../../targets/Cloud_FM33A0XX/Drivers\fm33a0xx_btim.c **** 	tmpreg &= ~(BTIMx_BTCR1_CAPONCE_Msk);
 413              		.loc 1 157 0
 414 0002 0222     		movs	r2, #2
 415 0004 9343     		bics	r3, r2
 416              	.LVL40:
 158:e:/LiteOS/LiteOS/targets/Cloud_FM33A0XX/GCC/../../../targets/Cloud_FM33A0XX/Drivers\fm33a0xx_btim.c **** 	tmpreg |= (SetValue & BTIMx_BTCR1_CAPONCE_Msk);
 417              		.loc 1 158 0
 418 0006 1140     		ands	r1, r2
 419              	.LVL41:
 420 0008 1943     		orrs	r1, r3
 421              	.LVL42:
 159:e:/LiteOS/LiteOS/targets/Cloud_FM33A0XX/GCC/../../../targets/Cloud_FM33A0XX/Drivers\fm33a0xx_btim.c **** 	BTIMx->BTCR1 = tmpreg;
 422              		.loc 1 159 0
 423 000a 0160     		str	r1, [r0]
 160:e:/LiteOS/LiteOS/targets/Cloud_FM33A0XX/GCC/../../../targets/Cloud_FM33A0XX/Drivers\fm33a0xx_btim.c **** }
 424              		.loc 1 160 0
 425              		@ sp needed
 426 000c 7047     		bx	lr
 427              		.cfi_endproc
 428              	.LFE48:
 430 000e C046     		.section	.text.BTIMx_BTCR1_CAPONCE_Get,"ax",%progbits
 431              		.align	2
 432              		.global	BTIMx_BTCR1_CAPONCE_Get
 433              		.code	16
 434              		.thumb_func
 436              	BTIMx_BTCR1_CAPONCE_Get:
 437              	.LFB49:
ARM GAS  C:\Users\WANGBI~1\AppData\Local\Temp\cc00eRbQ.s 			page 11


 161:e:/LiteOS/LiteOS/targets/Cloud_FM33A0XX/GCC/../../../targets/Cloud_FM33A0XX/Drivers\fm33a0xx_btim.c **** 
 162:e:/LiteOS/LiteOS/targets/Cloud_FM33A0XX/GCC/../../../targets/Cloud_FM33A0XX/Drivers\fm33a0xx_btim.c **** uint32_t BTIMx_BTCR1_CAPONCE_Get(BTIMx_Type* BTIMx)
 163:e:/LiteOS/LiteOS/targets/Cloud_FM33A0XX/GCC/../../../targets/Cloud_FM33A0XX/Drivers\fm33a0xx_btim.c **** {
 438              		.loc 1 163 0
 439              		.cfi_startproc
 440              		@ args = 0, pretend = 0, frame = 0
 441              		@ frame_needed = 0, uses_anonymous_args = 0
 442              		@ link register save eliminated.
 443              	.LVL43:
 164:e:/LiteOS/LiteOS/targets/Cloud_FM33A0XX/GCC/../../../targets/Cloud_FM33A0XX/Drivers\fm33a0xx_btim.c **** 	return (BTIMx->BTCR1 & BTIMx_BTCR1_CAPONCE_Msk);
 444              		.loc 1 164 0
 445 0000 0368     		ldr	r3, [r0]
 446 0002 0220     		movs	r0, #2
 447              	.LVL44:
 448 0004 1840     		ands	r0, r3
 165:e:/LiteOS/LiteOS/targets/Cloud_FM33A0XX/GCC/../../../targets/Cloud_FM33A0XX/Drivers\fm33a0xx_btim.c **** }
 449              		.loc 1 165 0
 450              		@ sp needed
 451 0006 7047     		bx	lr
 452              		.cfi_endproc
 453              	.LFE49:
 455              		.section	.text.BTIMx_BTCR1_PWM_Setable,"ax",%progbits
 456              		.align	2
 457              		.global	BTIMx_BTCR1_PWM_Setable
 458              		.code	16
 459              		.thumb_func
 461              	BTIMx_BTCR1_PWM_Setable:
 462              	.LFB50:
 166:e:/LiteOS/LiteOS/targets/Cloud_FM33A0XX/GCC/../../../targets/Cloud_FM33A0XX/Drivers\fm33a0xx_btim.c **** 
 167:e:/LiteOS/LiteOS/targets/Cloud_FM33A0XX/GCC/../../../targets/Cloud_FM33A0XX/Drivers\fm33a0xx_btim.c **** /* PWM模式输出 相关函数 */
 168:e:/LiteOS/LiteOS/targets/Cloud_FM33A0XX/GCC/../../../targets/Cloud_FM33A0XX/Drivers\fm33a0xx_btim.c **** void BTIMx_BTCR1_PWM_Setable(BTIMx_Type* BTIMx, FunState NewState)
 169:e:/LiteOS/LiteOS/targets/Cloud_FM33A0XX/GCC/../../../targets/Cloud_FM33A0XX/Drivers\fm33a0xx_btim.c **** {
 463              		.loc 1 169 0
 464              		.cfi_startproc
 465              		@ args = 0, pretend = 0, frame = 0
 466              		@ frame_needed = 0, uses_anonymous_args = 0
 467              		@ link register save eliminated.
 468              	.LVL45:
 170:e:/LiteOS/LiteOS/targets/Cloud_FM33A0XX/GCC/../../../targets/Cloud_FM33A0XX/Drivers\fm33a0xx_btim.c **** 	if (NewState == ENABLE)
 469              		.loc 1 170 0
 470 0000 0129     		cmp	r1, #1
 471 0002 04D1     		bne	.L24
 171:e:/LiteOS/LiteOS/targets/Cloud_FM33A0XX/GCC/../../../targets/Cloud_FM33A0XX/Drivers\fm33a0xx_btim.c **** 	{
 172:e:/LiteOS/LiteOS/targets/Cloud_FM33A0XX/GCC/../../../targets/Cloud_FM33A0XX/Drivers\fm33a0xx_btim.c **** 		BTIMx->BTCR1 |= (BTIMx_BTCR1_PWM_Msk);
 472              		.loc 1 172 0
 473 0004 0268     		ldr	r2, [r0]
 474 0006 0123     		movs	r3, #1
 475 0008 1343     		orrs	r3, r2
 476 000a 0360     		str	r3, [r0]
 477 000c 03E0     		b	.L23
 478              	.L24:
 173:e:/LiteOS/LiteOS/targets/Cloud_FM33A0XX/GCC/../../../targets/Cloud_FM33A0XX/Drivers\fm33a0xx_btim.c **** 	}
 174:e:/LiteOS/LiteOS/targets/Cloud_FM33A0XX/GCC/../../../targets/Cloud_FM33A0XX/Drivers\fm33a0xx_btim.c **** 	else
 175:e:/LiteOS/LiteOS/targets/Cloud_FM33A0XX/GCC/../../../targets/Cloud_FM33A0XX/Drivers\fm33a0xx_btim.c **** 	{
 176:e:/LiteOS/LiteOS/targets/Cloud_FM33A0XX/GCC/../../../targets/Cloud_FM33A0XX/Drivers\fm33a0xx_btim.c **** 		BTIMx->BTCR1 &= ~(BTIMx_BTCR1_PWM_Msk);
 479              		.loc 1 176 0
 480 000e 0368     		ldr	r3, [r0]
ARM GAS  C:\Users\WANGBI~1\AppData\Local\Temp\cc00eRbQ.s 			page 12


 481 0010 0122     		movs	r2, #1
 482 0012 9343     		bics	r3, r2
 483 0014 0360     		str	r3, [r0]
 484              	.L23:
 177:e:/LiteOS/LiteOS/targets/Cloud_FM33A0XX/GCC/../../../targets/Cloud_FM33A0XX/Drivers\fm33a0xx_btim.c **** 	}
 178:e:/LiteOS/LiteOS/targets/Cloud_FM33A0XX/GCC/../../../targets/Cloud_FM33A0XX/Drivers\fm33a0xx_btim.c **** }
 485              		.loc 1 178 0
 486              		@ sp needed
 487 0016 7047     		bx	lr
 488              		.cfi_endproc
 489              	.LFE50:
 491              		.section	.text.BTIMx_BTCR1_PWM_Getable,"ax",%progbits
 492              		.align	2
 493              		.global	BTIMx_BTCR1_PWM_Getable
 494              		.code	16
 495              		.thumb_func
 497              	BTIMx_BTCR1_PWM_Getable:
 498              	.LFB51:
 179:e:/LiteOS/LiteOS/targets/Cloud_FM33A0XX/GCC/../../../targets/Cloud_FM33A0XX/Drivers\fm33a0xx_btim.c **** 
 180:e:/LiteOS/LiteOS/targets/Cloud_FM33A0XX/GCC/../../../targets/Cloud_FM33A0XX/Drivers\fm33a0xx_btim.c **** FunState BTIMx_BTCR1_PWM_Getable(BTIMx_Type* BTIMx)
 181:e:/LiteOS/LiteOS/targets/Cloud_FM33A0XX/GCC/../../../targets/Cloud_FM33A0XX/Drivers\fm33a0xx_btim.c **** {
 499              		.loc 1 181 0
 500              		.cfi_startproc
 501              		@ args = 0, pretend = 0, frame = 0
 502              		@ frame_needed = 0, uses_anonymous_args = 0
 503              		@ link register save eliminated.
 504              	.LVL46:
 182:e:/LiteOS/LiteOS/targets/Cloud_FM33A0XX/GCC/../../../targets/Cloud_FM33A0XX/Drivers\fm33a0xx_btim.c **** 	if (BTIMx->BTCR1 & (BTIMx_BTCR1_PWM_Msk))
 505              		.loc 1 182 0
 506 0000 0368     		ldr	r3, [r0]
 507 0002 DB07     		lsls	r3, r3, #31
 508 0004 01D5     		bpl	.L28
 183:e:/LiteOS/LiteOS/targets/Cloud_FM33A0XX/GCC/../../../targets/Cloud_FM33A0XX/Drivers\fm33a0xx_btim.c **** 	{
 184:e:/LiteOS/LiteOS/targets/Cloud_FM33A0XX/GCC/../../../targets/Cloud_FM33A0XX/Drivers\fm33a0xx_btim.c **** 		return ENABLE;
 509              		.loc 1 184 0
 510 0006 0120     		movs	r0, #1
 511              	.LVL47:
 512 0008 00E0     		b	.L27
 513              	.LVL48:
 514              	.L28:
 185:e:/LiteOS/LiteOS/targets/Cloud_FM33A0XX/GCC/../../../targets/Cloud_FM33A0XX/Drivers\fm33a0xx_btim.c **** 	}
 186:e:/LiteOS/LiteOS/targets/Cloud_FM33A0XX/GCC/../../../targets/Cloud_FM33A0XX/Drivers\fm33a0xx_btim.c **** 	else
 187:e:/LiteOS/LiteOS/targets/Cloud_FM33A0XX/GCC/../../../targets/Cloud_FM33A0XX/Drivers\fm33a0xx_btim.c **** 	{
 188:e:/LiteOS/LiteOS/targets/Cloud_FM33A0XX/GCC/../../../targets/Cloud_FM33A0XX/Drivers\fm33a0xx_btim.c **** 		return DISABLE;
 515              		.loc 1 188 0
 516 000a 0020     		movs	r0, #0
 517              	.LVL49:
 518              	.L27:
 189:e:/LiteOS/LiteOS/targets/Cloud_FM33A0XX/GCC/../../../targets/Cloud_FM33A0XX/Drivers\fm33a0xx_btim.c **** 	}
 190:e:/LiteOS/LiteOS/targets/Cloud_FM33A0XX/GCC/../../../targets/Cloud_FM33A0XX/Drivers\fm33a0xx_btim.c **** }
 519              		.loc 1 190 0
 520              		@ sp needed
 521 000c 7047     		bx	lr
 522              		.cfi_endproc
 523              	.LFE51:
 525 000e C046     		.section	.text.BTIMx_BTCR2_SIG2SEL_Set,"ax",%progbits
 526              		.align	2
ARM GAS  C:\Users\WANGBI~1\AppData\Local\Temp\cc00eRbQ.s 			page 13


 527              		.global	BTIMx_BTCR2_SIG2SEL_Set
 528              		.code	16
 529              		.thumb_func
 531              	BTIMx_BTCR2_SIG2SEL_Set:
 532              	.LFB52:
 191:e:/LiteOS/LiteOS/targets/Cloud_FM33A0XX/GCC/../../../targets/Cloud_FM33A0XX/Drivers\fm33a0xx_btim.c **** 
 192:e:/LiteOS/LiteOS/targets/Cloud_FM33A0XX/GCC/../../../targets/Cloud_FM33A0XX/Drivers\fm33a0xx_btim.c **** /* 计数器内部计数源信号选择 相关函数 */
 193:e:/LiteOS/LiteOS/targets/Cloud_FM33A0XX/GCC/../../../targets/Cloud_FM33A0XX/Drivers\fm33a0xx_btim.c **** void BTIMx_BTCR2_SIG2SEL_Set(BTIMx_Type* BTIMx, uint32_t SetValue)
 194:e:/LiteOS/LiteOS/targets/Cloud_FM33A0XX/GCC/../../../targets/Cloud_FM33A0XX/Drivers\fm33a0xx_btim.c **** {
 533              		.loc 1 194 0
 534              		.cfi_startproc
 535              		@ args = 0, pretend = 0, frame = 0
 536              		@ frame_needed = 0, uses_anonymous_args = 0
 537              		@ link register save eliminated.
 538              	.LVL50:
 195:e:/LiteOS/LiteOS/targets/Cloud_FM33A0XX/GCC/../../../targets/Cloud_FM33A0XX/Drivers\fm33a0xx_btim.c **** 	uint32_t tmpreg;
 196:e:/LiteOS/LiteOS/targets/Cloud_FM33A0XX/GCC/../../../targets/Cloud_FM33A0XX/Drivers\fm33a0xx_btim.c **** 	tmpreg = BTIMx->BTCR2;
 539              		.loc 1 196 0
 540 0000 4368     		ldr	r3, [r0, #4]
 541              	.LVL51:
 197:e:/LiteOS/LiteOS/targets/Cloud_FM33A0XX/GCC/../../../targets/Cloud_FM33A0XX/Drivers\fm33a0xx_btim.c **** 	tmpreg &= ~(BTIMx_BTCR2_SIG2SEL_Msk);
 542              		.loc 1 197 0
 543 0002 8022     		movs	r2, #128
 544 0004 9343     		bics	r3, r2
 545              	.LVL52:
 198:e:/LiteOS/LiteOS/targets/Cloud_FM33A0XX/GCC/../../../targets/Cloud_FM33A0XX/Drivers\fm33a0xx_btim.c **** 	tmpreg |= (SetValue & BTIMx_BTCR2_SIG2SEL_Msk);
 546              		.loc 1 198 0
 547 0006 1140     		ands	r1, r2
 548              	.LVL53:
 549 0008 1943     		orrs	r1, r3
 550              	.LVL54:
 199:e:/LiteOS/LiteOS/targets/Cloud_FM33A0XX/GCC/../../../targets/Cloud_FM33A0XX/Drivers\fm33a0xx_btim.c **** 	BTIMx->BTCR2 = tmpreg;
 551              		.loc 1 199 0
 552 000a 4160     		str	r1, [r0, #4]
 200:e:/LiteOS/LiteOS/targets/Cloud_FM33A0XX/GCC/../../../targets/Cloud_FM33A0XX/Drivers\fm33a0xx_btim.c **** }
 553              		.loc 1 200 0
 554              		@ sp needed
 555 000c 7047     		bx	lr
 556              		.cfi_endproc
 557              	.LFE52:
 559 000e C046     		.section	.text.BTIMx_BTCR2_SIG2SEL_Get,"ax",%progbits
 560              		.align	2
 561              		.global	BTIMx_BTCR2_SIG2SEL_Get
 562              		.code	16
 563              		.thumb_func
 565              	BTIMx_BTCR2_SIG2SEL_Get:
 566              	.LFB53:
 201:e:/LiteOS/LiteOS/targets/Cloud_FM33A0XX/GCC/../../../targets/Cloud_FM33A0XX/Drivers\fm33a0xx_btim.c **** 
 202:e:/LiteOS/LiteOS/targets/Cloud_FM33A0XX/GCC/../../../targets/Cloud_FM33A0XX/Drivers\fm33a0xx_btim.c **** uint32_t BTIMx_BTCR2_SIG2SEL_Get(BTIMx_Type* BTIMx)
 203:e:/LiteOS/LiteOS/targets/Cloud_FM33A0XX/GCC/../../../targets/Cloud_FM33A0XX/Drivers\fm33a0xx_btim.c **** {
 567              		.loc 1 203 0
 568              		.cfi_startproc
 569              		@ args = 0, pretend = 0, frame = 0
 570              		@ frame_needed = 0, uses_anonymous_args = 0
 571              		@ link register save eliminated.
 572              	.LVL55:
 204:e:/LiteOS/LiteOS/targets/Cloud_FM33A0XX/GCC/../../../targets/Cloud_FM33A0XX/Drivers\fm33a0xx_btim.c **** 	return (BTIMx->BTCR2 & BTIMx_BTCR2_SIG2SEL_Msk);
ARM GAS  C:\Users\WANGBI~1\AppData\Local\Temp\cc00eRbQ.s 			page 14


 573              		.loc 1 204 0
 574 0000 4368     		ldr	r3, [r0, #4]
 575 0002 8020     		movs	r0, #128
 576              	.LVL56:
 577 0004 1840     		ands	r0, r3
 205:e:/LiteOS/LiteOS/targets/Cloud_FM33A0XX/GCC/../../../targets/Cloud_FM33A0XX/Drivers\fm33a0xx_btim.c **** }
 578              		.loc 1 205 0
 579              		@ sp needed
 580 0006 7047     		bx	lr
 581              		.cfi_endproc
 582              	.LFE53:
 584              		.section	.text.BTIMx_BTCR2_SIG1SEL_Set,"ax",%progbits
 585              		.align	2
 586              		.global	BTIMx_BTCR2_SIG1SEL_Set
 587              		.code	16
 588              		.thumb_func
 590              	BTIMx_BTCR2_SIG1SEL_Set:
 591              	.LFB54:
 206:e:/LiteOS/LiteOS/targets/Cloud_FM33A0XX/GCC/../../../targets/Cloud_FM33A0XX/Drivers\fm33a0xx_btim.c **** 
 207:e:/LiteOS/LiteOS/targets/Cloud_FM33A0XX/GCC/../../../targets/Cloud_FM33A0XX/Drivers\fm33a0xx_btim.c **** /* 计数器内部捕捉源信号选择 相关函数 */
 208:e:/LiteOS/LiteOS/targets/Cloud_FM33A0XX/GCC/../../../targets/Cloud_FM33A0XX/Drivers\fm33a0xx_btim.c **** void BTIMx_BTCR2_SIG1SEL_Set(BTIMx_Type* BTIMx, uint32_t SetValue)
 209:e:/LiteOS/LiteOS/targets/Cloud_FM33A0XX/GCC/../../../targets/Cloud_FM33A0XX/Drivers\fm33a0xx_btim.c **** {
 592              		.loc 1 209 0
 593              		.cfi_startproc
 594              		@ args = 0, pretend = 0, frame = 0
 595              		@ frame_needed = 0, uses_anonymous_args = 0
 596              		@ link register save eliminated.
 597              	.LVL57:
 210:e:/LiteOS/LiteOS/targets/Cloud_FM33A0XX/GCC/../../../targets/Cloud_FM33A0XX/Drivers\fm33a0xx_btim.c **** 	uint32_t tmpreg;
 211:e:/LiteOS/LiteOS/targets/Cloud_FM33A0XX/GCC/../../../targets/Cloud_FM33A0XX/Drivers\fm33a0xx_btim.c **** 	tmpreg = BTIMx->BTCR2;
 598              		.loc 1 211 0
 599 0000 4368     		ldr	r3, [r0, #4]
 600              	.LVL58:
 212:e:/LiteOS/LiteOS/targets/Cloud_FM33A0XX/GCC/../../../targets/Cloud_FM33A0XX/Drivers\fm33a0xx_btim.c **** 	tmpreg &= ~(BTIMx_BTCR2_SIG1SEL_Msk);
 601              		.loc 1 212 0
 602 0002 4022     		movs	r2, #64
 603 0004 9343     		bics	r3, r2
 604              	.LVL59:
 213:e:/LiteOS/LiteOS/targets/Cloud_FM33A0XX/GCC/../../../targets/Cloud_FM33A0XX/Drivers\fm33a0xx_btim.c **** 	tmpreg |= (SetValue & BTIMx_BTCR2_SIG1SEL_Msk);
 605              		.loc 1 213 0
 606 0006 1140     		ands	r1, r2
 607              	.LVL60:
 608 0008 1943     		orrs	r1, r3
 609              	.LVL61:
 214:e:/LiteOS/LiteOS/targets/Cloud_FM33A0XX/GCC/../../../targets/Cloud_FM33A0XX/Drivers\fm33a0xx_btim.c **** 	BTIMx->BTCR2 = tmpreg;
 610              		.loc 1 214 0
 611 000a 4160     		str	r1, [r0, #4]
 215:e:/LiteOS/LiteOS/targets/Cloud_FM33A0XX/GCC/../../../targets/Cloud_FM33A0XX/Drivers\fm33a0xx_btim.c **** }
 612              		.loc 1 215 0
 613              		@ sp needed
 614 000c 7047     		bx	lr
 615              		.cfi_endproc
 616              	.LFE54:
 618 000e C046     		.section	.text.BTIMx_BTCR2_SIG1SEL_Get,"ax",%progbits
 619              		.align	2
 620              		.global	BTIMx_BTCR2_SIG1SEL_Get
 621              		.code	16
ARM GAS  C:\Users\WANGBI~1\AppData\Local\Temp\cc00eRbQ.s 			page 15


 622              		.thumb_func
 624              	BTIMx_BTCR2_SIG1SEL_Get:
 625              	.LFB55:
 216:e:/LiteOS/LiteOS/targets/Cloud_FM33A0XX/GCC/../../../targets/Cloud_FM33A0XX/Drivers\fm33a0xx_btim.c **** 
 217:e:/LiteOS/LiteOS/targets/Cloud_FM33A0XX/GCC/../../../targets/Cloud_FM33A0XX/Drivers\fm33a0xx_btim.c **** uint32_t BTIMx_BTCR2_SIG1SEL_Get(BTIMx_Type* BTIMx)
 218:e:/LiteOS/LiteOS/targets/Cloud_FM33A0XX/GCC/../../../targets/Cloud_FM33A0XX/Drivers\fm33a0xx_btim.c **** {
 626              		.loc 1 218 0
 627              		.cfi_startproc
 628              		@ args = 0, pretend = 0, frame = 0
 629              		@ frame_needed = 0, uses_anonymous_args = 0
 630              		@ link register save eliminated.
 631              	.LVL62:
 219:e:/LiteOS/LiteOS/targets/Cloud_FM33A0XX/GCC/../../../targets/Cloud_FM33A0XX/Drivers\fm33a0xx_btim.c **** 	return (BTIMx->BTCR2 & BTIMx_BTCR2_SIG1SEL_Msk);
 632              		.loc 1 219 0
 633 0000 4368     		ldr	r3, [r0, #4]
 634 0002 4020     		movs	r0, #64
 635              	.LVL63:
 636 0004 1840     		ands	r0, r3
 220:e:/LiteOS/LiteOS/targets/Cloud_FM33A0XX/GCC/../../../targets/Cloud_FM33A0XX/Drivers\fm33a0xx_btim.c **** }
 637              		.loc 1 220 0
 638              		@ sp needed
 639 0006 7047     		bx	lr
 640              		.cfi_endproc
 641              	.LFE55:
 643              		.section	.text.BTIMx_BTCR2_CNTHSEL_Set,"ax",%progbits
 644              		.align	2
 645              		.global	BTIMx_BTCR2_CNTHSEL_Set
 646              		.code	16
 647              		.thumb_func
 649              	BTIMx_BTCR2_CNTHSEL_Set:
 650              	.LFB56:
 221:e:/LiteOS/LiteOS/targets/Cloud_FM33A0XX/GCC/../../../targets/Cloud_FM33A0XX/Drivers\fm33a0xx_btim.c **** 
 222:e:/LiteOS/LiteOS/targets/Cloud_FM33A0XX/GCC/../../../targets/Cloud_FM33A0XX/Drivers\fm33a0xx_btim.c **** /* 高位计数器源选择 相关函数 */
 223:e:/LiteOS/LiteOS/targets/Cloud_FM33A0XX/GCC/../../../targets/Cloud_FM33A0XX/Drivers\fm33a0xx_btim.c **** void BTIMx_BTCR2_CNTHSEL_Set(BTIMx_Type* BTIMx, uint32_t SetValue)
 224:e:/LiteOS/LiteOS/targets/Cloud_FM33A0XX/GCC/../../../targets/Cloud_FM33A0XX/Drivers\fm33a0xx_btim.c **** {
 651              		.loc 1 224 0
 652              		.cfi_startproc
 653              		@ args = 0, pretend = 0, frame = 0
 654              		@ frame_needed = 0, uses_anonymous_args = 0
 655              		@ link register save eliminated.
 656              	.LVL64:
 225:e:/LiteOS/LiteOS/targets/Cloud_FM33A0XX/GCC/../../../targets/Cloud_FM33A0XX/Drivers\fm33a0xx_btim.c **** 	uint32_t tmpreg;
 226:e:/LiteOS/LiteOS/targets/Cloud_FM33A0XX/GCC/../../../targets/Cloud_FM33A0XX/Drivers\fm33a0xx_btim.c **** 	tmpreg = BTIMx->BTCR2;
 657              		.loc 1 226 0
 658 0000 4368     		ldr	r3, [r0, #4]
 659              	.LVL65:
 227:e:/LiteOS/LiteOS/targets/Cloud_FM33A0XX/GCC/../../../targets/Cloud_FM33A0XX/Drivers\fm33a0xx_btim.c **** 	tmpreg &= ~(BTIMx_BTCR2_CNTHSEL_Msk);
 660              		.loc 1 227 0
 661 0002 3022     		movs	r2, #48
 662 0004 9343     		bics	r3, r2
 663              	.LVL66:
 228:e:/LiteOS/LiteOS/targets/Cloud_FM33A0XX/GCC/../../../targets/Cloud_FM33A0XX/Drivers\fm33a0xx_btim.c **** 	tmpreg |= (SetValue & BTIMx_BTCR2_CNTHSEL_Msk);
 664              		.loc 1 228 0
 665 0006 1140     		ands	r1, r2
 666              	.LVL67:
 667 0008 1943     		orrs	r1, r3
 668              	.LVL68:
ARM GAS  C:\Users\WANGBI~1\AppData\Local\Temp\cc00eRbQ.s 			page 16


 229:e:/LiteOS/LiteOS/targets/Cloud_FM33A0XX/GCC/../../../targets/Cloud_FM33A0XX/Drivers\fm33a0xx_btim.c **** 	BTIMx->BTCR2 = tmpreg;
 669              		.loc 1 229 0
 670 000a 4160     		str	r1, [r0, #4]
 230:e:/LiteOS/LiteOS/targets/Cloud_FM33A0XX/GCC/../../../targets/Cloud_FM33A0XX/Drivers\fm33a0xx_btim.c **** }
 671              		.loc 1 230 0
 672              		@ sp needed
 673 000c 7047     		bx	lr
 674              		.cfi_endproc
 675              	.LFE56:
 677 000e C046     		.section	.text.BTIMx_BTCR2_CNTHSEL_Get,"ax",%progbits
 678              		.align	2
 679              		.global	BTIMx_BTCR2_CNTHSEL_Get
 680              		.code	16
 681              		.thumb_func
 683              	BTIMx_BTCR2_CNTHSEL_Get:
 684              	.LFB57:
 231:e:/LiteOS/LiteOS/targets/Cloud_FM33A0XX/GCC/../../../targets/Cloud_FM33A0XX/Drivers\fm33a0xx_btim.c **** 
 232:e:/LiteOS/LiteOS/targets/Cloud_FM33A0XX/GCC/../../../targets/Cloud_FM33A0XX/Drivers\fm33a0xx_btim.c **** uint32_t BTIMx_BTCR2_CNTHSEL_Get(BTIMx_Type* BTIMx)
 233:e:/LiteOS/LiteOS/targets/Cloud_FM33A0XX/GCC/../../../targets/Cloud_FM33A0XX/Drivers\fm33a0xx_btim.c **** {
 685              		.loc 1 233 0
 686              		.cfi_startproc
 687              		@ args = 0, pretend = 0, frame = 0
 688              		@ frame_needed = 0, uses_anonymous_args = 0
 689              		@ link register save eliminated.
 690              	.LVL69:
 234:e:/LiteOS/LiteOS/targets/Cloud_FM33A0XX/GCC/../../../targets/Cloud_FM33A0XX/Drivers\fm33a0xx_btim.c **** 	return (BTIMx->BTCR2 & BTIMx_BTCR2_CNTHSEL_Msk);
 691              		.loc 1 234 0
 692 0000 4368     		ldr	r3, [r0, #4]
 693 0002 3020     		movs	r0, #48
 694              	.LVL70:
 695 0004 1840     		ands	r0, r3
 235:e:/LiteOS/LiteOS/targets/Cloud_FM33A0XX/GCC/../../../targets/Cloud_FM33A0XX/Drivers\fm33a0xx_btim.c **** }
 696              		.loc 1 235 0
 697              		@ sp needed
 698 0006 7047     		bx	lr
 699              		.cfi_endproc
 700              	.LFE57:
 702              		.section	.text.BTIMx_BTCR2_DIREN_Setable,"ax",%progbits
 703              		.align	2
 704              		.global	BTIMx_BTCR2_DIREN_Setable
 705              		.code	16
 706              		.thumb_func
 708              	BTIMx_BTCR2_DIREN_Setable:
 709              	.LFB58:
 236:e:/LiteOS/LiteOS/targets/Cloud_FM33A0XX/GCC/../../../targets/Cloud_FM33A0XX/Drivers\fm33a0xx_btim.c **** 
 237:e:/LiteOS/LiteOS/targets/Cloud_FM33A0XX/GCC/../../../targets/Cloud_FM33A0XX/Drivers\fm33a0xx_btim.c **** /* 外部输入DIR控制使能 相关函数 */
 238:e:/LiteOS/LiteOS/targets/Cloud_FM33A0XX/GCC/../../../targets/Cloud_FM33A0XX/Drivers\fm33a0xx_btim.c **** void BTIMx_BTCR2_DIREN_Setable(BTIMx_Type* BTIMx, FunState NewState)
 239:e:/LiteOS/LiteOS/targets/Cloud_FM33A0XX/GCC/../../../targets/Cloud_FM33A0XX/Drivers\fm33a0xx_btim.c **** {
 710              		.loc 1 239 0
 711              		.cfi_startproc
 712              		@ args = 0, pretend = 0, frame = 0
 713              		@ frame_needed = 0, uses_anonymous_args = 0
 714              		@ link register save eliminated.
 715              	.LVL71:
 240:e:/LiteOS/LiteOS/targets/Cloud_FM33A0XX/GCC/../../../targets/Cloud_FM33A0XX/Drivers\fm33a0xx_btim.c **** 	if (NewState == ENABLE)
 716              		.loc 1 240 0
 717 0000 0129     		cmp	r1, #1
ARM GAS  C:\Users\WANGBI~1\AppData\Local\Temp\cc00eRbQ.s 			page 17


 718 0002 04D1     		bne	.L36
 241:e:/LiteOS/LiteOS/targets/Cloud_FM33A0XX/GCC/../../../targets/Cloud_FM33A0XX/Drivers\fm33a0xx_btim.c **** 	{
 242:e:/LiteOS/LiteOS/targets/Cloud_FM33A0XX/GCC/../../../targets/Cloud_FM33A0XX/Drivers\fm33a0xx_btim.c **** 		BTIMx->BTCR2 |= (BTIMx_BTCR2_DIREN_Msk);
 719              		.loc 1 242 0
 720 0004 4268     		ldr	r2, [r0, #4]
 721 0006 0823     		movs	r3, #8
 722 0008 1343     		orrs	r3, r2
 723 000a 4360     		str	r3, [r0, #4]
 724 000c 03E0     		b	.L35
 725              	.L36:
 243:e:/LiteOS/LiteOS/targets/Cloud_FM33A0XX/GCC/../../../targets/Cloud_FM33A0XX/Drivers\fm33a0xx_btim.c **** 	}
 244:e:/LiteOS/LiteOS/targets/Cloud_FM33A0XX/GCC/../../../targets/Cloud_FM33A0XX/Drivers\fm33a0xx_btim.c **** 	else
 245:e:/LiteOS/LiteOS/targets/Cloud_FM33A0XX/GCC/../../../targets/Cloud_FM33A0XX/Drivers\fm33a0xx_btim.c **** 	{
 246:e:/LiteOS/LiteOS/targets/Cloud_FM33A0XX/GCC/../../../targets/Cloud_FM33A0XX/Drivers\fm33a0xx_btim.c **** 		BTIMx->BTCR2 &= ~(BTIMx_BTCR2_DIREN_Msk);
 726              		.loc 1 246 0
 727 000e 4368     		ldr	r3, [r0, #4]
 728 0010 0822     		movs	r2, #8
 729 0012 9343     		bics	r3, r2
 730 0014 4360     		str	r3, [r0, #4]
 731              	.L35:
 247:e:/LiteOS/LiteOS/targets/Cloud_FM33A0XX/GCC/../../../targets/Cloud_FM33A0XX/Drivers\fm33a0xx_btim.c **** 	}
 248:e:/LiteOS/LiteOS/targets/Cloud_FM33A0XX/GCC/../../../targets/Cloud_FM33A0XX/Drivers\fm33a0xx_btim.c **** }
 732              		.loc 1 248 0
 733              		@ sp needed
 734 0016 7047     		bx	lr
 735              		.cfi_endproc
 736              	.LFE58:
 738              		.section	.text.BTIMx_BTCR2_DIREN_Getable,"ax",%progbits
 739              		.align	2
 740              		.global	BTIMx_BTCR2_DIREN_Getable
 741              		.code	16
 742              		.thumb_func
 744              	BTIMx_BTCR2_DIREN_Getable:
 745              	.LFB59:
 249:e:/LiteOS/LiteOS/targets/Cloud_FM33A0XX/GCC/../../../targets/Cloud_FM33A0XX/Drivers\fm33a0xx_btim.c **** 
 250:e:/LiteOS/LiteOS/targets/Cloud_FM33A0XX/GCC/../../../targets/Cloud_FM33A0XX/Drivers\fm33a0xx_btim.c **** FunState BTIMx_BTCR2_DIREN_Getable(BTIMx_Type* BTIMx)
 251:e:/LiteOS/LiteOS/targets/Cloud_FM33A0XX/GCC/../../../targets/Cloud_FM33A0XX/Drivers\fm33a0xx_btim.c **** {
 746              		.loc 1 251 0
 747              		.cfi_startproc
 748              		@ args = 0, pretend = 0, frame = 0
 749              		@ frame_needed = 0, uses_anonymous_args = 0
 750              		@ link register save eliminated.
 751              	.LVL72:
 252:e:/LiteOS/LiteOS/targets/Cloud_FM33A0XX/GCC/../../../targets/Cloud_FM33A0XX/Drivers\fm33a0xx_btim.c **** 	if (BTIMx->BTCR2 & (BTIMx_BTCR2_DIREN_Msk))
 752              		.loc 1 252 0
 753 0000 4368     		ldr	r3, [r0, #4]
 754 0002 1B07     		lsls	r3, r3, #28
 755 0004 01D5     		bpl	.L40
 253:e:/LiteOS/LiteOS/targets/Cloud_FM33A0XX/GCC/../../../targets/Cloud_FM33A0XX/Drivers\fm33a0xx_btim.c **** 	{
 254:e:/LiteOS/LiteOS/targets/Cloud_FM33A0XX/GCC/../../../targets/Cloud_FM33A0XX/Drivers\fm33a0xx_btim.c **** 		return ENABLE;
 756              		.loc 1 254 0
 757 0006 0120     		movs	r0, #1
 758              	.LVL73:
 759 0008 00E0     		b	.L39
 760              	.LVL74:
 761              	.L40:
 255:e:/LiteOS/LiteOS/targets/Cloud_FM33A0XX/GCC/../../../targets/Cloud_FM33A0XX/Drivers\fm33a0xx_btim.c **** 	}
ARM GAS  C:\Users\WANGBI~1\AppData\Local\Temp\cc00eRbQ.s 			page 18


 256:e:/LiteOS/LiteOS/targets/Cloud_FM33A0XX/GCC/../../../targets/Cloud_FM33A0XX/Drivers\fm33a0xx_btim.c **** 	else
 257:e:/LiteOS/LiteOS/targets/Cloud_FM33A0XX/GCC/../../../targets/Cloud_FM33A0XX/Drivers\fm33a0xx_btim.c **** 	{
 258:e:/LiteOS/LiteOS/targets/Cloud_FM33A0XX/GCC/../../../targets/Cloud_FM33A0XX/Drivers\fm33a0xx_btim.c **** 		return DISABLE;
 762              		.loc 1 258 0
 763 000a 0020     		movs	r0, #0
 764              	.LVL75:
 765              	.L39:
 259:e:/LiteOS/LiteOS/targets/Cloud_FM33A0XX/GCC/../../../targets/Cloud_FM33A0XX/Drivers\fm33a0xx_btim.c **** 	}
 260:e:/LiteOS/LiteOS/targets/Cloud_FM33A0XX/GCC/../../../targets/Cloud_FM33A0XX/Drivers\fm33a0xx_btim.c **** }
 766              		.loc 1 260 0
 767              		@ sp needed
 768 000c 7047     		bx	lr
 769              		.cfi_endproc
 770              	.LFE59:
 772 000e C046     		.section	.text.BTIMx_BTCR2_STDIR_Setable,"ax",%progbits
 773              		.align	2
 774              		.global	BTIMx_BTCR2_STDIR_Setable
 775              		.code	16
 776              		.thumb_func
 778              	BTIMx_BTCR2_STDIR_Setable:
 779              	.LFB60:
 261:e:/LiteOS/LiteOS/targets/Cloud_FM33A0XX/GCC/../../../targets/Cloud_FM33A0XX/Drivers\fm33a0xx_btim.c **** 
 262:e:/LiteOS/LiteOS/targets/Cloud_FM33A0XX/GCC/../../../targets/Cloud_FM33A0XX/Drivers\fm33a0xx_btim.c **** /* 内部DIR控制信号使能 相关函数 */
 263:e:/LiteOS/LiteOS/targets/Cloud_FM33A0XX/GCC/../../../targets/Cloud_FM33A0XX/Drivers\fm33a0xx_btim.c **** void BTIMx_BTCR2_STDIR_Setable(BTIMx_Type* BTIMx, FunState NewState)
 264:e:/LiteOS/LiteOS/targets/Cloud_FM33A0XX/GCC/../../../targets/Cloud_FM33A0XX/Drivers\fm33a0xx_btim.c **** {
 780              		.loc 1 264 0
 781              		.cfi_startproc
 782              		@ args = 0, pretend = 0, frame = 0
 783              		@ frame_needed = 0, uses_anonymous_args = 0
 784              		@ link register save eliminated.
 785              	.LVL76:
 265:e:/LiteOS/LiteOS/targets/Cloud_FM33A0XX/GCC/../../../targets/Cloud_FM33A0XX/Drivers\fm33a0xx_btim.c **** 	if (NewState == ENABLE)
 786              		.loc 1 265 0
 787 0000 0129     		cmp	r1, #1
 788 0002 04D1     		bne	.L42
 266:e:/LiteOS/LiteOS/targets/Cloud_FM33A0XX/GCC/../../../targets/Cloud_FM33A0XX/Drivers\fm33a0xx_btim.c **** 	{
 267:e:/LiteOS/LiteOS/targets/Cloud_FM33A0XX/GCC/../../../targets/Cloud_FM33A0XX/Drivers\fm33a0xx_btim.c **** 		BTIMx->BTCR2 |= (BTIMx_BTCR2_STDIR_Msk);
 789              		.loc 1 267 0
 790 0004 4268     		ldr	r2, [r0, #4]
 791 0006 0423     		movs	r3, #4
 792 0008 1343     		orrs	r3, r2
 793 000a 4360     		str	r3, [r0, #4]
 794 000c 03E0     		b	.L41
 795              	.L42:
 268:e:/LiteOS/LiteOS/targets/Cloud_FM33A0XX/GCC/../../../targets/Cloud_FM33A0XX/Drivers\fm33a0xx_btim.c **** 	}
 269:e:/LiteOS/LiteOS/targets/Cloud_FM33A0XX/GCC/../../../targets/Cloud_FM33A0XX/Drivers\fm33a0xx_btim.c **** 	else
 270:e:/LiteOS/LiteOS/targets/Cloud_FM33A0XX/GCC/../../../targets/Cloud_FM33A0XX/Drivers\fm33a0xx_btim.c **** 	{
 271:e:/LiteOS/LiteOS/targets/Cloud_FM33A0XX/GCC/../../../targets/Cloud_FM33A0XX/Drivers\fm33a0xx_btim.c **** 		BTIMx->BTCR2 &= ~(BTIMx_BTCR2_STDIR_Msk);
 796              		.loc 1 271 0
 797 000e 4368     		ldr	r3, [r0, #4]
 798 0010 0422     		movs	r2, #4
 799 0012 9343     		bics	r3, r2
 800 0014 4360     		str	r3, [r0, #4]
 801              	.L41:
 272:e:/LiteOS/LiteOS/targets/Cloud_FM33A0XX/GCC/../../../targets/Cloud_FM33A0XX/Drivers\fm33a0xx_btim.c **** 	}
 273:e:/LiteOS/LiteOS/targets/Cloud_FM33A0XX/GCC/../../../targets/Cloud_FM33A0XX/Drivers\fm33a0xx_btim.c **** }
 802              		.loc 1 273 0
ARM GAS  C:\Users\WANGBI~1\AppData\Local\Temp\cc00eRbQ.s 			page 19


 803              		@ sp needed
 804 0016 7047     		bx	lr
 805              		.cfi_endproc
 806              	.LFE60:
 808              		.section	.text.BTIMx_BTCR2_STDIR_Getable,"ax",%progbits
 809              		.align	2
 810              		.global	BTIMx_BTCR2_STDIR_Getable
 811              		.code	16
 812              		.thumb_func
 814              	BTIMx_BTCR2_STDIR_Getable:
 815              	.LFB61:
 274:e:/LiteOS/LiteOS/targets/Cloud_FM33A0XX/GCC/../../../targets/Cloud_FM33A0XX/Drivers\fm33a0xx_btim.c **** 
 275:e:/LiteOS/LiteOS/targets/Cloud_FM33A0XX/GCC/../../../targets/Cloud_FM33A0XX/Drivers\fm33a0xx_btim.c **** FunState BTIMx_BTCR2_STDIR_Getable(BTIMx_Type* BTIMx)
 276:e:/LiteOS/LiteOS/targets/Cloud_FM33A0XX/GCC/../../../targets/Cloud_FM33A0XX/Drivers\fm33a0xx_btim.c **** {
 816              		.loc 1 276 0
 817              		.cfi_startproc
 818              		@ args = 0, pretend = 0, frame = 0
 819              		@ frame_needed = 0, uses_anonymous_args = 0
 820              		@ link register save eliminated.
 821              	.LVL77:
 277:e:/LiteOS/LiteOS/targets/Cloud_FM33A0XX/GCC/../../../targets/Cloud_FM33A0XX/Drivers\fm33a0xx_btim.c **** 	if (BTIMx->BTCR2 & (BTIMx_BTCR2_STDIR_Msk))
 822              		.loc 1 277 0
 823 0000 4368     		ldr	r3, [r0, #4]
 824 0002 5B07     		lsls	r3, r3, #29
 825 0004 01D5     		bpl	.L46
 278:e:/LiteOS/LiteOS/targets/Cloud_FM33A0XX/GCC/../../../targets/Cloud_FM33A0XX/Drivers\fm33a0xx_btim.c **** 	{
 279:e:/LiteOS/LiteOS/targets/Cloud_FM33A0XX/GCC/../../../targets/Cloud_FM33A0XX/Drivers\fm33a0xx_btim.c **** 		return ENABLE;
 826              		.loc 1 279 0
 827 0006 0120     		movs	r0, #1
 828              	.LVL78:
 829 0008 00E0     		b	.L45
 830              	.LVL79:
 831              	.L46:
 280:e:/LiteOS/LiteOS/targets/Cloud_FM33A0XX/GCC/../../../targets/Cloud_FM33A0XX/Drivers\fm33a0xx_btim.c **** 	}
 281:e:/LiteOS/LiteOS/targets/Cloud_FM33A0XX/GCC/../../../targets/Cloud_FM33A0XX/Drivers\fm33a0xx_btim.c **** 	else
 282:e:/LiteOS/LiteOS/targets/Cloud_FM33A0XX/GCC/../../../targets/Cloud_FM33A0XX/Drivers\fm33a0xx_btim.c **** 	{
 283:e:/LiteOS/LiteOS/targets/Cloud_FM33A0XX/GCC/../../../targets/Cloud_FM33A0XX/Drivers\fm33a0xx_btim.c **** 		return DISABLE;
 832              		.loc 1 283 0
 833 000a 0020     		movs	r0, #0
 834              	.LVL80:
 835              	.L45:
 284:e:/LiteOS/LiteOS/targets/Cloud_FM33A0XX/GCC/../../../targets/Cloud_FM33A0XX/Drivers\fm33a0xx_btim.c **** 	}
 285:e:/LiteOS/LiteOS/targets/Cloud_FM33A0XX/GCC/../../../targets/Cloud_FM33A0XX/Drivers\fm33a0xx_btim.c **** }
 836              		.loc 1 285 0
 837              		@ sp needed
 838 000c 7047     		bx	lr
 839              		.cfi_endproc
 840              	.LFE61:
 842 000e C046     		.section	.text.BTIMx_BTCR2_SRCSEL_Set,"ax",%progbits
 843              		.align	2
 844              		.global	BTIMx_BTCR2_SRCSEL_Set
 845              		.code	16
 846              		.thumb_func
 848              	BTIMx_BTCR2_SRCSEL_Set:
 849              	.LFB62:
 286:e:/LiteOS/LiteOS/targets/Cloud_FM33A0XX/GCC/../../../targets/Cloud_FM33A0XX/Drivers\fm33a0xx_btim.c **** 
 287:e:/LiteOS/LiteOS/targets/Cloud_FM33A0XX/GCC/../../../targets/Cloud_FM33A0XX/Drivers\fm33a0xx_btim.c **** /* 低位计数器使能控制选择信号 相关函数 */
ARM GAS  C:\Users\WANGBI~1\AppData\Local\Temp\cc00eRbQ.s 			page 20


 288:e:/LiteOS/LiteOS/targets/Cloud_FM33A0XX/GCC/../../../targets/Cloud_FM33A0XX/Drivers\fm33a0xx_btim.c **** void BTIMx_BTCR2_SRCSEL_Set(BTIMx_Type* BTIMx, uint32_t SetValue)
 289:e:/LiteOS/LiteOS/targets/Cloud_FM33A0XX/GCC/../../../targets/Cloud_FM33A0XX/Drivers\fm33a0xx_btim.c **** {
 850              		.loc 1 289 0
 851              		.cfi_startproc
 852              		@ args = 0, pretend = 0, frame = 0
 853              		@ frame_needed = 0, uses_anonymous_args = 0
 854              		@ link register save eliminated.
 855              	.LVL81:
 290:e:/LiteOS/LiteOS/targets/Cloud_FM33A0XX/GCC/../../../targets/Cloud_FM33A0XX/Drivers\fm33a0xx_btim.c **** 	uint32_t tmpreg;
 291:e:/LiteOS/LiteOS/targets/Cloud_FM33A0XX/GCC/../../../targets/Cloud_FM33A0XX/Drivers\fm33a0xx_btim.c **** 	tmpreg = BTIMx->BTCR2;
 856              		.loc 1 291 0
 857 0000 4368     		ldr	r3, [r0, #4]
 858              	.LVL82:
 292:e:/LiteOS/LiteOS/targets/Cloud_FM33A0XX/GCC/../../../targets/Cloud_FM33A0XX/Drivers\fm33a0xx_btim.c **** 	tmpreg &= ~(BTIMx_BTCR2_SRCSEL_Msk);
 859              		.loc 1 292 0
 860 0002 0222     		movs	r2, #2
 861 0004 9343     		bics	r3, r2
 862              	.LVL83:
 293:e:/LiteOS/LiteOS/targets/Cloud_FM33A0XX/GCC/../../../targets/Cloud_FM33A0XX/Drivers\fm33a0xx_btim.c **** 	tmpreg |= (SetValue & BTIMx_BTCR2_SRCSEL_Msk);
 863              		.loc 1 293 0
 864 0006 1140     		ands	r1, r2
 865              	.LVL84:
 866 0008 1943     		orrs	r1, r3
 867              	.LVL85:
 294:e:/LiteOS/LiteOS/targets/Cloud_FM33A0XX/GCC/../../../targets/Cloud_FM33A0XX/Drivers\fm33a0xx_btim.c **** 	BTIMx->BTCR2 = tmpreg;
 868              		.loc 1 294 0
 869 000a 4160     		str	r1, [r0, #4]
 295:e:/LiteOS/LiteOS/targets/Cloud_FM33A0XX/GCC/../../../targets/Cloud_FM33A0XX/Drivers\fm33a0xx_btim.c **** }
 870              		.loc 1 295 0
 871              		@ sp needed
 872 000c 7047     		bx	lr
 873              		.cfi_endproc
 874              	.LFE62:
 876 000e C046     		.section	.text.BTIMx_BTCR2_SRCSEL_Get,"ax",%progbits
 877              		.align	2
 878              		.global	BTIMx_BTCR2_SRCSEL_Get
 879              		.code	16
 880              		.thumb_func
 882              	BTIMx_BTCR2_SRCSEL_Get:
 883              	.LFB63:
 296:e:/LiteOS/LiteOS/targets/Cloud_FM33A0XX/GCC/../../../targets/Cloud_FM33A0XX/Drivers\fm33a0xx_btim.c **** 
 297:e:/LiteOS/LiteOS/targets/Cloud_FM33A0XX/GCC/../../../targets/Cloud_FM33A0XX/Drivers\fm33a0xx_btim.c **** uint32_t BTIMx_BTCR2_SRCSEL_Get(BTIMx_Type* BTIMx)
 298:e:/LiteOS/LiteOS/targets/Cloud_FM33A0XX/GCC/../../../targets/Cloud_FM33A0XX/Drivers\fm33a0xx_btim.c **** {
 884              		.loc 1 298 0
 885              		.cfi_startproc
 886              		@ args = 0, pretend = 0, frame = 0
 887              		@ frame_needed = 0, uses_anonymous_args = 0
 888              		@ link register save eliminated.
 889              	.LVL86:
 299:e:/LiteOS/LiteOS/targets/Cloud_FM33A0XX/GCC/../../../targets/Cloud_FM33A0XX/Drivers\fm33a0xx_btim.c **** 	return (BTIMx->BTCR2 & BTIMx_BTCR2_SRCSEL_Msk);
 890              		.loc 1 299 0
 891 0000 4368     		ldr	r3, [r0, #4]
 892 0002 0220     		movs	r0, #2
 893              	.LVL87:
 894 0004 1840     		ands	r0, r3
 300:e:/LiteOS/LiteOS/targets/Cloud_FM33A0XX/GCC/../../../targets/Cloud_FM33A0XX/Drivers\fm33a0xx_btim.c **** }
 895              		.loc 1 300 0
ARM GAS  C:\Users\WANGBI~1\AppData\Local\Temp\cc00eRbQ.s 			page 21


 896              		@ sp needed
 897 0006 7047     		bx	lr
 898              		.cfi_endproc
 899              	.LFE63:
 901              		.section	.text.BTIMx_BTCR2_DIRPO_Set,"ax",%progbits
 902              		.align	2
 903              		.global	BTIMx_BTCR2_DIRPO_Set
 904              		.code	16
 905              		.thumb_func
 907              	BTIMx_BTCR2_DIRPO_Set:
 908              	.LFB64:
 301:e:/LiteOS/LiteOS/targets/Cloud_FM33A0XX/GCC/../../../targets/Cloud_FM33A0XX/Drivers\fm33a0xx_btim.c **** 
 302:e:/LiteOS/LiteOS/targets/Cloud_FM33A0XX/GCC/../../../targets/Cloud_FM33A0XX/Drivers\fm33a0xx_btim.c **** /* 输入信号2极性选择 相关函数 */
 303:e:/LiteOS/LiteOS/targets/Cloud_FM33A0XX/GCC/../../../targets/Cloud_FM33A0XX/Drivers\fm33a0xx_btim.c **** void BTIMx_BTCR2_DIRPO_Set(BTIMx_Type* BTIMx, uint32_t SetValue)
 304:e:/LiteOS/LiteOS/targets/Cloud_FM33A0XX/GCC/../../../targets/Cloud_FM33A0XX/Drivers\fm33a0xx_btim.c **** {
 909              		.loc 1 304 0
 910              		.cfi_startproc
 911              		@ args = 0, pretend = 0, frame = 0
 912              		@ frame_needed = 0, uses_anonymous_args = 0
 913              		@ link register save eliminated.
 914              	.LVL88:
 305:e:/LiteOS/LiteOS/targets/Cloud_FM33A0XX/GCC/../../../targets/Cloud_FM33A0XX/Drivers\fm33a0xx_btim.c **** 	uint32_t tmpreg;
 306:e:/LiteOS/LiteOS/targets/Cloud_FM33A0XX/GCC/../../../targets/Cloud_FM33A0XX/Drivers\fm33a0xx_btim.c **** 	tmpreg = BTIMx->BTCR2;
 915              		.loc 1 306 0
 916 0000 4368     		ldr	r3, [r0, #4]
 917              	.LVL89:
 307:e:/LiteOS/LiteOS/targets/Cloud_FM33A0XX/GCC/../../../targets/Cloud_FM33A0XX/Drivers\fm33a0xx_btim.c **** 	tmpreg &= ~(BTIMx_BTCR2_DIRPO_Msk);
 918              		.loc 1 307 0
 919 0002 0122     		movs	r2, #1
 920 0004 9343     		bics	r3, r2
 921              	.LVL90:
 308:e:/LiteOS/LiteOS/targets/Cloud_FM33A0XX/GCC/../../../targets/Cloud_FM33A0XX/Drivers\fm33a0xx_btim.c **** 	tmpreg |= (SetValue & BTIMx_BTCR2_DIRPO_Msk);
 922              		.loc 1 308 0
 923 0006 1140     		ands	r1, r2
 924              	.LVL91:
 925 0008 1943     		orrs	r1, r3
 926              	.LVL92:
 309:e:/LiteOS/LiteOS/targets/Cloud_FM33A0XX/GCC/../../../targets/Cloud_FM33A0XX/Drivers\fm33a0xx_btim.c **** 	BTIMx->BTCR2 = tmpreg;
 927              		.loc 1 309 0
 928 000a 4160     		str	r1, [r0, #4]
 310:e:/LiteOS/LiteOS/targets/Cloud_FM33A0XX/GCC/../../../targets/Cloud_FM33A0XX/Drivers\fm33a0xx_btim.c **** }
 929              		.loc 1 310 0
 930              		@ sp needed
 931 000c 7047     		bx	lr
 932              		.cfi_endproc
 933              	.LFE64:
 935 000e C046     		.section	.text.BTIMx_BTCR2_DIRPO_Get,"ax",%progbits
 936              		.align	2
 937              		.global	BTIMx_BTCR2_DIRPO_Get
 938              		.code	16
 939              		.thumb_func
 941              	BTIMx_BTCR2_DIRPO_Get:
 942              	.LFB65:
 311:e:/LiteOS/LiteOS/targets/Cloud_FM33A0XX/GCC/../../../targets/Cloud_FM33A0XX/Drivers\fm33a0xx_btim.c **** 
 312:e:/LiteOS/LiteOS/targets/Cloud_FM33A0XX/GCC/../../../targets/Cloud_FM33A0XX/Drivers\fm33a0xx_btim.c **** uint32_t BTIMx_BTCR2_DIRPO_Get(BTIMx_Type* BTIMx)
 313:e:/LiteOS/LiteOS/targets/Cloud_FM33A0XX/GCC/../../../targets/Cloud_FM33A0XX/Drivers\fm33a0xx_btim.c **** {
 943              		.loc 1 313 0
ARM GAS  C:\Users\WANGBI~1\AppData\Local\Temp\cc00eRbQ.s 			page 22


 944              		.cfi_startproc
 945              		@ args = 0, pretend = 0, frame = 0
 946              		@ frame_needed = 0, uses_anonymous_args = 0
 947              		@ link register save eliminated.
 948              	.LVL93:
 314:e:/LiteOS/LiteOS/targets/Cloud_FM33A0XX/GCC/../../../targets/Cloud_FM33A0XX/Drivers\fm33a0xx_btim.c **** 	return (BTIMx->BTCR2 & BTIMx_BTCR2_DIRPO_Msk);
 949              		.loc 1 314 0
 950 0000 4368     		ldr	r3, [r0, #4]
 951 0002 0120     		movs	r0, #1
 952              	.LVL94:
 953 0004 1840     		ands	r0, r3
 315:e:/LiteOS/LiteOS/targets/Cloud_FM33A0XX/GCC/../../../targets/Cloud_FM33A0XX/Drivers\fm33a0xx_btim.c **** }
 954              		.loc 1 315 0
 955              		@ sp needed
 956 0006 7047     		bx	lr
 957              		.cfi_endproc
 958              	.LFE65:
 960              		.section	.text.BTIMx_BTCFG1_RTCSEL2_Set,"ax",%progbits
 961              		.align	2
 962              		.global	BTIMx_BTCFG1_RTCSEL2_Set
 963              		.code	16
 964              		.thumb_func
 966              	BTIMx_BTCFG1_RTCSEL2_Set:
 967              	.LFB66:
 316:e:/LiteOS/LiteOS/targets/Cloud_FM33A0XX/GCC/../../../targets/Cloud_FM33A0XX/Drivers\fm33a0xx_btim.c **** 
 317:e:/LiteOS/LiteOS/targets/Cloud_FM33A0XX/GCC/../../../targets/Cloud_FM33A0XX/Drivers\fm33a0xx_btim.c **** /* RTCOUT2信号控制2 相关函数 */
 318:e:/LiteOS/LiteOS/targets/Cloud_FM33A0XX/GCC/../../../targets/Cloud_FM33A0XX/Drivers\fm33a0xx_btim.c **** void BTIMx_BTCFG1_RTCSEL2_Set(BTIMx_Type* BTIMx, uint32_t SetValue)
 319:e:/LiteOS/LiteOS/targets/Cloud_FM33A0XX/GCC/../../../targets/Cloud_FM33A0XX/Drivers\fm33a0xx_btim.c **** {
 968              		.loc 1 319 0
 969              		.cfi_startproc
 970              		@ args = 0, pretend = 0, frame = 0
 971              		@ frame_needed = 0, uses_anonymous_args = 0
 972              		@ link register save eliminated.
 973              	.LVL95:
 320:e:/LiteOS/LiteOS/targets/Cloud_FM33A0XX/GCC/../../../targets/Cloud_FM33A0XX/Drivers\fm33a0xx_btim.c **** 	uint32_t tmpreg;
 321:e:/LiteOS/LiteOS/targets/Cloud_FM33A0XX/GCC/../../../targets/Cloud_FM33A0XX/Drivers\fm33a0xx_btim.c **** 	tmpreg = BTIMx->BTCFG1;
 974              		.loc 1 321 0
 975 0000 8368     		ldr	r3, [r0, #8]
 976              	.LVL96:
 322:e:/LiteOS/LiteOS/targets/Cloud_FM33A0XX/GCC/../../../targets/Cloud_FM33A0XX/Drivers\fm33a0xx_btim.c **** 	tmpreg &= ~(BTIMx_BTCFG1_RTCSEL2_Msk);
 977              		.loc 1 322 0
 978 0002 C022     		movs	r2, #192
 979 0004 9343     		bics	r3, r2
 980              	.LVL97:
 323:e:/LiteOS/LiteOS/targets/Cloud_FM33A0XX/GCC/../../../targets/Cloud_FM33A0XX/Drivers\fm33a0xx_btim.c **** 	tmpreg |= (SetValue & BTIMx_BTCFG1_RTCSEL2_Msk);
 981              		.loc 1 323 0
 982 0006 1140     		ands	r1, r2
 983              	.LVL98:
 984 0008 1943     		orrs	r1, r3
 985              	.LVL99:
 324:e:/LiteOS/LiteOS/targets/Cloud_FM33A0XX/GCC/../../../targets/Cloud_FM33A0XX/Drivers\fm33a0xx_btim.c **** 	BTIMx->BTCFG1 = tmpreg;
 986              		.loc 1 324 0
 987 000a 8160     		str	r1, [r0, #8]
 325:e:/LiteOS/LiteOS/targets/Cloud_FM33A0XX/GCC/../../../targets/Cloud_FM33A0XX/Drivers\fm33a0xx_btim.c **** }
 988              		.loc 1 325 0
 989              		@ sp needed
 990 000c 7047     		bx	lr
ARM GAS  C:\Users\WANGBI~1\AppData\Local\Temp\cc00eRbQ.s 			page 23


 991              		.cfi_endproc
 992              	.LFE66:
 994 000e C046     		.section	.text.BTIMx_BTCFG1_RTCSEL2_Get,"ax",%progbits
 995              		.align	2
 996              		.global	BTIMx_BTCFG1_RTCSEL2_Get
 997              		.code	16
 998              		.thumb_func
 1000              	BTIMx_BTCFG1_RTCSEL2_Get:
 1001              	.LFB67:
 326:e:/LiteOS/LiteOS/targets/Cloud_FM33A0XX/GCC/../../../targets/Cloud_FM33A0XX/Drivers\fm33a0xx_btim.c **** 
 327:e:/LiteOS/LiteOS/targets/Cloud_FM33A0XX/GCC/../../../targets/Cloud_FM33A0XX/Drivers\fm33a0xx_btim.c **** uint32_t BTIMx_BTCFG1_RTCSEL2_Get(BTIMx_Type* BTIMx)
 328:e:/LiteOS/LiteOS/targets/Cloud_FM33A0XX/GCC/../../../targets/Cloud_FM33A0XX/Drivers\fm33a0xx_btim.c **** {
 1002              		.loc 1 328 0
 1003              		.cfi_startproc
 1004              		@ args = 0, pretend = 0, frame = 0
 1005              		@ frame_needed = 0, uses_anonymous_args = 0
 1006              		@ link register save eliminated.
 1007              	.LVL100:
 329:e:/LiteOS/LiteOS/targets/Cloud_FM33A0XX/GCC/../../../targets/Cloud_FM33A0XX/Drivers\fm33a0xx_btim.c **** 	return (BTIMx->BTCFG1 & BTIMx_BTCFG1_RTCSEL2_Msk);
 1008              		.loc 1 329 0
 1009 0000 8368     		ldr	r3, [r0, #8]
 1010 0002 C020     		movs	r0, #192
 1011              	.LVL101:
 1012 0004 1840     		ands	r0, r3
 330:e:/LiteOS/LiteOS/targets/Cloud_FM33A0XX/GCC/../../../targets/Cloud_FM33A0XX/Drivers\fm33a0xx_btim.c **** }
 1013              		.loc 1 330 0
 1014              		@ sp needed
 1015 0006 7047     		bx	lr
 1016              		.cfi_endproc
 1017              	.LFE67:
 1019              		.section	.text.BTIMx_BTCFG1_RTCSEL1_Set,"ax",%progbits
 1020              		.align	2
 1021              		.global	BTIMx_BTCFG1_RTCSEL1_Set
 1022              		.code	16
 1023              		.thumb_func
 1025              	BTIMx_BTCFG1_RTCSEL1_Set:
 1026              	.LFB68:
 331:e:/LiteOS/LiteOS/targets/Cloud_FM33A0XX/GCC/../../../targets/Cloud_FM33A0XX/Drivers\fm33a0xx_btim.c **** 
 332:e:/LiteOS/LiteOS/targets/Cloud_FM33A0XX/GCC/../../../targets/Cloud_FM33A0XX/Drivers\fm33a0xx_btim.c **** /* RTCOUT1信号控制1 相关函数 */
 333:e:/LiteOS/LiteOS/targets/Cloud_FM33A0XX/GCC/../../../targets/Cloud_FM33A0XX/Drivers\fm33a0xx_btim.c **** void BTIMx_BTCFG1_RTCSEL1_Set(BTIMx_Type* BTIMx, uint32_t SetValue)
 334:e:/LiteOS/LiteOS/targets/Cloud_FM33A0XX/GCC/../../../targets/Cloud_FM33A0XX/Drivers\fm33a0xx_btim.c **** {
 1027              		.loc 1 334 0
 1028              		.cfi_startproc
 1029              		@ args = 0, pretend = 0, frame = 0
 1030              		@ frame_needed = 0, uses_anonymous_args = 0
 1031              		@ link register save eliminated.
 1032              	.LVL102:
 335:e:/LiteOS/LiteOS/targets/Cloud_FM33A0XX/GCC/../../../targets/Cloud_FM33A0XX/Drivers\fm33a0xx_btim.c **** 	uint32_t tmpreg;
 336:e:/LiteOS/LiteOS/targets/Cloud_FM33A0XX/GCC/../../../targets/Cloud_FM33A0XX/Drivers\fm33a0xx_btim.c **** 	tmpreg = BTIMx->BTCFG1;
 1033              		.loc 1 336 0
 1034 0000 8368     		ldr	r3, [r0, #8]
 1035              	.LVL103:
 337:e:/LiteOS/LiteOS/targets/Cloud_FM33A0XX/GCC/../../../targets/Cloud_FM33A0XX/Drivers\fm33a0xx_btim.c **** 	tmpreg &= ~(BTIMx_BTCFG1_RTCSEL1_Msk);
 1036              		.loc 1 337 0
 1037 0002 3022     		movs	r2, #48
 1038 0004 9343     		bics	r3, r2
 1039              	.LVL104:
ARM GAS  C:\Users\WANGBI~1\AppData\Local\Temp\cc00eRbQ.s 			page 24


 338:e:/LiteOS/LiteOS/targets/Cloud_FM33A0XX/GCC/../../../targets/Cloud_FM33A0XX/Drivers\fm33a0xx_btim.c **** 	tmpreg |= (SetValue & BTIMx_BTCFG1_RTCSEL1_Msk);
 1040              		.loc 1 338 0
 1041 0006 1140     		ands	r1, r2
 1042              	.LVL105:
 1043 0008 1943     		orrs	r1, r3
 1044              	.LVL106:
 339:e:/LiteOS/LiteOS/targets/Cloud_FM33A0XX/GCC/../../../targets/Cloud_FM33A0XX/Drivers\fm33a0xx_btim.c **** 	BTIMx->BTCFG1 = tmpreg;
 1045              		.loc 1 339 0
 1046 000a 8160     		str	r1, [r0, #8]
 340:e:/LiteOS/LiteOS/targets/Cloud_FM33A0XX/GCC/../../../targets/Cloud_FM33A0XX/Drivers\fm33a0xx_btim.c **** }
 1047              		.loc 1 340 0
 1048              		@ sp needed
 1049 000c 7047     		bx	lr
 1050              		.cfi_endproc
 1051              	.LFE68:
 1053 000e C046     		.section	.text.BTIMx_BTCFG1_RTCSEL1_Get,"ax",%progbits
 1054              		.align	2
 1055              		.global	BTIMx_BTCFG1_RTCSEL1_Get
 1056              		.code	16
 1057              		.thumb_func
 1059              	BTIMx_BTCFG1_RTCSEL1_Get:
 1060              	.LFB69:
 341:e:/LiteOS/LiteOS/targets/Cloud_FM33A0XX/GCC/../../../targets/Cloud_FM33A0XX/Drivers\fm33a0xx_btim.c **** 
 342:e:/LiteOS/LiteOS/targets/Cloud_FM33A0XX/GCC/../../../targets/Cloud_FM33A0XX/Drivers\fm33a0xx_btim.c **** uint32_t BTIMx_BTCFG1_RTCSEL1_Get(BTIMx_Type* BTIMx)
 343:e:/LiteOS/LiteOS/targets/Cloud_FM33A0XX/GCC/../../../targets/Cloud_FM33A0XX/Drivers\fm33a0xx_btim.c **** {
 1061              		.loc 1 343 0
 1062              		.cfi_startproc
 1063              		@ args = 0, pretend = 0, frame = 0
 1064              		@ frame_needed = 0, uses_anonymous_args = 0
 1065              		@ link register save eliminated.
 1066              	.LVL107:
 344:e:/LiteOS/LiteOS/targets/Cloud_FM33A0XX/GCC/../../../targets/Cloud_FM33A0XX/Drivers\fm33a0xx_btim.c **** 	return (BTIMx->BTCFG1 & BTIMx_BTCFG1_RTCSEL1_Msk);
 1067              		.loc 1 344 0
 1068 0000 8368     		ldr	r3, [r0, #8]
 1069 0002 3020     		movs	r0, #48
 1070              	.LVL108:
 1071 0004 1840     		ands	r0, r3
 345:e:/LiteOS/LiteOS/targets/Cloud_FM33A0XX/GCC/../../../targets/Cloud_FM33A0XX/Drivers\fm33a0xx_btim.c **** }
 1072              		.loc 1 345 0
 1073              		@ sp needed
 1074 0006 7047     		bx	lr
 1075              		.cfi_endproc
 1076              	.LFE69:
 1078              		.section	.text.BTIMx_BTCFG1_GRP2SEL_Set,"ax",%progbits
 1079              		.align	2
 1080              		.global	BTIMx_BTCFG1_GRP2SEL_Set
 1081              		.code	16
 1082              		.thumb_func
 1084              	BTIMx_BTCFG1_GRP2SEL_Set:
 1085              	.LFB70:
 346:e:/LiteOS/LiteOS/targets/Cloud_FM33A0XX/GCC/../../../targets/Cloud_FM33A0XX/Drivers\fm33a0xx_btim.c **** 
 347:e:/LiteOS/LiteOS/targets/Cloud_FM33A0XX/GCC/../../../targets/Cloud_FM33A0XX/Drivers\fm33a0xx_btim.c **** /* Group2信号选择控制 相关函数 */
 348:e:/LiteOS/LiteOS/targets/Cloud_FM33A0XX/GCC/../../../targets/Cloud_FM33A0XX/Drivers\fm33a0xx_btim.c **** void BTIMx_BTCFG1_GRP2SEL_Set(BTIMx_Type* BTIMx, uint32_t SetValue)
 349:e:/LiteOS/LiteOS/targets/Cloud_FM33A0XX/GCC/../../../targets/Cloud_FM33A0XX/Drivers\fm33a0xx_btim.c **** {
 1086              		.loc 1 349 0
 1087              		.cfi_startproc
 1088              		@ args = 0, pretend = 0, frame = 0
ARM GAS  C:\Users\WANGBI~1\AppData\Local\Temp\cc00eRbQ.s 			page 25


 1089              		@ frame_needed = 0, uses_anonymous_args = 0
 1090              		@ link register save eliminated.
 1091              	.LVL109:
 350:e:/LiteOS/LiteOS/targets/Cloud_FM33A0XX/GCC/../../../targets/Cloud_FM33A0XX/Drivers\fm33a0xx_btim.c **** 	uint32_t tmpreg;
 351:e:/LiteOS/LiteOS/targets/Cloud_FM33A0XX/GCC/../../../targets/Cloud_FM33A0XX/Drivers\fm33a0xx_btim.c **** 	tmpreg = BTIMx->BTCFG1;
 1092              		.loc 1 351 0
 1093 0000 8368     		ldr	r3, [r0, #8]
 1094              	.LVL110:
 352:e:/LiteOS/LiteOS/targets/Cloud_FM33A0XX/GCC/../../../targets/Cloud_FM33A0XX/Drivers\fm33a0xx_btim.c **** 	tmpreg &= ~(BTIMx_BTCFG1_GRP2SEL_Msk);
 1095              		.loc 1 352 0
 1096 0002 0C22     		movs	r2, #12
 1097 0004 9343     		bics	r3, r2
 1098              	.LVL111:
 353:e:/LiteOS/LiteOS/targets/Cloud_FM33A0XX/GCC/../../../targets/Cloud_FM33A0XX/Drivers\fm33a0xx_btim.c **** 	tmpreg |= (SetValue & BTIMx_BTCFG1_GRP2SEL_Msk);
 1099              		.loc 1 353 0
 1100 0006 1140     		ands	r1, r2
 1101              	.LVL112:
 1102 0008 1943     		orrs	r1, r3
 1103              	.LVL113:
 354:e:/LiteOS/LiteOS/targets/Cloud_FM33A0XX/GCC/../../../targets/Cloud_FM33A0XX/Drivers\fm33a0xx_btim.c **** 	BTIMx->BTCFG1 = tmpreg;
 1104              		.loc 1 354 0
 1105 000a 8160     		str	r1, [r0, #8]
 355:e:/LiteOS/LiteOS/targets/Cloud_FM33A0XX/GCC/../../../targets/Cloud_FM33A0XX/Drivers\fm33a0xx_btim.c **** }
 1106              		.loc 1 355 0
 1107              		@ sp needed
 1108 000c 7047     		bx	lr
 1109              		.cfi_endproc
 1110              	.LFE70:
 1112 000e C046     		.section	.text.BTIMx_BTCFG1_GRP2SEL_Get,"ax",%progbits
 1113              		.align	2
 1114              		.global	BTIMx_BTCFG1_GRP2SEL_Get
 1115              		.code	16
 1116              		.thumb_func
 1118              	BTIMx_BTCFG1_GRP2SEL_Get:
 1119              	.LFB71:
 356:e:/LiteOS/LiteOS/targets/Cloud_FM33A0XX/GCC/../../../targets/Cloud_FM33A0XX/Drivers\fm33a0xx_btim.c **** 
 357:e:/LiteOS/LiteOS/targets/Cloud_FM33A0XX/GCC/../../../targets/Cloud_FM33A0XX/Drivers\fm33a0xx_btim.c **** uint32_t BTIMx_BTCFG1_GRP2SEL_Get(BTIMx_Type* BTIMx)
 358:e:/LiteOS/LiteOS/targets/Cloud_FM33A0XX/GCC/../../../targets/Cloud_FM33A0XX/Drivers\fm33a0xx_btim.c **** {
 1120              		.loc 1 358 0
 1121              		.cfi_startproc
 1122              		@ args = 0, pretend = 0, frame = 0
 1123              		@ frame_needed = 0, uses_anonymous_args = 0
 1124              		@ link register save eliminated.
 1125              	.LVL114:
 359:e:/LiteOS/LiteOS/targets/Cloud_FM33A0XX/GCC/../../../targets/Cloud_FM33A0XX/Drivers\fm33a0xx_btim.c **** 	return (BTIMx->BTCFG1 & BTIMx_BTCFG1_GRP2SEL_Msk);
 1126              		.loc 1 359 0
 1127 0000 8368     		ldr	r3, [r0, #8]
 1128 0002 0C20     		movs	r0, #12
 1129              	.LVL115:
 1130 0004 1840     		ands	r0, r3
 360:e:/LiteOS/LiteOS/targets/Cloud_FM33A0XX/GCC/../../../targets/Cloud_FM33A0XX/Drivers\fm33a0xx_btim.c **** }
 1131              		.loc 1 360 0
 1132              		@ sp needed
 1133 0006 7047     		bx	lr
 1134              		.cfi_endproc
 1135              	.LFE71:
 1137              		.section	.text.BTIMx_BTCFG1_GRP1SEL_Set,"ax",%progbits
ARM GAS  C:\Users\WANGBI~1\AppData\Local\Temp\cc00eRbQ.s 			page 26


 1138              		.align	2
 1139              		.global	BTIMx_BTCFG1_GRP1SEL_Set
 1140              		.code	16
 1141              		.thumb_func
 1143              	BTIMx_BTCFG1_GRP1SEL_Set:
 1144              	.LFB72:
 361:e:/LiteOS/LiteOS/targets/Cloud_FM33A0XX/GCC/../../../targets/Cloud_FM33A0XX/Drivers\fm33a0xx_btim.c **** 
 362:e:/LiteOS/LiteOS/targets/Cloud_FM33A0XX/GCC/../../../targets/Cloud_FM33A0XX/Drivers\fm33a0xx_btim.c **** void BTIMx_BTCFG1_GRP1SEL_Set(BTIMx_Type* BTIMx, uint32_t SetValue)
 363:e:/LiteOS/LiteOS/targets/Cloud_FM33A0XX/GCC/../../../targets/Cloud_FM33A0XX/Drivers\fm33a0xx_btim.c **** {
 1145              		.loc 1 363 0
 1146              		.cfi_startproc
 1147              		@ args = 0, pretend = 0, frame = 0
 1148              		@ frame_needed = 0, uses_anonymous_args = 0
 1149              		@ link register save eliminated.
 1150              	.LVL116:
 364:e:/LiteOS/LiteOS/targets/Cloud_FM33A0XX/GCC/../../../targets/Cloud_FM33A0XX/Drivers\fm33a0xx_btim.c **** 	uint32_t tmpreg;
 365:e:/LiteOS/LiteOS/targets/Cloud_FM33A0XX/GCC/../../../targets/Cloud_FM33A0XX/Drivers\fm33a0xx_btim.c **** 	tmpreg = BTIMx->BTCFG1;
 1151              		.loc 1 365 0
 1152 0000 8368     		ldr	r3, [r0, #8]
 1153              	.LVL117:
 366:e:/LiteOS/LiteOS/targets/Cloud_FM33A0XX/GCC/../../../targets/Cloud_FM33A0XX/Drivers\fm33a0xx_btim.c **** 	tmpreg &= ~(BTIMx_BTCFG1_GRP1SEL_Msk);
 1154              		.loc 1 366 0
 1155 0002 0322     		movs	r2, #3
 1156 0004 9343     		bics	r3, r2
 1157              	.LVL118:
 367:e:/LiteOS/LiteOS/targets/Cloud_FM33A0XX/GCC/../../../targets/Cloud_FM33A0XX/Drivers\fm33a0xx_btim.c **** 	tmpreg |= (SetValue & BTIMx_BTCFG1_GRP1SEL_Msk);
 1158              		.loc 1 367 0
 1159 0006 1140     		ands	r1, r2
 1160              	.LVL119:
 1161 0008 1943     		orrs	r1, r3
 1162              	.LVL120:
 368:e:/LiteOS/LiteOS/targets/Cloud_FM33A0XX/GCC/../../../targets/Cloud_FM33A0XX/Drivers\fm33a0xx_btim.c **** 	BTIMx->BTCFG1 = tmpreg;
 1163              		.loc 1 368 0
 1164 000a 8160     		str	r1, [r0, #8]
 369:e:/LiteOS/LiteOS/targets/Cloud_FM33A0XX/GCC/../../../targets/Cloud_FM33A0XX/Drivers\fm33a0xx_btim.c **** }
 1165              		.loc 1 369 0
 1166              		@ sp needed
 1167 000c 7047     		bx	lr
 1168              		.cfi_endproc
 1169              	.LFE72:
 1171 000e C046     		.section	.text.BTIMx_BTCFG1_GRP1SEL_Get,"ax",%progbits
 1172              		.align	2
 1173              		.global	BTIMx_BTCFG1_GRP1SEL_Get
 1174              		.code	16
 1175              		.thumb_func
 1177              	BTIMx_BTCFG1_GRP1SEL_Get:
 1178              	.LFB73:
 370:e:/LiteOS/LiteOS/targets/Cloud_FM33A0XX/GCC/../../../targets/Cloud_FM33A0XX/Drivers\fm33a0xx_btim.c **** 
 371:e:/LiteOS/LiteOS/targets/Cloud_FM33A0XX/GCC/../../../targets/Cloud_FM33A0XX/Drivers\fm33a0xx_btim.c **** uint32_t BTIMx_BTCFG1_GRP1SEL_Get(BTIMx_Type* BTIMx)
 372:e:/LiteOS/LiteOS/targets/Cloud_FM33A0XX/GCC/../../../targets/Cloud_FM33A0XX/Drivers\fm33a0xx_btim.c **** {
 1179              		.loc 1 372 0
 1180              		.cfi_startproc
 1181              		@ args = 0, pretend = 0, frame = 0
 1182              		@ frame_needed = 0, uses_anonymous_args = 0
 1183              		@ link register save eliminated.
 1184              	.LVL121:
 373:e:/LiteOS/LiteOS/targets/Cloud_FM33A0XX/GCC/../../../targets/Cloud_FM33A0XX/Drivers\fm33a0xx_btim.c **** 	return (BTIMx->BTCFG1 & BTIMx_BTCFG1_GRP1SEL_Msk);
ARM GAS  C:\Users\WANGBI~1\AppData\Local\Temp\cc00eRbQ.s 			page 27


 1185              		.loc 1 373 0
 1186 0000 8368     		ldr	r3, [r0, #8]
 1187 0002 0320     		movs	r0, #3
 1188              	.LVL122:
 1189 0004 1840     		ands	r0, r3
 374:e:/LiteOS/LiteOS/targets/Cloud_FM33A0XX/GCC/../../../targets/Cloud_FM33A0XX/Drivers\fm33a0xx_btim.c **** }
 1190              		.loc 1 374 0
 1191              		@ sp needed
 1192 0006 7047     		bx	lr
 1193              		.cfi_endproc
 1194              	.LFE73:
 1196              		.section	.text.BTIMx_BTCFG2_EXSEL2_Set,"ax",%progbits
 1197              		.align	2
 1198              		.global	BTIMx_BTCFG2_EXSEL2_Set
 1199              		.code	16
 1200              		.thumb_func
 1202              	BTIMx_BTCFG2_EXSEL2_Set:
 1203              	.LFB74:
 375:e:/LiteOS/LiteOS/targets/Cloud_FM33A0XX/GCC/../../../targets/Cloud_FM33A0XX/Drivers\fm33a0xx_btim.c **** 
 376:e:/LiteOS/LiteOS/targets/Cloud_FM33A0XX/GCC/../../../targets/Cloud_FM33A0XX/Drivers\fm33a0xx_btim.c **** /* 外部输入信号选择控制2 相关函数 */
 377:e:/LiteOS/LiteOS/targets/Cloud_FM33A0XX/GCC/../../../targets/Cloud_FM33A0XX/Drivers\fm33a0xx_btim.c **** void BTIMx_BTCFG2_EXSEL2_Set(BTIMx_Type* BTIMx, uint32_t SetValue)
 378:e:/LiteOS/LiteOS/targets/Cloud_FM33A0XX/GCC/../../../targets/Cloud_FM33A0XX/Drivers\fm33a0xx_btim.c **** {
 1204              		.loc 1 378 0
 1205              		.cfi_startproc
 1206              		@ args = 0, pretend = 0, frame = 0
 1207              		@ frame_needed = 0, uses_anonymous_args = 0
 1208              		@ link register save eliminated.
 1209              	.LVL123:
 379:e:/LiteOS/LiteOS/targets/Cloud_FM33A0XX/GCC/../../../targets/Cloud_FM33A0XX/Drivers\fm33a0xx_btim.c **** 	uint32_t tmpreg;
 380:e:/LiteOS/LiteOS/targets/Cloud_FM33A0XX/GCC/../../../targets/Cloud_FM33A0XX/Drivers\fm33a0xx_btim.c **** 	tmpreg = BTIMx->BTCFG2;
 1210              		.loc 1 380 0
 1211 0000 C368     		ldr	r3, [r0, #12]
 1212              	.LVL124:
 381:e:/LiteOS/LiteOS/targets/Cloud_FM33A0XX/GCC/../../../targets/Cloud_FM33A0XX/Drivers\fm33a0xx_btim.c **** 	tmpreg &= ~(BTIMx_BTCFG2_EXSEL2_Msk);
 1213              		.loc 1 381 0
 1214 0002 C022     		movs	r2, #192
 1215 0004 9343     		bics	r3, r2
 1216              	.LVL125:
 382:e:/LiteOS/LiteOS/targets/Cloud_FM33A0XX/GCC/../../../targets/Cloud_FM33A0XX/Drivers\fm33a0xx_btim.c **** 	tmpreg |= (SetValue & BTIMx_BTCFG2_EXSEL2_Msk);
 1217              		.loc 1 382 0
 1218 0006 1140     		ands	r1, r2
 1219              	.LVL126:
 1220 0008 1943     		orrs	r1, r3
 1221              	.LVL127:
 383:e:/LiteOS/LiteOS/targets/Cloud_FM33A0XX/GCC/../../../targets/Cloud_FM33A0XX/Drivers\fm33a0xx_btim.c **** 	BTIMx->BTCFG2 = tmpreg;
 1222              		.loc 1 383 0
 1223 000a C160     		str	r1, [r0, #12]
 384:e:/LiteOS/LiteOS/targets/Cloud_FM33A0XX/GCC/../../../targets/Cloud_FM33A0XX/Drivers\fm33a0xx_btim.c **** }
 1224              		.loc 1 384 0
 1225              		@ sp needed
 1226 000c 7047     		bx	lr
 1227              		.cfi_endproc
 1228              	.LFE74:
 1230 000e C046     		.section	.text.BTIMx_BTCFG2_EXSEL2_Get,"ax",%progbits
 1231              		.align	2
 1232              		.global	BTIMx_BTCFG2_EXSEL2_Get
 1233              		.code	16
ARM GAS  C:\Users\WANGBI~1\AppData\Local\Temp\cc00eRbQ.s 			page 28


 1234              		.thumb_func
 1236              	BTIMx_BTCFG2_EXSEL2_Get:
 1237              	.LFB75:
 385:e:/LiteOS/LiteOS/targets/Cloud_FM33A0XX/GCC/../../../targets/Cloud_FM33A0XX/Drivers\fm33a0xx_btim.c **** 
 386:e:/LiteOS/LiteOS/targets/Cloud_FM33A0XX/GCC/../../../targets/Cloud_FM33A0XX/Drivers\fm33a0xx_btim.c **** uint32_t BTIMx_BTCFG2_EXSEL2_Get(BTIMx_Type* BTIMx)
 387:e:/LiteOS/LiteOS/targets/Cloud_FM33A0XX/GCC/../../../targets/Cloud_FM33A0XX/Drivers\fm33a0xx_btim.c **** {
 1238              		.loc 1 387 0
 1239              		.cfi_startproc
 1240              		@ args = 0, pretend = 0, frame = 0
 1241              		@ frame_needed = 0, uses_anonymous_args = 0
 1242              		@ link register save eliminated.
 1243              	.LVL128:
 388:e:/LiteOS/LiteOS/targets/Cloud_FM33A0XX/GCC/../../../targets/Cloud_FM33A0XX/Drivers\fm33a0xx_btim.c **** 	return (BTIMx->BTCFG2 & BTIMx_BTCFG2_EXSEL2_Msk);
 1244              		.loc 1 388 0
 1245 0000 C368     		ldr	r3, [r0, #12]
 1246 0002 C020     		movs	r0, #192
 1247              	.LVL129:
 1248 0004 1840     		ands	r0, r3
 389:e:/LiteOS/LiteOS/targets/Cloud_FM33A0XX/GCC/../../../targets/Cloud_FM33A0XX/Drivers\fm33a0xx_btim.c **** }
 1249              		.loc 1 389 0
 1250              		@ sp needed
 1251 0006 7047     		bx	lr
 1252              		.cfi_endproc
 1253              	.LFE75:
 1255              		.section	.text.BTIMx_BTCFG2_EXSEL1_Set,"ax",%progbits
 1256              		.align	2
 1257              		.global	BTIMx_BTCFG2_EXSEL1_Set
 1258              		.code	16
 1259              		.thumb_func
 1261              	BTIMx_BTCFG2_EXSEL1_Set:
 1262              	.LFB76:
 390:e:/LiteOS/LiteOS/targets/Cloud_FM33A0XX/GCC/../../../targets/Cloud_FM33A0XX/Drivers\fm33a0xx_btim.c **** 
 391:e:/LiteOS/LiteOS/targets/Cloud_FM33A0XX/GCC/../../../targets/Cloud_FM33A0XX/Drivers\fm33a0xx_btim.c **** /* 外部输入信号选择控制1 相关函数 */
 392:e:/LiteOS/LiteOS/targets/Cloud_FM33A0XX/GCC/../../../targets/Cloud_FM33A0XX/Drivers\fm33a0xx_btim.c **** void BTIMx_BTCFG2_EXSEL1_Set(BTIMx_Type* BTIMx, uint32_t SetValue)
 393:e:/LiteOS/LiteOS/targets/Cloud_FM33A0XX/GCC/../../../targets/Cloud_FM33A0XX/Drivers\fm33a0xx_btim.c **** {
 1263              		.loc 1 393 0
 1264              		.cfi_startproc
 1265              		@ args = 0, pretend = 0, frame = 0
 1266              		@ frame_needed = 0, uses_anonymous_args = 0
 1267              		@ link register save eliminated.
 1268              	.LVL130:
 394:e:/LiteOS/LiteOS/targets/Cloud_FM33A0XX/GCC/../../../targets/Cloud_FM33A0XX/Drivers\fm33a0xx_btim.c **** 	uint32_t tmpreg;
 395:e:/LiteOS/LiteOS/targets/Cloud_FM33A0XX/GCC/../../../targets/Cloud_FM33A0XX/Drivers\fm33a0xx_btim.c **** 	tmpreg = BTIMx->BTCFG2;
 1269              		.loc 1 395 0
 1270 0000 C368     		ldr	r3, [r0, #12]
 1271              	.LVL131:
 396:e:/LiteOS/LiteOS/targets/Cloud_FM33A0XX/GCC/../../../targets/Cloud_FM33A0XX/Drivers\fm33a0xx_btim.c **** 	tmpreg &= ~(BTIMx_BTCFG2_EXSEL1_Msk);
 1272              		.loc 1 396 0
 1273 0002 3022     		movs	r2, #48
 1274 0004 9343     		bics	r3, r2
 1275              	.LVL132:
 397:e:/LiteOS/LiteOS/targets/Cloud_FM33A0XX/GCC/../../../targets/Cloud_FM33A0XX/Drivers\fm33a0xx_btim.c **** 	tmpreg |= (SetValue & BTIMx_BTCFG2_EXSEL1_Msk);
 1276              		.loc 1 397 0
 1277 0006 1140     		ands	r1, r2
 1278              	.LVL133:
 1279 0008 1943     		orrs	r1, r3
 1280              	.LVL134:
ARM GAS  C:\Users\WANGBI~1\AppData\Local\Temp\cc00eRbQ.s 			page 29


 398:e:/LiteOS/LiteOS/targets/Cloud_FM33A0XX/GCC/../../../targets/Cloud_FM33A0XX/Drivers\fm33a0xx_btim.c **** 	BTIMx->BTCFG2 = tmpreg;
 1281              		.loc 1 398 0
 1282 000a C160     		str	r1, [r0, #12]
 399:e:/LiteOS/LiteOS/targets/Cloud_FM33A0XX/GCC/../../../targets/Cloud_FM33A0XX/Drivers\fm33a0xx_btim.c **** }
 1283              		.loc 1 399 0
 1284              		@ sp needed
 1285 000c 7047     		bx	lr
 1286              		.cfi_endproc
 1287              	.LFE76:
 1289 000e C046     		.section	.text.BTIMx_BTCFG2_EXSEL1_Get,"ax",%progbits
 1290              		.align	2
 1291              		.global	BTIMx_BTCFG2_EXSEL1_Get
 1292              		.code	16
 1293              		.thumb_func
 1295              	BTIMx_BTCFG2_EXSEL1_Get:
 1296              	.LFB77:
 400:e:/LiteOS/LiteOS/targets/Cloud_FM33A0XX/GCC/../../../targets/Cloud_FM33A0XX/Drivers\fm33a0xx_btim.c **** 
 401:e:/LiteOS/LiteOS/targets/Cloud_FM33A0XX/GCC/../../../targets/Cloud_FM33A0XX/Drivers\fm33a0xx_btim.c **** uint32_t BTIMx_BTCFG2_EXSEL1_Get(BTIMx_Type* BTIMx)
 402:e:/LiteOS/LiteOS/targets/Cloud_FM33A0XX/GCC/../../../targets/Cloud_FM33A0XX/Drivers\fm33a0xx_btim.c **** {
 1297              		.loc 1 402 0
 1298              		.cfi_startproc
 1299              		@ args = 0, pretend = 0, frame = 0
 1300              		@ frame_needed = 0, uses_anonymous_args = 0
 1301              		@ link register save eliminated.
 1302              	.LVL135:
 403:e:/LiteOS/LiteOS/targets/Cloud_FM33A0XX/GCC/../../../targets/Cloud_FM33A0XX/Drivers\fm33a0xx_btim.c **** 	return (BTIMx->BTCFG2 & BTIMx_BTCFG2_EXSEL1_Msk);
 1303              		.loc 1 403 0
 1304 0000 C368     		ldr	r3, [r0, #12]
 1305 0002 3020     		movs	r0, #48
 1306              	.LVL136:
 1307 0004 1840     		ands	r0, r3
 404:e:/LiteOS/LiteOS/targets/Cloud_FM33A0XX/GCC/../../../targets/Cloud_FM33A0XX/Drivers\fm33a0xx_btim.c **** }
 1308              		.loc 1 404 0
 1309              		@ sp needed
 1310 0006 7047     		bx	lr
 1311              		.cfi_endproc
 1312              	.LFE77:
 1314              		.section	.text.BTIMx_BTCFG2_INSEL2_Set,"ax",%progbits
 1315              		.align	2
 1316              		.global	BTIMx_BTCFG2_INSEL2_Set
 1317              		.code	16
 1318              		.thumb_func
 1320              	BTIMx_BTCFG2_INSEL2_Set:
 1321              	.LFB78:
 405:e:/LiteOS/LiteOS/targets/Cloud_FM33A0XX/GCC/../../../targets/Cloud_FM33A0XX/Drivers\fm33a0xx_btim.c **** 
 406:e:/LiteOS/LiteOS/targets/Cloud_FM33A0XX/GCC/../../../targets/Cloud_FM33A0XX/Drivers\fm33a0xx_btim.c **** /* 内部输入信号选择控制2 相关函数 */
 407:e:/LiteOS/LiteOS/targets/Cloud_FM33A0XX/GCC/../../../targets/Cloud_FM33A0XX/Drivers\fm33a0xx_btim.c **** void BTIMx_BTCFG2_INSEL2_Set(BTIMx_Type* BTIMx, uint32_t SetValue)
 408:e:/LiteOS/LiteOS/targets/Cloud_FM33A0XX/GCC/../../../targets/Cloud_FM33A0XX/Drivers\fm33a0xx_btim.c **** {
 1322              		.loc 1 408 0
 1323              		.cfi_startproc
 1324              		@ args = 0, pretend = 0, frame = 0
 1325              		@ frame_needed = 0, uses_anonymous_args = 0
 1326              		@ link register save eliminated.
 1327              	.LVL137:
 409:e:/LiteOS/LiteOS/targets/Cloud_FM33A0XX/GCC/../../../targets/Cloud_FM33A0XX/Drivers\fm33a0xx_btim.c **** 	uint32_t tmpreg;
 410:e:/LiteOS/LiteOS/targets/Cloud_FM33A0XX/GCC/../../../targets/Cloud_FM33A0XX/Drivers\fm33a0xx_btim.c **** 	tmpreg = BTIMx->BTCFG2;
 1328              		.loc 1 410 0
ARM GAS  C:\Users\WANGBI~1\AppData\Local\Temp\cc00eRbQ.s 			page 30


 1329 0000 C368     		ldr	r3, [r0, #12]
 1330              	.LVL138:
 411:e:/LiteOS/LiteOS/targets/Cloud_FM33A0XX/GCC/../../../targets/Cloud_FM33A0XX/Drivers\fm33a0xx_btim.c **** 	tmpreg &= ~(BTIMx_BTCFG2_INSEL2_Msk);
 1331              		.loc 1 411 0
 1332 0002 0C22     		movs	r2, #12
 1333 0004 9343     		bics	r3, r2
 1334              	.LVL139:
 412:e:/LiteOS/LiteOS/targets/Cloud_FM33A0XX/GCC/../../../targets/Cloud_FM33A0XX/Drivers\fm33a0xx_btim.c **** 	tmpreg |= (SetValue & BTIMx_BTCFG2_INSEL2_Msk);
 1335              		.loc 1 412 0
 1336 0006 1140     		ands	r1, r2
 1337              	.LVL140:
 1338 0008 1943     		orrs	r1, r3
 1339              	.LVL141:
 413:e:/LiteOS/LiteOS/targets/Cloud_FM33A0XX/GCC/../../../targets/Cloud_FM33A0XX/Drivers\fm33a0xx_btim.c **** 	BTIMx->BTCFG2 = tmpreg;
 1340              		.loc 1 413 0
 1341 000a C160     		str	r1, [r0, #12]
 414:e:/LiteOS/LiteOS/targets/Cloud_FM33A0XX/GCC/../../../targets/Cloud_FM33A0XX/Drivers\fm33a0xx_btim.c **** }
 1342              		.loc 1 414 0
 1343              		@ sp needed
 1344 000c 7047     		bx	lr
 1345              		.cfi_endproc
 1346              	.LFE78:
 1348 000e C046     		.section	.text.BTIMx_BTCFG2_INSEL2_Get,"ax",%progbits
 1349              		.align	2
 1350              		.global	BTIMx_BTCFG2_INSEL2_Get
 1351              		.code	16
 1352              		.thumb_func
 1354              	BTIMx_BTCFG2_INSEL2_Get:
 1355              	.LFB79:
 415:e:/LiteOS/LiteOS/targets/Cloud_FM33A0XX/GCC/../../../targets/Cloud_FM33A0XX/Drivers\fm33a0xx_btim.c **** 
 416:e:/LiteOS/LiteOS/targets/Cloud_FM33A0XX/GCC/../../../targets/Cloud_FM33A0XX/Drivers\fm33a0xx_btim.c **** uint32_t BTIMx_BTCFG2_INSEL2_Get(BTIMx_Type* BTIMx)
 417:e:/LiteOS/LiteOS/targets/Cloud_FM33A0XX/GCC/../../../targets/Cloud_FM33A0XX/Drivers\fm33a0xx_btim.c **** {
 1356              		.loc 1 417 0
 1357              		.cfi_startproc
 1358              		@ args = 0, pretend = 0, frame = 0
 1359              		@ frame_needed = 0, uses_anonymous_args = 0
 1360              		@ link register save eliminated.
 1361              	.LVL142:
 418:e:/LiteOS/LiteOS/targets/Cloud_FM33A0XX/GCC/../../../targets/Cloud_FM33A0XX/Drivers\fm33a0xx_btim.c **** 	return (BTIMx->BTCFG2 & BTIMx_BTCFG2_INSEL2_Msk);
 1362              		.loc 1 418 0
 1363 0000 C368     		ldr	r3, [r0, #12]
 1364 0002 0C20     		movs	r0, #12
 1365              	.LVL143:
 1366 0004 1840     		ands	r0, r3
 419:e:/LiteOS/LiteOS/targets/Cloud_FM33A0XX/GCC/../../../targets/Cloud_FM33A0XX/Drivers\fm33a0xx_btim.c **** }
 1367              		.loc 1 419 0
 1368              		@ sp needed
 1369 0006 7047     		bx	lr
 1370              		.cfi_endproc
 1371              	.LFE79:
 1373              		.section	.text.BTIMx_BTCFG2_INSEL1_Set,"ax",%progbits
 1374              		.align	2
 1375              		.global	BTIMx_BTCFG2_INSEL1_Set
 1376              		.code	16
 1377              		.thumb_func
 1379              	BTIMx_BTCFG2_INSEL1_Set:
 1380              	.LFB80:
ARM GAS  C:\Users\WANGBI~1\AppData\Local\Temp\cc00eRbQ.s 			page 31


 420:e:/LiteOS/LiteOS/targets/Cloud_FM33A0XX/GCC/../../../targets/Cloud_FM33A0XX/Drivers\fm33a0xx_btim.c **** 
 421:e:/LiteOS/LiteOS/targets/Cloud_FM33A0XX/GCC/../../../targets/Cloud_FM33A0XX/Drivers\fm33a0xx_btim.c **** void BTIMx_BTCFG2_INSEL1_Set(BTIMx_Type* BTIMx, uint32_t SetValue)
 422:e:/LiteOS/LiteOS/targets/Cloud_FM33A0XX/GCC/../../../targets/Cloud_FM33A0XX/Drivers\fm33a0xx_btim.c **** {
 1381              		.loc 1 422 0
 1382              		.cfi_startproc
 1383              		@ args = 0, pretend = 0, frame = 0
 1384              		@ frame_needed = 0, uses_anonymous_args = 0
 1385              		@ link register save eliminated.
 1386              	.LVL144:
 423:e:/LiteOS/LiteOS/targets/Cloud_FM33A0XX/GCC/../../../targets/Cloud_FM33A0XX/Drivers\fm33a0xx_btim.c **** 	uint32_t tmpreg;
 424:e:/LiteOS/LiteOS/targets/Cloud_FM33A0XX/GCC/../../../targets/Cloud_FM33A0XX/Drivers\fm33a0xx_btim.c **** 	tmpreg = BTIMx->BTCFG2;
 1387              		.loc 1 424 0
 1388 0000 C368     		ldr	r3, [r0, #12]
 1389              	.LVL145:
 425:e:/LiteOS/LiteOS/targets/Cloud_FM33A0XX/GCC/../../../targets/Cloud_FM33A0XX/Drivers\fm33a0xx_btim.c **** 	tmpreg &= ~(BTIMx_BTCFG2_INSEL1_Msk);
 1390              		.loc 1 425 0
 1391 0002 0322     		movs	r2, #3
 1392 0004 9343     		bics	r3, r2
 1393              	.LVL146:
 426:e:/LiteOS/LiteOS/targets/Cloud_FM33A0XX/GCC/../../../targets/Cloud_FM33A0XX/Drivers\fm33a0xx_btim.c **** 	tmpreg |= (SetValue & BTIMx_BTCFG2_INSEL1_Msk);
 1394              		.loc 1 426 0
 1395 0006 1140     		ands	r1, r2
 1396              	.LVL147:
 1397 0008 1943     		orrs	r1, r3
 1398              	.LVL148:
 427:e:/LiteOS/LiteOS/targets/Cloud_FM33A0XX/GCC/../../../targets/Cloud_FM33A0XX/Drivers\fm33a0xx_btim.c **** 	BTIMx->BTCFG2 = tmpreg;
 1399              		.loc 1 427 0
 1400 000a C160     		str	r1, [r0, #12]
 428:e:/LiteOS/LiteOS/targets/Cloud_FM33A0XX/GCC/../../../targets/Cloud_FM33A0XX/Drivers\fm33a0xx_btim.c **** }
 1401              		.loc 1 428 0
 1402              		@ sp needed
 1403 000c 7047     		bx	lr
 1404              		.cfi_endproc
 1405              	.LFE80:
 1407 000e C046     		.section	.text.BTIMx_BTCFG2_INSEL1_Get,"ax",%progbits
 1408              		.align	2
 1409              		.global	BTIMx_BTCFG2_INSEL1_Get
 1410              		.code	16
 1411              		.thumb_func
 1413              	BTIMx_BTCFG2_INSEL1_Get:
 1414              	.LFB81:
 429:e:/LiteOS/LiteOS/targets/Cloud_FM33A0XX/GCC/../../../targets/Cloud_FM33A0XX/Drivers\fm33a0xx_btim.c **** 
 430:e:/LiteOS/LiteOS/targets/Cloud_FM33A0XX/GCC/../../../targets/Cloud_FM33A0XX/Drivers\fm33a0xx_btim.c **** uint32_t BTIMx_BTCFG2_INSEL1_Get(BTIMx_Type* BTIMx)
 431:e:/LiteOS/LiteOS/targets/Cloud_FM33A0XX/GCC/../../../targets/Cloud_FM33A0XX/Drivers\fm33a0xx_btim.c **** {
 1415              		.loc 1 431 0
 1416              		.cfi_startproc
 1417              		@ args = 0, pretend = 0, frame = 0
 1418              		@ frame_needed = 0, uses_anonymous_args = 0
 1419              		@ link register save eliminated.
 1420              	.LVL149:
 432:e:/LiteOS/LiteOS/targets/Cloud_FM33A0XX/GCC/../../../targets/Cloud_FM33A0XX/Drivers\fm33a0xx_btim.c **** 	return (BTIMx->BTCFG2 & BTIMx_BTCFG2_INSEL1_Msk);
 1421              		.loc 1 432 0
 1422 0000 C368     		ldr	r3, [r0, #12]
 1423 0002 0320     		movs	r0, #3
 1424              	.LVL150:
 1425 0004 1840     		ands	r0, r3
 433:e:/LiteOS/LiteOS/targets/Cloud_FM33A0XX/GCC/../../../targets/Cloud_FM33A0XX/Drivers\fm33a0xx_btim.c **** }
ARM GAS  C:\Users\WANGBI~1\AppData\Local\Temp\cc00eRbQ.s 			page 32


 1426              		.loc 1 433 0
 1427              		@ sp needed
 1428 0006 7047     		bx	lr
 1429              		.cfi_endproc
 1430              	.LFE81:
 1432              		.section	.text.BTIMx_BTPRES_Write,"ax",%progbits
 1433              		.align	2
 1434              		.global	BTIMx_BTPRES_Write
 1435              		.code	16
 1436              		.thumb_func
 1438              	BTIMx_BTPRES_Write:
 1439              	.LFB82:
 434:e:/LiteOS/LiteOS/targets/Cloud_FM33A0XX/GCC/../../../targets/Cloud_FM33A0XX/Drivers\fm33a0xx_btim.c **** 
 435:e:/LiteOS/LiteOS/targets/Cloud_FM33A0XX/GCC/../../../targets/Cloud_FM33A0XX/Drivers\fm33a0xx_btim.c **** /* 输入Group1的预分频寄存器 相关函数 */
 436:e:/LiteOS/LiteOS/targets/Cloud_FM33A0XX/GCC/../../../targets/Cloud_FM33A0XX/Drivers\fm33a0xx_btim.c **** void BTIMx_BTPRES_Write(BTIMx_Type* BTIMx, uint32_t SetValue)
 437:e:/LiteOS/LiteOS/targets/Cloud_FM33A0XX/GCC/../../../targets/Cloud_FM33A0XX/Drivers\fm33a0xx_btim.c **** {
 1440              		.loc 1 437 0
 1441              		.cfi_startproc
 1442              		@ args = 0, pretend = 0, frame = 0
 1443              		@ frame_needed = 0, uses_anonymous_args = 0
 1444              		@ link register save eliminated.
 1445              	.LVL151:
 438:e:/LiteOS/LiteOS/targets/Cloud_FM33A0XX/GCC/../../../targets/Cloud_FM33A0XX/Drivers\fm33a0xx_btim.c **** 	BTIMx->BTPRES = (SetValue & BTIMx_BTPRES_PRESCALE_Msk);
 1446              		.loc 1 438 0
 1447 0000 FF23     		movs	r3, #255
 1448 0002 1940     		ands	r1, r3
 1449              	.LVL152:
 1450 0004 0161     		str	r1, [r0, #16]
 439:e:/LiteOS/LiteOS/targets/Cloud_FM33A0XX/GCC/../../../targets/Cloud_FM33A0XX/Drivers\fm33a0xx_btim.c **** }
 1451              		.loc 1 439 0
 1452              		@ sp needed
 1453 0006 7047     		bx	lr
 1454              		.cfi_endproc
 1455              	.LFE82:
 1457              		.section	.text.BTIMx_BTPRES_Read,"ax",%progbits
 1458              		.align	2
 1459              		.global	BTIMx_BTPRES_Read
 1460              		.code	16
 1461              		.thumb_func
 1463              	BTIMx_BTPRES_Read:
 1464              	.LFB83:
 440:e:/LiteOS/LiteOS/targets/Cloud_FM33A0XX/GCC/../../../targets/Cloud_FM33A0XX/Drivers\fm33a0xx_btim.c **** 
 441:e:/LiteOS/LiteOS/targets/Cloud_FM33A0XX/GCC/../../../targets/Cloud_FM33A0XX/Drivers\fm33a0xx_btim.c **** uint32_t BTIMx_BTPRES_Read(BTIMx_Type* BTIMx)
 442:e:/LiteOS/LiteOS/targets/Cloud_FM33A0XX/GCC/../../../targets/Cloud_FM33A0XX/Drivers\fm33a0xx_btim.c **** {
 1465              		.loc 1 442 0
 1466              		.cfi_startproc
 1467              		@ args = 0, pretend = 0, frame = 0
 1468              		@ frame_needed = 0, uses_anonymous_args = 0
 1469              		@ link register save eliminated.
 1470              	.LVL153:
 443:e:/LiteOS/LiteOS/targets/Cloud_FM33A0XX/GCC/../../../targets/Cloud_FM33A0XX/Drivers\fm33a0xx_btim.c **** 	return (BTIMx->BTPRES & BTIMx_BTPRES_PRESCALE_Msk);
 1471              		.loc 1 443 0
 1472 0000 0369     		ldr	r3, [r0, #16]
 1473 0002 FF20     		movs	r0, #255
 1474              	.LVL154:
 1475 0004 1840     		ands	r0, r3
 444:e:/LiteOS/LiteOS/targets/Cloud_FM33A0XX/GCC/../../../targets/Cloud_FM33A0XX/Drivers\fm33a0xx_btim.c **** }
ARM GAS  C:\Users\WANGBI~1\AppData\Local\Temp\cc00eRbQ.s 			page 33


 1476              		.loc 1 444 0
 1477              		@ sp needed
 1478 0006 7047     		bx	lr
 1479              		.cfi_endproc
 1480              	.LFE83:
 1482              		.section	.text.BTIMx_BTLOADCR_LHEN_Setable,"ax",%progbits
 1483              		.align	2
 1484              		.global	BTIMx_BTLOADCR_LHEN_Setable
 1485              		.code	16
 1486              		.thumb_func
 1488              	BTIMx_BTLOADCR_LHEN_Setable:
 1489              	.LFB84:
 445:e:/LiteOS/LiteOS/targets/Cloud_FM33A0XX/GCC/../../../targets/Cloud_FM33A0XX/Drivers\fm33a0xx_btim.c **** 
 446:e:/LiteOS/LiteOS/targets/Cloud_FM33A0XX/GCC/../../../targets/Cloud_FM33A0XX/Drivers\fm33a0xx_btim.c **** void BTIMx_BTLOADCR_LHEN_Setable(BTIMx_Type* BTIMx, FunState NewState)
 447:e:/LiteOS/LiteOS/targets/Cloud_FM33A0XX/GCC/../../../targets/Cloud_FM33A0XX/Drivers\fm33a0xx_btim.c **** {
 1490              		.loc 1 447 0
 1491              		.cfi_startproc
 1492              		@ args = 0, pretend = 0, frame = 0
 1493              		@ frame_needed = 0, uses_anonymous_args = 0
 1494              		@ link register save eliminated.
 1495              	.LVL155:
 448:e:/LiteOS/LiteOS/targets/Cloud_FM33A0XX/GCC/../../../targets/Cloud_FM33A0XX/Drivers\fm33a0xx_btim.c **** 	if (NewState == ENABLE)
 1496              		.loc 1 448 0
 1497 0000 0129     		cmp	r1, #1
 1498 0002 04D1     		bne	.L70
 449:e:/LiteOS/LiteOS/targets/Cloud_FM33A0XX/GCC/../../../targets/Cloud_FM33A0XX/Drivers\fm33a0xx_btim.c **** 	{
 450:e:/LiteOS/LiteOS/targets/Cloud_FM33A0XX/GCC/../../../targets/Cloud_FM33A0XX/Drivers\fm33a0xx_btim.c **** 		BTIMx->BTLOADCR |= (BTIMx_BTLOADCR_LHEN_Msk);
 1499              		.loc 1 450 0
 1500 0004 4269     		ldr	r2, [r0, #20]
 1501 0006 1023     		movs	r3, #16
 1502 0008 1343     		orrs	r3, r2
 1503 000a 4361     		str	r3, [r0, #20]
 1504 000c 03E0     		b	.L69
 1505              	.L70:
 451:e:/LiteOS/LiteOS/targets/Cloud_FM33A0XX/GCC/../../../targets/Cloud_FM33A0XX/Drivers\fm33a0xx_btim.c **** 	}
 452:e:/LiteOS/LiteOS/targets/Cloud_FM33A0XX/GCC/../../../targets/Cloud_FM33A0XX/Drivers\fm33a0xx_btim.c **** 	else
 453:e:/LiteOS/LiteOS/targets/Cloud_FM33A0XX/GCC/../../../targets/Cloud_FM33A0XX/Drivers\fm33a0xx_btim.c **** 	{
 454:e:/LiteOS/LiteOS/targets/Cloud_FM33A0XX/GCC/../../../targets/Cloud_FM33A0XX/Drivers\fm33a0xx_btim.c **** 		BTIMx->BTLOADCR &= ~(BTIMx_BTLOADCR_LHEN_Msk);
 1506              		.loc 1 454 0
 1507 000e 4369     		ldr	r3, [r0, #20]
 1508 0010 1022     		movs	r2, #16
 1509 0012 9343     		bics	r3, r2
 1510 0014 4361     		str	r3, [r0, #20]
 1511              	.L69:
 455:e:/LiteOS/LiteOS/targets/Cloud_FM33A0XX/GCC/../../../targets/Cloud_FM33A0XX/Drivers\fm33a0xx_btim.c **** 	}
 456:e:/LiteOS/LiteOS/targets/Cloud_FM33A0XX/GCC/../../../targets/Cloud_FM33A0XX/Drivers\fm33a0xx_btim.c **** }
 1512              		.loc 1 456 0
 1513              		@ sp needed
 1514 0016 7047     		bx	lr
 1515              		.cfi_endproc
 1516              	.LFE84:
 1518              		.section	.text.BTIMx_BTLOADCR_LLEN_Setable,"ax",%progbits
 1519              		.align	2
 1520              		.global	BTIMx_BTLOADCR_LLEN_Setable
 1521              		.code	16
 1522              		.thumb_func
 1524              	BTIMx_BTLOADCR_LLEN_Setable:
ARM GAS  C:\Users\WANGBI~1\AppData\Local\Temp\cc00eRbQ.s 			page 34


 1525              	.LFB85:
 457:e:/LiteOS/LiteOS/targets/Cloud_FM33A0XX/GCC/../../../targets/Cloud_FM33A0XX/Drivers\fm33a0xx_btim.c **** 
 458:e:/LiteOS/LiteOS/targets/Cloud_FM33A0XX/GCC/../../../targets/Cloud_FM33A0XX/Drivers\fm33a0xx_btim.c **** void BTIMx_BTLOADCR_LLEN_Setable(BTIMx_Type* BTIMx, FunState NewState)
 459:e:/LiteOS/LiteOS/targets/Cloud_FM33A0XX/GCC/../../../targets/Cloud_FM33A0XX/Drivers\fm33a0xx_btim.c **** {
 1526              		.loc 1 459 0
 1527              		.cfi_startproc
 1528              		@ args = 0, pretend = 0, frame = 0
 1529              		@ frame_needed = 0, uses_anonymous_args = 0
 1530              		@ link register save eliminated.
 1531              	.LVL156:
 460:e:/LiteOS/LiteOS/targets/Cloud_FM33A0XX/GCC/../../../targets/Cloud_FM33A0XX/Drivers\fm33a0xx_btim.c **** 	if (NewState == ENABLE)
 1532              		.loc 1 460 0
 1533 0000 0129     		cmp	r1, #1
 1534 0002 04D1     		bne	.L73
 461:e:/LiteOS/LiteOS/targets/Cloud_FM33A0XX/GCC/../../../targets/Cloud_FM33A0XX/Drivers\fm33a0xx_btim.c **** 	{
 462:e:/LiteOS/LiteOS/targets/Cloud_FM33A0XX/GCC/../../../targets/Cloud_FM33A0XX/Drivers\fm33a0xx_btim.c **** 		BTIMx->BTLOADCR |= (BTIMx_BTLOADCR_LLEN_Msk);
 1535              		.loc 1 462 0
 1536 0004 4269     		ldr	r2, [r0, #20]
 1537 0006 0123     		movs	r3, #1
 1538 0008 1343     		orrs	r3, r2
 1539 000a 4361     		str	r3, [r0, #20]
 1540 000c 03E0     		b	.L72
 1541              	.L73:
 463:e:/LiteOS/LiteOS/targets/Cloud_FM33A0XX/GCC/../../../targets/Cloud_FM33A0XX/Drivers\fm33a0xx_btim.c **** 	}
 464:e:/LiteOS/LiteOS/targets/Cloud_FM33A0XX/GCC/../../../targets/Cloud_FM33A0XX/Drivers\fm33a0xx_btim.c **** 	else
 465:e:/LiteOS/LiteOS/targets/Cloud_FM33A0XX/GCC/../../../targets/Cloud_FM33A0XX/Drivers\fm33a0xx_btim.c **** 	{
 466:e:/LiteOS/LiteOS/targets/Cloud_FM33A0XX/GCC/../../../targets/Cloud_FM33A0XX/Drivers\fm33a0xx_btim.c **** 		BTIMx->BTLOADCR &= ~(BTIMx_BTLOADCR_LLEN_Msk);
 1542              		.loc 1 466 0
 1543 000e 4369     		ldr	r3, [r0, #20]
 1544 0010 0122     		movs	r2, #1
 1545 0012 9343     		bics	r3, r2
 1546 0014 4361     		str	r3, [r0, #20]
 1547              	.L72:
 467:e:/LiteOS/LiteOS/targets/Cloud_FM33A0XX/GCC/../../../targets/Cloud_FM33A0XX/Drivers\fm33a0xx_btim.c **** 	}
 468:e:/LiteOS/LiteOS/targets/Cloud_FM33A0XX/GCC/../../../targets/Cloud_FM33A0XX/Drivers\fm33a0xx_btim.c **** }
 1548              		.loc 1 468 0
 1549              		@ sp needed
 1550 0016 7047     		bx	lr
 1551              		.cfi_endproc
 1552              	.LFE85:
 1554              		.section	.text.BTIMx_BTCNTL_Read,"ax",%progbits
 1555              		.align	2
 1556              		.global	BTIMx_BTCNTL_Read
 1557              		.code	16
 1558              		.thumb_func
 1560              	BTIMx_BTCNTL_Read:
 1561              	.LFB86:
 469:e:/LiteOS/LiteOS/targets/Cloud_FM33A0XX/GCC/../../../targets/Cloud_FM33A0XX/Drivers\fm33a0xx_btim.c **** 
 470:e:/LiteOS/LiteOS/targets/Cloud_FM33A0XX/GCC/../../../targets/Cloud_FM33A0XX/Drivers\fm33a0xx_btim.c **** /* 计数器低位计数值寄存器 相关函数 */
 471:e:/LiteOS/LiteOS/targets/Cloud_FM33A0XX/GCC/../../../targets/Cloud_FM33A0XX/Drivers\fm33a0xx_btim.c **** uint32_t BTIMx_BTCNTL_Read(BTIMx_Type* BTIMx)
 472:e:/LiteOS/LiteOS/targets/Cloud_FM33A0XX/GCC/../../../targets/Cloud_FM33A0XX/Drivers\fm33a0xx_btim.c **** {
 1562              		.loc 1 472 0
 1563              		.cfi_startproc
 1564              		@ args = 0, pretend = 0, frame = 0
 1565              		@ frame_needed = 0, uses_anonymous_args = 0
 1566              		@ link register save eliminated.
 1567              	.LVL157:
ARM GAS  C:\Users\WANGBI~1\AppData\Local\Temp\cc00eRbQ.s 			page 35


 473:e:/LiteOS/LiteOS/targets/Cloud_FM33A0XX/GCC/../../../targets/Cloud_FM33A0XX/Drivers\fm33a0xx_btim.c **** 	return (BTIMx->BTCNTL & BTIMx_BTCNTL_CNTL_Msk);
 1568              		.loc 1 473 0
 1569 0000 8369     		ldr	r3, [r0, #24]
 1570 0002 FF20     		movs	r0, #255
 1571              	.LVL158:
 1572 0004 1840     		ands	r0, r3
 474:e:/LiteOS/LiteOS/targets/Cloud_FM33A0XX/GCC/../../../targets/Cloud_FM33A0XX/Drivers\fm33a0xx_btim.c **** }
 1573              		.loc 1 474 0
 1574              		@ sp needed
 1575 0006 7047     		bx	lr
 1576              		.cfi_endproc
 1577              	.LFE86:
 1579              		.section	.text.BTIMx_BTCNTH_Read,"ax",%progbits
 1580              		.align	2
 1581              		.global	BTIMx_BTCNTH_Read
 1582              		.code	16
 1583              		.thumb_func
 1585              	BTIMx_BTCNTH_Read:
 1586              	.LFB87:
 475:e:/LiteOS/LiteOS/targets/Cloud_FM33A0XX/GCC/../../../targets/Cloud_FM33A0XX/Drivers\fm33a0xx_btim.c **** 
 476:e:/LiteOS/LiteOS/targets/Cloud_FM33A0XX/GCC/../../../targets/Cloud_FM33A0XX/Drivers\fm33a0xx_btim.c **** /* 计数器高位计数值寄存器 相关函数 */
 477:e:/LiteOS/LiteOS/targets/Cloud_FM33A0XX/GCC/../../../targets/Cloud_FM33A0XX/Drivers\fm33a0xx_btim.c **** uint32_t BTIMx_BTCNTH_Read(BTIMx_Type* BTIMx)
 478:e:/LiteOS/LiteOS/targets/Cloud_FM33A0XX/GCC/../../../targets/Cloud_FM33A0XX/Drivers\fm33a0xx_btim.c **** {
 1587              		.loc 1 478 0
 1588              		.cfi_startproc
 1589              		@ args = 0, pretend = 0, frame = 0
 1590              		@ frame_needed = 0, uses_anonymous_args = 0
 1591              		@ link register save eliminated.
 1592              	.LVL159:
 479:e:/LiteOS/LiteOS/targets/Cloud_FM33A0XX/GCC/../../../targets/Cloud_FM33A0XX/Drivers\fm33a0xx_btim.c **** 	return (BTIMx->BTCNTH & BTIMx_BTCNTH_CNTH_Msk);
 1593              		.loc 1 479 0
 1594 0000 C369     		ldr	r3, [r0, #28]
 1595 0002 FF20     		movs	r0, #255
 1596              	.LVL160:
 1597 0004 1840     		ands	r0, r3
 480:e:/LiteOS/LiteOS/targets/Cloud_FM33A0XX/GCC/../../../targets/Cloud_FM33A0XX/Drivers\fm33a0xx_btim.c **** }
 1598              		.loc 1 480 0
 1599              		@ sp needed
 1600 0006 7047     		bx	lr
 1601              		.cfi_endproc
 1602              	.LFE87:
 1604              		.section	.text.BTIMx_BTPRESET_PRESETH_Set,"ax",%progbits
 1605              		.align	2
 1606              		.global	BTIMx_BTPRESET_PRESETH_Set
 1607              		.code	16
 1608              		.thumb_func
 1610              	BTIMx_BTPRESET_PRESETH_Set:
 1611              	.LFB88:
 481:e:/LiteOS/LiteOS/targets/Cloud_FM33A0XX/GCC/../../../targets/Cloud_FM33A0XX/Drivers\fm33a0xx_btim.c **** 
 482:e:/LiteOS/LiteOS/targets/Cloud_FM33A0XX/GCC/../../../targets/Cloud_FM33A0XX/Drivers\fm33a0xx_btim.c **** /* 计数器高位预置数寄存器 相关函数 */
 483:e:/LiteOS/LiteOS/targets/Cloud_FM33A0XX/GCC/../../../targets/Cloud_FM33A0XX/Drivers\fm33a0xx_btim.c **** void BTIMx_BTPRESET_PRESETH_Set(BTIMx_Type* BTIMx, uint32_t SetValue)
 484:e:/LiteOS/LiteOS/targets/Cloud_FM33A0XX/GCC/../../../targets/Cloud_FM33A0XX/Drivers\fm33a0xx_btim.c **** {
 1612              		.loc 1 484 0
 1613              		.cfi_startproc
 1614              		@ args = 0, pretend = 0, frame = 0
 1615              		@ frame_needed = 0, uses_anonymous_args = 0
 1616              		@ link register save eliminated.
ARM GAS  C:\Users\WANGBI~1\AppData\Local\Temp\cc00eRbQ.s 			page 36


 1617              	.LVL161:
 485:e:/LiteOS/LiteOS/targets/Cloud_FM33A0XX/GCC/../../../targets/Cloud_FM33A0XX/Drivers\fm33a0xx_btim.c **** 	uint32_t tmpreg;
 486:e:/LiteOS/LiteOS/targets/Cloud_FM33A0XX/GCC/../../../targets/Cloud_FM33A0XX/Drivers\fm33a0xx_btim.c **** 	tmpreg = BTIMx->BTPRESET;
 1618              		.loc 1 486 0
 1619 0000 026A     		ldr	r2, [r0, #32]
 1620              	.LVL162:
 487:e:/LiteOS/LiteOS/targets/Cloud_FM33A0XX/GCC/../../../targets/Cloud_FM33A0XX/Drivers\fm33a0xx_btim.c **** 	tmpreg &= ~(BTIMx_BTPRESET_PRESETH_Msk);
 1621              		.loc 1 487 0
 1622 0002 044B     		ldr	r3, .L78
 1623 0004 1A40     		ands	r2, r3
 1624              	.LVL163:
 488:e:/LiteOS/LiteOS/targets/Cloud_FM33A0XX/GCC/../../../targets/Cloud_FM33A0XX/Drivers\fm33a0xx_btim.c **** 	tmpreg |= (SetValue & BTIMx_BTPRESET_PRESETH_Msk);
 1625              		.loc 1 488 0
 1626 0006 FF23     		movs	r3, #255
 1627 0008 1B02     		lsls	r3, r3, #8
 1628 000a 1940     		ands	r1, r3
 1629              	.LVL164:
 1630 000c 1143     		orrs	r1, r2
 1631              	.LVL165:
 489:e:/LiteOS/LiteOS/targets/Cloud_FM33A0XX/GCC/../../../targets/Cloud_FM33A0XX/Drivers\fm33a0xx_btim.c **** 	BTIMx->BTPRESET = tmpreg;
 1632              		.loc 1 489 0
 1633 000e 0162     		str	r1, [r0, #32]
 490:e:/LiteOS/LiteOS/targets/Cloud_FM33A0XX/GCC/../../../targets/Cloud_FM33A0XX/Drivers\fm33a0xx_btim.c **** }
 1634              		.loc 1 490 0
 1635              		@ sp needed
 1636 0010 7047     		bx	lr
 1637              	.L79:
 1638 0012 C046     		.align	2
 1639              	.L78:
 1640 0014 FF00FFFF 		.word	-65281
 1641              		.cfi_endproc
 1642              	.LFE88:
 1644              		.section	.text.BTIMx_BTPRESET_PRESETH_Get,"ax",%progbits
 1645              		.align	2
 1646              		.global	BTIMx_BTPRESET_PRESETH_Get
 1647              		.code	16
 1648              		.thumb_func
 1650              	BTIMx_BTPRESET_PRESETH_Get:
 1651              	.LFB89:
 491:e:/LiteOS/LiteOS/targets/Cloud_FM33A0XX/GCC/../../../targets/Cloud_FM33A0XX/Drivers\fm33a0xx_btim.c **** 
 492:e:/LiteOS/LiteOS/targets/Cloud_FM33A0XX/GCC/../../../targets/Cloud_FM33A0XX/Drivers\fm33a0xx_btim.c **** uint32_t BTIMx_BTPRESET_PRESETH_Get(BTIMx_Type* BTIMx)
 493:e:/LiteOS/LiteOS/targets/Cloud_FM33A0XX/GCC/../../../targets/Cloud_FM33A0XX/Drivers\fm33a0xx_btim.c **** {
 1652              		.loc 1 493 0
 1653              		.cfi_startproc
 1654              		@ args = 0, pretend = 0, frame = 0
 1655              		@ frame_needed = 0, uses_anonymous_args = 0
 1656              		@ link register save eliminated.
 1657              	.LVL166:
 494:e:/LiteOS/LiteOS/targets/Cloud_FM33A0XX/GCC/../../../targets/Cloud_FM33A0XX/Drivers\fm33a0xx_btim.c **** 	return (BTIMx->BTPRESET & BTIMx_BTPRESET_PRESETH_Msk);
 1658              		.loc 1 494 0
 1659 0000 006A     		ldr	r0, [r0, #32]
 1660              	.LVL167:
 1661 0002 FF23     		movs	r3, #255
 1662 0004 1B02     		lsls	r3, r3, #8
 1663 0006 1840     		ands	r0, r3
 495:e:/LiteOS/LiteOS/targets/Cloud_FM33A0XX/GCC/../../../targets/Cloud_FM33A0XX/Drivers\fm33a0xx_btim.c **** }
 1664              		.loc 1 495 0
ARM GAS  C:\Users\WANGBI~1\AppData\Local\Temp\cc00eRbQ.s 			page 37


 1665              		@ sp needed
 1666 0008 7047     		bx	lr
 1667              		.cfi_endproc
 1668              	.LFE89:
 1670 000a C046     		.section	.text.BTIMx_BTPRESET_PRESETL_Set,"ax",%progbits
 1671              		.align	2
 1672              		.global	BTIMx_BTPRESET_PRESETL_Set
 1673              		.code	16
 1674              		.thumb_func
 1676              	BTIMx_BTPRESET_PRESETL_Set:
 1677              	.LFB90:
 496:e:/LiteOS/LiteOS/targets/Cloud_FM33A0XX/GCC/../../../targets/Cloud_FM33A0XX/Drivers\fm33a0xx_btim.c **** 
 497:e:/LiteOS/LiteOS/targets/Cloud_FM33A0XX/GCC/../../../targets/Cloud_FM33A0XX/Drivers\fm33a0xx_btim.c **** /* 计数器低位预置数寄存器 相关函数 */
 498:e:/LiteOS/LiteOS/targets/Cloud_FM33A0XX/GCC/../../../targets/Cloud_FM33A0XX/Drivers\fm33a0xx_btim.c **** void BTIMx_BTPRESET_PRESETL_Set(BTIMx_Type* BTIMx, uint32_t SetValue)
 499:e:/LiteOS/LiteOS/targets/Cloud_FM33A0XX/GCC/../../../targets/Cloud_FM33A0XX/Drivers\fm33a0xx_btim.c **** {
 1678              		.loc 1 499 0
 1679              		.cfi_startproc
 1680              		@ args = 0, pretend = 0, frame = 0
 1681              		@ frame_needed = 0, uses_anonymous_args = 0
 1682              		@ link register save eliminated.
 1683              	.LVL168:
 500:e:/LiteOS/LiteOS/targets/Cloud_FM33A0XX/GCC/../../../targets/Cloud_FM33A0XX/Drivers\fm33a0xx_btim.c **** 	uint32_t tmpreg;
 501:e:/LiteOS/LiteOS/targets/Cloud_FM33A0XX/GCC/../../../targets/Cloud_FM33A0XX/Drivers\fm33a0xx_btim.c **** 	tmpreg = BTIMx->BTPRESET;
 1684              		.loc 1 501 0
 1685 0000 036A     		ldr	r3, [r0, #32]
 1686              	.LVL169:
 502:e:/LiteOS/LiteOS/targets/Cloud_FM33A0XX/GCC/../../../targets/Cloud_FM33A0XX/Drivers\fm33a0xx_btim.c **** 	tmpreg &= ~(BTIMx_BTPRESET_PRESETL_Msk);
 1687              		.loc 1 502 0
 1688 0002 FF22     		movs	r2, #255
 1689 0004 9343     		bics	r3, r2
 1690              	.LVL170:
 503:e:/LiteOS/LiteOS/targets/Cloud_FM33A0XX/GCC/../../../targets/Cloud_FM33A0XX/Drivers\fm33a0xx_btim.c **** 	tmpreg |= (SetValue & BTIMx_BTPRESET_PRESETL_Msk);
 1691              		.loc 1 503 0
 1692 0006 1140     		ands	r1, r2
 1693              	.LVL171:
 1694 0008 1943     		orrs	r1, r3
 1695              	.LVL172:
 504:e:/LiteOS/LiteOS/targets/Cloud_FM33A0XX/GCC/../../../targets/Cloud_FM33A0XX/Drivers\fm33a0xx_btim.c **** 	BTIMx->BTPRESET = tmpreg;
 1696              		.loc 1 504 0
 1697 000a 0162     		str	r1, [r0, #32]
 505:e:/LiteOS/LiteOS/targets/Cloud_FM33A0XX/GCC/../../../targets/Cloud_FM33A0XX/Drivers\fm33a0xx_btim.c **** }
 1698              		.loc 1 505 0
 1699              		@ sp needed
 1700 000c 7047     		bx	lr
 1701              		.cfi_endproc
 1702              	.LFE90:
 1704 000e C046     		.section	.text.BTIMx_BTPRESET_PRESETL_Get,"ax",%progbits
 1705              		.align	2
 1706              		.global	BTIMx_BTPRESET_PRESETL_Get
 1707              		.code	16
 1708              		.thumb_func
 1710              	BTIMx_BTPRESET_PRESETL_Get:
 1711              	.LFB91:
 506:e:/LiteOS/LiteOS/targets/Cloud_FM33A0XX/GCC/../../../targets/Cloud_FM33A0XX/Drivers\fm33a0xx_btim.c **** 
 507:e:/LiteOS/LiteOS/targets/Cloud_FM33A0XX/GCC/../../../targets/Cloud_FM33A0XX/Drivers\fm33a0xx_btim.c **** uint32_t BTIMx_BTPRESET_PRESETL_Get(BTIMx_Type* BTIMx)
 508:e:/LiteOS/LiteOS/targets/Cloud_FM33A0XX/GCC/../../../targets/Cloud_FM33A0XX/Drivers\fm33a0xx_btim.c **** {
 1712              		.loc 1 508 0
ARM GAS  C:\Users\WANGBI~1\AppData\Local\Temp\cc00eRbQ.s 			page 38


 1713              		.cfi_startproc
 1714              		@ args = 0, pretend = 0, frame = 0
 1715              		@ frame_needed = 0, uses_anonymous_args = 0
 1716              		@ link register save eliminated.
 1717              	.LVL173:
 509:e:/LiteOS/LiteOS/targets/Cloud_FM33A0XX/GCC/../../../targets/Cloud_FM33A0XX/Drivers\fm33a0xx_btim.c **** 	return (BTIMx->BTPRESET & BTIMx_BTPRESET_PRESETL_Msk);
 1718              		.loc 1 509 0
 1719 0000 036A     		ldr	r3, [r0, #32]
 1720 0002 FF20     		movs	r0, #255
 1721              	.LVL174:
 1722 0004 1840     		ands	r0, r3
 510:e:/LiteOS/LiteOS/targets/Cloud_FM33A0XX/GCC/../../../targets/Cloud_FM33A0XX/Drivers\fm33a0xx_btim.c **** }
 1723              		.loc 1 510 0
 1724              		@ sp needed
 1725 0006 7047     		bx	lr
 1726              		.cfi_endproc
 1727              	.LFE91:
 1729              		.section	.text.BTIMx_BTLOADL_Write,"ax",%progbits
 1730              		.align	2
 1731              		.global	BTIMx_BTLOADL_Write
 1732              		.code	16
 1733              		.thumb_func
 1735              	BTIMx_BTLOADL_Write:
 1736              	.LFB92:
 511:e:/LiteOS/LiteOS/targets/Cloud_FM33A0XX/GCC/../../../targets/Cloud_FM33A0XX/Drivers\fm33a0xx_btim.c **** 
 512:e:/LiteOS/LiteOS/targets/Cloud_FM33A0XX/GCC/../../../targets/Cloud_FM33A0XX/Drivers\fm33a0xx_btim.c **** /* 计数器低位加载寄存器 相关函数 */
 513:e:/LiteOS/LiteOS/targets/Cloud_FM33A0XX/GCC/../../../targets/Cloud_FM33A0XX/Drivers\fm33a0xx_btim.c **** void BTIMx_BTLOADL_Write(BTIMx_Type* BTIMx, uint32_t SetValue)
 514:e:/LiteOS/LiteOS/targets/Cloud_FM33A0XX/GCC/../../../targets/Cloud_FM33A0XX/Drivers\fm33a0xx_btim.c **** {
 1737              		.loc 1 514 0
 1738              		.cfi_startproc
 1739              		@ args = 0, pretend = 0, frame = 0
 1740              		@ frame_needed = 0, uses_anonymous_args = 0
 1741              		@ link register save eliminated.
 1742              	.LVL175:
 515:e:/LiteOS/LiteOS/targets/Cloud_FM33A0XX/GCC/../../../targets/Cloud_FM33A0XX/Drivers\fm33a0xx_btim.c **** 	BTIMx->BTLOADL = (SetValue & BTIMx_BTLOADL_LOADL_Msk);
 1743              		.loc 1 515 0
 1744 0000 FF23     		movs	r3, #255
 1745 0002 1940     		ands	r1, r3
 1746              	.LVL176:
 1747 0004 4162     		str	r1, [r0, #36]
 516:e:/LiteOS/LiteOS/targets/Cloud_FM33A0XX/GCC/../../../targets/Cloud_FM33A0XX/Drivers\fm33a0xx_btim.c **** }
 1748              		.loc 1 516 0
 1749              		@ sp needed
 1750 0006 7047     		bx	lr
 1751              		.cfi_endproc
 1752              	.LFE92:
 1754              		.section	.text.BTIMx_BTLOADL_Read,"ax",%progbits
 1755              		.align	2
 1756              		.global	BTIMx_BTLOADL_Read
 1757              		.code	16
 1758              		.thumb_func
 1760              	BTIMx_BTLOADL_Read:
 1761              	.LFB93:
 517:e:/LiteOS/LiteOS/targets/Cloud_FM33A0XX/GCC/../../../targets/Cloud_FM33A0XX/Drivers\fm33a0xx_btim.c **** 
 518:e:/LiteOS/LiteOS/targets/Cloud_FM33A0XX/GCC/../../../targets/Cloud_FM33A0XX/Drivers\fm33a0xx_btim.c **** uint32_t BTIMx_BTLOADL_Read(BTIMx_Type* BTIMx)
 519:e:/LiteOS/LiteOS/targets/Cloud_FM33A0XX/GCC/../../../targets/Cloud_FM33A0XX/Drivers\fm33a0xx_btim.c **** {
 1762              		.loc 1 519 0
ARM GAS  C:\Users\WANGBI~1\AppData\Local\Temp\cc00eRbQ.s 			page 39


 1763              		.cfi_startproc
 1764              		@ args = 0, pretend = 0, frame = 0
 1765              		@ frame_needed = 0, uses_anonymous_args = 0
 1766              		@ link register save eliminated.
 1767              	.LVL177:
 520:e:/LiteOS/LiteOS/targets/Cloud_FM33A0XX/GCC/../../../targets/Cloud_FM33A0XX/Drivers\fm33a0xx_btim.c **** 	return (BTIMx->BTLOADL & BTIMx_BTLOADL_LOADL_Msk);
 1768              		.loc 1 520 0
 1769 0000 436A     		ldr	r3, [r0, #36]
 1770 0002 FF20     		movs	r0, #255
 1771              	.LVL178:
 1772 0004 1840     		ands	r0, r3
 521:e:/LiteOS/LiteOS/targets/Cloud_FM33A0XX/GCC/../../../targets/Cloud_FM33A0XX/Drivers\fm33a0xx_btim.c **** }
 1773              		.loc 1 521 0
 1774              		@ sp needed
 1775 0006 7047     		bx	lr
 1776              		.cfi_endproc
 1777              	.LFE93:
 1779              		.section	.text.BTIMx_BTLOADH_Write,"ax",%progbits
 1780              		.align	2
 1781              		.global	BTIMx_BTLOADH_Write
 1782              		.code	16
 1783              		.thumb_func
 1785              	BTIMx_BTLOADH_Write:
 1786              	.LFB94:
 522:e:/LiteOS/LiteOS/targets/Cloud_FM33A0XX/GCC/../../../targets/Cloud_FM33A0XX/Drivers\fm33a0xx_btim.c **** 
 523:e:/LiteOS/LiteOS/targets/Cloud_FM33A0XX/GCC/../../../targets/Cloud_FM33A0XX/Drivers\fm33a0xx_btim.c **** /* 计数器高位加载寄存器 相关函数 */
 524:e:/LiteOS/LiteOS/targets/Cloud_FM33A0XX/GCC/../../../targets/Cloud_FM33A0XX/Drivers\fm33a0xx_btim.c **** void BTIMx_BTLOADH_Write(BTIMx_Type* BTIMx, uint32_t SetValue)
 525:e:/LiteOS/LiteOS/targets/Cloud_FM33A0XX/GCC/../../../targets/Cloud_FM33A0XX/Drivers\fm33a0xx_btim.c **** {
 1787              		.loc 1 525 0
 1788              		.cfi_startproc
 1789              		@ args = 0, pretend = 0, frame = 0
 1790              		@ frame_needed = 0, uses_anonymous_args = 0
 1791              		@ link register save eliminated.
 1792              	.LVL179:
 526:e:/LiteOS/LiteOS/targets/Cloud_FM33A0XX/GCC/../../../targets/Cloud_FM33A0XX/Drivers\fm33a0xx_btim.c **** 	BTIMx->BTLOADH = (SetValue & BTIMx_BTLOADH_LOADH_Msk);
 1793              		.loc 1 526 0
 1794 0000 FF23     		movs	r3, #255
 1795 0002 1940     		ands	r1, r3
 1796              	.LVL180:
 1797 0004 8162     		str	r1, [r0, #40]
 527:e:/LiteOS/LiteOS/targets/Cloud_FM33A0XX/GCC/../../../targets/Cloud_FM33A0XX/Drivers\fm33a0xx_btim.c **** }
 1798              		.loc 1 527 0
 1799              		@ sp needed
 1800 0006 7047     		bx	lr
 1801              		.cfi_endproc
 1802              	.LFE94:
 1804              		.section	.text.BTIMx_BTLOADH_Read,"ax",%progbits
 1805              		.align	2
 1806              		.global	BTIMx_BTLOADH_Read
 1807              		.code	16
 1808              		.thumb_func
 1810              	BTIMx_BTLOADH_Read:
 1811              	.LFB95:
 528:e:/LiteOS/LiteOS/targets/Cloud_FM33A0XX/GCC/../../../targets/Cloud_FM33A0XX/Drivers\fm33a0xx_btim.c **** 
 529:e:/LiteOS/LiteOS/targets/Cloud_FM33A0XX/GCC/../../../targets/Cloud_FM33A0XX/Drivers\fm33a0xx_btim.c **** uint32_t BTIMx_BTLOADH_Read(BTIMx_Type* BTIMx)
 530:e:/LiteOS/LiteOS/targets/Cloud_FM33A0XX/GCC/../../../targets/Cloud_FM33A0XX/Drivers\fm33a0xx_btim.c **** {
 1812              		.loc 1 530 0
ARM GAS  C:\Users\WANGBI~1\AppData\Local\Temp\cc00eRbQ.s 			page 40


 1813              		.cfi_startproc
 1814              		@ args = 0, pretend = 0, frame = 0
 1815              		@ frame_needed = 0, uses_anonymous_args = 0
 1816              		@ link register save eliminated.
 1817              	.LVL181:
 531:e:/LiteOS/LiteOS/targets/Cloud_FM33A0XX/GCC/../../../targets/Cloud_FM33A0XX/Drivers\fm33a0xx_btim.c **** 	return (BTIMx->BTLOADH & BTIMx_BTLOADH_LOADH_Msk);
 1818              		.loc 1 531 0
 1819 0000 836A     		ldr	r3, [r0, #40]
 1820 0002 FF20     		movs	r0, #255
 1821              	.LVL182:
 1822 0004 1840     		ands	r0, r3
 532:e:/LiteOS/LiteOS/targets/Cloud_FM33A0XX/GCC/../../../targets/Cloud_FM33A0XX/Drivers\fm33a0xx_btim.c **** }
 1823              		.loc 1 532 0
 1824              		@ sp needed
 1825 0006 7047     		bx	lr
 1826              		.cfi_endproc
 1827              	.LFE95:
 1829              		.section	.text.BTIMx_BTCMPL_Write,"ax",%progbits
 1830              		.align	2
 1831              		.global	BTIMx_BTCMPL_Write
 1832              		.code	16
 1833              		.thumb_func
 1835              	BTIMx_BTCMPL_Write:
 1836              	.LFB96:
 533:e:/LiteOS/LiteOS/targets/Cloud_FM33A0XX/GCC/../../../targets/Cloud_FM33A0XX/Drivers\fm33a0xx_btim.c **** 
 534:e:/LiteOS/LiteOS/targets/Cloud_FM33A0XX/GCC/../../../targets/Cloud_FM33A0XX/Drivers\fm33a0xx_btim.c **** /* 计数器低位比较寄存器 相关函数 */
 535:e:/LiteOS/LiteOS/targets/Cloud_FM33A0XX/GCC/../../../targets/Cloud_FM33A0XX/Drivers\fm33a0xx_btim.c **** void BTIMx_BTCMPL_Write(BTIMx_Type* BTIMx, uint32_t SetValue)
 536:e:/LiteOS/LiteOS/targets/Cloud_FM33A0XX/GCC/../../../targets/Cloud_FM33A0XX/Drivers\fm33a0xx_btim.c **** {
 1837              		.loc 1 536 0
 1838              		.cfi_startproc
 1839              		@ args = 0, pretend = 0, frame = 0
 1840              		@ frame_needed = 0, uses_anonymous_args = 0
 1841              		@ link register save eliminated.
 1842              	.LVL183:
 537:e:/LiteOS/LiteOS/targets/Cloud_FM33A0XX/GCC/../../../targets/Cloud_FM33A0XX/Drivers\fm33a0xx_btim.c **** 	BTIMx->BTCMPL = (SetValue & BTIMx_BTCMPL_CMPL_Msk);
 1843              		.loc 1 537 0
 1844 0000 FF23     		movs	r3, #255
 1845 0002 1940     		ands	r1, r3
 1846              	.LVL184:
 1847 0004 C162     		str	r1, [r0, #44]
 538:e:/LiteOS/LiteOS/targets/Cloud_FM33A0XX/GCC/../../../targets/Cloud_FM33A0XX/Drivers\fm33a0xx_btim.c **** }
 1848              		.loc 1 538 0
 1849              		@ sp needed
 1850 0006 7047     		bx	lr
 1851              		.cfi_endproc
 1852              	.LFE96:
 1854              		.section	.text.BTIMx_BTCMPL_Read,"ax",%progbits
 1855              		.align	2
 1856              		.global	BTIMx_BTCMPL_Read
 1857              		.code	16
 1858              		.thumb_func
 1860              	BTIMx_BTCMPL_Read:
 1861              	.LFB97:
 539:e:/LiteOS/LiteOS/targets/Cloud_FM33A0XX/GCC/../../../targets/Cloud_FM33A0XX/Drivers\fm33a0xx_btim.c **** 
 540:e:/LiteOS/LiteOS/targets/Cloud_FM33A0XX/GCC/../../../targets/Cloud_FM33A0XX/Drivers\fm33a0xx_btim.c **** uint32_t BTIMx_BTCMPL_Read(BTIMx_Type* BTIMx)
 541:e:/LiteOS/LiteOS/targets/Cloud_FM33A0XX/GCC/../../../targets/Cloud_FM33A0XX/Drivers\fm33a0xx_btim.c **** {
 1862              		.loc 1 541 0
ARM GAS  C:\Users\WANGBI~1\AppData\Local\Temp\cc00eRbQ.s 			page 41


 1863              		.cfi_startproc
 1864              		@ args = 0, pretend = 0, frame = 0
 1865              		@ frame_needed = 0, uses_anonymous_args = 0
 1866              		@ link register save eliminated.
 1867              	.LVL185:
 542:e:/LiteOS/LiteOS/targets/Cloud_FM33A0XX/GCC/../../../targets/Cloud_FM33A0XX/Drivers\fm33a0xx_btim.c **** 	return (BTIMx->BTCMPL & BTIMx_BTCMPL_CMPL_Msk);
 1868              		.loc 1 542 0
 1869 0000 C36A     		ldr	r3, [r0, #44]
 1870 0002 FF20     		movs	r0, #255
 1871              	.LVL186:
 1872 0004 1840     		ands	r0, r3
 543:e:/LiteOS/LiteOS/targets/Cloud_FM33A0XX/GCC/../../../targets/Cloud_FM33A0XX/Drivers\fm33a0xx_btim.c **** }
 1873              		.loc 1 543 0
 1874              		@ sp needed
 1875 0006 7047     		bx	lr
 1876              		.cfi_endproc
 1877              	.LFE97:
 1879              		.section	.text.BTIMx_BTCMPH_Write,"ax",%progbits
 1880              		.align	2
 1881              		.global	BTIMx_BTCMPH_Write
 1882              		.code	16
 1883              		.thumb_func
 1885              	BTIMx_BTCMPH_Write:
 1886              	.LFB98:
 544:e:/LiteOS/LiteOS/targets/Cloud_FM33A0XX/GCC/../../../targets/Cloud_FM33A0XX/Drivers\fm33a0xx_btim.c **** 
 545:e:/LiteOS/LiteOS/targets/Cloud_FM33A0XX/GCC/../../../targets/Cloud_FM33A0XX/Drivers\fm33a0xx_btim.c **** /* 计数器高位比较寄存器 相关函数 */
 546:e:/LiteOS/LiteOS/targets/Cloud_FM33A0XX/GCC/../../../targets/Cloud_FM33A0XX/Drivers\fm33a0xx_btim.c **** void BTIMx_BTCMPH_Write(BTIMx_Type* BTIMx, uint32_t SetValue)
 547:e:/LiteOS/LiteOS/targets/Cloud_FM33A0XX/GCC/../../../targets/Cloud_FM33A0XX/Drivers\fm33a0xx_btim.c **** {
 1887              		.loc 1 547 0
 1888              		.cfi_startproc
 1889              		@ args = 0, pretend = 0, frame = 0
 1890              		@ frame_needed = 0, uses_anonymous_args = 0
 1891              		@ link register save eliminated.
 1892              	.LVL187:
 548:e:/LiteOS/LiteOS/targets/Cloud_FM33A0XX/GCC/../../../targets/Cloud_FM33A0XX/Drivers\fm33a0xx_btim.c **** 	BTIMx->BTCMPH = (SetValue & BTIMx_BTCMPH_CMPH_Msk);
 1893              		.loc 1 548 0
 1894 0000 FF23     		movs	r3, #255
 1895 0002 1940     		ands	r1, r3
 1896              	.LVL188:
 1897 0004 0163     		str	r1, [r0, #48]
 549:e:/LiteOS/LiteOS/targets/Cloud_FM33A0XX/GCC/../../../targets/Cloud_FM33A0XX/Drivers\fm33a0xx_btim.c **** }
 1898              		.loc 1 549 0
 1899              		@ sp needed
 1900 0006 7047     		bx	lr
 1901              		.cfi_endproc
 1902              	.LFE98:
 1904              		.section	.text.BTIMx_BTCMPH_Read,"ax",%progbits
 1905              		.align	2
 1906              		.global	BTIMx_BTCMPH_Read
 1907              		.code	16
 1908              		.thumb_func
 1910              	BTIMx_BTCMPH_Read:
 1911              	.LFB99:
 550:e:/LiteOS/LiteOS/targets/Cloud_FM33A0XX/GCC/../../../targets/Cloud_FM33A0XX/Drivers\fm33a0xx_btim.c **** 
 551:e:/LiteOS/LiteOS/targets/Cloud_FM33A0XX/GCC/../../../targets/Cloud_FM33A0XX/Drivers\fm33a0xx_btim.c **** uint32_t BTIMx_BTCMPH_Read(BTIMx_Type* BTIMx)
 552:e:/LiteOS/LiteOS/targets/Cloud_FM33A0XX/GCC/../../../targets/Cloud_FM33A0XX/Drivers\fm33a0xx_btim.c **** {
 1912              		.loc 1 552 0
ARM GAS  C:\Users\WANGBI~1\AppData\Local\Temp\cc00eRbQ.s 			page 42


 1913              		.cfi_startproc
 1914              		@ args = 0, pretend = 0, frame = 0
 1915              		@ frame_needed = 0, uses_anonymous_args = 0
 1916              		@ link register save eliminated.
 1917              	.LVL189:
 553:e:/LiteOS/LiteOS/targets/Cloud_FM33A0XX/GCC/../../../targets/Cloud_FM33A0XX/Drivers\fm33a0xx_btim.c **** 	return (BTIMx->BTCMPH & BTIMx_BTCMPH_CMPH_Msk);
 1918              		.loc 1 553 0
 1919 0000 036B     		ldr	r3, [r0, #48]
 1920 0002 FF20     		movs	r0, #255
 1921              	.LVL190:
 1922 0004 1840     		ands	r0, r3
 554:e:/LiteOS/LiteOS/targets/Cloud_FM33A0XX/GCC/../../../targets/Cloud_FM33A0XX/Drivers\fm33a0xx_btim.c **** }
 1923              		.loc 1 554 0
 1924              		@ sp needed
 1925 0006 7047     		bx	lr
 1926              		.cfi_endproc
 1927              	.LFE99:
 1929              		.section	.text.BTIMx_BTOUTCNT_Write,"ax",%progbits
 1930              		.align	2
 1931              		.global	BTIMx_BTOUTCNT_Write
 1932              		.code	16
 1933              		.thumb_func
 1935              	BTIMx_BTOUTCNT_Write:
 1936              	.LFB100:
 555:e:/LiteOS/LiteOS/targets/Cloud_FM33A0XX/GCC/../../../targets/Cloud_FM33A0XX/Drivers\fm33a0xx_btim.c **** 
 556:e:/LiteOS/LiteOS/targets/Cloud_FM33A0XX/GCC/../../../targets/Cloud_FM33A0XX/Drivers\fm33a0xx_btim.c **** /* 计数器输出脉冲宽度计数器 相关函数 */
 557:e:/LiteOS/LiteOS/targets/Cloud_FM33A0XX/GCC/../../../targets/Cloud_FM33A0XX/Drivers\fm33a0xx_btim.c **** void BTIMx_BTOUTCNT_Write(BTIMx_Type* BTIMx, uint32_t SetValue)
 558:e:/LiteOS/LiteOS/targets/Cloud_FM33A0XX/GCC/../../../targets/Cloud_FM33A0XX/Drivers\fm33a0xx_btim.c **** {
 1937              		.loc 1 558 0
 1938              		.cfi_startproc
 1939              		@ args = 0, pretend = 0, frame = 0
 1940              		@ frame_needed = 0, uses_anonymous_args = 0
 1941              		@ link register save eliminated.
 1942              	.LVL191:
 559:e:/LiteOS/LiteOS/targets/Cloud_FM33A0XX/GCC/../../../targets/Cloud_FM33A0XX/Drivers\fm33a0xx_btim.c **** 	BTIMx->BTOUTCNT = (SetValue & BTIMx_BTOUTCNT_OUTCNT_Msk);
 1943              		.loc 1 559 0
 1944 0000 4905     		lsls	r1, r1, #21
 1945              	.LVL192:
 1946 0002 490D     		lsrs	r1, r1, #21
 1947 0004 4163     		str	r1, [r0, #52]
 560:e:/LiteOS/LiteOS/targets/Cloud_FM33A0XX/GCC/../../../targets/Cloud_FM33A0XX/Drivers\fm33a0xx_btim.c **** }
 1948              		.loc 1 560 0
 1949              		@ sp needed
 1950 0006 7047     		bx	lr
 1951              		.cfi_endproc
 1952              	.LFE100:
 1954              		.section	.text.BTIMx_BTOUTCNT_Read,"ax",%progbits
 1955              		.align	2
 1956              		.global	BTIMx_BTOUTCNT_Read
 1957              		.code	16
 1958              		.thumb_func
 1960              	BTIMx_BTOUTCNT_Read:
 1961              	.LFB101:
 561:e:/LiteOS/LiteOS/targets/Cloud_FM33A0XX/GCC/../../../targets/Cloud_FM33A0XX/Drivers\fm33a0xx_btim.c **** 
 562:e:/LiteOS/LiteOS/targets/Cloud_FM33A0XX/GCC/../../../targets/Cloud_FM33A0XX/Drivers\fm33a0xx_btim.c **** uint32_t BTIMx_BTOUTCNT_Read(BTIMx_Type* BTIMx)
 563:e:/LiteOS/LiteOS/targets/Cloud_FM33A0XX/GCC/../../../targets/Cloud_FM33A0XX/Drivers\fm33a0xx_btim.c **** {
 1962              		.loc 1 563 0
ARM GAS  C:\Users\WANGBI~1\AppData\Local\Temp\cc00eRbQ.s 			page 43


 1963              		.cfi_startproc
 1964              		@ args = 0, pretend = 0, frame = 0
 1965              		@ frame_needed = 0, uses_anonymous_args = 0
 1966              		@ link register save eliminated.
 1967              	.LVL193:
 564:e:/LiteOS/LiteOS/targets/Cloud_FM33A0XX/GCC/../../../targets/Cloud_FM33A0XX/Drivers\fm33a0xx_btim.c **** 	return (BTIMx->BTOUTCNT & BTIMx_BTOUTCNT_OUTCNT_Msk);
 1968              		.loc 1 564 0
 1969 0000 406B     		ldr	r0, [r0, #52]
 1970              	.LVL194:
 1971 0002 4005     		lsls	r0, r0, #21
 1972 0004 400D     		lsrs	r0, r0, #21
 565:e:/LiteOS/LiteOS/targets/Cloud_FM33A0XX/GCC/../../../targets/Cloud_FM33A0XX/Drivers\fm33a0xx_btim.c **** }
 1973              		.loc 1 565 0
 1974              		@ sp needed
 1975 0006 7047     		bx	lr
 1976              		.cfi_endproc
 1977              	.LFE101:
 1979              		.section	.text.BTIMx_BTOCR_OUTCLR_Set,"ax",%progbits
 1980              		.align	2
 1981              		.global	BTIMx_BTOCR_OUTCLR_Set
 1982              		.code	16
 1983              		.thumb_func
 1985              	BTIMx_BTOCR_OUTCLR_Set:
 1986              	.LFB102:
 566:e:/LiteOS/LiteOS/targets/Cloud_FM33A0XX/GCC/../../../targets/Cloud_FM33A0XX/Drivers\fm33a0xx_btim.c **** 
 567:e:/LiteOS/LiteOS/targets/Cloud_FM33A0XX/GCC/../../../targets/Cloud_FM33A0XX/Drivers\fm33a0xx_btim.c **** /* 输出清零 相关函数 */
 568:e:/LiteOS/LiteOS/targets/Cloud_FM33A0XX/GCC/../../../targets/Cloud_FM33A0XX/Drivers\fm33a0xx_btim.c **** void BTIMx_BTOCR_OUTCLR_Set(BTIMx_Type* BTIMx, uint32_t SetValue)
 569:e:/LiteOS/LiteOS/targets/Cloud_FM33A0XX/GCC/../../../targets/Cloud_FM33A0XX/Drivers\fm33a0xx_btim.c **** {
 1987              		.loc 1 569 0
 1988              		.cfi_startproc
 1989              		@ args = 0, pretend = 0, frame = 0
 1990              		@ frame_needed = 0, uses_anonymous_args = 0
 1991              		@ link register save eliminated.
 1992              	.LVL195:
 570:e:/LiteOS/LiteOS/targets/Cloud_FM33A0XX/GCC/../../../targets/Cloud_FM33A0XX/Drivers\fm33a0xx_btim.c **** 	uint32_t tmpreg;
 571:e:/LiteOS/LiteOS/targets/Cloud_FM33A0XX/GCC/../../../targets/Cloud_FM33A0XX/Drivers\fm33a0xx_btim.c **** 	tmpreg = BTIMx->BTOCR;
 1993              		.loc 1 571 0
 1994 0000 836B     		ldr	r3, [r0, #56]
 1995              	.LVL196:
 572:e:/LiteOS/LiteOS/targets/Cloud_FM33A0XX/GCC/../../../targets/Cloud_FM33A0XX/Drivers\fm33a0xx_btim.c **** 	tmpreg &= ~(BTIMx_BTOCR_OUTCLR_Msk);
 1996              		.loc 1 572 0
 1997 0002 2022     		movs	r2, #32
 1998 0004 9343     		bics	r3, r2
 1999              	.LVL197:
 573:e:/LiteOS/LiteOS/targets/Cloud_FM33A0XX/GCC/../../../targets/Cloud_FM33A0XX/Drivers\fm33a0xx_btim.c **** 	tmpreg |= (SetValue & BTIMx_BTOCR_OUTCLR_Msk);
 2000              		.loc 1 573 0
 2001 0006 1140     		ands	r1, r2
 2002              	.LVL198:
 2003 0008 1943     		orrs	r1, r3
 2004              	.LVL199:
 574:e:/LiteOS/LiteOS/targets/Cloud_FM33A0XX/GCC/../../../targets/Cloud_FM33A0XX/Drivers\fm33a0xx_btim.c **** 	BTIMx->BTOCR = tmpreg;
 2005              		.loc 1 574 0
 2006 000a 8163     		str	r1, [r0, #56]
 575:e:/LiteOS/LiteOS/targets/Cloud_FM33A0XX/GCC/../../../targets/Cloud_FM33A0XX/Drivers\fm33a0xx_btim.c **** }
 2007              		.loc 1 575 0
 2008              		@ sp needed
 2009 000c 7047     		bx	lr
ARM GAS  C:\Users\WANGBI~1\AppData\Local\Temp\cc00eRbQ.s 			page 44


 2010              		.cfi_endproc
 2011              	.LFE102:
 2013 000e C046     		.section	.text.BTIMx_BTOCR_OUTCLR_Get,"ax",%progbits
 2014              		.align	2
 2015              		.global	BTIMx_BTOCR_OUTCLR_Get
 2016              		.code	16
 2017              		.thumb_func
 2019              	BTIMx_BTOCR_OUTCLR_Get:
 2020              	.LFB103:
 576:e:/LiteOS/LiteOS/targets/Cloud_FM33A0XX/GCC/../../../targets/Cloud_FM33A0XX/Drivers\fm33a0xx_btim.c **** 
 577:e:/LiteOS/LiteOS/targets/Cloud_FM33A0XX/GCC/../../../targets/Cloud_FM33A0XX/Drivers\fm33a0xx_btim.c **** uint32_t BTIMx_BTOCR_OUTCLR_Get(BTIMx_Type* BTIMx)
 578:e:/LiteOS/LiteOS/targets/Cloud_FM33A0XX/GCC/../../../targets/Cloud_FM33A0XX/Drivers\fm33a0xx_btim.c **** {
 2021              		.loc 1 578 0
 2022              		.cfi_startproc
 2023              		@ args = 0, pretend = 0, frame = 0
 2024              		@ frame_needed = 0, uses_anonymous_args = 0
 2025              		@ link register save eliminated.
 2026              	.LVL200:
 579:e:/LiteOS/LiteOS/targets/Cloud_FM33A0XX/GCC/../../../targets/Cloud_FM33A0XX/Drivers\fm33a0xx_btim.c **** 	return (BTIMx->BTOCR & BTIMx_BTOCR_OUTCLR_Msk);
 2027              		.loc 1 579 0
 2028 0000 836B     		ldr	r3, [r0, #56]
 2029 0002 2020     		movs	r0, #32
 2030              	.LVL201:
 2031 0004 1840     		ands	r0, r3
 580:e:/LiteOS/LiteOS/targets/Cloud_FM33A0XX/GCC/../../../targets/Cloud_FM33A0XX/Drivers\fm33a0xx_btim.c **** }
 2032              		.loc 1 580 0
 2033              		@ sp needed
 2034 0006 7047     		bx	lr
 2035              		.cfi_endproc
 2036              	.LFE103:
 2038              		.section	.text.BTIMx_BTOCR_OUTINV_Set,"ax",%progbits
 2039              		.align	2
 2040              		.global	BTIMx_BTOCR_OUTINV_Set
 2041              		.code	16
 2042              		.thumb_func
 2044              	BTIMx_BTOCR_OUTINV_Set:
 2045              	.LFB104:
 581:e:/LiteOS/LiteOS/targets/Cloud_FM33A0XX/GCC/../../../targets/Cloud_FM33A0XX/Drivers\fm33a0xx_btim.c **** 
 582:e:/LiteOS/LiteOS/targets/Cloud_FM33A0XX/GCC/../../../targets/Cloud_FM33A0XX/Drivers\fm33a0xx_btim.c **** /* 输出电平反向选择 相关函数 */
 583:e:/LiteOS/LiteOS/targets/Cloud_FM33A0XX/GCC/../../../targets/Cloud_FM33A0XX/Drivers\fm33a0xx_btim.c **** void BTIMx_BTOCR_OUTINV_Set(BTIMx_Type* BTIMx, uint32_t SetValue)
 584:e:/LiteOS/LiteOS/targets/Cloud_FM33A0XX/GCC/../../../targets/Cloud_FM33A0XX/Drivers\fm33a0xx_btim.c **** {
 2046              		.loc 1 584 0
 2047              		.cfi_startproc
 2048              		@ args = 0, pretend = 0, frame = 0
 2049              		@ frame_needed = 0, uses_anonymous_args = 0
 2050              		@ link register save eliminated.
 2051              	.LVL202:
 585:e:/LiteOS/LiteOS/targets/Cloud_FM33A0XX/GCC/../../../targets/Cloud_FM33A0XX/Drivers\fm33a0xx_btim.c **** 	uint32_t tmpreg;
 586:e:/LiteOS/LiteOS/targets/Cloud_FM33A0XX/GCC/../../../targets/Cloud_FM33A0XX/Drivers\fm33a0xx_btim.c **** 	tmpreg = BTIMx->BTOCR;
 2052              		.loc 1 586 0
 2053 0000 836B     		ldr	r3, [r0, #56]
 2054              	.LVL203:
 587:e:/LiteOS/LiteOS/targets/Cloud_FM33A0XX/GCC/../../../targets/Cloud_FM33A0XX/Drivers\fm33a0xx_btim.c **** 	tmpreg &= ~(BTIMx_BTOCR_OUTINV_Msk);
 2055              		.loc 1 587 0
 2056 0002 1022     		movs	r2, #16
 2057 0004 9343     		bics	r3, r2
 2058              	.LVL204:
ARM GAS  C:\Users\WANGBI~1\AppData\Local\Temp\cc00eRbQ.s 			page 45


 588:e:/LiteOS/LiteOS/targets/Cloud_FM33A0XX/GCC/../../../targets/Cloud_FM33A0XX/Drivers\fm33a0xx_btim.c **** 	tmpreg |= (SetValue & BTIMx_BTOCR_OUTINV_Msk);
 2059              		.loc 1 588 0
 2060 0006 1140     		ands	r1, r2
 2061              	.LVL205:
 2062 0008 1943     		orrs	r1, r3
 2063              	.LVL206:
 589:e:/LiteOS/LiteOS/targets/Cloud_FM33A0XX/GCC/../../../targets/Cloud_FM33A0XX/Drivers\fm33a0xx_btim.c **** 	BTIMx->BTOCR = tmpreg;
 2064              		.loc 1 589 0
 2065 000a 8163     		str	r1, [r0, #56]
 590:e:/LiteOS/LiteOS/targets/Cloud_FM33A0XX/GCC/../../../targets/Cloud_FM33A0XX/Drivers\fm33a0xx_btim.c **** }
 2066              		.loc 1 590 0
 2067              		@ sp needed
 2068 000c 7047     		bx	lr
 2069              		.cfi_endproc
 2070              	.LFE104:
 2072 000e C046     		.section	.text.BTIMx_BTOCR_OUTINV_Get,"ax",%progbits
 2073              		.align	2
 2074              		.global	BTIMx_BTOCR_OUTINV_Get
 2075              		.code	16
 2076              		.thumb_func
 2078              	BTIMx_BTOCR_OUTINV_Get:
 2079              	.LFB105:
 591:e:/LiteOS/LiteOS/targets/Cloud_FM33A0XX/GCC/../../../targets/Cloud_FM33A0XX/Drivers\fm33a0xx_btim.c **** 
 592:e:/LiteOS/LiteOS/targets/Cloud_FM33A0XX/GCC/../../../targets/Cloud_FM33A0XX/Drivers\fm33a0xx_btim.c **** uint32_t BTIMx_BTOCR_OUTINV_Get(BTIMx_Type* BTIMx)
 593:e:/LiteOS/LiteOS/targets/Cloud_FM33A0XX/GCC/../../../targets/Cloud_FM33A0XX/Drivers\fm33a0xx_btim.c **** {
 2080              		.loc 1 593 0
 2081              		.cfi_startproc
 2082              		@ args = 0, pretend = 0, frame = 0
 2083              		@ frame_needed = 0, uses_anonymous_args = 0
 2084              		@ link register save eliminated.
 2085              	.LVL207:
 594:e:/LiteOS/LiteOS/targets/Cloud_FM33A0XX/GCC/../../../targets/Cloud_FM33A0XX/Drivers\fm33a0xx_btim.c **** 	return (BTIMx->BTOCR & BTIMx_BTOCR_OUTINV_Msk);
 2086              		.loc 1 594 0
 2087 0000 836B     		ldr	r3, [r0, #56]
 2088 0002 1020     		movs	r0, #16
 2089              	.LVL208:
 2090 0004 1840     		ands	r0, r3
 595:e:/LiteOS/LiteOS/targets/Cloud_FM33A0XX/GCC/../../../targets/Cloud_FM33A0XX/Drivers\fm33a0xx_btim.c **** }
 2091              		.loc 1 595 0
 2092              		@ sp needed
 2093 0006 7047     		bx	lr
 2094              		.cfi_endproc
 2095              	.LFE105:
 2097              		.section	.text.BTIMx_BTOCR_OUTMOD_Set,"ax",%progbits
 2098              		.align	2
 2099              		.global	BTIMx_BTOCR_OUTMOD_Set
 2100              		.code	16
 2101              		.thumb_func
 2103              	BTIMx_BTOCR_OUTMOD_Set:
 2104              	.LFB106:
 596:e:/LiteOS/LiteOS/targets/Cloud_FM33A0XX/GCC/../../../targets/Cloud_FM33A0XX/Drivers\fm33a0xx_btim.c **** 
 597:e:/LiteOS/LiteOS/targets/Cloud_FM33A0XX/GCC/../../../targets/Cloud_FM33A0XX/Drivers\fm33a0xx_btim.c **** /* 输出模式选择 相关函数 */
 598:e:/LiteOS/LiteOS/targets/Cloud_FM33A0XX/GCC/../../../targets/Cloud_FM33A0XX/Drivers\fm33a0xx_btim.c **** void BTIMx_BTOCR_OUTMOD_Set(BTIMx_Type* BTIMx, uint32_t SetValue)
 599:e:/LiteOS/LiteOS/targets/Cloud_FM33A0XX/GCC/../../../targets/Cloud_FM33A0XX/Drivers\fm33a0xx_btim.c **** {
 2105              		.loc 1 599 0
 2106              		.cfi_startproc
 2107              		@ args = 0, pretend = 0, frame = 0
ARM GAS  C:\Users\WANGBI~1\AppData\Local\Temp\cc00eRbQ.s 			page 46


 2108              		@ frame_needed = 0, uses_anonymous_args = 0
 2109              		@ link register save eliminated.
 2110              	.LVL209:
 600:e:/LiteOS/LiteOS/targets/Cloud_FM33A0XX/GCC/../../../targets/Cloud_FM33A0XX/Drivers\fm33a0xx_btim.c **** 	uint32_t tmpreg;
 601:e:/LiteOS/LiteOS/targets/Cloud_FM33A0XX/GCC/../../../targets/Cloud_FM33A0XX/Drivers\fm33a0xx_btim.c **** 	tmpreg = BTIMx->BTOCR;
 2111              		.loc 1 601 0
 2112 0000 836B     		ldr	r3, [r0, #56]
 2113              	.LVL210:
 602:e:/LiteOS/LiteOS/targets/Cloud_FM33A0XX/GCC/../../../targets/Cloud_FM33A0XX/Drivers\fm33a0xx_btim.c **** 	tmpreg &= ~(BTIMx_BTOCR_OUTMOD_Msk);
 2114              		.loc 1 602 0
 2115 0002 0822     		movs	r2, #8
 2116 0004 9343     		bics	r3, r2
 2117              	.LVL211:
 603:e:/LiteOS/LiteOS/targets/Cloud_FM33A0XX/GCC/../../../targets/Cloud_FM33A0XX/Drivers\fm33a0xx_btim.c **** 	tmpreg |= (SetValue & BTIMx_BTOCR_OUTMOD_Msk);
 2118              		.loc 1 603 0
 2119 0006 1140     		ands	r1, r2
 2120              	.LVL212:
 2121 0008 1943     		orrs	r1, r3
 2122              	.LVL213:
 604:e:/LiteOS/LiteOS/targets/Cloud_FM33A0XX/GCC/../../../targets/Cloud_FM33A0XX/Drivers\fm33a0xx_btim.c **** 	BTIMx->BTOCR = tmpreg;
 2123              		.loc 1 604 0
 2124 000a 8163     		str	r1, [r0, #56]
 605:e:/LiteOS/LiteOS/targets/Cloud_FM33A0XX/GCC/../../../targets/Cloud_FM33A0XX/Drivers\fm33a0xx_btim.c **** }
 2125              		.loc 1 605 0
 2126              		@ sp needed
 2127 000c 7047     		bx	lr
 2128              		.cfi_endproc
 2129              	.LFE106:
 2131 000e C046     		.section	.text.BTIMx_BTOCR_OUTMOD_Get,"ax",%progbits
 2132              		.align	2
 2133              		.global	BTIMx_BTOCR_OUTMOD_Get
 2134              		.code	16
 2135              		.thumb_func
 2137              	BTIMx_BTOCR_OUTMOD_Get:
 2138              	.LFB107:
 606:e:/LiteOS/LiteOS/targets/Cloud_FM33A0XX/GCC/../../../targets/Cloud_FM33A0XX/Drivers\fm33a0xx_btim.c **** 
 607:e:/LiteOS/LiteOS/targets/Cloud_FM33A0XX/GCC/../../../targets/Cloud_FM33A0XX/Drivers\fm33a0xx_btim.c **** uint32_t BTIMx_BTOCR_OUTMOD_Get(BTIMx_Type* BTIMx)
 608:e:/LiteOS/LiteOS/targets/Cloud_FM33A0XX/GCC/../../../targets/Cloud_FM33A0XX/Drivers\fm33a0xx_btim.c **** {
 2139              		.loc 1 608 0
 2140              		.cfi_startproc
 2141              		@ args = 0, pretend = 0, frame = 0
 2142              		@ frame_needed = 0, uses_anonymous_args = 0
 2143              		@ link register save eliminated.
 2144              	.LVL214:
 609:e:/LiteOS/LiteOS/targets/Cloud_FM33A0XX/GCC/../../../targets/Cloud_FM33A0XX/Drivers\fm33a0xx_btim.c **** 	return (BTIMx->BTOCR & BTIMx_BTOCR_OUTMOD_Msk);
 2145              		.loc 1 609 0
 2146 0000 836B     		ldr	r3, [r0, #56]
 2147 0002 0820     		movs	r0, #8
 2148              	.LVL215:
 2149 0004 1840     		ands	r0, r3
 610:e:/LiteOS/LiteOS/targets/Cloud_FM33A0XX/GCC/../../../targets/Cloud_FM33A0XX/Drivers\fm33a0xx_btim.c **** }
 2150              		.loc 1 610 0
 2151              		@ sp needed
 2152 0006 7047     		bx	lr
 2153              		.cfi_endproc
 2154              	.LFE107:
 2156              		.section	.text.BTIMx_BTOCR_OUTSEL_Set,"ax",%progbits
ARM GAS  C:\Users\WANGBI~1\AppData\Local\Temp\cc00eRbQ.s 			page 47


 2157              		.align	2
 2158              		.global	BTIMx_BTOCR_OUTSEL_Set
 2159              		.code	16
 2160              		.thumb_func
 2162              	BTIMx_BTOCR_OUTSEL_Set:
 2163              	.LFB108:
 611:e:/LiteOS/LiteOS/targets/Cloud_FM33A0XX/GCC/../../../targets/Cloud_FM33A0XX/Drivers\fm33a0xx_btim.c **** 
 612:e:/LiteOS/LiteOS/targets/Cloud_FM33A0XX/GCC/../../../targets/Cloud_FM33A0XX/Drivers\fm33a0xx_btim.c **** /* 输出信号源选择 相关函数 */
 613:e:/LiteOS/LiteOS/targets/Cloud_FM33A0XX/GCC/../../../targets/Cloud_FM33A0XX/Drivers\fm33a0xx_btim.c **** void BTIMx_BTOCR_OUTSEL_Set(BTIMx_Type* BTIMx, uint32_t SetValue)
 614:e:/LiteOS/LiteOS/targets/Cloud_FM33A0XX/GCC/../../../targets/Cloud_FM33A0XX/Drivers\fm33a0xx_btim.c **** {
 2164              		.loc 1 614 0
 2165              		.cfi_startproc
 2166              		@ args = 0, pretend = 0, frame = 0
 2167              		@ frame_needed = 0, uses_anonymous_args = 0
 2168              		@ link register save eliminated.
 2169              	.LVL216:
 615:e:/LiteOS/LiteOS/targets/Cloud_FM33A0XX/GCC/../../../targets/Cloud_FM33A0XX/Drivers\fm33a0xx_btim.c **** 	uint32_t tmpreg;
 616:e:/LiteOS/LiteOS/targets/Cloud_FM33A0XX/GCC/../../../targets/Cloud_FM33A0XX/Drivers\fm33a0xx_btim.c **** 	tmpreg = BTIMx->BTOCR;
 2170              		.loc 1 616 0
 2171 0000 836B     		ldr	r3, [r0, #56]
 2172              	.LVL217:
 617:e:/LiteOS/LiteOS/targets/Cloud_FM33A0XX/GCC/../../../targets/Cloud_FM33A0XX/Drivers\fm33a0xx_btim.c **** 	tmpreg &= ~(BTIMx_BTOCR_OUTSEL_Msk);
 2173              		.loc 1 617 0
 2174 0002 0722     		movs	r2, #7
 2175 0004 9343     		bics	r3, r2
 2176              	.LVL218:
 618:e:/LiteOS/LiteOS/targets/Cloud_FM33A0XX/GCC/../../../targets/Cloud_FM33A0XX/Drivers\fm33a0xx_btim.c **** 	tmpreg |= (SetValue & BTIMx_BTOCR_OUTSEL_Msk);
 2177              		.loc 1 618 0
 2178 0006 1140     		ands	r1, r2
 2179              	.LVL219:
 2180 0008 1943     		orrs	r1, r3
 2181              	.LVL220:
 619:e:/LiteOS/LiteOS/targets/Cloud_FM33A0XX/GCC/../../../targets/Cloud_FM33A0XX/Drivers\fm33a0xx_btim.c **** 	BTIMx->BTOCR = tmpreg;
 2182              		.loc 1 619 0
 2183 000a 8163     		str	r1, [r0, #56]
 620:e:/LiteOS/LiteOS/targets/Cloud_FM33A0XX/GCC/../../../targets/Cloud_FM33A0XX/Drivers\fm33a0xx_btim.c **** }
 2184              		.loc 1 620 0
 2185              		@ sp needed
 2186 000c 7047     		bx	lr
 2187              		.cfi_endproc
 2188              	.LFE108:
 2190 000e C046     		.section	.text.BTIMx_BTOCR_OUTSEL_Get,"ax",%progbits
 2191              		.align	2
 2192              		.global	BTIMx_BTOCR_OUTSEL_Get
 2193              		.code	16
 2194              		.thumb_func
 2196              	BTIMx_BTOCR_OUTSEL_Get:
 2197              	.LFB109:
 621:e:/LiteOS/LiteOS/targets/Cloud_FM33A0XX/GCC/../../../targets/Cloud_FM33A0XX/Drivers\fm33a0xx_btim.c **** 
 622:e:/LiteOS/LiteOS/targets/Cloud_FM33A0XX/GCC/../../../targets/Cloud_FM33A0XX/Drivers\fm33a0xx_btim.c **** uint32_t BTIMx_BTOCR_OUTSEL_Get(BTIMx_Type* BTIMx)
 623:e:/LiteOS/LiteOS/targets/Cloud_FM33A0XX/GCC/../../../targets/Cloud_FM33A0XX/Drivers\fm33a0xx_btim.c **** {
 2198              		.loc 1 623 0
 2199              		.cfi_startproc
 2200              		@ args = 0, pretend = 0, frame = 0
 2201              		@ frame_needed = 0, uses_anonymous_args = 0
 2202              		@ link register save eliminated.
 2203              	.LVL221:
ARM GAS  C:\Users\WANGBI~1\AppData\Local\Temp\cc00eRbQ.s 			page 48


 624:e:/LiteOS/LiteOS/targets/Cloud_FM33A0XX/GCC/../../../targets/Cloud_FM33A0XX/Drivers\fm33a0xx_btim.c **** 	return (BTIMx->BTOCR & BTIMx_BTOCR_OUTSEL_Msk);
 2204              		.loc 1 624 0
 2205 0000 836B     		ldr	r3, [r0, #56]
 2206 0002 0720     		movs	r0, #7
 2207              	.LVL222:
 2208 0004 1840     		ands	r0, r3
 625:e:/LiteOS/LiteOS/targets/Cloud_FM33A0XX/GCC/../../../targets/Cloud_FM33A0XX/Drivers\fm33a0xx_btim.c **** }
 2209              		.loc 1 625 0
 2210              		@ sp needed
 2211 0006 7047     		bx	lr
 2212              		.cfi_endproc
 2213              	.LFE109:
 2215              		.section	.text.BTIMx_BTIE_CMPHIE_Setable,"ax",%progbits
 2216              		.align	2
 2217              		.global	BTIMx_BTIE_CMPHIE_Setable
 2218              		.code	16
 2219              		.thumb_func
 2221              	BTIMx_BTIE_CMPHIE_Setable:
 2222              	.LFB110:
 626:e:/LiteOS/LiteOS/targets/Cloud_FM33A0XX/GCC/../../../targets/Cloud_FM33A0XX/Drivers\fm33a0xx_btim.c **** 
 627:e:/LiteOS/LiteOS/targets/Cloud_FM33A0XX/GCC/../../../targets/Cloud_FM33A0XX/Drivers\fm33a0xx_btim.c **** /* 定时器高位比较发生信号 相关函数 */
 628:e:/LiteOS/LiteOS/targets/Cloud_FM33A0XX/GCC/../../../targets/Cloud_FM33A0XX/Drivers\fm33a0xx_btim.c **** void BTIMx_BTIE_CMPHIE_Setable(BTIMx_Type* BTIMx, FunState NewState)
 629:e:/LiteOS/LiteOS/targets/Cloud_FM33A0XX/GCC/../../../targets/Cloud_FM33A0XX/Drivers\fm33a0xx_btim.c **** {
 2223              		.loc 1 629 0
 2224              		.cfi_startproc
 2225              		@ args = 0, pretend = 0, frame = 0
 2226              		@ frame_needed = 0, uses_anonymous_args = 0
 2227              		@ link register save eliminated.
 2228              	.LVL223:
 630:e:/LiteOS/LiteOS/targets/Cloud_FM33A0XX/GCC/../../../targets/Cloud_FM33A0XX/Drivers\fm33a0xx_btim.c **** 	if (NewState == ENABLE)
 2229              		.loc 1 630 0
 2230 0000 0129     		cmp	r1, #1
 2231 0002 04D1     		bne	.L102
 631:e:/LiteOS/LiteOS/targets/Cloud_FM33A0XX/GCC/../../../targets/Cloud_FM33A0XX/Drivers\fm33a0xx_btim.c **** 	{
 632:e:/LiteOS/LiteOS/targets/Cloud_FM33A0XX/GCC/../../../targets/Cloud_FM33A0XX/Drivers\fm33a0xx_btim.c **** 		BTIMx->BTIE |= (BTIMx_BTIE_CMPHIE_Msk);
 2232              		.loc 1 632 0
 2233 0004 C26B     		ldr	r2, [r0, #60]
 2234 0006 1023     		movs	r3, #16
 2235 0008 1343     		orrs	r3, r2
 2236 000a C363     		str	r3, [r0, #60]
 2237 000c 03E0     		b	.L101
 2238              	.L102:
 633:e:/LiteOS/LiteOS/targets/Cloud_FM33A0XX/GCC/../../../targets/Cloud_FM33A0XX/Drivers\fm33a0xx_btim.c **** 	}
 634:e:/LiteOS/LiteOS/targets/Cloud_FM33A0XX/GCC/../../../targets/Cloud_FM33A0XX/Drivers\fm33a0xx_btim.c **** 	else
 635:e:/LiteOS/LiteOS/targets/Cloud_FM33A0XX/GCC/../../../targets/Cloud_FM33A0XX/Drivers\fm33a0xx_btim.c **** 	{
 636:e:/LiteOS/LiteOS/targets/Cloud_FM33A0XX/GCC/../../../targets/Cloud_FM33A0XX/Drivers\fm33a0xx_btim.c **** 		BTIMx->BTIE &= ~(BTIMx_BTIE_CMPHIE_Msk);
 2239              		.loc 1 636 0
 2240 000e C36B     		ldr	r3, [r0, #60]
 2241 0010 1022     		movs	r2, #16
 2242 0012 9343     		bics	r3, r2
 2243 0014 C363     		str	r3, [r0, #60]
 2244              	.L101:
 637:e:/LiteOS/LiteOS/targets/Cloud_FM33A0XX/GCC/../../../targets/Cloud_FM33A0XX/Drivers\fm33a0xx_btim.c **** 	}
 638:e:/LiteOS/LiteOS/targets/Cloud_FM33A0XX/GCC/../../../targets/Cloud_FM33A0XX/Drivers\fm33a0xx_btim.c **** }
 2245              		.loc 1 638 0
 2246              		@ sp needed
 2247 0016 7047     		bx	lr
ARM GAS  C:\Users\WANGBI~1\AppData\Local\Temp\cc00eRbQ.s 			page 49


 2248              		.cfi_endproc
 2249              	.LFE110:
 2251              		.section	.text.BTIMx_BTIE_CMPHIE_Getable,"ax",%progbits
 2252              		.align	2
 2253              		.global	BTIMx_BTIE_CMPHIE_Getable
 2254              		.code	16
 2255              		.thumb_func
 2257              	BTIMx_BTIE_CMPHIE_Getable:
 2258              	.LFB111:
 639:e:/LiteOS/LiteOS/targets/Cloud_FM33A0XX/GCC/../../../targets/Cloud_FM33A0XX/Drivers\fm33a0xx_btim.c **** 
 640:e:/LiteOS/LiteOS/targets/Cloud_FM33A0XX/GCC/../../../targets/Cloud_FM33A0XX/Drivers\fm33a0xx_btim.c **** FunState BTIMx_BTIE_CMPHIE_Getable(BTIMx_Type* BTIMx)
 641:e:/LiteOS/LiteOS/targets/Cloud_FM33A0XX/GCC/../../../targets/Cloud_FM33A0XX/Drivers\fm33a0xx_btim.c **** {
 2259              		.loc 1 641 0
 2260              		.cfi_startproc
 2261              		@ args = 0, pretend = 0, frame = 0
 2262              		@ frame_needed = 0, uses_anonymous_args = 0
 2263              		@ link register save eliminated.
 2264              	.LVL224:
 642:e:/LiteOS/LiteOS/targets/Cloud_FM33A0XX/GCC/../../../targets/Cloud_FM33A0XX/Drivers\fm33a0xx_btim.c **** 	if (BTIMx->BTIE & (BTIMx_BTIE_CMPHIE_Msk))
 2265              		.loc 1 642 0
 2266 0000 C36B     		ldr	r3, [r0, #60]
 2267 0002 DB06     		lsls	r3, r3, #27
 2268 0004 01D5     		bpl	.L106
 643:e:/LiteOS/LiteOS/targets/Cloud_FM33A0XX/GCC/../../../targets/Cloud_FM33A0XX/Drivers\fm33a0xx_btim.c **** 	{
 644:e:/LiteOS/LiteOS/targets/Cloud_FM33A0XX/GCC/../../../targets/Cloud_FM33A0XX/Drivers\fm33a0xx_btim.c **** 		return ENABLE;
 2269              		.loc 1 644 0
 2270 0006 0120     		movs	r0, #1
 2271              	.LVL225:
 2272 0008 00E0     		b	.L105
 2273              	.LVL226:
 2274              	.L106:
 645:e:/LiteOS/LiteOS/targets/Cloud_FM33A0XX/GCC/../../../targets/Cloud_FM33A0XX/Drivers\fm33a0xx_btim.c **** 	}
 646:e:/LiteOS/LiteOS/targets/Cloud_FM33A0XX/GCC/../../../targets/Cloud_FM33A0XX/Drivers\fm33a0xx_btim.c **** 	else
 647:e:/LiteOS/LiteOS/targets/Cloud_FM33A0XX/GCC/../../../targets/Cloud_FM33A0XX/Drivers\fm33a0xx_btim.c **** 	{
 648:e:/LiteOS/LiteOS/targets/Cloud_FM33A0XX/GCC/../../../targets/Cloud_FM33A0XX/Drivers\fm33a0xx_btim.c **** 		return DISABLE;
 2275              		.loc 1 648 0
 2276 000a 0020     		movs	r0, #0
 2277              	.LVL227:
 2278              	.L105:
 649:e:/LiteOS/LiteOS/targets/Cloud_FM33A0XX/GCC/../../../targets/Cloud_FM33A0XX/Drivers\fm33a0xx_btim.c **** 	}
 650:e:/LiteOS/LiteOS/targets/Cloud_FM33A0XX/GCC/../../../targets/Cloud_FM33A0XX/Drivers\fm33a0xx_btim.c **** }
 2279              		.loc 1 650 0
 2280              		@ sp needed
 2281 000c 7047     		bx	lr
 2282              		.cfi_endproc
 2283              	.LFE111:
 2285 000e C046     		.section	.text.BTIMx_BTIE_CMPLIE_Setable,"ax",%progbits
 2286              		.align	2
 2287              		.global	BTIMx_BTIE_CMPLIE_Setable
 2288              		.code	16
 2289              		.thumb_func
 2291              	BTIMx_BTIE_CMPLIE_Setable:
 2292              	.LFB112:
 651:e:/LiteOS/LiteOS/targets/Cloud_FM33A0XX/GCC/../../../targets/Cloud_FM33A0XX/Drivers\fm33a0xx_btim.c **** 
 652:e:/LiteOS/LiteOS/targets/Cloud_FM33A0XX/GCC/../../../targets/Cloud_FM33A0XX/Drivers\fm33a0xx_btim.c **** /* 定时器低位比较发生信号 相关函数 */
 653:e:/LiteOS/LiteOS/targets/Cloud_FM33A0XX/GCC/../../../targets/Cloud_FM33A0XX/Drivers\fm33a0xx_btim.c **** void BTIMx_BTIE_CMPLIE_Setable(BTIMx_Type* BTIMx, FunState NewState)
 654:e:/LiteOS/LiteOS/targets/Cloud_FM33A0XX/GCC/../../../targets/Cloud_FM33A0XX/Drivers\fm33a0xx_btim.c **** {
ARM GAS  C:\Users\WANGBI~1\AppData\Local\Temp\cc00eRbQ.s 			page 50


 2293              		.loc 1 654 0
 2294              		.cfi_startproc
 2295              		@ args = 0, pretend = 0, frame = 0
 2296              		@ frame_needed = 0, uses_anonymous_args = 0
 2297              		@ link register save eliminated.
 2298              	.LVL228:
 655:e:/LiteOS/LiteOS/targets/Cloud_FM33A0XX/GCC/../../../targets/Cloud_FM33A0XX/Drivers\fm33a0xx_btim.c **** 	if (NewState == ENABLE)
 2299              		.loc 1 655 0
 2300 0000 0129     		cmp	r1, #1
 2301 0002 04D1     		bne	.L108
 656:e:/LiteOS/LiteOS/targets/Cloud_FM33A0XX/GCC/../../../targets/Cloud_FM33A0XX/Drivers\fm33a0xx_btim.c **** 	{
 657:e:/LiteOS/LiteOS/targets/Cloud_FM33A0XX/GCC/../../../targets/Cloud_FM33A0XX/Drivers\fm33a0xx_btim.c **** 		BTIMx->BTIE |= (BTIMx_BTIE_CMPLIE_Msk);
 2302              		.loc 1 657 0
 2303 0004 C26B     		ldr	r2, [r0, #60]
 2304 0006 0823     		movs	r3, #8
 2305 0008 1343     		orrs	r3, r2
 2306 000a C363     		str	r3, [r0, #60]
 2307 000c 03E0     		b	.L107
 2308              	.L108:
 658:e:/LiteOS/LiteOS/targets/Cloud_FM33A0XX/GCC/../../../targets/Cloud_FM33A0XX/Drivers\fm33a0xx_btim.c **** 	}
 659:e:/LiteOS/LiteOS/targets/Cloud_FM33A0XX/GCC/../../../targets/Cloud_FM33A0XX/Drivers\fm33a0xx_btim.c **** 	else
 660:e:/LiteOS/LiteOS/targets/Cloud_FM33A0XX/GCC/../../../targets/Cloud_FM33A0XX/Drivers\fm33a0xx_btim.c **** 	{
 661:e:/LiteOS/LiteOS/targets/Cloud_FM33A0XX/GCC/../../../targets/Cloud_FM33A0XX/Drivers\fm33a0xx_btim.c **** 		BTIMx->BTIE &= ~(BTIMx_BTIE_CMPLIE_Msk);
 2309              		.loc 1 661 0
 2310 000e C36B     		ldr	r3, [r0, #60]
 2311 0010 0822     		movs	r2, #8
 2312 0012 9343     		bics	r3, r2
 2313 0014 C363     		str	r3, [r0, #60]
 2314              	.L107:
 662:e:/LiteOS/LiteOS/targets/Cloud_FM33A0XX/GCC/../../../targets/Cloud_FM33A0XX/Drivers\fm33a0xx_btim.c **** 	}
 663:e:/LiteOS/LiteOS/targets/Cloud_FM33A0XX/GCC/../../../targets/Cloud_FM33A0XX/Drivers\fm33a0xx_btim.c **** }
 2315              		.loc 1 663 0
 2316              		@ sp needed
 2317 0016 7047     		bx	lr
 2318              		.cfi_endproc
 2319              	.LFE112:
 2321              		.section	.text.BTIMx_BTIE_CMPLIE_Getable,"ax",%progbits
 2322              		.align	2
 2323              		.global	BTIMx_BTIE_CMPLIE_Getable
 2324              		.code	16
 2325              		.thumb_func
 2327              	BTIMx_BTIE_CMPLIE_Getable:
 2328              	.LFB113:
 664:e:/LiteOS/LiteOS/targets/Cloud_FM33A0XX/GCC/../../../targets/Cloud_FM33A0XX/Drivers\fm33a0xx_btim.c **** 
 665:e:/LiteOS/LiteOS/targets/Cloud_FM33A0XX/GCC/../../../targets/Cloud_FM33A0XX/Drivers\fm33a0xx_btim.c **** FunState BTIMx_BTIE_CMPLIE_Getable(BTIMx_Type* BTIMx)
 666:e:/LiteOS/LiteOS/targets/Cloud_FM33A0XX/GCC/../../../targets/Cloud_FM33A0XX/Drivers\fm33a0xx_btim.c **** {
 2329              		.loc 1 666 0
 2330              		.cfi_startproc
 2331              		@ args = 0, pretend = 0, frame = 0
 2332              		@ frame_needed = 0, uses_anonymous_args = 0
 2333              		@ link register save eliminated.
 2334              	.LVL229:
 667:e:/LiteOS/LiteOS/targets/Cloud_FM33A0XX/GCC/../../../targets/Cloud_FM33A0XX/Drivers\fm33a0xx_btim.c **** 	if (BTIMx->BTIE & (BTIMx_BTIE_CMPLIE_Msk))
 2335              		.loc 1 667 0
 2336 0000 C36B     		ldr	r3, [r0, #60]
 2337 0002 1B07     		lsls	r3, r3, #28
 2338 0004 01D5     		bpl	.L112
ARM GAS  C:\Users\WANGBI~1\AppData\Local\Temp\cc00eRbQ.s 			page 51


 668:e:/LiteOS/LiteOS/targets/Cloud_FM33A0XX/GCC/../../../targets/Cloud_FM33A0XX/Drivers\fm33a0xx_btim.c **** 	{
 669:e:/LiteOS/LiteOS/targets/Cloud_FM33A0XX/GCC/../../../targets/Cloud_FM33A0XX/Drivers\fm33a0xx_btim.c **** 		return ENABLE;
 2339              		.loc 1 669 0
 2340 0006 0120     		movs	r0, #1
 2341              	.LVL230:
 2342 0008 00E0     		b	.L111
 2343              	.LVL231:
 2344              	.L112:
 670:e:/LiteOS/LiteOS/targets/Cloud_FM33A0XX/GCC/../../../targets/Cloud_FM33A0XX/Drivers\fm33a0xx_btim.c **** 	}
 671:e:/LiteOS/LiteOS/targets/Cloud_FM33A0XX/GCC/../../../targets/Cloud_FM33A0XX/Drivers\fm33a0xx_btim.c **** 	else
 672:e:/LiteOS/LiteOS/targets/Cloud_FM33A0XX/GCC/../../../targets/Cloud_FM33A0XX/Drivers\fm33a0xx_btim.c **** 	{
 673:e:/LiteOS/LiteOS/targets/Cloud_FM33A0XX/GCC/../../../targets/Cloud_FM33A0XX/Drivers\fm33a0xx_btim.c **** 		return DISABLE;
 2345              		.loc 1 673 0
 2346 000a 0020     		movs	r0, #0
 2347              	.LVL232:
 2348              	.L111:
 674:e:/LiteOS/LiteOS/targets/Cloud_FM33A0XX/GCC/../../../targets/Cloud_FM33A0XX/Drivers\fm33a0xx_btim.c **** 	}
 675:e:/LiteOS/LiteOS/targets/Cloud_FM33A0XX/GCC/../../../targets/Cloud_FM33A0XX/Drivers\fm33a0xx_btim.c **** }
 2349              		.loc 1 675 0
 2350              		@ sp needed
 2351 000c 7047     		bx	lr
 2352              		.cfi_endproc
 2353              	.LFE113:
 2355 000e C046     		.section	.text.BTIMx_BTIE_OVHIE_Setable,"ax",%progbits
 2356              		.align	2
 2357              		.global	BTIMx_BTIE_OVHIE_Setable
 2358              		.code	16
 2359              		.thumb_func
 2361              	BTIMx_BTIE_OVHIE_Setable:
 2362              	.LFB114:
 676:e:/LiteOS/LiteOS/targets/Cloud_FM33A0XX/GCC/../../../targets/Cloud_FM33A0XX/Drivers\fm33a0xx_btim.c **** 
 677:e:/LiteOS/LiteOS/targets/Cloud_FM33A0XX/GCC/../../../targets/Cloud_FM33A0XX/Drivers\fm33a0xx_btim.c **** /* 定时器高位溢出信号 相关函数 */
 678:e:/LiteOS/LiteOS/targets/Cloud_FM33A0XX/GCC/../../../targets/Cloud_FM33A0XX/Drivers\fm33a0xx_btim.c **** void BTIMx_BTIE_OVHIE_Setable(BTIMx_Type* BTIMx, FunState NewState)
 679:e:/LiteOS/LiteOS/targets/Cloud_FM33A0XX/GCC/../../../targets/Cloud_FM33A0XX/Drivers\fm33a0xx_btim.c **** {
 2363              		.loc 1 679 0
 2364              		.cfi_startproc
 2365              		@ args = 0, pretend = 0, frame = 0
 2366              		@ frame_needed = 0, uses_anonymous_args = 0
 2367              		@ link register save eliminated.
 2368              	.LVL233:
 680:e:/LiteOS/LiteOS/targets/Cloud_FM33A0XX/GCC/../../../targets/Cloud_FM33A0XX/Drivers\fm33a0xx_btim.c **** 	if (NewState == ENABLE)
 2369              		.loc 1 680 0
 2370 0000 0129     		cmp	r1, #1
 2371 0002 04D1     		bne	.L114
 681:e:/LiteOS/LiteOS/targets/Cloud_FM33A0XX/GCC/../../../targets/Cloud_FM33A0XX/Drivers\fm33a0xx_btim.c **** 	{
 682:e:/LiteOS/LiteOS/targets/Cloud_FM33A0XX/GCC/../../../targets/Cloud_FM33A0XX/Drivers\fm33a0xx_btim.c **** 		BTIMx->BTIE |= (BTIMx_BTIE_OVHIE_Msk);
 2372              		.loc 1 682 0
 2373 0004 C26B     		ldr	r2, [r0, #60]
 2374 0006 0423     		movs	r3, #4
 2375 0008 1343     		orrs	r3, r2
 2376 000a C363     		str	r3, [r0, #60]
 2377 000c 03E0     		b	.L113
 2378              	.L114:
 683:e:/LiteOS/LiteOS/targets/Cloud_FM33A0XX/GCC/../../../targets/Cloud_FM33A0XX/Drivers\fm33a0xx_btim.c **** 	}
 684:e:/LiteOS/LiteOS/targets/Cloud_FM33A0XX/GCC/../../../targets/Cloud_FM33A0XX/Drivers\fm33a0xx_btim.c **** 	else
 685:e:/LiteOS/LiteOS/targets/Cloud_FM33A0XX/GCC/../../../targets/Cloud_FM33A0XX/Drivers\fm33a0xx_btim.c **** 	{
 686:e:/LiteOS/LiteOS/targets/Cloud_FM33A0XX/GCC/../../../targets/Cloud_FM33A0XX/Drivers\fm33a0xx_btim.c **** 		BTIMx->BTIE &= ~(BTIMx_BTIE_OVHIE_Msk);
ARM GAS  C:\Users\WANGBI~1\AppData\Local\Temp\cc00eRbQ.s 			page 52


 2379              		.loc 1 686 0
 2380 000e C36B     		ldr	r3, [r0, #60]
 2381 0010 0422     		movs	r2, #4
 2382 0012 9343     		bics	r3, r2
 2383 0014 C363     		str	r3, [r0, #60]
 2384              	.L113:
 687:e:/LiteOS/LiteOS/targets/Cloud_FM33A0XX/GCC/../../../targets/Cloud_FM33A0XX/Drivers\fm33a0xx_btim.c **** 	}
 688:e:/LiteOS/LiteOS/targets/Cloud_FM33A0XX/GCC/../../../targets/Cloud_FM33A0XX/Drivers\fm33a0xx_btim.c **** }
 2385              		.loc 1 688 0
 2386              		@ sp needed
 2387 0016 7047     		bx	lr
 2388              		.cfi_endproc
 2389              	.LFE114:
 2391              		.section	.text.BTIMx_BTIE_OVHIE_Getable,"ax",%progbits
 2392              		.align	2
 2393              		.global	BTIMx_BTIE_OVHIE_Getable
 2394              		.code	16
 2395              		.thumb_func
 2397              	BTIMx_BTIE_OVHIE_Getable:
 2398              	.LFB115:
 689:e:/LiteOS/LiteOS/targets/Cloud_FM33A0XX/GCC/../../../targets/Cloud_FM33A0XX/Drivers\fm33a0xx_btim.c **** 
 690:e:/LiteOS/LiteOS/targets/Cloud_FM33A0XX/GCC/../../../targets/Cloud_FM33A0XX/Drivers\fm33a0xx_btim.c **** FunState BTIMx_BTIE_OVHIE_Getable(BTIMx_Type* BTIMx)
 691:e:/LiteOS/LiteOS/targets/Cloud_FM33A0XX/GCC/../../../targets/Cloud_FM33A0XX/Drivers\fm33a0xx_btim.c **** {
 2399              		.loc 1 691 0
 2400              		.cfi_startproc
 2401              		@ args = 0, pretend = 0, frame = 0
 2402              		@ frame_needed = 0, uses_anonymous_args = 0
 2403              		@ link register save eliminated.
 2404              	.LVL234:
 692:e:/LiteOS/LiteOS/targets/Cloud_FM33A0XX/GCC/../../../targets/Cloud_FM33A0XX/Drivers\fm33a0xx_btim.c **** 	if (BTIMx->BTIE & (BTIMx_BTIE_OVHIE_Msk))
 2405              		.loc 1 692 0
 2406 0000 C36B     		ldr	r3, [r0, #60]
 2407 0002 5B07     		lsls	r3, r3, #29
 2408 0004 01D5     		bpl	.L118
 693:e:/LiteOS/LiteOS/targets/Cloud_FM33A0XX/GCC/../../../targets/Cloud_FM33A0XX/Drivers\fm33a0xx_btim.c **** 	{
 694:e:/LiteOS/LiteOS/targets/Cloud_FM33A0XX/GCC/../../../targets/Cloud_FM33A0XX/Drivers\fm33a0xx_btim.c **** 		return ENABLE;
 2409              		.loc 1 694 0
 2410 0006 0120     		movs	r0, #1
 2411              	.LVL235:
 2412 0008 00E0     		b	.L117
 2413              	.LVL236:
 2414              	.L118:
 695:e:/LiteOS/LiteOS/targets/Cloud_FM33A0XX/GCC/../../../targets/Cloud_FM33A0XX/Drivers\fm33a0xx_btim.c **** 	}
 696:e:/LiteOS/LiteOS/targets/Cloud_FM33A0XX/GCC/../../../targets/Cloud_FM33A0XX/Drivers\fm33a0xx_btim.c **** 	else
 697:e:/LiteOS/LiteOS/targets/Cloud_FM33A0XX/GCC/../../../targets/Cloud_FM33A0XX/Drivers\fm33a0xx_btim.c **** 	{
 698:e:/LiteOS/LiteOS/targets/Cloud_FM33A0XX/GCC/../../../targets/Cloud_FM33A0XX/Drivers\fm33a0xx_btim.c **** 		return DISABLE;
 2415              		.loc 1 698 0
 2416 000a 0020     		movs	r0, #0
 2417              	.LVL237:
 2418              	.L117:
 699:e:/LiteOS/LiteOS/targets/Cloud_FM33A0XX/GCC/../../../targets/Cloud_FM33A0XX/Drivers\fm33a0xx_btim.c **** 	}
 700:e:/LiteOS/LiteOS/targets/Cloud_FM33A0XX/GCC/../../../targets/Cloud_FM33A0XX/Drivers\fm33a0xx_btim.c **** }
 2419              		.loc 1 700 0
 2420              		@ sp needed
 2421 000c 7047     		bx	lr
 2422              		.cfi_endproc
 2423              	.LFE115:
ARM GAS  C:\Users\WANGBI~1\AppData\Local\Temp\cc00eRbQ.s 			page 53


 2425 000e C046     		.section	.text.BTIMx_BTIE_OVLIE_Setable,"ax",%progbits
 2426              		.align	2
 2427              		.global	BTIMx_BTIE_OVLIE_Setable
 2428              		.code	16
 2429              		.thumb_func
 2431              	BTIMx_BTIE_OVLIE_Setable:
 2432              	.LFB116:
 701:e:/LiteOS/LiteOS/targets/Cloud_FM33A0XX/GCC/../../../targets/Cloud_FM33A0XX/Drivers\fm33a0xx_btim.c **** 
 702:e:/LiteOS/LiteOS/targets/Cloud_FM33A0XX/GCC/../../../targets/Cloud_FM33A0XX/Drivers\fm33a0xx_btim.c **** /* 定时器低位溢出信号 相关函数 */
 703:e:/LiteOS/LiteOS/targets/Cloud_FM33A0XX/GCC/../../../targets/Cloud_FM33A0XX/Drivers\fm33a0xx_btim.c **** void BTIMx_BTIE_OVLIE_Setable(BTIMx_Type* BTIMx, FunState NewState)
 704:e:/LiteOS/LiteOS/targets/Cloud_FM33A0XX/GCC/../../../targets/Cloud_FM33A0XX/Drivers\fm33a0xx_btim.c **** {
 2433              		.loc 1 704 0
 2434              		.cfi_startproc
 2435              		@ args = 0, pretend = 0, frame = 0
 2436              		@ frame_needed = 0, uses_anonymous_args = 0
 2437              		@ link register save eliminated.
 2438              	.LVL238:
 705:e:/LiteOS/LiteOS/targets/Cloud_FM33A0XX/GCC/../../../targets/Cloud_FM33A0XX/Drivers\fm33a0xx_btim.c **** 	if (NewState == ENABLE)
 2439              		.loc 1 705 0
 2440 0000 0129     		cmp	r1, #1
 2441 0002 04D1     		bne	.L120
 706:e:/LiteOS/LiteOS/targets/Cloud_FM33A0XX/GCC/../../../targets/Cloud_FM33A0XX/Drivers\fm33a0xx_btim.c **** 	{
 707:e:/LiteOS/LiteOS/targets/Cloud_FM33A0XX/GCC/../../../targets/Cloud_FM33A0XX/Drivers\fm33a0xx_btim.c **** 		BTIMx->BTIE |= (BTIMx_BTIE_OVLIE_Msk);
 2442              		.loc 1 707 0
 2443 0004 C26B     		ldr	r2, [r0, #60]
 2444 0006 0223     		movs	r3, #2
 2445 0008 1343     		orrs	r3, r2
 2446 000a C363     		str	r3, [r0, #60]
 2447 000c 03E0     		b	.L119
 2448              	.L120:
 708:e:/LiteOS/LiteOS/targets/Cloud_FM33A0XX/GCC/../../../targets/Cloud_FM33A0XX/Drivers\fm33a0xx_btim.c **** 	}
 709:e:/LiteOS/LiteOS/targets/Cloud_FM33A0XX/GCC/../../../targets/Cloud_FM33A0XX/Drivers\fm33a0xx_btim.c **** 	else
 710:e:/LiteOS/LiteOS/targets/Cloud_FM33A0XX/GCC/../../../targets/Cloud_FM33A0XX/Drivers\fm33a0xx_btim.c **** 	{
 711:e:/LiteOS/LiteOS/targets/Cloud_FM33A0XX/GCC/../../../targets/Cloud_FM33A0XX/Drivers\fm33a0xx_btim.c **** 		BTIMx->BTIE &= ~(BTIMx_BTIE_OVLIE_Msk);
 2449              		.loc 1 711 0
 2450 000e C36B     		ldr	r3, [r0, #60]
 2451 0010 0222     		movs	r2, #2
 2452 0012 9343     		bics	r3, r2
 2453 0014 C363     		str	r3, [r0, #60]
 2454              	.L119:
 712:e:/LiteOS/LiteOS/targets/Cloud_FM33A0XX/GCC/../../../targets/Cloud_FM33A0XX/Drivers\fm33a0xx_btim.c **** 	}
 713:e:/LiteOS/LiteOS/targets/Cloud_FM33A0XX/GCC/../../../targets/Cloud_FM33A0XX/Drivers\fm33a0xx_btim.c **** }
 2455              		.loc 1 713 0
 2456              		@ sp needed
 2457 0016 7047     		bx	lr
 2458              		.cfi_endproc
 2459              	.LFE116:
 2461              		.section	.text.BTIMx_BTIE_OVLIE_Getable,"ax",%progbits
 2462              		.align	2
 2463              		.global	BTIMx_BTIE_OVLIE_Getable
 2464              		.code	16
 2465              		.thumb_func
 2467              	BTIMx_BTIE_OVLIE_Getable:
 2468              	.LFB117:
 714:e:/LiteOS/LiteOS/targets/Cloud_FM33A0XX/GCC/../../../targets/Cloud_FM33A0XX/Drivers\fm33a0xx_btim.c **** 
 715:e:/LiteOS/LiteOS/targets/Cloud_FM33A0XX/GCC/../../../targets/Cloud_FM33A0XX/Drivers\fm33a0xx_btim.c **** FunState BTIMx_BTIE_OVLIE_Getable(BTIMx_Type* BTIMx)
 716:e:/LiteOS/LiteOS/targets/Cloud_FM33A0XX/GCC/../../../targets/Cloud_FM33A0XX/Drivers\fm33a0xx_btim.c **** {
ARM GAS  C:\Users\WANGBI~1\AppData\Local\Temp\cc00eRbQ.s 			page 54


 2469              		.loc 1 716 0
 2470              		.cfi_startproc
 2471              		@ args = 0, pretend = 0, frame = 0
 2472              		@ frame_needed = 0, uses_anonymous_args = 0
 2473              		@ link register save eliminated.
 2474              	.LVL239:
 717:e:/LiteOS/LiteOS/targets/Cloud_FM33A0XX/GCC/../../../targets/Cloud_FM33A0XX/Drivers\fm33a0xx_btim.c **** 	if (BTIMx->BTIE & (BTIMx_BTIE_OVLIE_Msk))
 2475              		.loc 1 717 0
 2476 0000 C36B     		ldr	r3, [r0, #60]
 2477 0002 9B07     		lsls	r3, r3, #30
 2478 0004 01D5     		bpl	.L124
 718:e:/LiteOS/LiteOS/targets/Cloud_FM33A0XX/GCC/../../../targets/Cloud_FM33A0XX/Drivers\fm33a0xx_btim.c **** 	{
 719:e:/LiteOS/LiteOS/targets/Cloud_FM33A0XX/GCC/../../../targets/Cloud_FM33A0XX/Drivers\fm33a0xx_btim.c **** 		return ENABLE;
 2479              		.loc 1 719 0
 2480 0006 0120     		movs	r0, #1
 2481              	.LVL240:
 2482 0008 00E0     		b	.L123
 2483              	.LVL241:
 2484              	.L124:
 720:e:/LiteOS/LiteOS/targets/Cloud_FM33A0XX/GCC/../../../targets/Cloud_FM33A0XX/Drivers\fm33a0xx_btim.c **** 	}
 721:e:/LiteOS/LiteOS/targets/Cloud_FM33A0XX/GCC/../../../targets/Cloud_FM33A0XX/Drivers\fm33a0xx_btim.c **** 	else
 722:e:/LiteOS/LiteOS/targets/Cloud_FM33A0XX/GCC/../../../targets/Cloud_FM33A0XX/Drivers\fm33a0xx_btim.c **** 	{
 723:e:/LiteOS/LiteOS/targets/Cloud_FM33A0XX/GCC/../../../targets/Cloud_FM33A0XX/Drivers\fm33a0xx_btim.c **** 		return DISABLE;
 2485              		.loc 1 723 0
 2486 000a 0020     		movs	r0, #0
 2487              	.LVL242:
 2488              	.L123:
 724:e:/LiteOS/LiteOS/targets/Cloud_FM33A0XX/GCC/../../../targets/Cloud_FM33A0XX/Drivers\fm33a0xx_btim.c **** 	}
 725:e:/LiteOS/LiteOS/targets/Cloud_FM33A0XX/GCC/../../../targets/Cloud_FM33A0XX/Drivers\fm33a0xx_btim.c **** }
 2489              		.loc 1 725 0
 2490              		@ sp needed
 2491 000c 7047     		bx	lr
 2492              		.cfi_endproc
 2493              	.LFE117:
 2495 000e C046     		.section	.text.BTIMx_BTIE_CAPIE_Setable,"ax",%progbits
 2496              		.align	2
 2497              		.global	BTIMx_BTIE_CAPIE_Setable
 2498              		.code	16
 2499              		.thumb_func
 2501              	BTIMx_BTIE_CAPIE_Setable:
 2502              	.LFB118:
 726:e:/LiteOS/LiteOS/targets/Cloud_FM33A0XX/GCC/../../../targets/Cloud_FM33A0XX/Drivers\fm33a0xx_btim.c **** 
 727:e:/LiteOS/LiteOS/targets/Cloud_FM33A0XX/GCC/../../../targets/Cloud_FM33A0XX/Drivers\fm33a0xx_btim.c **** /* 定时器捕捉产生信号 相关函数 */
 728:e:/LiteOS/LiteOS/targets/Cloud_FM33A0XX/GCC/../../../targets/Cloud_FM33A0XX/Drivers\fm33a0xx_btim.c **** void BTIMx_BTIE_CAPIE_Setable(BTIMx_Type* BTIMx, FunState NewState)
 729:e:/LiteOS/LiteOS/targets/Cloud_FM33A0XX/GCC/../../../targets/Cloud_FM33A0XX/Drivers\fm33a0xx_btim.c **** {
 2503              		.loc 1 729 0
 2504              		.cfi_startproc
 2505              		@ args = 0, pretend = 0, frame = 0
 2506              		@ frame_needed = 0, uses_anonymous_args = 0
 2507              		@ link register save eliminated.
 2508              	.LVL243:
 730:e:/LiteOS/LiteOS/targets/Cloud_FM33A0XX/GCC/../../../targets/Cloud_FM33A0XX/Drivers\fm33a0xx_btim.c **** 	if (NewState == ENABLE)
 2509              		.loc 1 730 0
 2510 0000 0129     		cmp	r1, #1
 2511 0002 04D1     		bne	.L126
 731:e:/LiteOS/LiteOS/targets/Cloud_FM33A0XX/GCC/../../../targets/Cloud_FM33A0XX/Drivers\fm33a0xx_btim.c **** 	{
 732:e:/LiteOS/LiteOS/targets/Cloud_FM33A0XX/GCC/../../../targets/Cloud_FM33A0XX/Drivers\fm33a0xx_btim.c **** 		BTIMx->BTIE |= (BTIMx_BTIE_CAPIE_Msk);
ARM GAS  C:\Users\WANGBI~1\AppData\Local\Temp\cc00eRbQ.s 			page 55


 2512              		.loc 1 732 0
 2513 0004 C26B     		ldr	r2, [r0, #60]
 2514 0006 0123     		movs	r3, #1
 2515 0008 1343     		orrs	r3, r2
 2516 000a C363     		str	r3, [r0, #60]
 2517 000c 03E0     		b	.L125
 2518              	.L126:
 733:e:/LiteOS/LiteOS/targets/Cloud_FM33A0XX/GCC/../../../targets/Cloud_FM33A0XX/Drivers\fm33a0xx_btim.c **** 	}
 734:e:/LiteOS/LiteOS/targets/Cloud_FM33A0XX/GCC/../../../targets/Cloud_FM33A0XX/Drivers\fm33a0xx_btim.c **** 	else
 735:e:/LiteOS/LiteOS/targets/Cloud_FM33A0XX/GCC/../../../targets/Cloud_FM33A0XX/Drivers\fm33a0xx_btim.c **** 	{
 736:e:/LiteOS/LiteOS/targets/Cloud_FM33A0XX/GCC/../../../targets/Cloud_FM33A0XX/Drivers\fm33a0xx_btim.c **** 		BTIMx->BTIE &= ~(BTIMx_BTIE_CAPIE_Msk);
 2519              		.loc 1 736 0
 2520 000e C36B     		ldr	r3, [r0, #60]
 2521 0010 0122     		movs	r2, #1
 2522 0012 9343     		bics	r3, r2
 2523 0014 C363     		str	r3, [r0, #60]
 2524              	.L125:
 737:e:/LiteOS/LiteOS/targets/Cloud_FM33A0XX/GCC/../../../targets/Cloud_FM33A0XX/Drivers\fm33a0xx_btim.c **** 	}
 738:e:/LiteOS/LiteOS/targets/Cloud_FM33A0XX/GCC/../../../targets/Cloud_FM33A0XX/Drivers\fm33a0xx_btim.c **** }
 2525              		.loc 1 738 0
 2526              		@ sp needed
 2527 0016 7047     		bx	lr
 2528              		.cfi_endproc
 2529              	.LFE118:
 2531              		.section	.text.BTIMx_BTIE_CAPIE_Getable,"ax",%progbits
 2532              		.align	2
 2533              		.global	BTIMx_BTIE_CAPIE_Getable
 2534              		.code	16
 2535              		.thumb_func
 2537              	BTIMx_BTIE_CAPIE_Getable:
 2538              	.LFB119:
 739:e:/LiteOS/LiteOS/targets/Cloud_FM33A0XX/GCC/../../../targets/Cloud_FM33A0XX/Drivers\fm33a0xx_btim.c **** 
 740:e:/LiteOS/LiteOS/targets/Cloud_FM33A0XX/GCC/../../../targets/Cloud_FM33A0XX/Drivers\fm33a0xx_btim.c **** FunState BTIMx_BTIE_CAPIE_Getable(BTIMx_Type* BTIMx)
 741:e:/LiteOS/LiteOS/targets/Cloud_FM33A0XX/GCC/../../../targets/Cloud_FM33A0XX/Drivers\fm33a0xx_btim.c **** {
 2539              		.loc 1 741 0
 2540              		.cfi_startproc
 2541              		@ args = 0, pretend = 0, frame = 0
 2542              		@ frame_needed = 0, uses_anonymous_args = 0
 2543              		@ link register save eliminated.
 2544              	.LVL244:
 742:e:/LiteOS/LiteOS/targets/Cloud_FM33A0XX/GCC/../../../targets/Cloud_FM33A0XX/Drivers\fm33a0xx_btim.c **** 	if (BTIMx->BTIE & (BTIMx_BTIE_CAPIE_Msk))
 2545              		.loc 1 742 0
 2546 0000 C36B     		ldr	r3, [r0, #60]
 2547 0002 DB07     		lsls	r3, r3, #31
 2548 0004 01D5     		bpl	.L130
 743:e:/LiteOS/LiteOS/targets/Cloud_FM33A0XX/GCC/../../../targets/Cloud_FM33A0XX/Drivers\fm33a0xx_btim.c **** 	{
 744:e:/LiteOS/LiteOS/targets/Cloud_FM33A0XX/GCC/../../../targets/Cloud_FM33A0XX/Drivers\fm33a0xx_btim.c **** 		return ENABLE;
 2549              		.loc 1 744 0
 2550 0006 0120     		movs	r0, #1
 2551              	.LVL245:
 2552 0008 00E0     		b	.L129
 2553              	.LVL246:
 2554              	.L130:
 745:e:/LiteOS/LiteOS/targets/Cloud_FM33A0XX/GCC/../../../targets/Cloud_FM33A0XX/Drivers\fm33a0xx_btim.c **** 	}
 746:e:/LiteOS/LiteOS/targets/Cloud_FM33A0XX/GCC/../../../targets/Cloud_FM33A0XX/Drivers\fm33a0xx_btim.c **** 	else
 747:e:/LiteOS/LiteOS/targets/Cloud_FM33A0XX/GCC/../../../targets/Cloud_FM33A0XX/Drivers\fm33a0xx_btim.c **** 	{
 748:e:/LiteOS/LiteOS/targets/Cloud_FM33A0XX/GCC/../../../targets/Cloud_FM33A0XX/Drivers\fm33a0xx_btim.c **** 		return DISABLE;
ARM GAS  C:\Users\WANGBI~1\AppData\Local\Temp\cc00eRbQ.s 			page 56


 2555              		.loc 1 748 0
 2556 000a 0020     		movs	r0, #0
 2557              	.LVL247:
 2558              	.L129:
 749:e:/LiteOS/LiteOS/targets/Cloud_FM33A0XX/GCC/../../../targets/Cloud_FM33A0XX/Drivers\fm33a0xx_btim.c **** 	}
 750:e:/LiteOS/LiteOS/targets/Cloud_FM33A0XX/GCC/../../../targets/Cloud_FM33A0XX/Drivers\fm33a0xx_btim.c **** }
 2559              		.loc 1 750 0
 2560              		@ sp needed
 2561 000c 7047     		bx	lr
 2562              		.cfi_endproc
 2563              	.LFE119:
 2565 000e C046     		.section	.text.BTIMx_BTIF_EDGESTA_Clr,"ax",%progbits
 2566              		.align	2
 2567              		.global	BTIMx_BTIF_EDGESTA_Clr
 2568              		.code	16
 2569              		.thumb_func
 2571              	BTIMx_BTIF_EDGESTA_Clr:
 2572              	.LFB120:
 751:e:/LiteOS/LiteOS/targets/Cloud_FM33A0XX/GCC/../../../targets/Cloud_FM33A0XX/Drivers\fm33a0xx_btim.c **** 
 752:e:/LiteOS/LiteOS/targets/Cloud_FM33A0XX/GCC/../../../targets/Cloud_FM33A0XX/Drivers\fm33a0xx_btim.c **** /* 捕捉沿状态 相关函数 */
 753:e:/LiteOS/LiteOS/targets/Cloud_FM33A0XX/GCC/../../../targets/Cloud_FM33A0XX/Drivers\fm33a0xx_btim.c **** void BTIMx_BTIF_EDGESTA_Clr(BTIMx_Type* BTIMx)
 754:e:/LiteOS/LiteOS/targets/Cloud_FM33A0XX/GCC/../../../targets/Cloud_FM33A0XX/Drivers\fm33a0xx_btim.c **** {
 2573              		.loc 1 754 0
 2574              		.cfi_startproc
 2575              		@ args = 0, pretend = 0, frame = 0
 2576              		@ frame_needed = 0, uses_anonymous_args = 0
 2577              		@ link register save eliminated.
 2578              	.LVL248:
 755:e:/LiteOS/LiteOS/targets/Cloud_FM33A0XX/GCC/../../../targets/Cloud_FM33A0XX/Drivers\fm33a0xx_btim.c **** 	BTIMx->BTIF = BTIMx_BTIF_EDGESTA_Msk;
 2579              		.loc 1 755 0
 2580 0000 2023     		movs	r3, #32
 2581 0002 0364     		str	r3, [r0, #64]
 756:e:/LiteOS/LiteOS/targets/Cloud_FM33A0XX/GCC/../../../targets/Cloud_FM33A0XX/Drivers\fm33a0xx_btim.c **** }
 2582              		.loc 1 756 0
 2583              		@ sp needed
 2584 0004 7047     		bx	lr
 2585              		.cfi_endproc
 2586              	.LFE120:
 2588 0006 C046     		.section	.text.BTIMx_BTIF_EDGESTA_Chk,"ax",%progbits
 2589              		.align	2
 2590              		.global	BTIMx_BTIF_EDGESTA_Chk
 2591              		.code	16
 2592              		.thumb_func
 2594              	BTIMx_BTIF_EDGESTA_Chk:
 2595              	.LFB121:
 757:e:/LiteOS/LiteOS/targets/Cloud_FM33A0XX/GCC/../../../targets/Cloud_FM33A0XX/Drivers\fm33a0xx_btim.c **** 
 758:e:/LiteOS/LiteOS/targets/Cloud_FM33A0XX/GCC/../../../targets/Cloud_FM33A0XX/Drivers\fm33a0xx_btim.c **** FlagStatus BTIMx_BTIF_EDGESTA_Chk(BTIMx_Type* BTIMx)
 759:e:/LiteOS/LiteOS/targets/Cloud_FM33A0XX/GCC/../../../targets/Cloud_FM33A0XX/Drivers\fm33a0xx_btim.c **** {
 2596              		.loc 1 759 0
 2597              		.cfi_startproc
 2598              		@ args = 0, pretend = 0, frame = 0
 2599              		@ frame_needed = 0, uses_anonymous_args = 0
 2600              		@ link register save eliminated.
 2601              	.LVL249:
 760:e:/LiteOS/LiteOS/targets/Cloud_FM33A0XX/GCC/../../../targets/Cloud_FM33A0XX/Drivers\fm33a0xx_btim.c **** 	if (BTIMx->BTIF & BTIMx_BTIF_EDGESTA_Msk)
 2602              		.loc 1 760 0
 2603 0000 036C     		ldr	r3, [r0, #64]
ARM GAS  C:\Users\WANGBI~1\AppData\Local\Temp\cc00eRbQ.s 			page 57


 2604 0002 9B06     		lsls	r3, r3, #26
 2605 0004 01D5     		bpl	.L134
 761:e:/LiteOS/LiteOS/targets/Cloud_FM33A0XX/GCC/../../../targets/Cloud_FM33A0XX/Drivers\fm33a0xx_btim.c **** 	{
 762:e:/LiteOS/LiteOS/targets/Cloud_FM33A0XX/GCC/../../../targets/Cloud_FM33A0XX/Drivers\fm33a0xx_btim.c **** 		return SET;
 2606              		.loc 1 762 0
 2607 0006 0120     		movs	r0, #1
 2608              	.LVL250:
 2609 0008 00E0     		b	.L133
 2610              	.LVL251:
 2611              	.L134:
 763:e:/LiteOS/LiteOS/targets/Cloud_FM33A0XX/GCC/../../../targets/Cloud_FM33A0XX/Drivers\fm33a0xx_btim.c **** 	}
 764:e:/LiteOS/LiteOS/targets/Cloud_FM33A0XX/GCC/../../../targets/Cloud_FM33A0XX/Drivers\fm33a0xx_btim.c **** 	else
 765:e:/LiteOS/LiteOS/targets/Cloud_FM33A0XX/GCC/../../../targets/Cloud_FM33A0XX/Drivers\fm33a0xx_btim.c **** 	{
 766:e:/LiteOS/LiteOS/targets/Cloud_FM33A0XX/GCC/../../../targets/Cloud_FM33A0XX/Drivers\fm33a0xx_btim.c **** 		return RESET;
 2612              		.loc 1 766 0
 2613 000a 0020     		movs	r0, #0
 2614              	.LVL252:
 2615              	.L133:
 767:e:/LiteOS/LiteOS/targets/Cloud_FM33A0XX/GCC/../../../targets/Cloud_FM33A0XX/Drivers\fm33a0xx_btim.c **** 	}
 768:e:/LiteOS/LiteOS/targets/Cloud_FM33A0XX/GCC/../../../targets/Cloud_FM33A0XX/Drivers\fm33a0xx_btim.c **** }
 2616              		.loc 1 768 0
 2617              		@ sp needed
 2618 000c 7047     		bx	lr
 2619              		.cfi_endproc
 2620              	.LFE121:
 2622 000e C046     		.section	.text.BTIMx_BTIF_CMPHIF_Clr,"ax",%progbits
 2623              		.align	2
 2624              		.global	BTIMx_BTIF_CMPHIF_Clr
 2625              		.code	16
 2626              		.thumb_func
 2628              	BTIMx_BTIF_CMPHIF_Clr:
 2629              	.LFB122:
 769:e:/LiteOS/LiteOS/targets/Cloud_FM33A0XX/GCC/../../../targets/Cloud_FM33A0XX/Drivers\fm33a0xx_btim.c **** 
 770:e:/LiteOS/LiteOS/targets/Cloud_FM33A0XX/GCC/../../../targets/Cloud_FM33A0XX/Drivers\fm33a0xx_btim.c **** /* 高位比较发生信号 相关函数 */
 771:e:/LiteOS/LiteOS/targets/Cloud_FM33A0XX/GCC/../../../targets/Cloud_FM33A0XX/Drivers\fm33a0xx_btim.c **** void BTIMx_BTIF_CMPHIF_Clr(BTIMx_Type* BTIMx)
 772:e:/LiteOS/LiteOS/targets/Cloud_FM33A0XX/GCC/../../../targets/Cloud_FM33A0XX/Drivers\fm33a0xx_btim.c **** {
 2630              		.loc 1 772 0
 2631              		.cfi_startproc
 2632              		@ args = 0, pretend = 0, frame = 0
 2633              		@ frame_needed = 0, uses_anonymous_args = 0
 2634              		@ link register save eliminated.
 2635              	.LVL253:
 773:e:/LiteOS/LiteOS/targets/Cloud_FM33A0XX/GCC/../../../targets/Cloud_FM33A0XX/Drivers\fm33a0xx_btim.c **** 	BTIMx->BTIF = BTIMx_BTIF_CMPHIF_Msk;
 2636              		.loc 1 773 0
 2637 0000 1023     		movs	r3, #16
 2638 0002 0364     		str	r3, [r0, #64]
 774:e:/LiteOS/LiteOS/targets/Cloud_FM33A0XX/GCC/../../../targets/Cloud_FM33A0XX/Drivers\fm33a0xx_btim.c **** }
 2639              		.loc 1 774 0
 2640              		@ sp needed
 2641 0004 7047     		bx	lr
 2642              		.cfi_endproc
 2643              	.LFE122:
 2645 0006 C046     		.section	.text.BTIMx_BTIF_CMPHIF_Chk,"ax",%progbits
 2646              		.align	2
 2647              		.global	BTIMx_BTIF_CMPHIF_Chk
 2648              		.code	16
 2649              		.thumb_func
ARM GAS  C:\Users\WANGBI~1\AppData\Local\Temp\cc00eRbQ.s 			page 58


 2651              	BTIMx_BTIF_CMPHIF_Chk:
 2652              	.LFB123:
 775:e:/LiteOS/LiteOS/targets/Cloud_FM33A0XX/GCC/../../../targets/Cloud_FM33A0XX/Drivers\fm33a0xx_btim.c **** 
 776:e:/LiteOS/LiteOS/targets/Cloud_FM33A0XX/GCC/../../../targets/Cloud_FM33A0XX/Drivers\fm33a0xx_btim.c **** FlagStatus BTIMx_BTIF_CMPHIF_Chk(BTIMx_Type* BTIMx)
 777:e:/LiteOS/LiteOS/targets/Cloud_FM33A0XX/GCC/../../../targets/Cloud_FM33A0XX/Drivers\fm33a0xx_btim.c **** {
 2653              		.loc 1 777 0
 2654              		.cfi_startproc
 2655              		@ args = 0, pretend = 0, frame = 0
 2656              		@ frame_needed = 0, uses_anonymous_args = 0
 2657              		@ link register save eliminated.
 2658              	.LVL254:
 778:e:/LiteOS/LiteOS/targets/Cloud_FM33A0XX/GCC/../../../targets/Cloud_FM33A0XX/Drivers\fm33a0xx_btim.c **** 	if (BTIMx->BTIF & BTIMx_BTIF_CMPHIF_Msk)
 2659              		.loc 1 778 0
 2660 0000 036C     		ldr	r3, [r0, #64]
 2661 0002 DB06     		lsls	r3, r3, #27
 2662 0004 01D5     		bpl	.L138
 779:e:/LiteOS/LiteOS/targets/Cloud_FM33A0XX/GCC/../../../targets/Cloud_FM33A0XX/Drivers\fm33a0xx_btim.c **** 	{
 780:e:/LiteOS/LiteOS/targets/Cloud_FM33A0XX/GCC/../../../targets/Cloud_FM33A0XX/Drivers\fm33a0xx_btim.c **** 		return SET;
 2663              		.loc 1 780 0
 2664 0006 0120     		movs	r0, #1
 2665              	.LVL255:
 2666 0008 00E0     		b	.L137
 2667              	.LVL256:
 2668              	.L138:
 781:e:/LiteOS/LiteOS/targets/Cloud_FM33A0XX/GCC/../../../targets/Cloud_FM33A0XX/Drivers\fm33a0xx_btim.c **** 	}
 782:e:/LiteOS/LiteOS/targets/Cloud_FM33A0XX/GCC/../../../targets/Cloud_FM33A0XX/Drivers\fm33a0xx_btim.c **** 	else
 783:e:/LiteOS/LiteOS/targets/Cloud_FM33A0XX/GCC/../../../targets/Cloud_FM33A0XX/Drivers\fm33a0xx_btim.c **** 	{
 784:e:/LiteOS/LiteOS/targets/Cloud_FM33A0XX/GCC/../../../targets/Cloud_FM33A0XX/Drivers\fm33a0xx_btim.c **** 		return RESET;
 2669              		.loc 1 784 0
 2670 000a 0020     		movs	r0, #0
 2671              	.LVL257:
 2672              	.L137:
 785:e:/LiteOS/LiteOS/targets/Cloud_FM33A0XX/GCC/../../../targets/Cloud_FM33A0XX/Drivers\fm33a0xx_btim.c **** 	}
 786:e:/LiteOS/LiteOS/targets/Cloud_FM33A0XX/GCC/../../../targets/Cloud_FM33A0XX/Drivers\fm33a0xx_btim.c **** }
 2673              		.loc 1 786 0
 2674              		@ sp needed
 2675 000c 7047     		bx	lr
 2676              		.cfi_endproc
 2677              	.LFE123:
 2679 000e C046     		.section	.text.BTIMx_BTIF_CMPLIF_Clr,"ax",%progbits
 2680              		.align	2
 2681              		.global	BTIMx_BTIF_CMPLIF_Clr
 2682              		.code	16
 2683              		.thumb_func
 2685              	BTIMx_BTIF_CMPLIF_Clr:
 2686              	.LFB124:
 787:e:/LiteOS/LiteOS/targets/Cloud_FM33A0XX/GCC/../../../targets/Cloud_FM33A0XX/Drivers\fm33a0xx_btim.c **** 
 788:e:/LiteOS/LiteOS/targets/Cloud_FM33A0XX/GCC/../../../targets/Cloud_FM33A0XX/Drivers\fm33a0xx_btim.c **** /* 低位比较发生信号 相关函数 */
 789:e:/LiteOS/LiteOS/targets/Cloud_FM33A0XX/GCC/../../../targets/Cloud_FM33A0XX/Drivers\fm33a0xx_btim.c **** void BTIMx_BTIF_CMPLIF_Clr(BTIMx_Type* BTIMx)
 790:e:/LiteOS/LiteOS/targets/Cloud_FM33A0XX/GCC/../../../targets/Cloud_FM33A0XX/Drivers\fm33a0xx_btim.c **** {
 2687              		.loc 1 790 0
 2688              		.cfi_startproc
 2689              		@ args = 0, pretend = 0, frame = 0
 2690              		@ frame_needed = 0, uses_anonymous_args = 0
 2691              		@ link register save eliminated.
 2692              	.LVL258:
 791:e:/LiteOS/LiteOS/targets/Cloud_FM33A0XX/GCC/../../../targets/Cloud_FM33A0XX/Drivers\fm33a0xx_btim.c **** 	BTIMx->BTIF = BTIMx_BTIF_CMPLIF_Msk;
ARM GAS  C:\Users\WANGBI~1\AppData\Local\Temp\cc00eRbQ.s 			page 59


 2693              		.loc 1 791 0
 2694 0000 0823     		movs	r3, #8
 2695 0002 0364     		str	r3, [r0, #64]
 792:e:/LiteOS/LiteOS/targets/Cloud_FM33A0XX/GCC/../../../targets/Cloud_FM33A0XX/Drivers\fm33a0xx_btim.c **** }
 2696              		.loc 1 792 0
 2697              		@ sp needed
 2698 0004 7047     		bx	lr
 2699              		.cfi_endproc
 2700              	.LFE124:
 2702 0006 C046     		.section	.text.BTIMx_BTIF_CMPLIF_Chk,"ax",%progbits
 2703              		.align	2
 2704              		.global	BTIMx_BTIF_CMPLIF_Chk
 2705              		.code	16
 2706              		.thumb_func
 2708              	BTIMx_BTIF_CMPLIF_Chk:
 2709              	.LFB125:
 793:e:/LiteOS/LiteOS/targets/Cloud_FM33A0XX/GCC/../../../targets/Cloud_FM33A0XX/Drivers\fm33a0xx_btim.c **** 
 794:e:/LiteOS/LiteOS/targets/Cloud_FM33A0XX/GCC/../../../targets/Cloud_FM33A0XX/Drivers\fm33a0xx_btim.c **** FlagStatus BTIMx_BTIF_CMPLIF_Chk(BTIMx_Type* BTIMx)
 795:e:/LiteOS/LiteOS/targets/Cloud_FM33A0XX/GCC/../../../targets/Cloud_FM33A0XX/Drivers\fm33a0xx_btim.c **** {
 2710              		.loc 1 795 0
 2711              		.cfi_startproc
 2712              		@ args = 0, pretend = 0, frame = 0
 2713              		@ frame_needed = 0, uses_anonymous_args = 0
 2714              		@ link register save eliminated.
 2715              	.LVL259:
 796:e:/LiteOS/LiteOS/targets/Cloud_FM33A0XX/GCC/../../../targets/Cloud_FM33A0XX/Drivers\fm33a0xx_btim.c **** 	if (BTIMx->BTIF & BTIMx_BTIF_CMPLIF_Msk)
 2716              		.loc 1 796 0
 2717 0000 036C     		ldr	r3, [r0, #64]
 2718 0002 1B07     		lsls	r3, r3, #28
 2719 0004 01D5     		bpl	.L142
 797:e:/LiteOS/LiteOS/targets/Cloud_FM33A0XX/GCC/../../../targets/Cloud_FM33A0XX/Drivers\fm33a0xx_btim.c **** 	{
 798:e:/LiteOS/LiteOS/targets/Cloud_FM33A0XX/GCC/../../../targets/Cloud_FM33A0XX/Drivers\fm33a0xx_btim.c **** 		return SET;
 2720              		.loc 1 798 0
 2721 0006 0120     		movs	r0, #1
 2722              	.LVL260:
 2723 0008 00E0     		b	.L141
 2724              	.LVL261:
 2725              	.L142:
 799:e:/LiteOS/LiteOS/targets/Cloud_FM33A0XX/GCC/../../../targets/Cloud_FM33A0XX/Drivers\fm33a0xx_btim.c **** 	}
 800:e:/LiteOS/LiteOS/targets/Cloud_FM33A0XX/GCC/../../../targets/Cloud_FM33A0XX/Drivers\fm33a0xx_btim.c **** 	else
 801:e:/LiteOS/LiteOS/targets/Cloud_FM33A0XX/GCC/../../../targets/Cloud_FM33A0XX/Drivers\fm33a0xx_btim.c **** 	{
 802:e:/LiteOS/LiteOS/targets/Cloud_FM33A0XX/GCC/../../../targets/Cloud_FM33A0XX/Drivers\fm33a0xx_btim.c **** 		return RESET;
 2726              		.loc 1 802 0
 2727 000a 0020     		movs	r0, #0
 2728              	.LVL262:
 2729              	.L141:
 803:e:/LiteOS/LiteOS/targets/Cloud_FM33A0XX/GCC/../../../targets/Cloud_FM33A0XX/Drivers\fm33a0xx_btim.c **** 	}
 804:e:/LiteOS/LiteOS/targets/Cloud_FM33A0XX/GCC/../../../targets/Cloud_FM33A0XX/Drivers\fm33a0xx_btim.c **** }
 2730              		.loc 1 804 0
 2731              		@ sp needed
 2732 000c 7047     		bx	lr
 2733              		.cfi_endproc
 2734              	.LFE125:
 2736 000e C046     		.section	.text.BTIMx_BTIF_OVHIF_Clr,"ax",%progbits
 2737              		.align	2
 2738              		.global	BTIMx_BTIF_OVHIF_Clr
 2739              		.code	16
ARM GAS  C:\Users\WANGBI~1\AppData\Local\Temp\cc00eRbQ.s 			page 60


 2740              		.thumb_func
 2742              	BTIMx_BTIF_OVHIF_Clr:
 2743              	.LFB126:
 805:e:/LiteOS/LiteOS/targets/Cloud_FM33A0XX/GCC/../../../targets/Cloud_FM33A0XX/Drivers\fm33a0xx_btim.c **** 
 806:e:/LiteOS/LiteOS/targets/Cloud_FM33A0XX/GCC/../../../targets/Cloud_FM33A0XX/Drivers\fm33a0xx_btim.c **** /* 定时器高位溢出信号 相关函数 */
 807:e:/LiteOS/LiteOS/targets/Cloud_FM33A0XX/GCC/../../../targets/Cloud_FM33A0XX/Drivers\fm33a0xx_btim.c **** void BTIMx_BTIF_OVHIF_Clr(BTIMx_Type* BTIMx)
 808:e:/LiteOS/LiteOS/targets/Cloud_FM33A0XX/GCC/../../../targets/Cloud_FM33A0XX/Drivers\fm33a0xx_btim.c **** {
 2744              		.loc 1 808 0
 2745              		.cfi_startproc
 2746              		@ args = 0, pretend = 0, frame = 0
 2747              		@ frame_needed = 0, uses_anonymous_args = 0
 2748              		@ link register save eliminated.
 2749              	.LVL263:
 809:e:/LiteOS/LiteOS/targets/Cloud_FM33A0XX/GCC/../../../targets/Cloud_FM33A0XX/Drivers\fm33a0xx_btim.c **** 	BTIMx->BTIF = BTIMx_BTIF_OVHIF_Msk;
 2750              		.loc 1 809 0
 2751 0000 0423     		movs	r3, #4
 2752 0002 0364     		str	r3, [r0, #64]
 810:e:/LiteOS/LiteOS/targets/Cloud_FM33A0XX/GCC/../../../targets/Cloud_FM33A0XX/Drivers\fm33a0xx_btim.c **** }
 2753              		.loc 1 810 0
 2754              		@ sp needed
 2755 0004 7047     		bx	lr
 2756              		.cfi_endproc
 2757              	.LFE126:
 2759 0006 C046     		.section	.text.BTIMx_BTIF_OVHIF_Chk,"ax",%progbits
 2760              		.align	2
 2761              		.global	BTIMx_BTIF_OVHIF_Chk
 2762              		.code	16
 2763              		.thumb_func
 2765              	BTIMx_BTIF_OVHIF_Chk:
 2766              	.LFB127:
 811:e:/LiteOS/LiteOS/targets/Cloud_FM33A0XX/GCC/../../../targets/Cloud_FM33A0XX/Drivers\fm33a0xx_btim.c **** 
 812:e:/LiteOS/LiteOS/targets/Cloud_FM33A0XX/GCC/../../../targets/Cloud_FM33A0XX/Drivers\fm33a0xx_btim.c **** FlagStatus BTIMx_BTIF_OVHIF_Chk(BTIMx_Type* BTIMx)
 813:e:/LiteOS/LiteOS/targets/Cloud_FM33A0XX/GCC/../../../targets/Cloud_FM33A0XX/Drivers\fm33a0xx_btim.c **** {
 2767              		.loc 1 813 0
 2768              		.cfi_startproc
 2769              		@ args = 0, pretend = 0, frame = 0
 2770              		@ frame_needed = 0, uses_anonymous_args = 0
 2771              		@ link register save eliminated.
 2772              	.LVL264:
 814:e:/LiteOS/LiteOS/targets/Cloud_FM33A0XX/GCC/../../../targets/Cloud_FM33A0XX/Drivers\fm33a0xx_btim.c **** 	if (BTIMx->BTIF & BTIMx_BTIF_OVHIF_Msk)
 2773              		.loc 1 814 0
 2774 0000 036C     		ldr	r3, [r0, #64]
 2775 0002 5B07     		lsls	r3, r3, #29
 2776 0004 01D5     		bpl	.L146
 815:e:/LiteOS/LiteOS/targets/Cloud_FM33A0XX/GCC/../../../targets/Cloud_FM33A0XX/Drivers\fm33a0xx_btim.c **** 	{
 816:e:/LiteOS/LiteOS/targets/Cloud_FM33A0XX/GCC/../../../targets/Cloud_FM33A0XX/Drivers\fm33a0xx_btim.c **** 		return SET;
 2777              		.loc 1 816 0
 2778 0006 0120     		movs	r0, #1
 2779              	.LVL265:
 2780 0008 00E0     		b	.L145
 2781              	.LVL266:
 2782              	.L146:
 817:e:/LiteOS/LiteOS/targets/Cloud_FM33A0XX/GCC/../../../targets/Cloud_FM33A0XX/Drivers\fm33a0xx_btim.c **** 	}
 818:e:/LiteOS/LiteOS/targets/Cloud_FM33A0XX/GCC/../../../targets/Cloud_FM33A0XX/Drivers\fm33a0xx_btim.c **** 	else
 819:e:/LiteOS/LiteOS/targets/Cloud_FM33A0XX/GCC/../../../targets/Cloud_FM33A0XX/Drivers\fm33a0xx_btim.c **** 	{
 820:e:/LiteOS/LiteOS/targets/Cloud_FM33A0XX/GCC/../../../targets/Cloud_FM33A0XX/Drivers\fm33a0xx_btim.c **** 		return RESET;
 2783              		.loc 1 820 0
ARM GAS  C:\Users\WANGBI~1\AppData\Local\Temp\cc00eRbQ.s 			page 61


 2784 000a 0020     		movs	r0, #0
 2785              	.LVL267:
 2786              	.L145:
 821:e:/LiteOS/LiteOS/targets/Cloud_FM33A0XX/GCC/../../../targets/Cloud_FM33A0XX/Drivers\fm33a0xx_btim.c **** 	}
 822:e:/LiteOS/LiteOS/targets/Cloud_FM33A0XX/GCC/../../../targets/Cloud_FM33A0XX/Drivers\fm33a0xx_btim.c **** }
 2787              		.loc 1 822 0
 2788              		@ sp needed
 2789 000c 7047     		bx	lr
 2790              		.cfi_endproc
 2791              	.LFE127:
 2793 000e C046     		.section	.text.BTIMx_BTIF_OVLIF_Clr,"ax",%progbits
 2794              		.align	2
 2795              		.global	BTIMx_BTIF_OVLIF_Clr
 2796              		.code	16
 2797              		.thumb_func
 2799              	BTIMx_BTIF_OVLIF_Clr:
 2800              	.LFB128:
 823:e:/LiteOS/LiteOS/targets/Cloud_FM33A0XX/GCC/../../../targets/Cloud_FM33A0XX/Drivers\fm33a0xx_btim.c **** 
 824:e:/LiteOS/LiteOS/targets/Cloud_FM33A0XX/GCC/../../../targets/Cloud_FM33A0XX/Drivers\fm33a0xx_btim.c **** /* 定时器低位溢出信号 相关函数 */
 825:e:/LiteOS/LiteOS/targets/Cloud_FM33A0XX/GCC/../../../targets/Cloud_FM33A0XX/Drivers\fm33a0xx_btim.c **** void BTIMx_BTIF_OVLIF_Clr(BTIMx_Type* BTIMx)
 826:e:/LiteOS/LiteOS/targets/Cloud_FM33A0XX/GCC/../../../targets/Cloud_FM33A0XX/Drivers\fm33a0xx_btim.c **** {
 2801              		.loc 1 826 0
 2802              		.cfi_startproc
 2803              		@ args = 0, pretend = 0, frame = 0
 2804              		@ frame_needed = 0, uses_anonymous_args = 0
 2805              		@ link register save eliminated.
 2806              	.LVL268:
 827:e:/LiteOS/LiteOS/targets/Cloud_FM33A0XX/GCC/../../../targets/Cloud_FM33A0XX/Drivers\fm33a0xx_btim.c **** 	BTIMx->BTIF = BTIMx_BTIF_OVLIF_Msk;
 2807              		.loc 1 827 0
 2808 0000 0223     		movs	r3, #2
 2809 0002 0364     		str	r3, [r0, #64]
 828:e:/LiteOS/LiteOS/targets/Cloud_FM33A0XX/GCC/../../../targets/Cloud_FM33A0XX/Drivers\fm33a0xx_btim.c **** }
 2810              		.loc 1 828 0
 2811              		@ sp needed
 2812 0004 7047     		bx	lr
 2813              		.cfi_endproc
 2814              	.LFE128:
 2816 0006 C046     		.section	.text.BTIMx_BTIF_OVLIF_Chk,"ax",%progbits
 2817              		.align	2
 2818              		.global	BTIMx_BTIF_OVLIF_Chk
 2819              		.code	16
 2820              		.thumb_func
 2822              	BTIMx_BTIF_OVLIF_Chk:
 2823              	.LFB129:
 829:e:/LiteOS/LiteOS/targets/Cloud_FM33A0XX/GCC/../../../targets/Cloud_FM33A0XX/Drivers\fm33a0xx_btim.c **** 
 830:e:/LiteOS/LiteOS/targets/Cloud_FM33A0XX/GCC/../../../targets/Cloud_FM33A0XX/Drivers\fm33a0xx_btim.c **** FlagStatus BTIMx_BTIF_OVLIF_Chk(BTIMx_Type* BTIMx)
 831:e:/LiteOS/LiteOS/targets/Cloud_FM33A0XX/GCC/../../../targets/Cloud_FM33A0XX/Drivers\fm33a0xx_btim.c **** {
 2824              		.loc 1 831 0
 2825              		.cfi_startproc
 2826              		@ args = 0, pretend = 0, frame = 0
 2827              		@ frame_needed = 0, uses_anonymous_args = 0
 2828              		@ link register save eliminated.
 2829              	.LVL269:
 832:e:/LiteOS/LiteOS/targets/Cloud_FM33A0XX/GCC/../../../targets/Cloud_FM33A0XX/Drivers\fm33a0xx_btim.c **** 	if (BTIMx->BTIF & BTIMx_BTIF_OVLIF_Msk)
 2830              		.loc 1 832 0
 2831 0000 036C     		ldr	r3, [r0, #64]
 2832 0002 9B07     		lsls	r3, r3, #30
ARM GAS  C:\Users\WANGBI~1\AppData\Local\Temp\cc00eRbQ.s 			page 62


 2833 0004 01D5     		bpl	.L150
 833:e:/LiteOS/LiteOS/targets/Cloud_FM33A0XX/GCC/../../../targets/Cloud_FM33A0XX/Drivers\fm33a0xx_btim.c **** 	{
 834:e:/LiteOS/LiteOS/targets/Cloud_FM33A0XX/GCC/../../../targets/Cloud_FM33A0XX/Drivers\fm33a0xx_btim.c **** 		return SET;
 2834              		.loc 1 834 0
 2835 0006 0120     		movs	r0, #1
 2836              	.LVL270:
 2837 0008 00E0     		b	.L149
 2838              	.LVL271:
 2839              	.L150:
 835:e:/LiteOS/LiteOS/targets/Cloud_FM33A0XX/GCC/../../../targets/Cloud_FM33A0XX/Drivers\fm33a0xx_btim.c **** 	}
 836:e:/LiteOS/LiteOS/targets/Cloud_FM33A0XX/GCC/../../../targets/Cloud_FM33A0XX/Drivers\fm33a0xx_btim.c **** 	else
 837:e:/LiteOS/LiteOS/targets/Cloud_FM33A0XX/GCC/../../../targets/Cloud_FM33A0XX/Drivers\fm33a0xx_btim.c **** 	{
 838:e:/LiteOS/LiteOS/targets/Cloud_FM33A0XX/GCC/../../../targets/Cloud_FM33A0XX/Drivers\fm33a0xx_btim.c **** 		return RESET;
 2840              		.loc 1 838 0
 2841 000a 0020     		movs	r0, #0
 2842              	.LVL272:
 2843              	.L149:
 839:e:/LiteOS/LiteOS/targets/Cloud_FM33A0XX/GCC/../../../targets/Cloud_FM33A0XX/Drivers\fm33a0xx_btim.c **** 	}
 840:e:/LiteOS/LiteOS/targets/Cloud_FM33A0XX/GCC/../../../targets/Cloud_FM33A0XX/Drivers\fm33a0xx_btim.c **** }
 2844              		.loc 1 840 0
 2845              		@ sp needed
 2846 000c 7047     		bx	lr
 2847              		.cfi_endproc
 2848              	.LFE129:
 2850 000e C046     		.section	.text.BTIMx_BTIF_CAPIF_Clr,"ax",%progbits
 2851              		.align	2
 2852              		.global	BTIMx_BTIF_CAPIF_Clr
 2853              		.code	16
 2854              		.thumb_func
 2856              	BTIMx_BTIF_CAPIF_Clr:
 2857              	.LFB130:
 841:e:/LiteOS/LiteOS/targets/Cloud_FM33A0XX/GCC/../../../targets/Cloud_FM33A0XX/Drivers\fm33a0xx_btim.c **** 
 842:e:/LiteOS/LiteOS/targets/Cloud_FM33A0XX/GCC/../../../targets/Cloud_FM33A0XX/Drivers\fm33a0xx_btim.c **** /* 定时器捕捉产生信号 相关函数 */
 843:e:/LiteOS/LiteOS/targets/Cloud_FM33A0XX/GCC/../../../targets/Cloud_FM33A0XX/Drivers\fm33a0xx_btim.c **** void BTIMx_BTIF_CAPIF_Clr(BTIMx_Type* BTIMx)
 844:e:/LiteOS/LiteOS/targets/Cloud_FM33A0XX/GCC/../../../targets/Cloud_FM33A0XX/Drivers\fm33a0xx_btim.c **** {
 2858              		.loc 1 844 0
 2859              		.cfi_startproc
 2860              		@ args = 0, pretend = 0, frame = 0
 2861              		@ frame_needed = 0, uses_anonymous_args = 0
 2862              		@ link register save eliminated.
 2863              	.LVL273:
 845:e:/LiteOS/LiteOS/targets/Cloud_FM33A0XX/GCC/../../../targets/Cloud_FM33A0XX/Drivers\fm33a0xx_btim.c **** 	BTIMx->BTIF = BTIMx_BTIF_CAPIF_Msk;
 2864              		.loc 1 845 0
 2865 0000 0123     		movs	r3, #1
 2866 0002 0364     		str	r3, [r0, #64]
 846:e:/LiteOS/LiteOS/targets/Cloud_FM33A0XX/GCC/../../../targets/Cloud_FM33A0XX/Drivers\fm33a0xx_btim.c **** }
 2867              		.loc 1 846 0
 2868              		@ sp needed
 2869 0004 7047     		bx	lr
 2870              		.cfi_endproc
 2871              	.LFE130:
 2873 0006 C046     		.section	.text.BTIMx_BTIF_CAPIF_Chk,"ax",%progbits
 2874              		.align	2
 2875              		.global	BTIMx_BTIF_CAPIF_Chk
 2876              		.code	16
 2877              		.thumb_func
 2879              	BTIMx_BTIF_CAPIF_Chk:
ARM GAS  C:\Users\WANGBI~1\AppData\Local\Temp\cc00eRbQ.s 			page 63


 2880              	.LFB131:
 847:e:/LiteOS/LiteOS/targets/Cloud_FM33A0XX/GCC/../../../targets/Cloud_FM33A0XX/Drivers\fm33a0xx_btim.c **** 
 848:e:/LiteOS/LiteOS/targets/Cloud_FM33A0XX/GCC/../../../targets/Cloud_FM33A0XX/Drivers\fm33a0xx_btim.c **** FlagStatus BTIMx_BTIF_CAPIF_Chk(BTIMx_Type* BTIMx)
 849:e:/LiteOS/LiteOS/targets/Cloud_FM33A0XX/GCC/../../../targets/Cloud_FM33A0XX/Drivers\fm33a0xx_btim.c **** {
 2881              		.loc 1 849 0
 2882              		.cfi_startproc
 2883              		@ args = 0, pretend = 0, frame = 0
 2884              		@ frame_needed = 0, uses_anonymous_args = 0
 2885              		@ link register save eliminated.
 2886              	.LVL274:
 850:e:/LiteOS/LiteOS/targets/Cloud_FM33A0XX/GCC/../../../targets/Cloud_FM33A0XX/Drivers\fm33a0xx_btim.c **** 	if (BTIMx->BTIF & BTIMx_BTIF_CAPIF_Msk)
 2887              		.loc 1 850 0
 2888 0000 036C     		ldr	r3, [r0, #64]
 2889 0002 DB07     		lsls	r3, r3, #31
 2890 0004 01D5     		bpl	.L154
 851:e:/LiteOS/LiteOS/targets/Cloud_FM33A0XX/GCC/../../../targets/Cloud_FM33A0XX/Drivers\fm33a0xx_btim.c **** 	{
 852:e:/LiteOS/LiteOS/targets/Cloud_FM33A0XX/GCC/../../../targets/Cloud_FM33A0XX/Drivers\fm33a0xx_btim.c **** 		return SET;
 2891              		.loc 1 852 0
 2892 0006 0120     		movs	r0, #1
 2893              	.LVL275:
 2894 0008 00E0     		b	.L153
 2895              	.LVL276:
 2896              	.L154:
 853:e:/LiteOS/LiteOS/targets/Cloud_FM33A0XX/GCC/../../../targets/Cloud_FM33A0XX/Drivers\fm33a0xx_btim.c **** 	}
 854:e:/LiteOS/LiteOS/targets/Cloud_FM33A0XX/GCC/../../../targets/Cloud_FM33A0XX/Drivers\fm33a0xx_btim.c **** 	else
 855:e:/LiteOS/LiteOS/targets/Cloud_FM33A0XX/GCC/../../../targets/Cloud_FM33A0XX/Drivers\fm33a0xx_btim.c **** 	{
 856:e:/LiteOS/LiteOS/targets/Cloud_FM33A0XX/GCC/../../../targets/Cloud_FM33A0XX/Drivers\fm33a0xx_btim.c **** 		return RESET;
 2897              		.loc 1 856 0
 2898 000a 0020     		movs	r0, #0
 2899              	.LVL277:
 2900              	.L153:
 857:e:/LiteOS/LiteOS/targets/Cloud_FM33A0XX/GCC/../../../targets/Cloud_FM33A0XX/Drivers\fm33a0xx_btim.c **** 	}
 858:e:/LiteOS/LiteOS/targets/Cloud_FM33A0XX/GCC/../../../targets/Cloud_FM33A0XX/Drivers\fm33a0xx_btim.c **** }
 2901              		.loc 1 858 0
 2902              		@ sp needed
 2903 000c 7047     		bx	lr
 2904              		.cfi_endproc
 2905              	.LFE131:
 2907 000e C046     		.section	.text.BTIMx_Deinit,"ax",%progbits
 2908              		.align	2
 2909              		.global	BTIMx_Deinit
 2910              		.code	16
 2911              		.thumb_func
 2913              	BTIMx_Deinit:
 2914              	.LFB132:
 859:e:/LiteOS/LiteOS/targets/Cloud_FM33A0XX/GCC/../../../targets/Cloud_FM33A0XX/Drivers\fm33a0xx_btim.c **** 
 860:e:/LiteOS/LiteOS/targets/Cloud_FM33A0XX/GCC/../../../targets/Cloud_FM33A0XX/Drivers\fm33a0xx_btim.c **** 
 861:e:/LiteOS/LiteOS/targets/Cloud_FM33A0XX/GCC/../../../targets/Cloud_FM33A0XX/Drivers\fm33a0xx_btim.c **** void BTIMx_Deinit(BTIMx_Type* BTIMx)
 862:e:/LiteOS/LiteOS/targets/Cloud_FM33A0XX/GCC/../../../targets/Cloud_FM33A0XX/Drivers\fm33a0xx_btim.c **** {
 2915              		.loc 1 862 0
 2916              		.cfi_startproc
 2917              		@ args = 0, pretend = 0, frame = 0
 2918              		@ frame_needed = 0, uses_anonymous_args = 0
 2919              		@ link register save eliminated.
 2920              	.LVL278:
 863:e:/LiteOS/LiteOS/targets/Cloud_FM33A0XX/GCC/../../../targets/Cloud_FM33A0XX/Drivers\fm33a0xx_btim.c **** 	BTIMx->BTCR1 = 0x00000000;
 2921              		.loc 1 863 0
ARM GAS  C:\Users\WANGBI~1\AppData\Local\Temp\cc00eRbQ.s 			page 64


 2922 0000 0023     		movs	r3, #0
 2923 0002 0360     		str	r3, [r0]
 864:e:/LiteOS/LiteOS/targets/Cloud_FM33A0XX/GCC/../../../targets/Cloud_FM33A0XX/Drivers\fm33a0xx_btim.c **** 	BTIMx->BTCR2 = 0x00000000;
 2924              		.loc 1 864 0
 2925 0004 4360     		str	r3, [r0, #4]
 865:e:/LiteOS/LiteOS/targets/Cloud_FM33A0XX/GCC/../../../targets/Cloud_FM33A0XX/Drivers\fm33a0xx_btim.c **** 	BTIMx->BTCFG1 = 0x00000000;
 2926              		.loc 1 865 0
 2927 0006 8360     		str	r3, [r0, #8]
 866:e:/LiteOS/LiteOS/targets/Cloud_FM33A0XX/GCC/../../../targets/Cloud_FM33A0XX/Drivers\fm33a0xx_btim.c **** 	BTIMx->BTCFG2 = 0x00000000;
 2928              		.loc 1 866 0
 2929 0008 C360     		str	r3, [r0, #12]
 867:e:/LiteOS/LiteOS/targets/Cloud_FM33A0XX/GCC/../../../targets/Cloud_FM33A0XX/Drivers\fm33a0xx_btim.c **** 	BTIMx->BTPRES = 0x00000000;
 2930              		.loc 1 867 0
 2931 000a 0361     		str	r3, [r0, #16]
 868:e:/LiteOS/LiteOS/targets/Cloud_FM33A0XX/GCC/../../../targets/Cloud_FM33A0XX/Drivers\fm33a0xx_btim.c **** 	BTIMx->BTLOADCR = 0x00000000;
 2932              		.loc 1 868 0
 2933 000c 4361     		str	r3, [r0, #20]
 869:e:/LiteOS/LiteOS/targets/Cloud_FM33A0XX/GCC/../../../targets/Cloud_FM33A0XX/Drivers\fm33a0xx_btim.c **** 	//BTIMx->BTCNTL = ;
 870:e:/LiteOS/LiteOS/targets/Cloud_FM33A0XX/GCC/../../../targets/Cloud_FM33A0XX/Drivers\fm33a0xx_btim.c **** 	//BTIMx->BTCNTH = ;
 871:e:/LiteOS/LiteOS/targets/Cloud_FM33A0XX/GCC/../../../targets/Cloud_FM33A0XX/Drivers\fm33a0xx_btim.c **** 	BTIMx->BTPRESET = 0x00000000;
 2934              		.loc 1 871 0
 2935 000e 0362     		str	r3, [r0, #32]
 872:e:/LiteOS/LiteOS/targets/Cloud_FM33A0XX/GCC/../../../targets/Cloud_FM33A0XX/Drivers\fm33a0xx_btim.c **** 	BTIMx->BTLOADL = 0x00000000;
 2936              		.loc 1 872 0
 2937 0010 4362     		str	r3, [r0, #36]
 873:e:/LiteOS/LiteOS/targets/Cloud_FM33A0XX/GCC/../../../targets/Cloud_FM33A0XX/Drivers\fm33a0xx_btim.c **** 	BTIMx->BTLOADH = 0x00000000;
 2938              		.loc 1 873 0
 2939 0012 8362     		str	r3, [r0, #40]
 874:e:/LiteOS/LiteOS/targets/Cloud_FM33A0XX/GCC/../../../targets/Cloud_FM33A0XX/Drivers\fm33a0xx_btim.c **** 	//BTIMx->BTCMPL = ;
 875:e:/LiteOS/LiteOS/targets/Cloud_FM33A0XX/GCC/../../../targets/Cloud_FM33A0XX/Drivers\fm33a0xx_btim.c **** 	//BTIMx->BTCMPH = ;
 876:e:/LiteOS/LiteOS/targets/Cloud_FM33A0XX/GCC/../../../targets/Cloud_FM33A0XX/Drivers\fm33a0xx_btim.c **** 	BTIMx->BTOUTCNT = 0x00000000;
 2940              		.loc 1 876 0
 2941 0014 4363     		str	r3, [r0, #52]
 877:e:/LiteOS/LiteOS/targets/Cloud_FM33A0XX/GCC/../../../targets/Cloud_FM33A0XX/Drivers\fm33a0xx_btim.c **** 	BTIMx->BTOCR = 0x00000000;
 2942              		.loc 1 877 0
 2943 0016 8363     		str	r3, [r0, #56]
 878:e:/LiteOS/LiteOS/targets/Cloud_FM33A0XX/GCC/../../../targets/Cloud_FM33A0XX/Drivers\fm33a0xx_btim.c **** 	BTIMx->BTIE = 0x00000000;
 2944              		.loc 1 878 0
 2945 0018 C363     		str	r3, [r0, #60]
 879:e:/LiteOS/LiteOS/targets/Cloud_FM33A0XX/GCC/../../../targets/Cloud_FM33A0XX/Drivers\fm33a0xx_btim.c **** 	//BTIMx->BTIF = ;
 880:e:/LiteOS/LiteOS/targets/Cloud_FM33A0XX/GCC/../../../targets/Cloud_FM33A0XX/Drivers\fm33a0xx_btim.c **** }
 2946              		.loc 1 880 0
 2947              		@ sp needed
 2948 001a 7047     		bx	lr
 2949              		.cfi_endproc
 2950              	.LFE132:
 2952              		.section	.text.BTIMx_Init,"ax",%progbits
 2953              		.align	2
 2954              		.global	BTIMx_Init
 2955              		.code	16
 2956              		.thumb_func
 2958              	BTIMx_Init:
 2959              	.LFB133:
 881:e:/LiteOS/LiteOS/targets/Cloud_FM33A0XX/GCC/../../../targets/Cloud_FM33A0XX/Drivers\fm33a0xx_btim.c **** //Code_End
 882:e:/LiteOS/LiteOS/targets/Cloud_FM33A0XX/GCC/../../../targets/Cloud_FM33A0XX/Drivers\fm33a0xx_btim.c **** 
 883:e:/LiteOS/LiteOS/targets/Cloud_FM33A0XX/GCC/../../../targets/Cloud_FM33A0XX/Drivers\fm33a0xx_btim.c **** 
 884:e:/LiteOS/LiteOS/targets/Cloud_FM33A0XX/GCC/../../../targets/Cloud_FM33A0XX/Drivers\fm33a0xx_btim.c **** 
ARM GAS  C:\Users\WANGBI~1\AppData\Local\Temp\cc00eRbQ.s 			page 65


 885:e:/LiteOS/LiteOS/targets/Cloud_FM33A0XX/GCC/../../../targets/Cloud_FM33A0XX/Drivers\fm33a0xx_btim.c **** void BTIMx_Init(BTIMx_Type* BTIMx, BTIM_InitTypeDef* para)
 886:e:/LiteOS/LiteOS/targets/Cloud_FM33A0XX/GCC/../../../targets/Cloud_FM33A0XX/Drivers\fm33a0xx_btim.c **** {
 2960              		.loc 1 886 0
 2961              		.cfi_startproc
 2962              		@ args = 0, pretend = 0, frame = 0
 2963              		@ frame_needed = 0, uses_anonymous_args = 0
 2964              	.LVL279:
 2965 0000 70B5     		push	{r4, r5, r6, lr}
 2966              	.LCFI0:
 2967              		.cfi_def_cfa_offset 16
 2968              		.cfi_offset 4, -16
 2969              		.cfi_offset 5, -12
 2970              		.cfi_offset 6, -8
 2971              		.cfi_offset 14, -4
 2972 0002 0400     		movs	r4, r0
 2973 0004 0D00     		movs	r5, r1
 887:e:/LiteOS/LiteOS/targets/Cloud_FM33A0XX/GCC/../../../targets/Cloud_FM33A0XX/Drivers\fm33a0xx_btim.c **** 	BTIMx_Deinit(BTIMx);
 2974              		.loc 1 887 0
 2975 0006 FFF7FEFF 		bl	BTIMx_Deinit
 2976              	.LVL280:
 888:e:/LiteOS/LiteOS/targets/Cloud_FM33A0XX/GCC/../../../targets/Cloud_FM33A0XX/Drivers\fm33a0xx_btim.c **** 
 889:e:/LiteOS/LiteOS/targets/Cloud_FM33A0XX/GCC/../../../targets/Cloud_FM33A0XX/Drivers\fm33a0xx_btim.c **** 	//捕捉参数选择
 890:e:/LiteOS/LiteOS/targets/Cloud_FM33A0XX/GCC/../../../targets/Cloud_FM33A0XX/Drivers\fm33a0xx_btim.c **** 	BTIMx_BTCR1_CAPMOD_Set(BTIMx, para->cap_para.CAPMOD);//捕捉模式控制，脉冲宽度或脉冲周期
 2977              		.loc 1 890 0
 2978 000a 696D     		ldr	r1, [r5, #84]
 2979 000c 2000     		movs	r0, r4
 2980 000e FFF7FEFF 		bl	BTIMx_BTCR1_CAPMOD_Set
 2981              	.LVL281:
 891:e:/LiteOS/LiteOS/targets/Cloud_FM33A0XX/GCC/../../../targets/Cloud_FM33A0XX/Drivers\fm33a0xx_btim.c **** 	BTIMx_BTCR1_CAPCLR_Set(BTIMx, para->cap_para.CAPCLR);//捕捉是否需要清零计数器
 2982              		.loc 1 891 0
 2983 0012 296D     		ldr	r1, [r5, #80]
 2984 0014 2000     		movs	r0, r4
 2985 0016 FFF7FEFF 		bl	BTIMx_BTCR1_CAPCLR_Set
 2986              	.LVL282:
 892:e:/LiteOS/LiteOS/targets/Cloud_FM33A0XX/GCC/../../../targets/Cloud_FM33A0XX/Drivers\fm33a0xx_btim.c **** 	BTIMx_BTCR1_CAPONCE_Set(BTIMx, para->cap_para.CAPONCE);//捕捉是否单次捕捉
 2987              		.loc 1 892 0
 2988 001a E96C     		ldr	r1, [r5, #76]
 2989 001c 2000     		movs	r0, r4
 2990 001e FFF7FEFF 		bl	BTIMx_BTCR1_CAPONCE_Set
 2991              	.LVL283:
 893:e:/LiteOS/LiteOS/targets/Cloud_FM33A0XX/GCC/../../../targets/Cloud_FM33A0XX/Drivers\fm33a0xx_btim.c **** 
 894:e:/LiteOS/LiteOS/targets/Cloud_FM33A0XX/GCC/../../../targets/Cloud_FM33A0XX/Drivers\fm33a0xx_btim.c **** 	//信号选择类
 895:e:/LiteOS/LiteOS/targets/Cloud_FM33A0XX/GCC/../../../targets/Cloud_FM33A0XX/Drivers\fm33a0xx_btim.c **** 	BTIMx_BTCFG1_RTCSEL1_Set(BTIMx, para->sig_src_para.RTCSEL1);//选择RTCOUT1信号选择
 2992              		.loc 1 895 0
 2993 0022 E969     		ldr	r1, [r5, #28]
 2994 0024 2000     		movs	r0, r4
 2995 0026 FFF7FEFF 		bl	BTIMx_BTCFG1_RTCSEL1_Set
 2996              	.LVL284:
 896:e:/LiteOS/LiteOS/targets/Cloud_FM33A0XX/GCC/../../../targets/Cloud_FM33A0XX/Drivers\fm33a0xx_btim.c **** 	BTIMx_BTCFG1_RTCSEL2_Set(BTIMx, para->sig_src_para.RTCSEL2);//选择RTCOUT2信号选择
 2997              		.loc 1 896 0
 2998 002a 296A     		ldr	r1, [r5, #32]
 2999 002c 2000     		movs	r0, r4
 3000 002e FFF7FEFF 		bl	BTIMx_BTCFG1_RTCSEL2_Set
 3001              	.LVL285:
 897:e:/LiteOS/LiteOS/targets/Cloud_FM33A0XX/GCC/../../../targets/Cloud_FM33A0XX/Drivers\fm33a0xx_btim.c **** 	BTIMx_BTCFG2_INSEL1_Set(BTIMx, para->sig_src_para.INSEL1);//选择内部输入信号1
 3002              		.loc 1 897 0
 3003 0032 696A     		ldr	r1, [r5, #36]
ARM GAS  C:\Users\WANGBI~1\AppData\Local\Temp\cc00eRbQ.s 			page 66


 3004 0034 2000     		movs	r0, r4
 3005 0036 FFF7FEFF 		bl	BTIMx_BTCFG2_INSEL1_Set
 3006              	.LVL286:
 898:e:/LiteOS/LiteOS/targets/Cloud_FM33A0XX/GCC/../../../targets/Cloud_FM33A0XX/Drivers\fm33a0xx_btim.c **** 	BTIMx_BTCFG2_INSEL2_Set(BTIMx, para->sig_src_para.INSEL2);//选择内部输入信号2
 3007              		.loc 1 898 0
 3008 003a A96A     		ldr	r1, [r5, #40]
 3009 003c 2000     		movs	r0, r4
 3010 003e FFF7FEFF 		bl	BTIMx_BTCFG2_INSEL2_Set
 3011              	.LVL287:
 899:e:/LiteOS/LiteOS/targets/Cloud_FM33A0XX/GCC/../../../targets/Cloud_FM33A0XX/Drivers\fm33a0xx_btim.c ****     BTIMx_BTCFG2_EXSEL1_Set(BTIMx, para->sig_src_para.EXSEL1);//选择外部输入信号1
 3012              		.loc 1 899 0
 3013 0042 E96A     		ldr	r1, [r5, #44]
 3014 0044 2000     		movs	r0, r4
 3015 0046 FFF7FEFF 		bl	BTIMx_BTCFG2_EXSEL1_Set
 3016              	.LVL288:
 900:e:/LiteOS/LiteOS/targets/Cloud_FM33A0XX/GCC/../../../targets/Cloud_FM33A0XX/Drivers\fm33a0xx_btim.c ****     BTIMx_BTCFG2_EXSEL2_Set(BTIMx, para->sig_src_para.EXSEL2);//选择外部输入信号2
 3017              		.loc 1 900 0
 3018 004a 296B     		ldr	r1, [r5, #48]
 3019 004c 2000     		movs	r0, r4
 3020 004e FFF7FEFF 		bl	BTIMx_BTCFG2_EXSEL2_Set
 3021              	.LVL289:
 901:e:/LiteOS/LiteOS/targets/Cloud_FM33A0XX/GCC/../../../targets/Cloud_FM33A0XX/Drivers\fm33a0xx_btim.c **** 	
 902:e:/LiteOS/LiteOS/targets/Cloud_FM33A0XX/GCC/../../../targets/Cloud_FM33A0XX/Drivers\fm33a0xx_btim.c **** 	
 903:e:/LiteOS/LiteOS/targets/Cloud_FM33A0XX/GCC/../../../targets/Cloud_FM33A0XX/Drivers\fm33a0xx_btim.c **** 	BTIMx_BTCFG1_GRP1SEL_Set(BTIMx, para->sig_src_para.GRP1SEL);//选择GROUP1信号选择
 3022              		.loc 1 903 0
 3023 0052 696B     		ldr	r1, [r5, #52]
 3024 0054 2000     		movs	r0, r4
 3025 0056 FFF7FEFF 		bl	BTIMx_BTCFG1_GRP1SEL_Set
 3026              	.LVL290:
 904:e:/LiteOS/LiteOS/targets/Cloud_FM33A0XX/GCC/../../../targets/Cloud_FM33A0XX/Drivers\fm33a0xx_btim.c **** 	BTIMx_BTCFG1_GRP2SEL_Set(BTIMx, para->sig_src_para.GRP2SEL);//选择GROUP2信号选择
 3027              		.loc 1 904 0
 3028 005a A96B     		ldr	r1, [r5, #56]
 3029 005c 2000     		movs	r0, r4
 3030 005e FFF7FEFF 		bl	BTIMx_BTCFG1_GRP2SEL_Set
 3031              	.LVL291:
 905:e:/LiteOS/LiteOS/targets/Cloud_FM33A0XX/GCC/../../../targets/Cloud_FM33A0XX/Drivers\fm33a0xx_btim.c **** 	
 906:e:/LiteOS/LiteOS/targets/Cloud_FM33A0XX/GCC/../../../targets/Cloud_FM33A0XX/Drivers\fm33a0xx_btim.c **** 	BTIMx_BTCR2_SIG2SEL_Set(BTIMx, para->sig_src_para.CNTSRC);//选择内部计数源信号
 3032              		.loc 1 906 0
 3033 0062 296C     		ldr	r1, [r5, #64]
 3034 0064 2000     		movs	r0, r4
 3035 0066 FFF7FEFF 		bl	BTIMx_BTCR2_SIG2SEL_Set
 3036              	.LVL292:
 907:e:/LiteOS/LiteOS/targets/Cloud_FM33A0XX/GCC/../../../targets/Cloud_FM33A0XX/Drivers\fm33a0xx_btim.c **** 	BTIMx_BTCR2_SIG1SEL_Set(BTIMx, para->sig_src_para.CAPSRC);//选择内部捕捉源信号
 3037              		.loc 1 907 0
 3038 006a E96B     		ldr	r1, [r5, #60]
 3039 006c 2000     		movs	r0, r4
 3040 006e FFF7FEFF 		bl	BTIMx_BTCR2_SIG1SEL_Set
 3041              	.LVL293:
 908:e:/LiteOS/LiteOS/targets/Cloud_FM33A0XX/GCC/../../../targets/Cloud_FM33A0XX/Drivers\fm33a0xx_btim.c **** 
 909:e:/LiteOS/LiteOS/targets/Cloud_FM33A0XX/GCC/../../../targets/Cloud_FM33A0XX/Drivers\fm33a0xx_btim.c **** 	BTIMx_BTCR2_CNTHSEL_Set(BTIMx, para->sig_src_para.CNTHSEL);//高位计数器计数源选择
 3042              		.loc 1 909 0
 3043 0072 A96C     		ldr	r1, [r5, #72]
 3044 0074 2000     		movs	r0, r4
 3045 0076 FFF7FEFF 		bl	BTIMx_BTCR2_CNTHSEL_Set
 3046              	.LVL294:
 910:e:/LiteOS/LiteOS/targets/Cloud_FM33A0XX/GCC/../../../targets/Cloud_FM33A0XX/Drivers\fm33a0xx_btim.c **** 	BTIMx_BTCR2_SRCSEL_Set(BTIMx, para->sig_src_para.SRCSEL);//选择低位计数器是否长使能
 3047              		.loc 1 910 0
ARM GAS  C:\Users\WANGBI~1\AppData\Local\Temp\cc00eRbQ.s 			page 67


 3048 007a 696C     		ldr	r1, [r5, #68]
 3049 007c 2000     		movs	r0, r4
 3050 007e FFF7FEFF 		bl	BTIMx_BTCR2_SRCSEL_Set
 3051              	.LVL295:
 911:e:/LiteOS/LiteOS/targets/Cloud_FM33A0XX/GCC/../../../targets/Cloud_FM33A0XX/Drivers\fm33a0xx_btim.c **** 
 912:e:/LiteOS/LiteOS/targets/Cloud_FM33A0XX/GCC/../../../targets/Cloud_FM33A0XX/Drivers\fm33a0xx_btim.c **** 	//DIR控制类
 913:e:/LiteOS/LiteOS/targets/Cloud_FM33A0XX/GCC/../../../targets/Cloud_FM33A0XX/Drivers\fm33a0xx_btim.c **** 	BTIMx_BTCR2_DIREN_Setable(BTIMx, para->dir_para.DIREN);//外部dir控制或不使能
 3052              		.loc 1 913 0
 3053 0082 5823     		movs	r3, #88
 3054 0084 E95C     		ldrb	r1, [r5, r3]
 3055 0086 2000     		movs	r0, r4
 3056 0088 FFF7FEFF 		bl	BTIMx_BTCR2_DIREN_Setable
 3057              	.LVL296:
 914:e:/LiteOS/LiteOS/targets/Cloud_FM33A0XX/GCC/../../../targets/Cloud_FM33A0XX/Drivers\fm33a0xx_btim.c **** 	//BTIMx_BTCR2_STDIR_Setable(BTIMx, para->dir_para.STDIR);//内部dir控制信号，这个应该不需要
 915:e:/LiteOS/LiteOS/targets/Cloud_FM33A0XX/GCC/../../../targets/Cloud_FM33A0XX/Drivers\fm33a0xx_btim.c **** 	BTIMx_BTCR2_DIRPO_Set(BTIMx, para->dir_para.DIRPO);//外部输入dir信号极性选择
 3058              		.loc 1 915 0
 3059 008c E96D     		ldr	r1, [r5, #92]
 3060 008e 2000     		movs	r0, r4
 3061 0090 FFF7FEFF 		bl	BTIMx_BTCR2_DIRPO_Set
 3062              	.LVL297:
 916:e:/LiteOS/LiteOS/targets/Cloud_FM33A0XX/GCC/../../../targets/Cloud_FM33A0XX/Drivers\fm33a0xx_btim.c **** 
 917:e:/LiteOS/LiteOS/targets/Cloud_FM33A0XX/GCC/../../../targets/Cloud_FM33A0XX/Drivers\fm33a0xx_btim.c **** 
 918:e:/LiteOS/LiteOS/targets/Cloud_FM33A0XX/GCC/../../../targets/Cloud_FM33A0XX/Drivers\fm33a0xx_btim.c **** 	//控制类参数
 919:e:/LiteOS/LiteOS/targets/Cloud_FM33A0XX/GCC/../../../targets/Cloud_FM33A0XX/Drivers\fm33a0xx_btim.c **** 	BTIMx_BTCR1_MODE_Set(BTIMx, para->ctrl_para.MODE);//工作模式，16位捕捉还是8位定时计数
 3063              		.loc 1 919 0
 3064 0094 6969     		ldr	r1, [r5, #20]
 3065 0096 2000     		movs	r0, r4
 3066 0098 FFF7FEFF 		bl	BTIMx_BTCR1_MODE_Set
 3067              	.LVL298:
 920:e:/LiteOS/LiteOS/targets/Cloud_FM33A0XX/GCC/../../../targets/Cloud_FM33A0XX/Drivers\fm33a0xx_btim.c **** 	BTIMx_BTCR1_EDGESEL_Set(BTIMx, para->ctrl_para.EDGESEL);//沿选择，上升沿还是下降沿
 3068              		.loc 1 920 0
 3069 009c A969     		ldr	r1, [r5, #24]
 3070 009e 2000     		movs	r0, r4
 3071 00a0 FFF7FEFF 		bl	BTIMx_BTCR1_EDGESEL_Set
 3072              	.LVL299:
 921:e:/LiteOS/LiteOS/targets/Cloud_FM33A0XX/GCC/../../../targets/Cloud_FM33A0XX/Drivers\fm33a0xx_btim.c **** 	BTIMx_BTPRES_Write(BTIMx, para->ctrl_para.PRESCALE);//选择分频系数
 3073              		.loc 1 921 0
 3074 00a4 2968     		ldr	r1, [r5]
 3075 00a6 2000     		movs	r0, r4
 3076 00a8 FFF7FEFF 		bl	BTIMx_BTPRES_Write
 3077              	.LVL300:
 922:e:/LiteOS/LiteOS/targets/Cloud_FM33A0XX/GCC/../../../targets/Cloud_FM33A0XX/Drivers\fm33a0xx_btim.c **** 
 923:e:/LiteOS/LiteOS/targets/Cloud_FM33A0XX/GCC/../../../targets/Cloud_FM33A0XX/Drivers\fm33a0xx_btim.c **** 	BTIMx_BTPRESET_PRESETH_Set(BTIMx, para->ctrl_para.PRESETH);//高位预加载值
 3078              		.loc 1 923 0
 3079 00ac 6968     		ldr	r1, [r5, #4]
 3080 00ae 2000     		movs	r0, r4
 3081 00b0 FFF7FEFF 		bl	BTIMx_BTPRESET_PRESETH_Set
 3082              	.LVL301:
 924:e:/LiteOS/LiteOS/targets/Cloud_FM33A0XX/GCC/../../../targets/Cloud_FM33A0XX/Drivers\fm33a0xx_btim.c **** 	BTIMx_BTPRESET_PRESETL_Set(BTIMx, para->ctrl_para.PRESETL);//低位预加载值
 3083              		.loc 1 924 0
 3084 00b4 A968     		ldr	r1, [r5, #8]
 3085 00b6 2000     		movs	r0, r4
 3086 00b8 FFF7FEFF 		bl	BTIMx_BTPRESET_PRESETL_Set
 3087              	.LVL302:
 925:e:/LiteOS/LiteOS/targets/Cloud_FM33A0XX/GCC/../../../targets/Cloud_FM33A0XX/Drivers\fm33a0xx_btim.c **** 
 926:e:/LiteOS/LiteOS/targets/Cloud_FM33A0XX/GCC/../../../targets/Cloud_FM33A0XX/Drivers\fm33a0xx_btim.c **** 	BTIMx_BTLOADH_Write(BTIMx, para->ctrl_para.LOADH);//高位加载值
 3088              		.loc 1 926 0
ARM GAS  C:\Users\WANGBI~1\AppData\Local\Temp\cc00eRbQ.s 			page 68


 3089 00bc 2969     		ldr	r1, [r5, #16]
 3090 00be 2000     		movs	r0, r4
 3091 00c0 FFF7FEFF 		bl	BTIMx_BTLOADH_Write
 3092              	.LVL303:
 927:e:/LiteOS/LiteOS/targets/Cloud_FM33A0XX/GCC/../../../targets/Cloud_FM33A0XX/Drivers\fm33a0xx_btim.c **** 	BTIMx_BTLOADL_Write(BTIMx, para->ctrl_para.LOADL);//低位加载值
 3093              		.loc 1 927 0
 3094 00c4 E968     		ldr	r1, [r5, #12]
 3095 00c6 2000     		movs	r0, r4
 3096 00c8 FFF7FEFF 		bl	BTIMx_BTLOADL_Write
 3097              	.LVL304:
 928:e:/LiteOS/LiteOS/targets/Cloud_FM33A0XX/GCC/../../../targets/Cloud_FM33A0XX/Drivers\fm33a0xx_btim.c **** 	
 929:e:/LiteOS/LiteOS/targets/Cloud_FM33A0XX/GCC/../../../targets/Cloud_FM33A0XX/Drivers\fm33a0xx_btim.c **** 	//输出类参数
 930:e:/LiteOS/LiteOS/targets/Cloud_FM33A0XX/GCC/../../../targets/Cloud_FM33A0XX/Drivers\fm33a0xx_btim.c **** 	BTIMx_BTOCR_OUTMOD_Set(BTIMx, para->out_para.OUTMOD);//输出模式选择
 3098              		.loc 1 930 0
 3099 00cc E96E     		ldr	r1, [r5, #108]
 3100 00ce 2000     		movs	r0, r4
 3101 00d0 FFF7FEFF 		bl	BTIMx_BTOCR_OUTMOD_Set
 3102              	.LVL305:
 931:e:/LiteOS/LiteOS/targets/Cloud_FM33A0XX/GCC/../../../targets/Cloud_FM33A0XX/Drivers\fm33a0xx_btim.c **** 	BTIMx_BTOCR_OUTSEL_Set(BTIMx, para->out_para.OUTSEL);//输出信号选择
 3103              		.loc 1 931 0
 3104 00d4 296F     		ldr	r1, [r5, #112]
 3105 00d6 2000     		movs	r0, r4
 3106 00d8 FFF7FEFF 		bl	BTIMx_BTOCR_OUTSEL_Set
 3107              	.LVL306:
 932:e:/LiteOS/LiteOS/targets/Cloud_FM33A0XX/GCC/../../../targets/Cloud_FM33A0XX/Drivers\fm33a0xx_btim.c **** 	BTIMx_BTOUTCNT_Write(BTIMx, para->out_para.OUTCNT);//输出脉冲宽度设置
 3108              		.loc 1 932 0
 3109 00dc 296E     		ldr	r1, [r5, #96]
 3110 00de 2000     		movs	r0, r4
 3111 00e0 FFF7FEFF 		bl	BTIMx_BTOUTCNT_Write
 3112              	.LVL307:
 933:e:/LiteOS/LiteOS/targets/Cloud_FM33A0XX/GCC/../../../targets/Cloud_FM33A0XX/Drivers\fm33a0xx_btim.c **** 	BTIMx_BTOCR_OUTINV_Set(BTIMx, para->out_para.OUTINV);//输出电平反向选择
 3113              		.loc 1 933 0
 3114 00e4 A96E     		ldr	r1, [r5, #104]
 3115 00e6 2000     		movs	r0, r4
 3116 00e8 FFF7FEFF 		bl	BTIMx_BTOCR_OUTINV_Set
 3117              	.LVL308:
 934:e:/LiteOS/LiteOS/targets/Cloud_FM33A0XX/GCC/../../../targets/Cloud_FM33A0XX/Drivers\fm33a0xx_btim.c **** 	
 935:e:/LiteOS/LiteOS/targets/Cloud_FM33A0XX/GCC/../../../targets/Cloud_FM33A0XX/Drivers\fm33a0xx_btim.c **** }
 3118              		.loc 1 935 0
 3119              		@ sp needed
 3120              	.LVL309:
 3121              	.LVL310:
 3122 00ec 70BD     		pop	{r4, r5, r6, pc}
 3123              		.cfi_endproc
 3124              	.LFE133:
 3126 00ee C046     		.text
 3127              	.Letext0:
 3128              		.file 2 "e:\\liteos\\liteos\\targets\\cloud_fm33a0xx\\device\\include\\fm33a0xx.h"
 3129              		.file 3 "d:\\gnu tools arm embedded\\5.4 2016q3\\arm-none-eabi\\include\\machine\\_default_types.h
 3130              		.file 4 "d:\\gnu tools arm embedded\\5.4 2016q3\\arm-none-eabi\\include\\sys\\_stdint.h"
 3131              		.file 5 "e:\\liteos\\liteos\\targets\\cloud_fm33a0xx\\drivers\\fm33A0xx_btim.h"
ARM GAS  C:\Users\WANGBI~1\AppData\Local\Temp\cc00eRbQ.s 			page 69

