ARM GAS  C:\Users\WANGBI~1\AppData\Local\Temp\ccUoabl7.s 			page 1


   1              		.syntax unified
   2              		.cpu cortex-m0plus
   3              		.fpu softvfp
   4              		.eabi_attribute 20, 1
   5              		.eabi_attribute 21, 1
   6              		.eabi_attribute 23, 3
   7              		.eabi_attribute 24, 1
   8              		.eabi_attribute 25, 1
   9              		.eabi_attribute 26, 1
  10              		.eabi_attribute 30, 1
  11              		.eabi_attribute 34, 0
  12              		.eabi_attribute 18, 4
  13              		.thumb
  14              		.syntax unified
  15              		.file	"fm33a0xx_gpio.c"
  16              		.text
  17              	.Ltext0:
  18              		.cfi_sections	.debug_frame
  19              		.section	.text.GPIOx_DO_Write,"ax",%progbits
  20              		.align	2
  21              		.global	GPIOx_DO_Write
  22              		.code	16
  23              		.thumb_func
  25              	GPIOx_DO_Write:
  26              	.LFB36:
  27              		.file 1 "e:/LiteOS/LiteOS/targets/Cloud_FM33A0XX/GCC/../../../targets/Cloud_FM33A0XX/Drivers/fm33a
   1:e:/LiteOS/LiteOS/targets/Cloud_FM33A0XX/GCC/../../../targets/Cloud_FM33A0XX/Drivers\fm33a0xx_gpio.c **** /**
   2:e:/LiteOS/LiteOS/targets/Cloud_FM33A0XX/GCC/../../../targets/Cloud_FM33A0XX/Drivers\fm33a0xx_gpio.c ****   ******************************************************************************
   3:e:/LiteOS/LiteOS/targets/Cloud_FM33A0XX/GCC/../../../targets/Cloud_FM33A0XX/Drivers\fm33a0xx_gpio.c ****   * @file    FM33a0xx_gpio.c
   4:e:/LiteOS/LiteOS/targets/Cloud_FM33A0XX/GCC/../../../targets/Cloud_FM33A0XX/Drivers\fm33a0xx_gpio.c ****   * @author  FM33a0xx Application Team
   5:e:/LiteOS/LiteOS/targets/Cloud_FM33A0XX/GCC/../../../targets/Cloud_FM33A0XX/Drivers\fm33a0xx_gpio.c ****   * @version V2.0.1
   6:e:/LiteOS/LiteOS/targets/Cloud_FM33A0XX/GCC/../../../targets/Cloud_FM33A0XX/Drivers\fm33a0xx_gpio.c ****   * @date    
   7:e:/LiteOS/LiteOS/targets/Cloud_FM33A0XX/GCC/../../../targets/Cloud_FM33A0XX/Drivers\fm33a0xx_gpio.c ****   * @brief   This file provides firmware functions to manage the following 
   8:e:/LiteOS/LiteOS/targets/Cloud_FM33A0XX/GCC/../../../targets/Cloud_FM33A0XX/Drivers\fm33a0xx_gpio.c ****   *
   9:e:/LiteOS/LiteOS/targets/Cloud_FM33A0XX/GCC/../../../targets/Cloud_FM33A0XX/Drivers\fm33a0xx_gpio.c **** */
  10:e:/LiteOS/LiteOS/targets/Cloud_FM33A0XX/GCC/../../../targets/Cloud_FM33A0XX/Drivers\fm33a0xx_gpio.c **** 
  11:e:/LiteOS/LiteOS/targets/Cloud_FM33A0XX/GCC/../../../targets/Cloud_FM33A0XX/Drivers\fm33a0xx_gpio.c **** /* Includes ------------------------------------------------------------------*/
  12:e:/LiteOS/LiteOS/targets/Cloud_FM33A0XX/GCC/../../../targets/Cloud_FM33A0XX/Drivers\fm33a0xx_gpio.c **** #include "fm33A0xx_gpio.h" 
  13:e:/LiteOS/LiteOS/targets/Cloud_FM33A0XX/GCC/../../../targets/Cloud_FM33A0XX/Drivers\fm33a0xx_gpio.c **** #include "fm33a0xx_conf.h"	
  14:e:/LiteOS/LiteOS/targets/Cloud_FM33A0XX/GCC/../../../targets/Cloud_FM33A0XX/Drivers\fm33a0xx_gpio.c **** /** @addtogroup fm33a0xx_StdPeriph_Driver
  15:e:/LiteOS/LiteOS/targets/Cloud_FM33A0XX/GCC/../../../targets/Cloud_FM33A0XX/Drivers\fm33a0xx_gpio.c ****   * @{
  16:e:/LiteOS/LiteOS/targets/Cloud_FM33A0XX/GCC/../../../targets/Cloud_FM33A0XX/Drivers\fm33a0xx_gpio.c ****   */
  17:e:/LiteOS/LiteOS/targets/Cloud_FM33A0XX/GCC/../../../targets/Cloud_FM33A0XX/Drivers\fm33a0xx_gpio.c **** 
  18:e:/LiteOS/LiteOS/targets/Cloud_FM33A0XX/GCC/../../../targets/Cloud_FM33A0XX/Drivers\fm33a0xx_gpio.c **** /** @defgroup GPIO 
  19:e:/LiteOS/LiteOS/targets/Cloud_FM33A0XX/GCC/../../../targets/Cloud_FM33A0XX/Drivers\fm33a0xx_gpio.c ****   * @brief GPIO driver modules
  20:e:/LiteOS/LiteOS/targets/Cloud_FM33A0XX/GCC/../../../targets/Cloud_FM33A0XX/Drivers\fm33a0xx_gpio.c ****   * @{
  21:e:/LiteOS/LiteOS/targets/Cloud_FM33A0XX/GCC/../../../targets/Cloud_FM33A0XX/Drivers\fm33a0xx_gpio.c ****   */ 
  22:e:/LiteOS/LiteOS/targets/Cloud_FM33A0XX/GCC/../../../targets/Cloud_FM33A0XX/Drivers\fm33a0xx_gpio.c **** 
  23:e:/LiteOS/LiteOS/targets/Cloud_FM33A0XX/GCC/../../../targets/Cloud_FM33A0XX/Drivers\fm33a0xx_gpio.c **** /* Private typedef -----------------------------------------------------------*/
  24:e:/LiteOS/LiteOS/targets/Cloud_FM33A0XX/GCC/../../../targets/Cloud_FM33A0XX/Drivers\fm33a0xx_gpio.c **** /* Private define ------------------------------------------------------------*/
  25:e:/LiteOS/LiteOS/targets/Cloud_FM33A0XX/GCC/../../../targets/Cloud_FM33A0XX/Drivers\fm33a0xx_gpio.c **** 
  26:e:/LiteOS/LiteOS/targets/Cloud_FM33A0XX/GCC/../../../targets/Cloud_FM33A0XX/Drivers\fm33a0xx_gpio.c **** /* Private macro -------------------------------------------------------------*/
  27:e:/LiteOS/LiteOS/targets/Cloud_FM33A0XX/GCC/../../../targets/Cloud_FM33A0XX/Drivers\fm33a0xx_gpio.c **** /* Private variables ---------------------------------------------------------*/
  28:e:/LiteOS/LiteOS/targets/Cloud_FM33A0XX/GCC/../../../targets/Cloud_FM33A0XX/Drivers\fm33a0xx_gpio.c **** 
  29:e:/LiteOS/LiteOS/targets/Cloud_FM33A0XX/GCC/../../../targets/Cloud_FM33A0XX/Drivers\fm33a0xx_gpio.c **** 
  30:e:/LiteOS/LiteOS/targets/Cloud_FM33A0XX/GCC/../../../targets/Cloud_FM33A0XX/Drivers\fm33a0xx_gpio.c **** /* Private function prototypes -----------------------------------------------*/
  31:e:/LiteOS/LiteOS/targets/Cloud_FM33A0XX/GCC/../../../targets/Cloud_FM33A0XX/Drivers\fm33a0xx_gpio.c **** /* Private functions ---------------------------------------------------------*/
ARM GAS  C:\Users\WANGBI~1\AppData\Local\Temp\ccUoabl7.s 			page 2


  32:e:/LiteOS/LiteOS/targets/Cloud_FM33A0XX/GCC/../../../targets/Cloud_FM33A0XX/Drivers\fm33a0xx_gpio.c **** 
  33:e:/LiteOS/LiteOS/targets/Cloud_FM33A0XX/GCC/../../../targets/Cloud_FM33A0XX/Drivers\fm33a0xx_gpio.c **** //Code_Start
  34:e:/LiteOS/LiteOS/targets/Cloud_FM33A0XX/GCC/../../../targets/Cloud_FM33A0XX/Drivers\fm33a0xx_gpio.c **** //2018-04-02-13-21-16
  35:e:/LiteOS/LiteOS/targets/Cloud_FM33A0XX/GCC/../../../targets/Cloud_FM33A0XX/Drivers\fm33a0xx_gpio.c **** //FM33A0XX_Driver_Gen_V1.4
  36:e:/LiteOS/LiteOS/targets/Cloud_FM33A0XX/GCC/../../../targets/Cloud_FM33A0XX/Drivers\fm33a0xx_gpio.c **** 
  37:e:/LiteOS/LiteOS/targets/Cloud_FM33A0XX/GCC/../../../targets/Cloud_FM33A0XX/Drivers\fm33a0xx_gpio.c **** /* PortX输出数据寄存器 相关函数 */
  38:e:/LiteOS/LiteOS/targets/Cloud_FM33A0XX/GCC/../../../targets/Cloud_FM33A0XX/Drivers\fm33a0xx_gpio.c **** void GPIOx_DO_Write(GPIOx_Type* GPIOx, uint32_t SetValue)
  39:e:/LiteOS/LiteOS/targets/Cloud_FM33A0XX/GCC/../../../targets/Cloud_FM33A0XX/Drivers\fm33a0xx_gpio.c **** {
  28              		.loc 1 39 0
  29              		.cfi_startproc
  30              		@ args = 0, pretend = 0, frame = 0
  31              		@ frame_needed = 0, uses_anonymous_args = 0
  32              		@ link register save eliminated.
  33              	.LVL0:
  40:e:/LiteOS/LiteOS/targets/Cloud_FM33A0XX/GCC/../../../targets/Cloud_FM33A0XX/Drivers\fm33a0xx_gpio.c **** 	GPIOx->DO = (SetValue & GPIOx_DO_DO_Msk);
  34              		.loc 1 40 0
  35 0000 0904     		lsls	r1, r1, #16
  36              	.LVL1:
  37 0002 090C     		lsrs	r1, r1, #16
  38 0004 0161     		str	r1, [r0, #16]
  41:e:/LiteOS/LiteOS/targets/Cloud_FM33A0XX/GCC/../../../targets/Cloud_FM33A0XX/Drivers\fm33a0xx_gpio.c **** }
  39              		.loc 1 41 0
  40              		@ sp needed
  41 0006 7047     		bx	lr
  42              		.cfi_endproc
  43              	.LFE36:
  45              		.section	.text.GPIOx_DO_Read,"ax",%progbits
  46              		.align	2
  47              		.global	GPIOx_DO_Read
  48              		.code	16
  49              		.thumb_func
  51              	GPIOx_DO_Read:
  52              	.LFB37:
  42:e:/LiteOS/LiteOS/targets/Cloud_FM33A0XX/GCC/../../../targets/Cloud_FM33A0XX/Drivers\fm33a0xx_gpio.c **** 
  43:e:/LiteOS/LiteOS/targets/Cloud_FM33A0XX/GCC/../../../targets/Cloud_FM33A0XX/Drivers\fm33a0xx_gpio.c **** uint32_t GPIOx_DO_Read(GPIOx_Type* GPIOx)
  44:e:/LiteOS/LiteOS/targets/Cloud_FM33A0XX/GCC/../../../targets/Cloud_FM33A0XX/Drivers\fm33a0xx_gpio.c **** {
  53              		.loc 1 44 0
  54              		.cfi_startproc
  55              		@ args = 0, pretend = 0, frame = 0
  56              		@ frame_needed = 0, uses_anonymous_args = 0
  57              		@ link register save eliminated.
  58              	.LVL2:
  45:e:/LiteOS/LiteOS/targets/Cloud_FM33A0XX/GCC/../../../targets/Cloud_FM33A0XX/Drivers\fm33a0xx_gpio.c **** 	return (GPIOx->DO & GPIOx_DO_DO_Msk);
  59              		.loc 1 45 0
  60 0000 0069     		ldr	r0, [r0, #16]
  61              	.LVL3:
  62 0002 0004     		lsls	r0, r0, #16
  63 0004 000C     		lsrs	r0, r0, #16
  46:e:/LiteOS/LiteOS/targets/Cloud_FM33A0XX/GCC/../../../targets/Cloud_FM33A0XX/Drivers\fm33a0xx_gpio.c **** }
  64              		.loc 1 46 0
  65              		@ sp needed
  66 0006 7047     		bx	lr
  67              		.cfi_endproc
  68              	.LFE37:
  70              		.section	.text.GPIOx_DSET_Write,"ax",%progbits
  71              		.align	2
  72              		.global	GPIOx_DSET_Write
ARM GAS  C:\Users\WANGBI~1\AppData\Local\Temp\ccUoabl7.s 			page 3


  73              		.code	16
  74              		.thumb_func
  76              	GPIOx_DSET_Write:
  77              	.LFB38:
  47:e:/LiteOS/LiteOS/targets/Cloud_FM33A0XX/GCC/../../../targets/Cloud_FM33A0XX/Drivers\fm33a0xx_gpio.c **** 
  48:e:/LiteOS/LiteOS/targets/Cloud_FM33A0XX/GCC/../../../targets/Cloud_FM33A0XX/Drivers\fm33a0xx_gpio.c **** /* PortX输出数据置位寄存器 相关函数 */
  49:e:/LiteOS/LiteOS/targets/Cloud_FM33A0XX/GCC/../../../targets/Cloud_FM33A0XX/Drivers\fm33a0xx_gpio.c **** void GPIOx_DSET_Write(GPIOx_Type* GPIOx, uint32_t SetValue)
  50:e:/LiteOS/LiteOS/targets/Cloud_FM33A0XX/GCC/../../../targets/Cloud_FM33A0XX/Drivers\fm33a0xx_gpio.c **** {
  78              		.loc 1 50 0
  79              		.cfi_startproc
  80              		@ args = 0, pretend = 0, frame = 0
  81              		@ frame_needed = 0, uses_anonymous_args = 0
  82              		@ link register save eliminated.
  83              	.LVL4:
  51:e:/LiteOS/LiteOS/targets/Cloud_FM33A0XX/GCC/../../../targets/Cloud_FM33A0XX/Drivers\fm33a0xx_gpio.c **** 	GPIOx->DSET = (SetValue & GPIOx_DSET_DSET_Msk);
  84              		.loc 1 51 0
  85 0000 0904     		lsls	r1, r1, #16
  86              	.LVL5:
  87 0002 090C     		lsrs	r1, r1, #16
  88 0004 4161     		str	r1, [r0, #20]
  52:e:/LiteOS/LiteOS/targets/Cloud_FM33A0XX/GCC/../../../targets/Cloud_FM33A0XX/Drivers\fm33a0xx_gpio.c **** }
  89              		.loc 1 52 0
  90              		@ sp needed
  91 0006 7047     		bx	lr
  92              		.cfi_endproc
  93              	.LFE38:
  95              		.section	.text.GPIOx_DRESET_Write,"ax",%progbits
  96              		.align	2
  97              		.global	GPIOx_DRESET_Write
  98              		.code	16
  99              		.thumb_func
 101              	GPIOx_DRESET_Write:
 102              	.LFB39:
  53:e:/LiteOS/LiteOS/targets/Cloud_FM33A0XX/GCC/../../../targets/Cloud_FM33A0XX/Drivers\fm33a0xx_gpio.c **** 
  54:e:/LiteOS/LiteOS/targets/Cloud_FM33A0XX/GCC/../../../targets/Cloud_FM33A0XX/Drivers\fm33a0xx_gpio.c **** /* PortX输出数据复位寄存器 相关函数 */
  55:e:/LiteOS/LiteOS/targets/Cloud_FM33A0XX/GCC/../../../targets/Cloud_FM33A0XX/Drivers\fm33a0xx_gpio.c **** void GPIOx_DRESET_Write(GPIOx_Type* GPIOx, uint32_t SetValue)
  56:e:/LiteOS/LiteOS/targets/Cloud_FM33A0XX/GCC/../../../targets/Cloud_FM33A0XX/Drivers\fm33a0xx_gpio.c **** {
 103              		.loc 1 56 0
 104              		.cfi_startproc
 105              		@ args = 0, pretend = 0, frame = 0
 106              		@ frame_needed = 0, uses_anonymous_args = 0
 107              		@ link register save eliminated.
 108              	.LVL6:
  57:e:/LiteOS/LiteOS/targets/Cloud_FM33A0XX/GCC/../../../targets/Cloud_FM33A0XX/Drivers\fm33a0xx_gpio.c **** 	GPIOx->DRESET = (SetValue & GPIOx_DRESET_DRESET_Msk);
 109              		.loc 1 57 0
 110 0000 0904     		lsls	r1, r1, #16
 111              	.LVL7:
 112 0002 090C     		lsrs	r1, r1, #16
 113 0004 8161     		str	r1, [r0, #24]
  58:e:/LiteOS/LiteOS/targets/Cloud_FM33A0XX/GCC/../../../targets/Cloud_FM33A0XX/Drivers\fm33a0xx_gpio.c **** }
 114              		.loc 1 58 0
 115              		@ sp needed
 116 0006 7047     		bx	lr
 117              		.cfi_endproc
 118              	.LFE39:
 120              		.section	.text.GPIOx_DIN_Read,"ax",%progbits
 121              		.align	2
ARM GAS  C:\Users\WANGBI~1\AppData\Local\Temp\ccUoabl7.s 			page 4


 122              		.global	GPIOx_DIN_Read
 123              		.code	16
 124              		.thumb_func
 126              	GPIOx_DIN_Read:
 127              	.LFB40:
  59:e:/LiteOS/LiteOS/targets/Cloud_FM33A0XX/GCC/../../../targets/Cloud_FM33A0XX/Drivers\fm33a0xx_gpio.c **** 
  60:e:/LiteOS/LiteOS/targets/Cloud_FM33A0XX/GCC/../../../targets/Cloud_FM33A0XX/Drivers\fm33a0xx_gpio.c **** /* PortX输入数据寄存器 相关函数 */
  61:e:/LiteOS/LiteOS/targets/Cloud_FM33A0XX/GCC/../../../targets/Cloud_FM33A0XX/Drivers\fm33a0xx_gpio.c **** uint32_t GPIOx_DIN_Read(GPIOx_Type* GPIOx)
  62:e:/LiteOS/LiteOS/targets/Cloud_FM33A0XX/GCC/../../../targets/Cloud_FM33A0XX/Drivers\fm33a0xx_gpio.c **** {
 128              		.loc 1 62 0
 129              		.cfi_startproc
 130              		@ args = 0, pretend = 0, frame = 0
 131              		@ frame_needed = 0, uses_anonymous_args = 0
 132              		@ link register save eliminated.
 133              	.LVL8:
  63:e:/LiteOS/LiteOS/targets/Cloud_FM33A0XX/GCC/../../../targets/Cloud_FM33A0XX/Drivers\fm33a0xx_gpio.c **** 	return (GPIOx->DIN & GPIOx_DIN_DIN_Msk);
 134              		.loc 1 63 0
 135 0000 C069     		ldr	r0, [r0, #28]
 136              	.LVL9:
 137 0002 0004     		lsls	r0, r0, #16
 138 0004 000C     		lsrs	r0, r0, #16
  64:e:/LiteOS/LiteOS/targets/Cloud_FM33A0XX/GCC/../../../targets/Cloud_FM33A0XX/Drivers\fm33a0xx_gpio.c **** }
 139              		.loc 1 64 0
 140              		@ sp needed
 141 0006 7047     		bx	lr
 142              		.cfi_endproc
 143              	.LFE40:
 145              		.section	.text.GPIO_FOUTSEL_FOUTSEL_Set,"ax",%progbits
 146              		.align	2
 147              		.global	GPIO_FOUTSEL_FOUTSEL_Set
 148              		.code	16
 149              		.thumb_func
 151              	GPIO_FOUTSEL_FOUTSEL_Set:
 152              	.LFB41:
  65:e:/LiteOS/LiteOS/targets/Cloud_FM33A0XX/GCC/../../../targets/Cloud_FM33A0XX/Drivers\fm33a0xx_gpio.c **** 
  66:e:/LiteOS/LiteOS/targets/Cloud_FM33A0XX/GCC/../../../targets/Cloud_FM33A0XX/Drivers\fm33a0xx_gpio.c **** /* FOUT输出频率选择信号 相关函数 */
  67:e:/LiteOS/LiteOS/targets/Cloud_FM33A0XX/GCC/../../../targets/Cloud_FM33A0XX/Drivers\fm33a0xx_gpio.c **** void GPIO_FOUTSEL_FOUTSEL_Set(uint32_t SetValue)
  68:e:/LiteOS/LiteOS/targets/Cloud_FM33A0XX/GCC/../../../targets/Cloud_FM33A0XX/Drivers\fm33a0xx_gpio.c **** {
 153              		.loc 1 68 0
 154              		.cfi_startproc
 155              		@ args = 0, pretend = 0, frame = 0
 156              		@ frame_needed = 0, uses_anonymous_args = 0
 157              		@ link register save eliminated.
 158              	.LVL10:
  69:e:/LiteOS/LiteOS/targets/Cloud_FM33A0XX/GCC/../../../targets/Cloud_FM33A0XX/Drivers\fm33a0xx_gpio.c **** 	uint32_t tmpreg;
  70:e:/LiteOS/LiteOS/targets/Cloud_FM33A0XX/GCC/../../../targets/Cloud_FM33A0XX/Drivers\fm33a0xx_gpio.c **** 	tmpreg = GPIO->FOUTSEL;
 159              		.loc 1 70 0
 160 0000 034A     		ldr	r2, .L7
 161 0002 9369     		ldr	r3, [r2, #24]
 162              	.LVL11:
  71:e:/LiteOS/LiteOS/targets/Cloud_FM33A0XX/GCC/../../../targets/Cloud_FM33A0XX/Drivers\fm33a0xx_gpio.c **** 	tmpreg &= ~(GPIO_FOUTSEL_FOUTSEL_Msk);
 163              		.loc 1 71 0
 164 0004 0F21     		movs	r1, #15
 165 0006 8B43     		bics	r3, r1
 166              	.LVL12:
  72:e:/LiteOS/LiteOS/targets/Cloud_FM33A0XX/GCC/../../../targets/Cloud_FM33A0XX/Drivers\fm33a0xx_gpio.c **** 	tmpreg |= (SetValue & GPIO_FOUTSEL_FOUTSEL_Msk);
 167              		.loc 1 72 0
ARM GAS  C:\Users\WANGBI~1\AppData\Local\Temp\ccUoabl7.s 			page 5


 168 0008 0840     		ands	r0, r1
 169              	.LVL13:
 170 000a 1843     		orrs	r0, r3
 171              	.LVL14:
  73:e:/LiteOS/LiteOS/targets/Cloud_FM33A0XX/GCC/../../../targets/Cloud_FM33A0XX/Drivers\fm33a0xx_gpio.c **** 	GPIO->FOUTSEL = tmpreg;
 172              		.loc 1 73 0
 173 000c 9061     		str	r0, [r2, #24]
  74:e:/LiteOS/LiteOS/targets/Cloud_FM33A0XX/GCC/../../../targets/Cloud_FM33A0XX/Drivers\fm33a0xx_gpio.c **** }
 174              		.loc 1 74 0
 175              		@ sp needed
 176 000e 7047     		bx	lr
 177              	.L8:
 178              		.align	2
 179              	.L7:
 180 0010 E00C0040 		.word	1073745120
 181              		.cfi_endproc
 182              	.LFE41:
 184              		.section	.text.GPIO_FOUTSEL_FOUTSEL_Get,"ax",%progbits
 185              		.align	2
 186              		.global	GPIO_FOUTSEL_FOUTSEL_Get
 187              		.code	16
 188              		.thumb_func
 190              	GPIO_FOUTSEL_FOUTSEL_Get:
 191              	.LFB42:
  75:e:/LiteOS/LiteOS/targets/Cloud_FM33A0XX/GCC/../../../targets/Cloud_FM33A0XX/Drivers\fm33a0xx_gpio.c **** 
  76:e:/LiteOS/LiteOS/targets/Cloud_FM33A0XX/GCC/../../../targets/Cloud_FM33A0XX/Drivers\fm33a0xx_gpio.c **** uint32_t GPIO_FOUTSEL_FOUTSEL_Get(void)
  77:e:/LiteOS/LiteOS/targets/Cloud_FM33A0XX/GCC/../../../targets/Cloud_FM33A0XX/Drivers\fm33a0xx_gpio.c **** {
 192              		.loc 1 77 0
 193              		.cfi_startproc
 194              		@ args = 0, pretend = 0, frame = 0
 195              		@ frame_needed = 0, uses_anonymous_args = 0
 196              		@ link register save eliminated.
  78:e:/LiteOS/LiteOS/targets/Cloud_FM33A0XX/GCC/../../../targets/Cloud_FM33A0XX/Drivers\fm33a0xx_gpio.c **** 	return (GPIO->FOUTSEL & GPIO_FOUTSEL_FOUTSEL_Msk);
 197              		.loc 1 78 0
 198 0000 024B     		ldr	r3, .L10
 199 0002 9B69     		ldr	r3, [r3, #24]
 200 0004 0F20     		movs	r0, #15
 201 0006 1840     		ands	r0, r3
  79:e:/LiteOS/LiteOS/targets/Cloud_FM33A0XX/GCC/../../../targets/Cloud_FM33A0XX/Drivers\fm33a0xx_gpio.c **** }
 202              		.loc 1 79 0
 203              		@ sp needed
 204 0008 7047     		bx	lr
 205              	.L11:
 206 000a C046     		.align	2
 207              	.L10:
 208 000c E00C0040 		.word	1073745120
 209              		.cfi_endproc
 210              	.LFE42:
 212              		.section	.text.GPIO_HDSEL_PG6HDEN_Setable,"ax",%progbits
 213              		.align	2
 214              		.global	GPIO_HDSEL_PG6HDEN_Setable
 215              		.code	16
 216              		.thumb_func
 218              	GPIO_HDSEL_PG6HDEN_Setable:
 219              	.LFB43:
  80:e:/LiteOS/LiteOS/targets/Cloud_FM33A0XX/GCC/../../../targets/Cloud_FM33A0XX/Drivers\fm33a0xx_gpio.c **** 
  81:e:/LiteOS/LiteOS/targets/Cloud_FM33A0XX/GCC/../../../targets/Cloud_FM33A0XX/Drivers\fm33a0xx_gpio.c **** /* PG6强驱动使能 相关函数 */
ARM GAS  C:\Users\WANGBI~1\AppData\Local\Temp\ccUoabl7.s 			page 6


  82:e:/LiteOS/LiteOS/targets/Cloud_FM33A0XX/GCC/../../../targets/Cloud_FM33A0XX/Drivers\fm33a0xx_gpio.c **** void GPIO_HDSEL_PG6HDEN_Setable(FunState NewState)
  83:e:/LiteOS/LiteOS/targets/Cloud_FM33A0XX/GCC/../../../targets/Cloud_FM33A0XX/Drivers\fm33a0xx_gpio.c **** {
 220              		.loc 1 83 0
 221              		.cfi_startproc
 222              		@ args = 0, pretend = 0, frame = 0
 223              		@ frame_needed = 0, uses_anonymous_args = 0
 224              		@ link register save eliminated.
 225              	.LVL15:
  84:e:/LiteOS/LiteOS/targets/Cloud_FM33A0XX/GCC/../../../targets/Cloud_FM33A0XX/Drivers\fm33a0xx_gpio.c **** 	if (NewState == ENABLE)
 226              		.loc 1 84 0
 227 0000 0128     		cmp	r0, #1
 228 0002 05D1     		bne	.L13
  85:e:/LiteOS/LiteOS/targets/Cloud_FM33A0XX/GCC/../../../targets/Cloud_FM33A0XX/Drivers\fm33a0xx_gpio.c **** 	{
  86:e:/LiteOS/LiteOS/targets/Cloud_FM33A0XX/GCC/../../../targets/Cloud_FM33A0XX/Drivers\fm33a0xx_gpio.c **** 		GPIO->HDSEL |= (GPIO_HDSEL_PG6HDEN_Msk);
 229              		.loc 1 86 0
 230 0004 054A     		ldr	r2, .L15
 231 0006 D169     		ldr	r1, [r2, #28]
 232 0008 0223     		movs	r3, #2
 233 000a 0B43     		orrs	r3, r1
 234 000c D361     		str	r3, [r2, #28]
 235 000e 04E0     		b	.L12
 236              	.L13:
  87:e:/LiteOS/LiteOS/targets/Cloud_FM33A0XX/GCC/../../../targets/Cloud_FM33A0XX/Drivers\fm33a0xx_gpio.c **** 	}
  88:e:/LiteOS/LiteOS/targets/Cloud_FM33A0XX/GCC/../../../targets/Cloud_FM33A0XX/Drivers\fm33a0xx_gpio.c **** 	else
  89:e:/LiteOS/LiteOS/targets/Cloud_FM33A0XX/GCC/../../../targets/Cloud_FM33A0XX/Drivers\fm33a0xx_gpio.c **** 	{
  90:e:/LiteOS/LiteOS/targets/Cloud_FM33A0XX/GCC/../../../targets/Cloud_FM33A0XX/Drivers\fm33a0xx_gpio.c **** 		GPIO->HDSEL &= ~(GPIO_HDSEL_PG6HDEN_Msk);
 237              		.loc 1 90 0
 238 0010 024A     		ldr	r2, .L15
 239 0012 D369     		ldr	r3, [r2, #28]
 240 0014 0221     		movs	r1, #2
 241 0016 8B43     		bics	r3, r1
 242 0018 D361     		str	r3, [r2, #28]
 243              	.L12:
  91:e:/LiteOS/LiteOS/targets/Cloud_FM33A0XX/GCC/../../../targets/Cloud_FM33A0XX/Drivers\fm33a0xx_gpio.c **** 	}
  92:e:/LiteOS/LiteOS/targets/Cloud_FM33A0XX/GCC/../../../targets/Cloud_FM33A0XX/Drivers\fm33a0xx_gpio.c **** }
 244              		.loc 1 92 0
 245              		@ sp needed
 246 001a 7047     		bx	lr
 247              	.L16:
 248              		.align	2
 249              	.L15:
 250 001c E00C0040 		.word	1073745120
 251              		.cfi_endproc
 252              	.LFE43:
 254              		.section	.text.GPIO_HDSEL_PG6HDEN_Getable,"ax",%progbits
 255              		.align	2
 256              		.global	GPIO_HDSEL_PG6HDEN_Getable
 257              		.code	16
 258              		.thumb_func
 260              	GPIO_HDSEL_PG6HDEN_Getable:
 261              	.LFB44:
  93:e:/LiteOS/LiteOS/targets/Cloud_FM33A0XX/GCC/../../../targets/Cloud_FM33A0XX/Drivers\fm33a0xx_gpio.c **** 
  94:e:/LiteOS/LiteOS/targets/Cloud_FM33A0XX/GCC/../../../targets/Cloud_FM33A0XX/Drivers\fm33a0xx_gpio.c **** FunState GPIO_HDSEL_PG6HDEN_Getable(void)
  95:e:/LiteOS/LiteOS/targets/Cloud_FM33A0XX/GCC/../../../targets/Cloud_FM33A0XX/Drivers\fm33a0xx_gpio.c **** {
 262              		.loc 1 95 0
 263              		.cfi_startproc
 264              		@ args = 0, pretend = 0, frame = 0
ARM GAS  C:\Users\WANGBI~1\AppData\Local\Temp\ccUoabl7.s 			page 7


 265              		@ frame_needed = 0, uses_anonymous_args = 0
 266              		@ link register save eliminated.
  96:e:/LiteOS/LiteOS/targets/Cloud_FM33A0XX/GCC/../../../targets/Cloud_FM33A0XX/Drivers\fm33a0xx_gpio.c **** 	if (GPIO->HDSEL & (GPIO_HDSEL_PG6HDEN_Msk))
 267              		.loc 1 96 0
 268 0000 034B     		ldr	r3, .L20
 269 0002 DB69     		ldr	r3, [r3, #28]
 270 0004 9B07     		lsls	r3, r3, #30
 271 0006 01D5     		bpl	.L19
  97:e:/LiteOS/LiteOS/targets/Cloud_FM33A0XX/GCC/../../../targets/Cloud_FM33A0XX/Drivers\fm33a0xx_gpio.c **** 	{
  98:e:/LiteOS/LiteOS/targets/Cloud_FM33A0XX/GCC/../../../targets/Cloud_FM33A0XX/Drivers\fm33a0xx_gpio.c **** 		return ENABLE;
 272              		.loc 1 98 0
 273 0008 0120     		movs	r0, #1
 274 000a 00E0     		b	.L18
 275              	.L19:
  99:e:/LiteOS/LiteOS/targets/Cloud_FM33A0XX/GCC/../../../targets/Cloud_FM33A0XX/Drivers\fm33a0xx_gpio.c **** 	}
 100:e:/LiteOS/LiteOS/targets/Cloud_FM33A0XX/GCC/../../../targets/Cloud_FM33A0XX/Drivers\fm33a0xx_gpio.c **** 	else
 101:e:/LiteOS/LiteOS/targets/Cloud_FM33A0XX/GCC/../../../targets/Cloud_FM33A0XX/Drivers\fm33a0xx_gpio.c **** 	{
 102:e:/LiteOS/LiteOS/targets/Cloud_FM33A0XX/GCC/../../../targets/Cloud_FM33A0XX/Drivers\fm33a0xx_gpio.c **** 		return DISABLE;
 276              		.loc 1 102 0
 277 000c 0020     		movs	r0, #0
 278              	.L18:
 103:e:/LiteOS/LiteOS/targets/Cloud_FM33A0XX/GCC/../../../targets/Cloud_FM33A0XX/Drivers\fm33a0xx_gpio.c **** 	}
 104:e:/LiteOS/LiteOS/targets/Cloud_FM33A0XX/GCC/../../../targets/Cloud_FM33A0XX/Drivers\fm33a0xx_gpio.c **** }
 279              		.loc 1 104 0
 280              		@ sp needed
 281 000e 7047     		bx	lr
 282              	.L21:
 283              		.align	2
 284              	.L20:
 285 0010 E00C0040 		.word	1073745120
 286              		.cfi_endproc
 287              	.LFE44:
 289              		.section	.text.GPIO_HDSEL_PE2HDEN_Setable,"ax",%progbits
 290              		.align	2
 291              		.global	GPIO_HDSEL_PE2HDEN_Setable
 292              		.code	16
 293              		.thumb_func
 295              	GPIO_HDSEL_PE2HDEN_Setable:
 296              	.LFB45:
 105:e:/LiteOS/LiteOS/targets/Cloud_FM33A0XX/GCC/../../../targets/Cloud_FM33A0XX/Drivers\fm33a0xx_gpio.c **** 
 106:e:/LiteOS/LiteOS/targets/Cloud_FM33A0XX/GCC/../../../targets/Cloud_FM33A0XX/Drivers\fm33a0xx_gpio.c **** /* PE2强驱动使能 相关函数 */
 107:e:/LiteOS/LiteOS/targets/Cloud_FM33A0XX/GCC/../../../targets/Cloud_FM33A0XX/Drivers\fm33a0xx_gpio.c **** void GPIO_HDSEL_PE2HDEN_Setable(FunState NewState)
 108:e:/LiteOS/LiteOS/targets/Cloud_FM33A0XX/GCC/../../../targets/Cloud_FM33A0XX/Drivers\fm33a0xx_gpio.c **** {
 297              		.loc 1 108 0
 298              		.cfi_startproc
 299              		@ args = 0, pretend = 0, frame = 0
 300              		@ frame_needed = 0, uses_anonymous_args = 0
 301              		@ link register save eliminated.
 302              	.LVL16:
 109:e:/LiteOS/LiteOS/targets/Cloud_FM33A0XX/GCC/../../../targets/Cloud_FM33A0XX/Drivers\fm33a0xx_gpio.c **** 	if (NewState == ENABLE)
 303              		.loc 1 109 0
 304 0000 0128     		cmp	r0, #1
 305 0002 05D1     		bne	.L23
 110:e:/LiteOS/LiteOS/targets/Cloud_FM33A0XX/GCC/../../../targets/Cloud_FM33A0XX/Drivers\fm33a0xx_gpio.c **** 	{
 111:e:/LiteOS/LiteOS/targets/Cloud_FM33A0XX/GCC/../../../targets/Cloud_FM33A0XX/Drivers\fm33a0xx_gpio.c **** 		GPIO->HDSEL |= (GPIO_HDSEL_PE2HDEN_Msk);
 306              		.loc 1 111 0
 307 0004 054A     		ldr	r2, .L25
ARM GAS  C:\Users\WANGBI~1\AppData\Local\Temp\ccUoabl7.s 			page 8


 308 0006 D169     		ldr	r1, [r2, #28]
 309 0008 0123     		movs	r3, #1
 310 000a 0B43     		orrs	r3, r1
 311 000c D361     		str	r3, [r2, #28]
 312 000e 04E0     		b	.L22
 313              	.L23:
 112:e:/LiteOS/LiteOS/targets/Cloud_FM33A0XX/GCC/../../../targets/Cloud_FM33A0XX/Drivers\fm33a0xx_gpio.c **** 	}
 113:e:/LiteOS/LiteOS/targets/Cloud_FM33A0XX/GCC/../../../targets/Cloud_FM33A0XX/Drivers\fm33a0xx_gpio.c **** 	else
 114:e:/LiteOS/LiteOS/targets/Cloud_FM33A0XX/GCC/../../../targets/Cloud_FM33A0XX/Drivers\fm33a0xx_gpio.c **** 	{
 115:e:/LiteOS/LiteOS/targets/Cloud_FM33A0XX/GCC/../../../targets/Cloud_FM33A0XX/Drivers\fm33a0xx_gpio.c **** 		GPIO->HDSEL &= ~(GPIO_HDSEL_PE2HDEN_Msk);
 314              		.loc 1 115 0
 315 0010 024A     		ldr	r2, .L25
 316 0012 D369     		ldr	r3, [r2, #28]
 317 0014 0121     		movs	r1, #1
 318 0016 8B43     		bics	r3, r1
 319 0018 D361     		str	r3, [r2, #28]
 320              	.L22:
 116:e:/LiteOS/LiteOS/targets/Cloud_FM33A0XX/GCC/../../../targets/Cloud_FM33A0XX/Drivers\fm33a0xx_gpio.c **** 	}
 117:e:/LiteOS/LiteOS/targets/Cloud_FM33A0XX/GCC/../../../targets/Cloud_FM33A0XX/Drivers\fm33a0xx_gpio.c **** }
 321              		.loc 1 117 0
 322              		@ sp needed
 323 001a 7047     		bx	lr
 324              	.L26:
 325              		.align	2
 326              	.L25:
 327 001c E00C0040 		.word	1073745120
 328              		.cfi_endproc
 329              	.LFE45:
 331              		.section	.text.GPIO_HDSEL_PE2HDEN_Getable,"ax",%progbits
 332              		.align	2
 333              		.global	GPIO_HDSEL_PE2HDEN_Getable
 334              		.code	16
 335              		.thumb_func
 337              	GPIO_HDSEL_PE2HDEN_Getable:
 338              	.LFB46:
 118:e:/LiteOS/LiteOS/targets/Cloud_FM33A0XX/GCC/../../../targets/Cloud_FM33A0XX/Drivers\fm33a0xx_gpio.c **** 
 119:e:/LiteOS/LiteOS/targets/Cloud_FM33A0XX/GCC/../../../targets/Cloud_FM33A0XX/Drivers\fm33a0xx_gpio.c **** FunState GPIO_HDSEL_PE2HDEN_Getable(void)
 120:e:/LiteOS/LiteOS/targets/Cloud_FM33A0XX/GCC/../../../targets/Cloud_FM33A0XX/Drivers\fm33a0xx_gpio.c **** {
 339              		.loc 1 120 0
 340              		.cfi_startproc
 341              		@ args = 0, pretend = 0, frame = 0
 342              		@ frame_needed = 0, uses_anonymous_args = 0
 343              		@ link register save eliminated.
 121:e:/LiteOS/LiteOS/targets/Cloud_FM33A0XX/GCC/../../../targets/Cloud_FM33A0XX/Drivers\fm33a0xx_gpio.c **** 	if (GPIO->HDSEL & (GPIO_HDSEL_PE2HDEN_Msk))
 344              		.loc 1 121 0
 345 0000 034B     		ldr	r3, .L30
 346 0002 DB69     		ldr	r3, [r3, #28]
 347 0004 DB07     		lsls	r3, r3, #31
 348 0006 01D5     		bpl	.L29
 122:e:/LiteOS/LiteOS/targets/Cloud_FM33A0XX/GCC/../../../targets/Cloud_FM33A0XX/Drivers\fm33a0xx_gpio.c **** 	{
 123:e:/LiteOS/LiteOS/targets/Cloud_FM33A0XX/GCC/../../../targets/Cloud_FM33A0XX/Drivers\fm33a0xx_gpio.c **** 		return ENABLE;
 349              		.loc 1 123 0
 350 0008 0120     		movs	r0, #1
 351 000a 00E0     		b	.L28
 352              	.L29:
 124:e:/LiteOS/LiteOS/targets/Cloud_FM33A0XX/GCC/../../../targets/Cloud_FM33A0XX/Drivers\fm33a0xx_gpio.c **** 	}
 125:e:/LiteOS/LiteOS/targets/Cloud_FM33A0XX/GCC/../../../targets/Cloud_FM33A0XX/Drivers\fm33a0xx_gpio.c **** 	else
ARM GAS  C:\Users\WANGBI~1\AppData\Local\Temp\ccUoabl7.s 			page 9


 126:e:/LiteOS/LiteOS/targets/Cloud_FM33A0XX/GCC/../../../targets/Cloud_FM33A0XX/Drivers\fm33a0xx_gpio.c **** 	{
 127:e:/LiteOS/LiteOS/targets/Cloud_FM33A0XX/GCC/../../../targets/Cloud_FM33A0XX/Drivers\fm33a0xx_gpio.c **** 		return DISABLE;
 353              		.loc 1 127 0
 354 000c 0020     		movs	r0, #0
 355              	.L28:
 128:e:/LiteOS/LiteOS/targets/Cloud_FM33A0XX/GCC/../../../targets/Cloud_FM33A0XX/Drivers\fm33a0xx_gpio.c **** 	}
 129:e:/LiteOS/LiteOS/targets/Cloud_FM33A0XX/GCC/../../../targets/Cloud_FM33A0XX/Drivers\fm33a0xx_gpio.c **** }
 356              		.loc 1 129 0
 357              		@ sp needed
 358 000e 7047     		bx	lr
 359              	.L31:
 360              		.align	2
 361              	.L30:
 362 0010 E00C0040 		.word	1073745120
 363              		.cfi_endproc
 364              	.LFE46:
 366              		.section	.text.GPIO_ANASEL_PE4ANS_Set,"ax",%progbits
 367              		.align	2
 368              		.global	GPIO_ANASEL_PE4ANS_Set
 369              		.code	16
 370              		.thumb_func
 372              	GPIO_ANASEL_PE4ANS_Set:
 373              	.LFB47:
 130:e:/LiteOS/LiteOS/targets/Cloud_FM33A0XX/GCC/../../../targets/Cloud_FM33A0XX/Drivers\fm33a0xx_gpio.c **** 
 131:e:/LiteOS/LiteOS/targets/Cloud_FM33A0XX/GCC/../../../targets/Cloud_FM33A0XX/Drivers\fm33a0xx_gpio.c **** /* PE4模拟功能选择 相关函数 */
 132:e:/LiteOS/LiteOS/targets/Cloud_FM33A0XX/GCC/../../../targets/Cloud_FM33A0XX/Drivers\fm33a0xx_gpio.c **** void GPIO_ANASEL_PE4ANS_Set(uint32_t SetValue)
 133:e:/LiteOS/LiteOS/targets/Cloud_FM33A0XX/GCC/../../../targets/Cloud_FM33A0XX/Drivers\fm33a0xx_gpio.c **** {
 374              		.loc 1 133 0
 375              		.cfi_startproc
 376              		@ args = 0, pretend = 0, frame = 0
 377              		@ frame_needed = 0, uses_anonymous_args = 0
 378              		@ link register save eliminated.
 379              	.LVL17:
 134:e:/LiteOS/LiteOS/targets/Cloud_FM33A0XX/GCC/../../../targets/Cloud_FM33A0XX/Drivers\fm33a0xx_gpio.c **** 	uint32_t tmpreg;
 135:e:/LiteOS/LiteOS/targets/Cloud_FM33A0XX/GCC/../../../targets/Cloud_FM33A0XX/Drivers\fm33a0xx_gpio.c **** 	tmpreg = GPIO->ANASEL;
 380              		.loc 1 135 0
 381 0000 034A     		ldr	r2, .L33
 382 0002 136A     		ldr	r3, [r2, #32]
 383              	.LVL18:
 136:e:/LiteOS/LiteOS/targets/Cloud_FM33A0XX/GCC/../../../targets/Cloud_FM33A0XX/Drivers\fm33a0xx_gpio.c **** 	tmpreg &= ~(GPIO_ANASEL_PE4ANS_Msk);
 384              		.loc 1 136 0
 385 0004 2021     		movs	r1, #32
 386 0006 8B43     		bics	r3, r1
 387              	.LVL19:
 137:e:/LiteOS/LiteOS/targets/Cloud_FM33A0XX/GCC/../../../targets/Cloud_FM33A0XX/Drivers\fm33a0xx_gpio.c **** 	tmpreg |= (SetValue & GPIO_ANASEL_PE4ANS_Msk);
 388              		.loc 1 137 0
 389 0008 0840     		ands	r0, r1
 390              	.LVL20:
 391 000a 1843     		orrs	r0, r3
 392              	.LVL21:
 138:e:/LiteOS/LiteOS/targets/Cloud_FM33A0XX/GCC/../../../targets/Cloud_FM33A0XX/Drivers\fm33a0xx_gpio.c **** 	GPIO->ANASEL = tmpreg;
 393              		.loc 1 138 0
 394 000c 1062     		str	r0, [r2, #32]
 139:e:/LiteOS/LiteOS/targets/Cloud_FM33A0XX/GCC/../../../targets/Cloud_FM33A0XX/Drivers\fm33a0xx_gpio.c **** }
 395              		.loc 1 139 0
 396              		@ sp needed
 397 000e 7047     		bx	lr
ARM GAS  C:\Users\WANGBI~1\AppData\Local\Temp\ccUoabl7.s 			page 10


 398              	.L34:
 399              		.align	2
 400              	.L33:
 401 0010 E00C0040 		.word	1073745120
 402              		.cfi_endproc
 403              	.LFE47:
 405              		.section	.text.GPIO_ANASEL_PE4ANS_Get,"ax",%progbits
 406              		.align	2
 407              		.global	GPIO_ANASEL_PE4ANS_Get
 408              		.code	16
 409              		.thumb_func
 411              	GPIO_ANASEL_PE4ANS_Get:
 412              	.LFB48:
 140:e:/LiteOS/LiteOS/targets/Cloud_FM33A0XX/GCC/../../../targets/Cloud_FM33A0XX/Drivers\fm33a0xx_gpio.c **** 
 141:e:/LiteOS/LiteOS/targets/Cloud_FM33A0XX/GCC/../../../targets/Cloud_FM33A0XX/Drivers\fm33a0xx_gpio.c **** uint32_t GPIO_ANASEL_PE4ANS_Get(void)
 142:e:/LiteOS/LiteOS/targets/Cloud_FM33A0XX/GCC/../../../targets/Cloud_FM33A0XX/Drivers\fm33a0xx_gpio.c **** {
 413              		.loc 1 142 0
 414              		.cfi_startproc
 415              		@ args = 0, pretend = 0, frame = 0
 416              		@ frame_needed = 0, uses_anonymous_args = 0
 417              		@ link register save eliminated.
 143:e:/LiteOS/LiteOS/targets/Cloud_FM33A0XX/GCC/../../../targets/Cloud_FM33A0XX/Drivers\fm33a0xx_gpio.c **** 	return (GPIO->ANASEL & GPIO_ANASEL_PE4ANS_Msk);
 418              		.loc 1 143 0
 419 0000 024B     		ldr	r3, .L36
 420 0002 1B6A     		ldr	r3, [r3, #32]
 421 0004 2020     		movs	r0, #32
 422 0006 1840     		ands	r0, r3
 144:e:/LiteOS/LiteOS/targets/Cloud_FM33A0XX/GCC/../../../targets/Cloud_FM33A0XX/Drivers\fm33a0xx_gpio.c **** }
 423              		.loc 1 144 0
 424              		@ sp needed
 425 0008 7047     		bx	lr
 426              	.L37:
 427 000a C046     		.align	2
 428              	.L36:
 429 000c E00C0040 		.word	1073745120
 430              		.cfi_endproc
 431              	.LFE48:
 433              		.section	.text.GPIO_ANASEL_PE3ANS_Set,"ax",%progbits
 434              		.align	2
 435              		.global	GPIO_ANASEL_PE3ANS_Set
 436              		.code	16
 437              		.thumb_func
 439              	GPIO_ANASEL_PE3ANS_Set:
 440              	.LFB49:
 145:e:/LiteOS/LiteOS/targets/Cloud_FM33A0XX/GCC/../../../targets/Cloud_FM33A0XX/Drivers\fm33a0xx_gpio.c **** 
 146:e:/LiteOS/LiteOS/targets/Cloud_FM33A0XX/GCC/../../../targets/Cloud_FM33A0XX/Drivers\fm33a0xx_gpio.c **** /* PE3模拟功能选择 相关函数 */
 147:e:/LiteOS/LiteOS/targets/Cloud_FM33A0XX/GCC/../../../targets/Cloud_FM33A0XX/Drivers\fm33a0xx_gpio.c **** void GPIO_ANASEL_PE3ANS_Set(uint32_t SetValue)
 148:e:/LiteOS/LiteOS/targets/Cloud_FM33A0XX/GCC/../../../targets/Cloud_FM33A0XX/Drivers\fm33a0xx_gpio.c **** {
 441              		.loc 1 148 0
 442              		.cfi_startproc
 443              		@ args = 0, pretend = 0, frame = 0
 444              		@ frame_needed = 0, uses_anonymous_args = 0
 445              		@ link register save eliminated.
 446              	.LVL22:
 149:e:/LiteOS/LiteOS/targets/Cloud_FM33A0XX/GCC/../../../targets/Cloud_FM33A0XX/Drivers\fm33a0xx_gpio.c **** 	uint32_t tmpreg;
 150:e:/LiteOS/LiteOS/targets/Cloud_FM33A0XX/GCC/../../../targets/Cloud_FM33A0XX/Drivers\fm33a0xx_gpio.c **** 	tmpreg = GPIO->ANASEL;
 447              		.loc 1 150 0
ARM GAS  C:\Users\WANGBI~1\AppData\Local\Temp\ccUoabl7.s 			page 11


 448 0000 034A     		ldr	r2, .L39
 449 0002 136A     		ldr	r3, [r2, #32]
 450              	.LVL23:
 151:e:/LiteOS/LiteOS/targets/Cloud_FM33A0XX/GCC/../../../targets/Cloud_FM33A0XX/Drivers\fm33a0xx_gpio.c **** 	tmpreg &= ~(GPIO_ANASEL_PE3ANS_Msk);
 451              		.loc 1 151 0
 452 0004 1021     		movs	r1, #16
 453 0006 8B43     		bics	r3, r1
 454              	.LVL24:
 152:e:/LiteOS/LiteOS/targets/Cloud_FM33A0XX/GCC/../../../targets/Cloud_FM33A0XX/Drivers\fm33a0xx_gpio.c **** 	tmpreg |= (SetValue & GPIO_ANASEL_PE3ANS_Msk);
 455              		.loc 1 152 0
 456 0008 0840     		ands	r0, r1
 457              	.LVL25:
 458 000a 1843     		orrs	r0, r3
 459              	.LVL26:
 153:e:/LiteOS/LiteOS/targets/Cloud_FM33A0XX/GCC/../../../targets/Cloud_FM33A0XX/Drivers\fm33a0xx_gpio.c **** 	GPIO->ANASEL = tmpreg;
 460              		.loc 1 153 0
 461 000c 1062     		str	r0, [r2, #32]
 154:e:/LiteOS/LiteOS/targets/Cloud_FM33A0XX/GCC/../../../targets/Cloud_FM33A0XX/Drivers\fm33a0xx_gpio.c **** }
 462              		.loc 1 154 0
 463              		@ sp needed
 464 000e 7047     		bx	lr
 465              	.L40:
 466              		.align	2
 467              	.L39:
 468 0010 E00C0040 		.word	1073745120
 469              		.cfi_endproc
 470              	.LFE49:
 472              		.section	.text.GPIO_ANASEL_PE3ANS_Get,"ax",%progbits
 473              		.align	2
 474              		.global	GPIO_ANASEL_PE3ANS_Get
 475              		.code	16
 476              		.thumb_func
 478              	GPIO_ANASEL_PE3ANS_Get:
 479              	.LFB50:
 155:e:/LiteOS/LiteOS/targets/Cloud_FM33A0XX/GCC/../../../targets/Cloud_FM33A0XX/Drivers\fm33a0xx_gpio.c **** 
 156:e:/LiteOS/LiteOS/targets/Cloud_FM33A0XX/GCC/../../../targets/Cloud_FM33A0XX/Drivers\fm33a0xx_gpio.c **** uint32_t GPIO_ANASEL_PE3ANS_Get(void)
 157:e:/LiteOS/LiteOS/targets/Cloud_FM33A0XX/GCC/../../../targets/Cloud_FM33A0XX/Drivers\fm33a0xx_gpio.c **** {
 480              		.loc 1 157 0
 481              		.cfi_startproc
 482              		@ args = 0, pretend = 0, frame = 0
 483              		@ frame_needed = 0, uses_anonymous_args = 0
 484              		@ link register save eliminated.
 158:e:/LiteOS/LiteOS/targets/Cloud_FM33A0XX/GCC/../../../targets/Cloud_FM33A0XX/Drivers\fm33a0xx_gpio.c **** 	return (GPIO->ANASEL & GPIO_ANASEL_PE3ANS_Msk);
 485              		.loc 1 158 0
 486 0000 024B     		ldr	r3, .L42
 487 0002 1B6A     		ldr	r3, [r3, #32]
 488 0004 1020     		movs	r0, #16
 489 0006 1840     		ands	r0, r3
 159:e:/LiteOS/LiteOS/targets/Cloud_FM33A0XX/GCC/../../../targets/Cloud_FM33A0XX/Drivers\fm33a0xx_gpio.c **** }
 490              		.loc 1 159 0
 491              		@ sp needed
 492 0008 7047     		bx	lr
 493              	.L43:
 494 000a C046     		.align	2
 495              	.L42:
 496 000c E00C0040 		.word	1073745120
 497              		.cfi_endproc
ARM GAS  C:\Users\WANGBI~1\AppData\Local\Temp\ccUoabl7.s 			page 12


 498              	.LFE50:
 500              		.section	.text.GPIO_ANASEL_PC15ANS_Set,"ax",%progbits
 501              		.align	2
 502              		.global	GPIO_ANASEL_PC15ANS_Set
 503              		.code	16
 504              		.thumb_func
 506              	GPIO_ANASEL_PC15ANS_Set:
 507              	.LFB51:
 160:e:/LiteOS/LiteOS/targets/Cloud_FM33A0XX/GCC/../../../targets/Cloud_FM33A0XX/Drivers\fm33a0xx_gpio.c **** 
 161:e:/LiteOS/LiteOS/targets/Cloud_FM33A0XX/GCC/../../../targets/Cloud_FM33A0XX/Drivers\fm33a0xx_gpio.c **** /* PC15模拟功能选择 相关函数 */
 162:e:/LiteOS/LiteOS/targets/Cloud_FM33A0XX/GCC/../../../targets/Cloud_FM33A0XX/Drivers\fm33a0xx_gpio.c **** void GPIO_ANASEL_PC15ANS_Set(uint32_t SetValue)
 163:e:/LiteOS/LiteOS/targets/Cloud_FM33A0XX/GCC/../../../targets/Cloud_FM33A0XX/Drivers\fm33a0xx_gpio.c **** {
 508              		.loc 1 163 0
 509              		.cfi_startproc
 510              		@ args = 0, pretend = 0, frame = 0
 511              		@ frame_needed = 0, uses_anonymous_args = 0
 512              		@ link register save eliminated.
 513              	.LVL27:
 164:e:/LiteOS/LiteOS/targets/Cloud_FM33A0XX/GCC/../../../targets/Cloud_FM33A0XX/Drivers\fm33a0xx_gpio.c **** 	uint32_t tmpreg;
 165:e:/LiteOS/LiteOS/targets/Cloud_FM33A0XX/GCC/../../../targets/Cloud_FM33A0XX/Drivers\fm33a0xx_gpio.c **** 	tmpreg = GPIO->ANASEL;
 514              		.loc 1 165 0
 515 0000 034A     		ldr	r2, .L45
 516 0002 136A     		ldr	r3, [r2, #32]
 517              	.LVL28:
 166:e:/LiteOS/LiteOS/targets/Cloud_FM33A0XX/GCC/../../../targets/Cloud_FM33A0XX/Drivers\fm33a0xx_gpio.c **** 	tmpreg &= ~(GPIO_ANASEL_PC15ANS_Msk);
 518              		.loc 1 166 0
 519 0004 0821     		movs	r1, #8
 520 0006 8B43     		bics	r3, r1
 521              	.LVL29:
 167:e:/LiteOS/LiteOS/targets/Cloud_FM33A0XX/GCC/../../../targets/Cloud_FM33A0XX/Drivers\fm33a0xx_gpio.c **** 	tmpreg |= (SetValue & GPIO_ANASEL_PC15ANS_Msk);
 522              		.loc 1 167 0
 523 0008 0840     		ands	r0, r1
 524              	.LVL30:
 525 000a 1843     		orrs	r0, r3
 526              	.LVL31:
 168:e:/LiteOS/LiteOS/targets/Cloud_FM33A0XX/GCC/../../../targets/Cloud_FM33A0XX/Drivers\fm33a0xx_gpio.c **** 	GPIO->ANASEL = tmpreg;
 527              		.loc 1 168 0
 528 000c 1062     		str	r0, [r2, #32]
 169:e:/LiteOS/LiteOS/targets/Cloud_FM33A0XX/GCC/../../../targets/Cloud_FM33A0XX/Drivers\fm33a0xx_gpio.c **** }
 529              		.loc 1 169 0
 530              		@ sp needed
 531 000e 7047     		bx	lr
 532              	.L46:
 533              		.align	2
 534              	.L45:
 535 0010 E00C0040 		.word	1073745120
 536              		.cfi_endproc
 537              	.LFE51:
 539              		.section	.text.GPIO_ANASEL_PC15ANS_Get,"ax",%progbits
 540              		.align	2
 541              		.global	GPIO_ANASEL_PC15ANS_Get
 542              		.code	16
 543              		.thumb_func
 545              	GPIO_ANASEL_PC15ANS_Get:
 546              	.LFB52:
 170:e:/LiteOS/LiteOS/targets/Cloud_FM33A0XX/GCC/../../../targets/Cloud_FM33A0XX/Drivers\fm33a0xx_gpio.c **** 
 171:e:/LiteOS/LiteOS/targets/Cloud_FM33A0XX/GCC/../../../targets/Cloud_FM33A0XX/Drivers\fm33a0xx_gpio.c **** uint32_t GPIO_ANASEL_PC15ANS_Get(void)
ARM GAS  C:\Users\WANGBI~1\AppData\Local\Temp\ccUoabl7.s 			page 13


 172:e:/LiteOS/LiteOS/targets/Cloud_FM33A0XX/GCC/../../../targets/Cloud_FM33A0XX/Drivers\fm33a0xx_gpio.c **** {
 547              		.loc 1 172 0
 548              		.cfi_startproc
 549              		@ args = 0, pretend = 0, frame = 0
 550              		@ frame_needed = 0, uses_anonymous_args = 0
 551              		@ link register save eliminated.
 173:e:/LiteOS/LiteOS/targets/Cloud_FM33A0XX/GCC/../../../targets/Cloud_FM33A0XX/Drivers\fm33a0xx_gpio.c **** 	return (GPIO->ANASEL & GPIO_ANASEL_PC15ANS_Msk);
 552              		.loc 1 173 0
 553 0000 024B     		ldr	r3, .L48
 554 0002 1B6A     		ldr	r3, [r3, #32]
 555 0004 0820     		movs	r0, #8
 556 0006 1840     		ands	r0, r3
 174:e:/LiteOS/LiteOS/targets/Cloud_FM33A0XX/GCC/../../../targets/Cloud_FM33A0XX/Drivers\fm33a0xx_gpio.c **** }
 557              		.loc 1 174 0
 558              		@ sp needed
 559 0008 7047     		bx	lr
 560              	.L49:
 561 000a C046     		.align	2
 562              	.L48:
 563 000c E00C0040 		.word	1073745120
 564              		.cfi_endproc
 565              	.LFE52:
 567              		.section	.text.GPIO_ANASEL_PC14ANS_Set,"ax",%progbits
 568              		.align	2
 569              		.global	GPIO_ANASEL_PC14ANS_Set
 570              		.code	16
 571              		.thumb_func
 573              	GPIO_ANASEL_PC14ANS_Set:
 574              	.LFB53:
 175:e:/LiteOS/LiteOS/targets/Cloud_FM33A0XX/GCC/../../../targets/Cloud_FM33A0XX/Drivers\fm33a0xx_gpio.c **** 
 176:e:/LiteOS/LiteOS/targets/Cloud_FM33A0XX/GCC/../../../targets/Cloud_FM33A0XX/Drivers\fm33a0xx_gpio.c **** /* PC14模拟功能选择 相关函数 */
 177:e:/LiteOS/LiteOS/targets/Cloud_FM33A0XX/GCC/../../../targets/Cloud_FM33A0XX/Drivers\fm33a0xx_gpio.c **** void GPIO_ANASEL_PC14ANS_Set(uint32_t SetValue)
 178:e:/LiteOS/LiteOS/targets/Cloud_FM33A0XX/GCC/../../../targets/Cloud_FM33A0XX/Drivers\fm33a0xx_gpio.c **** {
 575              		.loc 1 178 0
 576              		.cfi_startproc
 577              		@ args = 0, pretend = 0, frame = 0
 578              		@ frame_needed = 0, uses_anonymous_args = 0
 579              		@ link register save eliminated.
 580              	.LVL32:
 179:e:/LiteOS/LiteOS/targets/Cloud_FM33A0XX/GCC/../../../targets/Cloud_FM33A0XX/Drivers\fm33a0xx_gpio.c **** 	uint32_t tmpreg;
 180:e:/LiteOS/LiteOS/targets/Cloud_FM33A0XX/GCC/../../../targets/Cloud_FM33A0XX/Drivers\fm33a0xx_gpio.c **** 	tmpreg = GPIO->ANASEL;
 581              		.loc 1 180 0
 582 0000 034A     		ldr	r2, .L51
 583 0002 136A     		ldr	r3, [r2, #32]
 584              	.LVL33:
 181:e:/LiteOS/LiteOS/targets/Cloud_FM33A0XX/GCC/../../../targets/Cloud_FM33A0XX/Drivers\fm33a0xx_gpio.c **** 	tmpreg &= ~(GPIO_ANASEL_PC14ANS_Msk);
 585              		.loc 1 181 0
 586 0004 0421     		movs	r1, #4
 587 0006 8B43     		bics	r3, r1
 588              	.LVL34:
 182:e:/LiteOS/LiteOS/targets/Cloud_FM33A0XX/GCC/../../../targets/Cloud_FM33A0XX/Drivers\fm33a0xx_gpio.c **** 	tmpreg |= (SetValue & GPIO_ANASEL_PC14ANS_Msk);
 589              		.loc 1 182 0
 590 0008 0840     		ands	r0, r1
 591              	.LVL35:
 592 000a 1843     		orrs	r0, r3
 593              	.LVL36:
 183:e:/LiteOS/LiteOS/targets/Cloud_FM33A0XX/GCC/../../../targets/Cloud_FM33A0XX/Drivers\fm33a0xx_gpio.c **** 	GPIO->ANASEL = tmpreg;
ARM GAS  C:\Users\WANGBI~1\AppData\Local\Temp\ccUoabl7.s 			page 14


 594              		.loc 1 183 0
 595 000c 1062     		str	r0, [r2, #32]
 184:e:/LiteOS/LiteOS/targets/Cloud_FM33A0XX/GCC/../../../targets/Cloud_FM33A0XX/Drivers\fm33a0xx_gpio.c **** }
 596              		.loc 1 184 0
 597              		@ sp needed
 598 000e 7047     		bx	lr
 599              	.L52:
 600              		.align	2
 601              	.L51:
 602 0010 E00C0040 		.word	1073745120
 603              		.cfi_endproc
 604              	.LFE53:
 606              		.section	.text.GPIO_ANASEL_PC14ANS_Get,"ax",%progbits
 607              		.align	2
 608              		.global	GPIO_ANASEL_PC14ANS_Get
 609              		.code	16
 610              		.thumb_func
 612              	GPIO_ANASEL_PC14ANS_Get:
 613              	.LFB54:
 185:e:/LiteOS/LiteOS/targets/Cloud_FM33A0XX/GCC/../../../targets/Cloud_FM33A0XX/Drivers\fm33a0xx_gpio.c **** 
 186:e:/LiteOS/LiteOS/targets/Cloud_FM33A0XX/GCC/../../../targets/Cloud_FM33A0XX/Drivers\fm33a0xx_gpio.c **** uint32_t GPIO_ANASEL_PC14ANS_Get(void)
 187:e:/LiteOS/LiteOS/targets/Cloud_FM33A0XX/GCC/../../../targets/Cloud_FM33A0XX/Drivers\fm33a0xx_gpio.c **** {
 614              		.loc 1 187 0
 615              		.cfi_startproc
 616              		@ args = 0, pretend = 0, frame = 0
 617              		@ frame_needed = 0, uses_anonymous_args = 0
 618              		@ link register save eliminated.
 188:e:/LiteOS/LiteOS/targets/Cloud_FM33A0XX/GCC/../../../targets/Cloud_FM33A0XX/Drivers\fm33a0xx_gpio.c **** 	return (GPIO->ANASEL & GPIO_ANASEL_PC14ANS_Msk);
 619              		.loc 1 188 0
 620 0000 024B     		ldr	r3, .L54
 621 0002 1B6A     		ldr	r3, [r3, #32]
 622 0004 0420     		movs	r0, #4
 623 0006 1840     		ands	r0, r3
 189:e:/LiteOS/LiteOS/targets/Cloud_FM33A0XX/GCC/../../../targets/Cloud_FM33A0XX/Drivers\fm33a0xx_gpio.c **** }
 624              		.loc 1 189 0
 625              		@ sp needed
 626 0008 7047     		bx	lr
 627              	.L55:
 628 000a C046     		.align	2
 629              	.L54:
 630 000c E00C0040 		.word	1073745120
 631              		.cfi_endproc
 632              	.LFE54:
 634              		.section	.text.GPIO_ANASEL_PC13ANS_Set,"ax",%progbits
 635              		.align	2
 636              		.global	GPIO_ANASEL_PC13ANS_Set
 637              		.code	16
 638              		.thumb_func
 640              	GPIO_ANASEL_PC13ANS_Set:
 641              	.LFB55:
 190:e:/LiteOS/LiteOS/targets/Cloud_FM33A0XX/GCC/../../../targets/Cloud_FM33A0XX/Drivers\fm33a0xx_gpio.c **** 
 191:e:/LiteOS/LiteOS/targets/Cloud_FM33A0XX/GCC/../../../targets/Cloud_FM33A0XX/Drivers\fm33a0xx_gpio.c **** /* PC13模拟功能选择 相关函数 */
 192:e:/LiteOS/LiteOS/targets/Cloud_FM33A0XX/GCC/../../../targets/Cloud_FM33A0XX/Drivers\fm33a0xx_gpio.c **** void GPIO_ANASEL_PC13ANS_Set(uint32_t SetValue)
 193:e:/LiteOS/LiteOS/targets/Cloud_FM33A0XX/GCC/../../../targets/Cloud_FM33A0XX/Drivers\fm33a0xx_gpio.c **** {
 642              		.loc 1 193 0
 643              		.cfi_startproc
 644              		@ args = 0, pretend = 0, frame = 0
ARM GAS  C:\Users\WANGBI~1\AppData\Local\Temp\ccUoabl7.s 			page 15


 645              		@ frame_needed = 0, uses_anonymous_args = 0
 646              		@ link register save eliminated.
 647              	.LVL37:
 194:e:/LiteOS/LiteOS/targets/Cloud_FM33A0XX/GCC/../../../targets/Cloud_FM33A0XX/Drivers\fm33a0xx_gpio.c **** 	uint32_t tmpreg;
 195:e:/LiteOS/LiteOS/targets/Cloud_FM33A0XX/GCC/../../../targets/Cloud_FM33A0XX/Drivers\fm33a0xx_gpio.c **** 	tmpreg = GPIO->ANASEL;
 648              		.loc 1 195 0
 649 0000 034A     		ldr	r2, .L57
 650 0002 136A     		ldr	r3, [r2, #32]
 651              	.LVL38:
 196:e:/LiteOS/LiteOS/targets/Cloud_FM33A0XX/GCC/../../../targets/Cloud_FM33A0XX/Drivers\fm33a0xx_gpio.c **** 	tmpreg &= ~(GPIO_ANASEL_PC13ANS_Msk);
 652              		.loc 1 196 0
 653 0004 0221     		movs	r1, #2
 654 0006 8B43     		bics	r3, r1
 655              	.LVL39:
 197:e:/LiteOS/LiteOS/targets/Cloud_FM33A0XX/GCC/../../../targets/Cloud_FM33A0XX/Drivers\fm33a0xx_gpio.c **** 	tmpreg |= (SetValue & GPIO_ANASEL_PC13ANS_Msk);
 656              		.loc 1 197 0
 657 0008 0840     		ands	r0, r1
 658              	.LVL40:
 659 000a 1843     		orrs	r0, r3
 660              	.LVL41:
 198:e:/LiteOS/LiteOS/targets/Cloud_FM33A0XX/GCC/../../../targets/Cloud_FM33A0XX/Drivers\fm33a0xx_gpio.c **** 	GPIO->ANASEL = tmpreg;
 661              		.loc 1 198 0
 662 000c 1062     		str	r0, [r2, #32]
 199:e:/LiteOS/LiteOS/targets/Cloud_FM33A0XX/GCC/../../../targets/Cloud_FM33A0XX/Drivers\fm33a0xx_gpio.c **** }
 663              		.loc 1 199 0
 664              		@ sp needed
 665 000e 7047     		bx	lr
 666              	.L58:
 667              		.align	2
 668              	.L57:
 669 0010 E00C0040 		.word	1073745120
 670              		.cfi_endproc
 671              	.LFE55:
 673              		.section	.text.GPIO_ANASEL_PC13ANS_Get,"ax",%progbits
 674              		.align	2
 675              		.global	GPIO_ANASEL_PC13ANS_Get
 676              		.code	16
 677              		.thumb_func
 679              	GPIO_ANASEL_PC13ANS_Get:
 680              	.LFB56:
 200:e:/LiteOS/LiteOS/targets/Cloud_FM33A0XX/GCC/../../../targets/Cloud_FM33A0XX/Drivers\fm33a0xx_gpio.c **** 
 201:e:/LiteOS/LiteOS/targets/Cloud_FM33A0XX/GCC/../../../targets/Cloud_FM33A0XX/Drivers\fm33a0xx_gpio.c **** uint32_t GPIO_ANASEL_PC13ANS_Get(void)
 202:e:/LiteOS/LiteOS/targets/Cloud_FM33A0XX/GCC/../../../targets/Cloud_FM33A0XX/Drivers\fm33a0xx_gpio.c **** {
 681              		.loc 1 202 0
 682              		.cfi_startproc
 683              		@ args = 0, pretend = 0, frame = 0
 684              		@ frame_needed = 0, uses_anonymous_args = 0
 685              		@ link register save eliminated.
 203:e:/LiteOS/LiteOS/targets/Cloud_FM33A0XX/GCC/../../../targets/Cloud_FM33A0XX/Drivers\fm33a0xx_gpio.c **** 	return (GPIO->ANASEL & GPIO_ANASEL_PC13ANS_Msk);
 686              		.loc 1 203 0
 687 0000 024B     		ldr	r3, .L60
 688 0002 1B6A     		ldr	r3, [r3, #32]
 689 0004 0220     		movs	r0, #2
 690 0006 1840     		ands	r0, r3
 204:e:/LiteOS/LiteOS/targets/Cloud_FM33A0XX/GCC/../../../targets/Cloud_FM33A0XX/Drivers\fm33a0xx_gpio.c **** }
 691              		.loc 1 204 0
 692              		@ sp needed
ARM GAS  C:\Users\WANGBI~1\AppData\Local\Temp\ccUoabl7.s 			page 16


 693 0008 7047     		bx	lr
 694              	.L61:
 695 000a C046     		.align	2
 696              	.L60:
 697 000c E00C0040 		.word	1073745120
 698              		.cfi_endproc
 699              	.LFE56:
 701              		.section	.text.GPIO_ANASEL_PC12ANS_Set,"ax",%progbits
 702              		.align	2
 703              		.global	GPIO_ANASEL_PC12ANS_Set
 704              		.code	16
 705              		.thumb_func
 707              	GPIO_ANASEL_PC12ANS_Set:
 708              	.LFB57:
 205:e:/LiteOS/LiteOS/targets/Cloud_FM33A0XX/GCC/../../../targets/Cloud_FM33A0XX/Drivers\fm33a0xx_gpio.c **** 
 206:e:/LiteOS/LiteOS/targets/Cloud_FM33A0XX/GCC/../../../targets/Cloud_FM33A0XX/Drivers\fm33a0xx_gpio.c **** /* PC12模拟功能选择 相关函数 */
 207:e:/LiteOS/LiteOS/targets/Cloud_FM33A0XX/GCC/../../../targets/Cloud_FM33A0XX/Drivers\fm33a0xx_gpio.c **** void GPIO_ANASEL_PC12ANS_Set(uint32_t SetValue)
 208:e:/LiteOS/LiteOS/targets/Cloud_FM33A0XX/GCC/../../../targets/Cloud_FM33A0XX/Drivers\fm33a0xx_gpio.c **** {
 709              		.loc 1 208 0
 710              		.cfi_startproc
 711              		@ args = 0, pretend = 0, frame = 0
 712              		@ frame_needed = 0, uses_anonymous_args = 0
 713              		@ link register save eliminated.
 714              	.LVL42:
 209:e:/LiteOS/LiteOS/targets/Cloud_FM33A0XX/GCC/../../../targets/Cloud_FM33A0XX/Drivers\fm33a0xx_gpio.c **** 	uint32_t tmpreg;
 210:e:/LiteOS/LiteOS/targets/Cloud_FM33A0XX/GCC/../../../targets/Cloud_FM33A0XX/Drivers\fm33a0xx_gpio.c **** 	tmpreg = GPIO->ANASEL;
 715              		.loc 1 210 0
 716 0000 034A     		ldr	r2, .L63
 717 0002 136A     		ldr	r3, [r2, #32]
 718              	.LVL43:
 211:e:/LiteOS/LiteOS/targets/Cloud_FM33A0XX/GCC/../../../targets/Cloud_FM33A0XX/Drivers\fm33a0xx_gpio.c **** 	tmpreg &= ~(GPIO_ANASEL_PC12ANS_Msk);
 719              		.loc 1 211 0
 720 0004 0121     		movs	r1, #1
 721 0006 8B43     		bics	r3, r1
 722              	.LVL44:
 212:e:/LiteOS/LiteOS/targets/Cloud_FM33A0XX/GCC/../../../targets/Cloud_FM33A0XX/Drivers\fm33a0xx_gpio.c **** 	tmpreg |= (SetValue & GPIO_ANASEL_PC12ANS_Msk);
 723              		.loc 1 212 0
 724 0008 0840     		ands	r0, r1
 725              	.LVL45:
 726 000a 1843     		orrs	r0, r3
 727              	.LVL46:
 213:e:/LiteOS/LiteOS/targets/Cloud_FM33A0XX/GCC/../../../targets/Cloud_FM33A0XX/Drivers\fm33a0xx_gpio.c **** 	GPIO->ANASEL = tmpreg;
 728              		.loc 1 213 0
 729 000c 1062     		str	r0, [r2, #32]
 214:e:/LiteOS/LiteOS/targets/Cloud_FM33A0XX/GCC/../../../targets/Cloud_FM33A0XX/Drivers\fm33a0xx_gpio.c **** }
 730              		.loc 1 214 0
 731              		@ sp needed
 732 000e 7047     		bx	lr
 733              	.L64:
 734              		.align	2
 735              	.L63:
 736 0010 E00C0040 		.word	1073745120
 737              		.cfi_endproc
 738              	.LFE57:
 740              		.section	.text.GPIO_ANASEL_PC12ANS_Get,"ax",%progbits
 741              		.align	2
 742              		.global	GPIO_ANASEL_PC12ANS_Get
ARM GAS  C:\Users\WANGBI~1\AppData\Local\Temp\ccUoabl7.s 			page 17


 743              		.code	16
 744              		.thumb_func
 746              	GPIO_ANASEL_PC12ANS_Get:
 747              	.LFB58:
 215:e:/LiteOS/LiteOS/targets/Cloud_FM33A0XX/GCC/../../../targets/Cloud_FM33A0XX/Drivers\fm33a0xx_gpio.c **** 
 216:e:/LiteOS/LiteOS/targets/Cloud_FM33A0XX/GCC/../../../targets/Cloud_FM33A0XX/Drivers\fm33a0xx_gpio.c **** uint32_t GPIO_ANASEL_PC12ANS_Get(void)
 217:e:/LiteOS/LiteOS/targets/Cloud_FM33A0XX/GCC/../../../targets/Cloud_FM33A0XX/Drivers\fm33a0xx_gpio.c **** {
 748              		.loc 1 217 0
 749              		.cfi_startproc
 750              		@ args = 0, pretend = 0, frame = 0
 751              		@ frame_needed = 0, uses_anonymous_args = 0
 752              		@ link register save eliminated.
 218:e:/LiteOS/LiteOS/targets/Cloud_FM33A0XX/GCC/../../../targets/Cloud_FM33A0XX/Drivers\fm33a0xx_gpio.c **** 	return (GPIO->ANASEL & GPIO_ANASEL_PC12ANS_Msk);
 753              		.loc 1 218 0
 754 0000 024B     		ldr	r3, .L66
 755 0002 1B6A     		ldr	r3, [r3, #32]
 756 0004 0120     		movs	r0, #1
 757 0006 1840     		ands	r0, r3
 219:e:/LiteOS/LiteOS/targets/Cloud_FM33A0XX/GCC/../../../targets/Cloud_FM33A0XX/Drivers\fm33a0xx_gpio.c **** }
 758              		.loc 1 219 0
 759              		@ sp needed
 760 0008 7047     		bx	lr
 761              	.L67:
 762 000a C046     		.align	2
 763              	.L66:
 764 000c E00C0040 		.word	1073745120
 765              		.cfi_endproc
 766              	.LFE58:
 768              		.section	.text.GPIOx_Deinit,"ax",%progbits
 769              		.align	2
 770              		.global	GPIOx_Deinit
 771              		.code	16
 772              		.thumb_func
 774              	GPIOx_Deinit:
 775              	.LFB59:
 220:e:/LiteOS/LiteOS/targets/Cloud_FM33A0XX/GCC/../../../targets/Cloud_FM33A0XX/Drivers\fm33a0xx_gpio.c **** 
 221:e:/LiteOS/LiteOS/targets/Cloud_FM33A0XX/GCC/../../../targets/Cloud_FM33A0XX/Drivers\fm33a0xx_gpio.c **** 
 222:e:/LiteOS/LiteOS/targets/Cloud_FM33A0XX/GCC/../../../targets/Cloud_FM33A0XX/Drivers\fm33a0xx_gpio.c **** void GPIOx_Deinit(GPIOx_Type* GPIOx)
 223:e:/LiteOS/LiteOS/targets/Cloud_FM33A0XX/GCC/../../../targets/Cloud_FM33A0XX/Drivers\fm33a0xx_gpio.c **** {
 776              		.loc 1 223 0
 777              		.cfi_startproc
 778              		@ args = 0, pretend = 0, frame = 0
 779              		@ frame_needed = 0, uses_anonymous_args = 0
 780              		@ link register save eliminated.
 781              	.LVL47:
 224:e:/LiteOS/LiteOS/targets/Cloud_FM33A0XX/GCC/../../../targets/Cloud_FM33A0XX/Drivers\fm33a0xx_gpio.c **** 	GPIOx->INEN = 0x00000000;
 782              		.loc 1 224 0
 783 0000 0023     		movs	r3, #0
 784 0002 0360     		str	r3, [r0]
 225:e:/LiteOS/LiteOS/targets/Cloud_FM33A0XX/GCC/../../../targets/Cloud_FM33A0XX/Drivers\fm33a0xx_gpio.c **** 	GPIOx->PUEN = 0x00000000;
 785              		.loc 1 225 0
 786 0004 4360     		str	r3, [r0, #4]
 226:e:/LiteOS/LiteOS/targets/Cloud_FM33A0XX/GCC/../../../targets/Cloud_FM33A0XX/Drivers\fm33a0xx_gpio.c **** 	GPIOx->ODEN = 0x00000000;
 787              		.loc 1 226 0
 788 0006 8360     		str	r3, [r0, #8]
 227:e:/LiteOS/LiteOS/targets/Cloud_FM33A0XX/GCC/../../../targets/Cloud_FM33A0XX/Drivers\fm33a0xx_gpio.c **** 	GPIOx->FCR = 0x00000000;
 789              		.loc 1 227 0
ARM GAS  C:\Users\WANGBI~1\AppData\Local\Temp\ccUoabl7.s 			page 18


 790 0008 C360     		str	r3, [r0, #12]
 228:e:/LiteOS/LiteOS/targets/Cloud_FM33A0XX/GCC/../../../targets/Cloud_FM33A0XX/Drivers\fm33a0xx_gpio.c **** 	GPIOx->DO = 0x00000000;
 791              		.loc 1 228 0
 792 000a 0361     		str	r3, [r0, #16]
 229:e:/LiteOS/LiteOS/targets/Cloud_FM33A0XX/GCC/../../../targets/Cloud_FM33A0XX/Drivers\fm33a0xx_gpio.c **** 	//GPIOx->DSET = ;
 230:e:/LiteOS/LiteOS/targets/Cloud_FM33A0XX/GCC/../../../targets/Cloud_FM33A0XX/Drivers\fm33a0xx_gpio.c **** 	//GPIOx->DRESET = ;
 231:e:/LiteOS/LiteOS/targets/Cloud_FM33A0XX/GCC/../../../targets/Cloud_FM33A0XX/Drivers\fm33a0xx_gpio.c **** 	//GPIOx->DIN = ;
 232:e:/LiteOS/LiteOS/targets/Cloud_FM33A0XX/GCC/../../../targets/Cloud_FM33A0XX/Drivers\fm33a0xx_gpio.c **** }
 793              		.loc 1 232 0
 794              		@ sp needed
 795 000c 7047     		bx	lr
 796              		.cfi_endproc
 797              	.LFE59:
 799 000e C046     		.section	.text.GPIO_Deinit,"ax",%progbits
 800              		.align	2
 801              		.global	GPIO_Deinit
 802              		.code	16
 803              		.thumb_func
 805              	GPIO_Deinit:
 806              	.LFB60:
 233:e:/LiteOS/LiteOS/targets/Cloud_FM33A0XX/GCC/../../../targets/Cloud_FM33A0XX/Drivers\fm33a0xx_gpio.c **** 
 234:e:/LiteOS/LiteOS/targets/Cloud_FM33A0XX/GCC/../../../targets/Cloud_FM33A0XX/Drivers\fm33a0xx_gpio.c **** void GPIO_Deinit(void)
 235:e:/LiteOS/LiteOS/targets/Cloud_FM33A0XX/GCC/../../../targets/Cloud_FM33A0XX/Drivers\fm33a0xx_gpio.c **** {
 807              		.loc 1 235 0
 808              		.cfi_startproc
 809              		@ args = 0, pretend = 0, frame = 0
 810              		@ frame_needed = 0, uses_anonymous_args = 0
 811              		@ link register save eliminated.
 236:e:/LiteOS/LiteOS/targets/Cloud_FM33A0XX/GCC/../../../targets/Cloud_FM33A0XX/Drivers\fm33a0xx_gpio.c **** 	GPIO->EXTI0_SEL = 0xFFFF0000;
 812              		.loc 1 236 0
 813 0000 054B     		ldr	r3, .L70
 814 0002 064A     		ldr	r2, .L70+4
 815 0004 1A60     		str	r2, [r3]
 237:e:/LiteOS/LiteOS/targets/Cloud_FM33A0XX/GCC/../../../targets/Cloud_FM33A0XX/Drivers\fm33a0xx_gpio.c **** 	GPIO->EXTI1_SEL = 0xFFFF0000;
 816              		.loc 1 237 0
 817 0006 5A60     		str	r2, [r3, #4]
 238:e:/LiteOS/LiteOS/targets/Cloud_FM33A0XX/GCC/../../../targets/Cloud_FM33A0XX/Drivers\fm33a0xx_gpio.c **** 	GPIO->EXTI2_SEL = 0xFFFF0000;
 818              		.loc 1 238 0
 819 0008 9A60     		str	r2, [r3, #8]
 239:e:/LiteOS/LiteOS/targets/Cloud_FM33A0XX/GCC/../../../targets/Cloud_FM33A0XX/Drivers\fm33a0xx_gpio.c **** 	//GPIO->EXTI0IF = ;
 240:e:/LiteOS/LiteOS/targets/Cloud_FM33A0XX/GCC/../../../targets/Cloud_FM33A0XX/Drivers\fm33a0xx_gpio.c **** 	//GPIO->EXTI1IF = ;
 241:e:/LiteOS/LiteOS/targets/Cloud_FM33A0XX/GCC/../../../targets/Cloud_FM33A0XX/Drivers\fm33a0xx_gpio.c **** 	//GPIO->EXTI2IF = ;
 242:e:/LiteOS/LiteOS/targets/Cloud_FM33A0XX/GCC/../../../targets/Cloud_FM33A0XX/Drivers\fm33a0xx_gpio.c **** 	GPIO->FOUTSEL = 0x00000000;
 820              		.loc 1 242 0
 821 000a 0022     		movs	r2, #0
 822 000c 9A61     		str	r2, [r3, #24]
 243:e:/LiteOS/LiteOS/targets/Cloud_FM33A0XX/GCC/../../../targets/Cloud_FM33A0XX/Drivers\fm33a0xx_gpio.c **** 	GPIO->HDSEL = 0x00000000;
 823              		.loc 1 243 0
 824 000e DA61     		str	r2, [r3, #28]
 244:e:/LiteOS/LiteOS/targets/Cloud_FM33A0XX/GCC/../../../targets/Cloud_FM33A0XX/Drivers\fm33a0xx_gpio.c **** 	GPIO->ANASEL = 0x00000000;
 825              		.loc 1 244 0
 826 0010 1A62     		str	r2, [r3, #32]
 245:e:/LiteOS/LiteOS/targets/Cloud_FM33A0XX/GCC/../../../targets/Cloud_FM33A0XX/Drivers\fm33a0xx_gpio.c **** 	GPIO->IODF = 0x00000000;
 827              		.loc 1 245 0
 828 0012 5A62     		str	r2, [r3, #36]
 246:e:/LiteOS/LiteOS/targets/Cloud_FM33A0XX/GCC/../../../targets/Cloud_FM33A0XX/Drivers\fm33a0xx_gpio.c **** 	GPIO->PINWKEN = 0x00000000;
 829              		.loc 1 246 0
ARM GAS  C:\Users\WANGBI~1\AppData\Local\Temp\ccUoabl7.s 			page 19


 830 0014 9A62     		str	r2, [r3, #40]
 247:e:/LiteOS/LiteOS/targets/Cloud_FM33A0XX/GCC/../../../targets/Cloud_FM33A0XX/Drivers\fm33a0xx_gpio.c **** }
 831              		.loc 1 247 0
 832              		@ sp needed
 833 0016 7047     		bx	lr
 834              	.L71:
 835              		.align	2
 836              	.L70:
 837 0018 E00C0040 		.word	1073745120
 838 001c 0000FFFF 		.word	-65536
 839              		.cfi_endproc
 840              	.LFE60:
 842              		.section	.text.GPIO_ALL_Deinit,"ax",%progbits
 843              		.align	2
 844              		.global	GPIO_ALL_Deinit
 845              		.code	16
 846              		.thumb_func
 848              	GPIO_ALL_Deinit:
 849              	.LFB61:
 248:e:/LiteOS/LiteOS/targets/Cloud_FM33A0XX/GCC/../../../targets/Cloud_FM33A0XX/Drivers\fm33a0xx_gpio.c **** //Code_End
 249:e:/LiteOS/LiteOS/targets/Cloud_FM33A0XX/GCC/../../../targets/Cloud_FM33A0XX/Drivers\fm33a0xx_gpio.c **** 
 250:e:/LiteOS/LiteOS/targets/Cloud_FM33A0XX/GCC/../../../targets/Cloud_FM33A0XX/Drivers\fm33a0xx_gpio.c **** 
 251:e:/LiteOS/LiteOS/targets/Cloud_FM33A0XX/GCC/../../../targets/Cloud_FM33A0XX/Drivers\fm33a0xx_gpio.c **** void GPIO_ALL_Deinit(void)
 252:e:/LiteOS/LiteOS/targets/Cloud_FM33A0XX/GCC/../../../targets/Cloud_FM33A0XX/Drivers\fm33a0xx_gpio.c **** {
 850              		.loc 1 252 0
 851              		.cfi_startproc
 852              		@ args = 0, pretend = 0, frame = 0
 853              		@ frame_needed = 0, uses_anonymous_args = 0
 854 0000 10B5     		push	{r4, lr}
 855              	.LCFI0:
 856              		.cfi_def_cfa_offset 8
 857              		.cfi_offset 4, -8
 858              		.cfi_offset 14, -4
 253:e:/LiteOS/LiteOS/targets/Cloud_FM33A0XX/GCC/../../../targets/Cloud_FM33A0XX/Drivers\fm33a0xx_gpio.c **** 	GPIO_Deinit();
 859              		.loc 1 253 0
 860 0002 FFF7FEFF 		bl	GPIO_Deinit
 861              	.LVL48:
 254:e:/LiteOS/LiteOS/targets/Cloud_FM33A0XX/GCC/../../../targets/Cloud_FM33A0XX/Drivers\fm33a0xx_gpio.c **** 	GPIOx_Deinit(GPIOA);
 862              		.loc 1 254 0
 863 0006 0B48     		ldr	r0, .L73
 864 0008 FFF7FEFF 		bl	GPIOx_Deinit
 865              	.LVL49:
 255:e:/LiteOS/LiteOS/targets/Cloud_FM33A0XX/GCC/../../../targets/Cloud_FM33A0XX/Drivers\fm33a0xx_gpio.c **** 	GPIOx_Deinit(GPIOB);
 866              		.loc 1 255 0
 867 000c 0A48     		ldr	r0, .L73+4
 868 000e FFF7FEFF 		bl	GPIOx_Deinit
 869              	.LVL50:
 256:e:/LiteOS/LiteOS/targets/Cloud_FM33A0XX/GCC/../../../targets/Cloud_FM33A0XX/Drivers\fm33a0xx_gpio.c **** 	GPIOx_Deinit(GPIOC);
 870              		.loc 1 256 0
 871 0012 0A48     		ldr	r0, .L73+8
 872 0014 FFF7FEFF 		bl	GPIOx_Deinit
 873              	.LVL51:
 257:e:/LiteOS/LiteOS/targets/Cloud_FM33A0XX/GCC/../../../targets/Cloud_FM33A0XX/Drivers\fm33a0xx_gpio.c **** 	GPIOx_Deinit(GPIOD);
 874              		.loc 1 257 0
 875 0018 0948     		ldr	r0, .L73+12
 876 001a FFF7FEFF 		bl	GPIOx_Deinit
 877              	.LVL52:
ARM GAS  C:\Users\WANGBI~1\AppData\Local\Temp\ccUoabl7.s 			page 20


 258:e:/LiteOS/LiteOS/targets/Cloud_FM33A0XX/GCC/../../../targets/Cloud_FM33A0XX/Drivers\fm33a0xx_gpio.c **** 	GPIOx_Deinit(GPIOE);
 878              		.loc 1 258 0
 879 001e 0948     		ldr	r0, .L73+16
 880 0020 FFF7FEFF 		bl	GPIOx_Deinit
 881              	.LVL53:
 259:e:/LiteOS/LiteOS/targets/Cloud_FM33A0XX/GCC/../../../targets/Cloud_FM33A0XX/Drivers\fm33a0xx_gpio.c **** 	GPIOx_Deinit(GPIOF);
 882              		.loc 1 259 0
 883 0024 0848     		ldr	r0, .L73+20
 884 0026 FFF7FEFF 		bl	GPIOx_Deinit
 885              	.LVL54:
 260:e:/LiteOS/LiteOS/targets/Cloud_FM33A0XX/GCC/../../../targets/Cloud_FM33A0XX/Drivers\fm33a0xx_gpio.c **** 	GPIOx_Deinit(GPIOG);
 886              		.loc 1 260 0
 887 002a 0848     		ldr	r0, .L73+24
 888 002c FFF7FEFF 		bl	GPIOx_Deinit
 889              	.LVL55:
 261:e:/LiteOS/LiteOS/targets/Cloud_FM33A0XX/GCC/../../../targets/Cloud_FM33A0XX/Drivers\fm33a0xx_gpio.c **** }
 890              		.loc 1 261 0
 891              		@ sp needed
 892 0030 10BD     		pop	{r4, pc}
 893              	.L74:
 894 0032 C046     		.align	2
 895              	.L73:
 896 0034 000C0040 		.word	1073744896
 897 0038 200C0040 		.word	1073744928
 898 003c 400C0040 		.word	1073744960
 899 0040 600C0040 		.word	1073744992
 900 0044 800C0040 		.word	1073745024
 901 0048 A00C0040 		.word	1073745056
 902 004c C00C0040 		.word	1073745088
 903              		.cfi_endproc
 904              	.LFE61:
 906              		.section	.text.GPIO_Init,"ax",%progbits
 907              		.align	2
 908              		.global	GPIO_Init
 909              		.code	16
 910              		.thumb_func
 912              	GPIO_Init:
 913              	.LFB62:
 262:e:/LiteOS/LiteOS/targets/Cloud_FM33A0XX/GCC/../../../targets/Cloud_FM33A0XX/Drivers\fm33a0xx_gpio.c **** 
 263:e:/LiteOS/LiteOS/targets/Cloud_FM33A0XX/GCC/../../../targets/Cloud_FM33A0XX/Drivers\fm33a0xx_gpio.c **** /* GPIO 初始化配置 */
 264:e:/LiteOS/LiteOS/targets/Cloud_FM33A0XX/GCC/../../../targets/Cloud_FM33A0XX/Drivers\fm33a0xx_gpio.c **** void GPIO_Init(GPIOx_Type* GPIOx, GPIO_InitTypeDef* para)
 265:e:/LiteOS/LiteOS/targets/Cloud_FM33A0XX/GCC/../../../targets/Cloud_FM33A0XX/Drivers\fm33a0xx_gpio.c **** {
 914              		.loc 1 265 0
 915              		.cfi_startproc
 916              		@ args = 0, pretend = 0, frame = 0
 917              		@ frame_needed = 0, uses_anonymous_args = 0
 918              	.LVL56:
 919 0000 30B5     		push	{r4, r5, lr}
 920              	.LCFI1:
 921              		.cfi_def_cfa_offset 12
 922              		.cfi_offset 4, -12
 923              		.cfi_offset 5, -8
 924              		.cfi_offset 14, -4
 925              	.LVL57:
 266:e:/LiteOS/LiteOS/targets/Cloud_FM33A0XX/GCC/../../../targets/Cloud_FM33A0XX/Drivers\fm33a0xx_gpio.c ****     uint32_t pinpos = 0x00,pinbit = 0x00,currentpin =0x00;
 267:e:/LiteOS/LiteOS/targets/Cloud_FM33A0XX/GCC/../../../targets/Cloud_FM33A0XX/Drivers\fm33a0xx_gpio.c **** 	uint32_t tmpreg; 
 268:e:/LiteOS/LiteOS/targets/Cloud_FM33A0XX/GCC/../../../targets/Cloud_FM33A0XX/Drivers\fm33a0xx_gpio.c **** 
ARM GAS  C:\Users\WANGBI~1\AppData\Local\Temp\ccUoabl7.s 			page 21


 269:e:/LiteOS/LiteOS/targets/Cloud_FM33A0XX/GCC/../../../targets/Cloud_FM33A0XX/Drivers\fm33a0xx_gpio.c ****     assert_param(IS_GPIO_ALL_PERIPH(GPIOx));	
 270:e:/LiteOS/LiteOS/targets/Cloud_FM33A0XX/GCC/../../../targets/Cloud_FM33A0XX/Drivers\fm33a0xx_gpio.c **** 	
 271:e:/LiteOS/LiteOS/targets/Cloud_FM33A0XX/GCC/../../../targets/Cloud_FM33A0XX/Drivers\fm33a0xx_gpio.c ****     for (pinpos = 0; pinpos < 16; pinpos++)
 926              		.loc 1 271 0
 927 0002 0024     		movs	r4, #0
 928 0004 25E0     		b	.L76
 929              	.LVL58:
 930              	.L78:
 272:e:/LiteOS/LiteOS/targets/Cloud_FM33A0XX/GCC/../../../targets/Cloud_FM33A0XX/Drivers\fm33a0xx_gpio.c ****     {
 273:e:/LiteOS/LiteOS/targets/Cloud_FM33A0XX/GCC/../../../targets/Cloud_FM33A0XX/Drivers\fm33a0xx_gpio.c ****         pinbit = ((uint32_t)0x01) <<pinpos;
 931              		.loc 1 273 0
 932 0006 0123     		movs	r3, #1
 933 0008 A340     		lsls	r3, r3, r4
 934              	.LVL59:
 274:e:/LiteOS/LiteOS/targets/Cloud_FM33A0XX/GCC/../../../targets/Cloud_FM33A0XX/Drivers\fm33a0xx_gpio.c ****         currentpin = (para->Pin) & pinbit;
 935              		.loc 1 274 0
 936 000a 0A68     		ldr	r2, [r1]
 937 000c 1A40     		ands	r2, r3
 938              	.LVL60:
 275:e:/LiteOS/LiteOS/targets/Cloud_FM33A0XX/GCC/../../../targets/Cloud_FM33A0XX/Drivers\fm33a0xx_gpio.c **** 			
 276:e:/LiteOS/LiteOS/targets/Cloud_FM33A0XX/GCC/../../../targets/Cloud_FM33A0XX/Drivers\fm33a0xx_gpio.c ****         if (currentpin == pinbit)
 939              		.loc 1 276 0
 940 000e 9342     		cmp	r3, r2
 941 0010 1ED1     		bne	.L77
 277:e:/LiteOS/LiteOS/targets/Cloud_FM33A0XX/GCC/../../../targets/Cloud_FM33A0XX/Drivers\fm33a0xx_gpio.c ****         {
 278:e:/LiteOS/LiteOS/targets/Cloud_FM33A0XX/GCC/../../../targets/Cloud_FM33A0XX/Drivers\fm33a0xx_gpio.c **** 			tmpreg = GPIOx->INEN;
 942              		.loc 1 278 0
 943 0012 0268     		ldr	r2, [r0]
 944              	.LVL61:
 279:e:/LiteOS/LiteOS/targets/Cloud_FM33A0XX/GCC/../../../targets/Cloud_FM33A0XX/Drivers\fm33a0xx_gpio.c ****             tmpreg &= ~pinbit;
 945              		.loc 1 279 0
 946 0014 DB43     		mvns	r3, r3
 947              	.LVL62:
 948 0016 1A40     		ands	r2, r3
 949              	.LVL63:
 950 0018 1500     		movs	r5, r2
 951              	.LVL64:
 280:e:/LiteOS/LiteOS/targets/Cloud_FM33A0XX/GCC/../../../targets/Cloud_FM33A0XX/Drivers\fm33a0xx_gpio.c ****             tmpreg |= (para->PxINEN)<<pinpos;	
 952              		.loc 1 280 0
 953 001a CA79     		ldrb	r2, [r1, #7]
 954              	.LVL65:
 955 001c A240     		lsls	r2, r2, r4
 956 001e 2A43     		orrs	r2, r5
 957              	.LVL66:
 281:e:/LiteOS/LiteOS/targets/Cloud_FM33A0XX/GCC/../../../targets/Cloud_FM33A0XX/Drivers\fm33a0xx_gpio.c **** 			GPIOx->INEN = tmpreg;
 958              		.loc 1 281 0
 959 0020 0260     		str	r2, [r0]
 960              	.LVL67:
 282:e:/LiteOS/LiteOS/targets/Cloud_FM33A0XX/GCC/../../../targets/Cloud_FM33A0XX/Drivers\fm33a0xx_gpio.c **** 			
 283:e:/LiteOS/LiteOS/targets/Cloud_FM33A0XX/GCC/../../../targets/Cloud_FM33A0XX/Drivers\fm33a0xx_gpio.c **** 			tmpreg = GPIOx->PUEN;
 961              		.loc 1 283 0
 962 0022 4268     		ldr	r2, [r0, #4]
 963              	.LVL68:
 284:e:/LiteOS/LiteOS/targets/Cloud_FM33A0XX/GCC/../../../targets/Cloud_FM33A0XX/Drivers\fm33a0xx_gpio.c **** 			tmpreg &= ~pinbit;
 964              		.loc 1 284 0
 965 0024 1A40     		ands	r2, r3
 966              	.LVL69:
ARM GAS  C:\Users\WANGBI~1\AppData\Local\Temp\ccUoabl7.s 			page 22


 967 0026 1500     		movs	r5, r2
 968              	.LVL70:
 285:e:/LiteOS/LiteOS/targets/Cloud_FM33A0XX/GCC/../../../targets/Cloud_FM33A0XX/Drivers\fm33a0xx_gpio.c ****             tmpreg |= (para->PxPUEN)<<pinpos;
 969              		.loc 1 285 0
 970 0028 8A79     		ldrb	r2, [r1, #6]
 971              	.LVL71:
 972 002a A240     		lsls	r2, r2, r4
 973 002c 2A43     		orrs	r2, r5
 974              	.LVL72:
 286:e:/LiteOS/LiteOS/targets/Cloud_FM33A0XX/GCC/../../../targets/Cloud_FM33A0XX/Drivers\fm33a0xx_gpio.c **** 			GPIOx->PUEN = tmpreg;
 975              		.loc 1 286 0
 976 002e 4260     		str	r2, [r0, #4]
 287:e:/LiteOS/LiteOS/targets/Cloud_FM33A0XX/GCC/../../../targets/Cloud_FM33A0XX/Drivers\fm33a0xx_gpio.c **** 			
 288:e:/LiteOS/LiteOS/targets/Cloud_FM33A0XX/GCC/../../../targets/Cloud_FM33A0XX/Drivers\fm33a0xx_gpio.c **** 			tmpreg = GPIOx->ODEN;
 977              		.loc 1 288 0
 978 0030 8268     		ldr	r2, [r0, #8]
 979              	.LVL73:
 289:e:/LiteOS/LiteOS/targets/Cloud_FM33A0XX/GCC/../../../targets/Cloud_FM33A0XX/Drivers\fm33a0xx_gpio.c **** 			tmpreg &= ~pinbit;
 980              		.loc 1 289 0
 981 0032 1340     		ands	r3, r2
 982              	.LVL74:
 290:e:/LiteOS/LiteOS/targets/Cloud_FM33A0XX/GCC/../../../targets/Cloud_FM33A0XX/Drivers\fm33a0xx_gpio.c ****             tmpreg |= (para->PxODEN)<<pinpos;
 983              		.loc 1 290 0
 984 0034 4A79     		ldrb	r2, [r1, #5]
 985 0036 A240     		lsls	r2, r2, r4
 986 0038 1343     		orrs	r3, r2
 987              	.LVL75:
 291:e:/LiteOS/LiteOS/targets/Cloud_FM33A0XX/GCC/../../../targets/Cloud_FM33A0XX/Drivers\fm33a0xx_gpio.c **** 			GPIOx->ODEN = tmpreg;
 988              		.loc 1 291 0
 989 003a 8360     		str	r3, [r0, #8]
 292:e:/LiteOS/LiteOS/targets/Cloud_FM33A0XX/GCC/../../../targets/Cloud_FM33A0XX/Drivers\fm33a0xx_gpio.c **** 
 293:e:/LiteOS/LiteOS/targets/Cloud_FM33A0XX/GCC/../../../targets/Cloud_FM33A0XX/Drivers\fm33a0xx_gpio.c **** 			pinbit = (((uint32_t)0x00000003)) <<(pinpos*2);
 990              		.loc 1 293 0
 991 003c 6500     		lsls	r5, r4, #1
 992 003e 0322     		movs	r2, #3
 993 0040 AA40     		lsls	r2, r2, r5
 994              	.LVL76:
 294:e:/LiteOS/LiteOS/targets/Cloud_FM33A0XX/GCC/../../../targets/Cloud_FM33A0XX/Drivers\fm33a0xx_gpio.c **** 			tmpreg = GPIOx->FCR;
 995              		.loc 1 294 0
 996 0042 C368     		ldr	r3, [r0, #12]
 997              	.LVL77:
 295:e:/LiteOS/LiteOS/targets/Cloud_FM33A0XX/GCC/../../../targets/Cloud_FM33A0XX/Drivers\fm33a0xx_gpio.c ****             tmpreg &= ~pinbit;
 998              		.loc 1 295 0
 999 0044 9343     		bics	r3, r2
 1000              	.LVL78:
 1001 0046 1A00     		movs	r2, r3
 1002              	.LVL79:
 296:e:/LiteOS/LiteOS/targets/Cloud_FM33A0XX/GCC/../../../targets/Cloud_FM33A0XX/Drivers\fm33a0xx_gpio.c ****             tmpreg |= (para->PxFCR)<<(pinpos*2);
 1003              		.loc 1 296 0
 1004 0048 0B79     		ldrb	r3, [r1, #4]
 1005 004a AB40     		lsls	r3, r3, r5
 1006 004c 1343     		orrs	r3, r2
 1007              	.LVL80:
 297:e:/LiteOS/LiteOS/targets/Cloud_FM33A0XX/GCC/../../../targets/Cloud_FM33A0XX/Drivers\fm33a0xx_gpio.c **** 			GPIOx->FCR = tmpreg;
 1008              		.loc 1 297 0
 1009 004e C360     		str	r3, [r0, #12]
 1010              	.LVL81:
ARM GAS  C:\Users\WANGBI~1\AppData\Local\Temp\ccUoabl7.s 			page 23


 1011              	.L77:
 271:e:/LiteOS/LiteOS/targets/Cloud_FM33A0XX/GCC/../../../targets/Cloud_FM33A0XX/Drivers\fm33a0xx_gpio.c ****     {
 1012              		.loc 1 271 0 discriminator 2
 1013 0050 0134     		adds	r4, r4, #1
 1014              	.LVL82:
 1015              	.L76:
 271:e:/LiteOS/LiteOS/targets/Cloud_FM33A0XX/GCC/../../../targets/Cloud_FM33A0XX/Drivers\fm33a0xx_gpio.c ****     {
 1016              		.loc 1 271 0 is_stmt 0 discriminator 1
 1017 0052 0F2C     		cmp	r4, #15
 1018 0054 D7D9     		bls	.L78
 298:e:/LiteOS/LiteOS/targets/Cloud_FM33A0XX/GCC/../../../targets/Cloud_FM33A0XX/Drivers\fm33a0xx_gpio.c ****         }
 299:e:/LiteOS/LiteOS/targets/Cloud_FM33A0XX/GCC/../../../targets/Cloud_FM33A0XX/Drivers\fm33a0xx_gpio.c ****     }
 300:e:/LiteOS/LiteOS/targets/Cloud_FM33A0XX/GCC/../../../targets/Cloud_FM33A0XX/Drivers\fm33a0xx_gpio.c **** }
 1019              		.loc 1 300 0 is_stmt 1
 1020              		@ sp needed
 1021              	.LVL83:
 1022 0056 30BD     		pop	{r4, r5, pc}
 1023              		.cfi_endproc
 1024              	.LFE62:
 1026              		.section	.text.GPIO_Get_InitPara,"ax",%progbits
 1027              		.align	2
 1028              		.global	GPIO_Get_InitPara
 1029              		.code	16
 1030              		.thumb_func
 1032              	GPIO_Get_InitPara:
 1033              	.LFB63:
 301:e:/LiteOS/LiteOS/targets/Cloud_FM33A0XX/GCC/../../../targets/Cloud_FM33A0XX/Drivers\fm33a0xx_gpio.c **** 
 302:e:/LiteOS/LiteOS/targets/Cloud_FM33A0XX/GCC/../../../targets/Cloud_FM33A0XX/Drivers\fm33a0xx_gpio.c **** /* 获取一个IO口的配置参数结构体 
 303:e:/LiteOS/LiteOS/targets/Cloud_FM33A0XX/GCC/../../../targets/Cloud_FM33A0XX/Drivers\fm33a0xx_gpio.c **** 	注意一次只能读取一个IO的配置
 304:e:/LiteOS/LiteOS/targets/Cloud_FM33A0XX/GCC/../../../targets/Cloud_FM33A0XX/Drivers\fm33a0xx_gpio.c **** */
 305:e:/LiteOS/LiteOS/targets/Cloud_FM33A0XX/GCC/../../../targets/Cloud_FM33A0XX/Drivers\fm33a0xx_gpio.c **** 
 306:e:/LiteOS/LiteOS/targets/Cloud_FM33A0XX/GCC/../../../targets/Cloud_FM33A0XX/Drivers\fm33a0xx_gpio.c **** void GPIO_Get_InitPara(GPIOx_Type* GPIOx, uint32_t GPIO_Pin, GPIO_InitTypeDef* para)
 307:e:/LiteOS/LiteOS/targets/Cloud_FM33A0XX/GCC/../../../targets/Cloud_FM33A0XX/Drivers\fm33a0xx_gpio.c **** {
 1034              		.loc 1 307 0
 1035              		.cfi_startproc
 1036              		@ args = 0, pretend = 0, frame = 0
 1037              		@ frame_needed = 0, uses_anonymous_args = 0
 1038              	.LVL84:
 1039 0000 10B5     		push	{r4, lr}
 1040              	.LCFI2:
 1041              		.cfi_def_cfa_offset 8
 1042              		.cfi_offset 4, -8
 1043              		.cfi_offset 14, -4
 1044              	.LVL85:
 308:e:/LiteOS/LiteOS/targets/Cloud_FM33A0XX/GCC/../../../targets/Cloud_FM33A0XX/Drivers\fm33a0xx_gpio.c ****     uint32_t pinbit = 0x00;
 309:e:/LiteOS/LiteOS/targets/Cloud_FM33A0XX/GCC/../../../targets/Cloud_FM33A0XX/Drivers\fm33a0xx_gpio.c ****     uint32_t i,temp;
 310:e:/LiteOS/LiteOS/targets/Cloud_FM33A0XX/GCC/../../../targets/Cloud_FM33A0XX/Drivers\fm33a0xx_gpio.c **** 
 311:e:/LiteOS/LiteOS/targets/Cloud_FM33A0XX/GCC/../../../targets/Cloud_FM33A0XX/Drivers\fm33a0xx_gpio.c **** 	assert_param(IS_GPIO_ALL_PERIPH(GPIOx));	
 312:e:/LiteOS/LiteOS/targets/Cloud_FM33A0XX/GCC/../../../targets/Cloud_FM33A0XX/Drivers\fm33a0xx_gpio.c **** 	
 313:e:/LiteOS/LiteOS/targets/Cloud_FM33A0XX/GCC/../../../targets/Cloud_FM33A0XX/Drivers\fm33a0xx_gpio.c **** 	for (i = 0; i < 16; i++)
 1045              		.loc 1 313 0
 1046 0002 0023     		movs	r3, #0
 1047 0004 04E0     		b	.L80
 1048              	.LVL86:
 1049              	.L82:
 314:e:/LiteOS/LiteOS/targets/Cloud_FM33A0XX/GCC/../../../targets/Cloud_FM33A0XX/Drivers\fm33a0xx_gpio.c **** 	{
 315:e:/LiteOS/LiteOS/targets/Cloud_FM33A0XX/GCC/../../../targets/Cloud_FM33A0XX/Drivers\fm33a0xx_gpio.c **** 		pinbit = GPIO_Pin & (1<<i);
ARM GAS  C:\Users\WANGBI~1\AppData\Local\Temp\ccUoabl7.s 			page 24


 1050              		.loc 1 315 0
 1051 0006 0124     		movs	r4, #1
 1052 0008 9C40     		lsls	r4, r4, r3
 1053              	.LVL87:
 316:e:/LiteOS/LiteOS/targets/Cloud_FM33A0XX/GCC/../../../targets/Cloud_FM33A0XX/Drivers\fm33a0xx_gpio.c **** 		if(pinbit > 0) break;
 1054              		.loc 1 316 0
 1055 000a 2142     		tst	r1, r4
 1056 000c 02D1     		bne	.L81
 313:e:/LiteOS/LiteOS/targets/Cloud_FM33A0XX/GCC/../../../targets/Cloud_FM33A0XX/Drivers\fm33a0xx_gpio.c **** 	{
 1057              		.loc 1 313 0 discriminator 2
 1058 000e 0133     		adds	r3, r3, #1
 1059              	.LVL88:
 1060              	.L80:
 313:e:/LiteOS/LiteOS/targets/Cloud_FM33A0XX/GCC/../../../targets/Cloud_FM33A0XX/Drivers\fm33a0xx_gpio.c **** 	{
 1061              		.loc 1 313 0 is_stmt 0 discriminator 1
 1062 0010 0F2B     		cmp	r3, #15
 1063 0012 F8D9     		bls	.L82
 1064              	.L81:
 317:e:/LiteOS/LiteOS/targets/Cloud_FM33A0XX/GCC/../../../targets/Cloud_FM33A0XX/Drivers\fm33a0xx_gpio.c **** 	}
 318:e:/LiteOS/LiteOS/targets/Cloud_FM33A0XX/GCC/../../../targets/Cloud_FM33A0XX/Drivers\fm33a0xx_gpio.c **** 	
 319:e:/LiteOS/LiteOS/targets/Cloud_FM33A0XX/GCC/../../../targets/Cloud_FM33A0XX/Drivers\fm33a0xx_gpio.c **** 	if(i < 16)
 1065              		.loc 1 319 0 is_stmt 1
 1066 0014 0F2B     		cmp	r3, #15
 1067 0016 2ED8     		bhi	.L79
 1068              	.LVL89:
 320:e:/LiteOS/LiteOS/targets/Cloud_FM33A0XX/GCC/../../../targets/Cloud_FM33A0XX/Drivers\fm33a0xx_gpio.c **** 	{
 321:e:/LiteOS/LiteOS/targets/Cloud_FM33A0XX/GCC/../../../targets/Cloud_FM33A0XX/Drivers\fm33a0xx_gpio.c **** 		pinbit = i;
 322:e:/LiteOS/LiteOS/targets/Cloud_FM33A0XX/GCC/../../../targets/Cloud_FM33A0XX/Drivers\fm33a0xx_gpio.c **** 		para->Pin = GPIO_Pin;
 1069              		.loc 1 322 0
 1070 0018 1160     		str	r1, [r2]
 323:e:/LiteOS/LiteOS/targets/Cloud_FM33A0XX/GCC/../../../targets/Cloud_FM33A0XX/Drivers\fm33a0xx_gpio.c **** 		
 324:e:/LiteOS/LiteOS/targets/Cloud_FM33A0XX/GCC/../../../targets/Cloud_FM33A0XX/Drivers\fm33a0xx_gpio.c **** 		temp = (GPIOx->INEN&GPIO_Pin)>>pinbit;
 1071              		.loc 1 324 0
 1072 001a 0468     		ldr	r4, [r0]
 1073 001c 0C40     		ands	r4, r1
 1074 001e DC40     		lsrs	r4, r4, r3
 1075              	.LVL90:
 325:e:/LiteOS/LiteOS/targets/Cloud_FM33A0XX/GCC/../../../targets/Cloud_FM33A0XX/Drivers\fm33a0xx_gpio.c **** 		if(temp == (uint32_t)GPIO_IN_En)
 1076              		.loc 1 325 0
 1077 0020 012C     		cmp	r4, #1
 1078 0022 01D1     		bne	.L84
 326:e:/LiteOS/LiteOS/targets/Cloud_FM33A0XX/GCC/../../../targets/Cloud_FM33A0XX/Drivers\fm33a0xx_gpio.c **** 		{                                         
 327:e:/LiteOS/LiteOS/targets/Cloud_FM33A0XX/GCC/../../../targets/Cloud_FM33A0XX/Drivers\fm33a0xx_gpio.c **** 			para->PxINEN = GPIO_IN_En;
 1079              		.loc 1 327 0
 1080 0024 D471     		strb	r4, [r2, #7]
 1081 0026 01E0     		b	.L85
 1082              	.L84:
 328:e:/LiteOS/LiteOS/targets/Cloud_FM33A0XX/GCC/../../../targets/Cloud_FM33A0XX/Drivers\fm33a0xx_gpio.c **** 		}
 329:e:/LiteOS/LiteOS/targets/Cloud_FM33A0XX/GCC/../../../targets/Cloud_FM33A0XX/Drivers\fm33a0xx_gpio.c **** 		else
 330:e:/LiteOS/LiteOS/targets/Cloud_FM33A0XX/GCC/../../../targets/Cloud_FM33A0XX/Drivers\fm33a0xx_gpio.c **** 		{
 331:e:/LiteOS/LiteOS/targets/Cloud_FM33A0XX/GCC/../../../targets/Cloud_FM33A0XX/Drivers\fm33a0xx_gpio.c **** 			para->PxINEN = GPIO_IN_Dis;
 1083              		.loc 1 331 0
 1084 0028 0024     		movs	r4, #0
 1085              	.LVL91:
 1086 002a D471     		strb	r4, [r2, #7]
 1087              	.L85:
 332:e:/LiteOS/LiteOS/targets/Cloud_FM33A0XX/GCC/../../../targets/Cloud_FM33A0XX/Drivers\fm33a0xx_gpio.c **** 		}   
ARM GAS  C:\Users\WANGBI~1\AppData\Local\Temp\ccUoabl7.s 			page 25


 333:e:/LiteOS/LiteOS/targets/Cloud_FM33A0XX/GCC/../../../targets/Cloud_FM33A0XX/Drivers\fm33a0xx_gpio.c **** 		
 334:e:/LiteOS/LiteOS/targets/Cloud_FM33A0XX/GCC/../../../targets/Cloud_FM33A0XX/Drivers\fm33a0xx_gpio.c **** 		temp = (GPIOx->PUEN&GPIO_Pin)>>pinbit;                                    
 1088              		.loc 1 334 0
 1089 002c 4468     		ldr	r4, [r0, #4]
 1090 002e 0C40     		ands	r4, r1
 1091 0030 DC40     		lsrs	r4, r4, r3
 1092              	.LVL92:
 335:e:/LiteOS/LiteOS/targets/Cloud_FM33A0XX/GCC/../../../targets/Cloud_FM33A0XX/Drivers\fm33a0xx_gpio.c **** 		if(temp == (uint32_t)GPIO_PU_En)
 1093              		.loc 1 335 0
 1094 0032 012C     		cmp	r4, #1
 1095 0034 01D1     		bne	.L86
 336:e:/LiteOS/LiteOS/targets/Cloud_FM33A0XX/GCC/../../../targets/Cloud_FM33A0XX/Drivers\fm33a0xx_gpio.c **** 		{                                         
 337:e:/LiteOS/LiteOS/targets/Cloud_FM33A0XX/GCC/../../../targets/Cloud_FM33A0XX/Drivers\fm33a0xx_gpio.c **** 			para->PxPUEN = GPIO_PU_En;
 1096              		.loc 1 337 0
 1097 0036 9471     		strb	r4, [r2, #6]
 1098 0038 01E0     		b	.L87
 1099              	.L86:
 338:e:/LiteOS/LiteOS/targets/Cloud_FM33A0XX/GCC/../../../targets/Cloud_FM33A0XX/Drivers\fm33a0xx_gpio.c **** 		}
 339:e:/LiteOS/LiteOS/targets/Cloud_FM33A0XX/GCC/../../../targets/Cloud_FM33A0XX/Drivers\fm33a0xx_gpio.c **** 		else
 340:e:/LiteOS/LiteOS/targets/Cloud_FM33A0XX/GCC/../../../targets/Cloud_FM33A0XX/Drivers\fm33a0xx_gpio.c **** 		{
 341:e:/LiteOS/LiteOS/targets/Cloud_FM33A0XX/GCC/../../../targets/Cloud_FM33A0XX/Drivers\fm33a0xx_gpio.c **** 			para->PxPUEN = GPIO_PU_Dis;
 1100              		.loc 1 341 0
 1101 003a 0024     		movs	r4, #0
 1102              	.LVL93:
 1103 003c 9471     		strb	r4, [r2, #6]
 1104              	.L87:
 342:e:/LiteOS/LiteOS/targets/Cloud_FM33A0XX/GCC/../../../targets/Cloud_FM33A0XX/Drivers\fm33a0xx_gpio.c **** 		}   
 343:e:/LiteOS/LiteOS/targets/Cloud_FM33A0XX/GCC/../../../targets/Cloud_FM33A0XX/Drivers\fm33a0xx_gpio.c **** 		
 344:e:/LiteOS/LiteOS/targets/Cloud_FM33A0XX/GCC/../../../targets/Cloud_FM33A0XX/Drivers\fm33a0xx_gpio.c **** 		temp = (GPIOx->ODEN&GPIO_Pin)>>pinbit;                                   
 1105              		.loc 1 344 0
 1106 003e 8468     		ldr	r4, [r0, #8]
 1107 0040 2140     		ands	r1, r4
 1108              	.LVL94:
 1109 0042 D940     		lsrs	r1, r1, r3
 1110              	.LVL95:
 345:e:/LiteOS/LiteOS/targets/Cloud_FM33A0XX/GCC/../../../targets/Cloud_FM33A0XX/Drivers\fm33a0xx_gpio.c **** 		if(temp == (uint32_t)GPIO_OD_En)
 1111              		.loc 1 345 0
 1112 0044 0129     		cmp	r1, #1
 1113 0046 01D1     		bne	.L88
 346:e:/LiteOS/LiteOS/targets/Cloud_FM33A0XX/GCC/../../../targets/Cloud_FM33A0XX/Drivers\fm33a0xx_gpio.c **** 		{                                         
 347:e:/LiteOS/LiteOS/targets/Cloud_FM33A0XX/GCC/../../../targets/Cloud_FM33A0XX/Drivers\fm33a0xx_gpio.c **** 			para->PxODEN = GPIO_OD_En;
 1114              		.loc 1 347 0
 1115 0048 5171     		strb	r1, [r2, #5]
 1116 004a 01E0     		b	.L89
 1117              	.L88:
 348:e:/LiteOS/LiteOS/targets/Cloud_FM33A0XX/GCC/../../../targets/Cloud_FM33A0XX/Drivers\fm33a0xx_gpio.c **** 		}
 349:e:/LiteOS/LiteOS/targets/Cloud_FM33A0XX/GCC/../../../targets/Cloud_FM33A0XX/Drivers\fm33a0xx_gpio.c **** 		else
 350:e:/LiteOS/LiteOS/targets/Cloud_FM33A0XX/GCC/../../../targets/Cloud_FM33A0XX/Drivers\fm33a0xx_gpio.c **** 		{
 351:e:/LiteOS/LiteOS/targets/Cloud_FM33A0XX/GCC/../../../targets/Cloud_FM33A0XX/Drivers\fm33a0xx_gpio.c **** 			para->PxODEN = GPIO_OD_Dis;
 1118              		.loc 1 351 0
 1119 004c 0021     		movs	r1, #0
 1120              	.LVL96:
 1121 004e 5171     		strb	r1, [r2, #5]
 1122              	.L89:
 352:e:/LiteOS/LiteOS/targets/Cloud_FM33A0XX/GCC/../../../targets/Cloud_FM33A0XX/Drivers\fm33a0xx_gpio.c **** 		}  
 353:e:/LiteOS/LiteOS/targets/Cloud_FM33A0XX/GCC/../../../targets/Cloud_FM33A0XX/Drivers\fm33a0xx_gpio.c **** 		
 354:e:/LiteOS/LiteOS/targets/Cloud_FM33A0XX/GCC/../../../targets/Cloud_FM33A0XX/Drivers\fm33a0xx_gpio.c **** 		temp = (GPIOx->FCR>>(pinbit*2))&0x00000003;                                    
ARM GAS  C:\Users\WANGBI~1\AppData\Local\Temp\ccUoabl7.s 			page 26


 1123              		.loc 1 354 0
 1124 0050 C168     		ldr	r1, [r0, #12]
 1125 0052 5B00     		lsls	r3, r3, #1
 1126              	.LVL97:
 1127 0054 D940     		lsrs	r1, r1, r3
 1128 0056 0B00     		movs	r3, r1
 1129 0058 0321     		movs	r1, #3
 1130 005a 0B40     		ands	r3, r1
 1131              	.LVL98:
 355:e:/LiteOS/LiteOS/targets/Cloud_FM33A0XX/GCC/../../../targets/Cloud_FM33A0XX/Drivers\fm33a0xx_gpio.c **** 		if(temp == (uint32_t)GPIO_FCR_IN)
 1132              		.loc 1 355 0
 1133 005c 01D1     		bne	.L90
 356:e:/LiteOS/LiteOS/targets/Cloud_FM33A0XX/GCC/../../../targets/Cloud_FM33A0XX/Drivers\fm33a0xx_gpio.c **** 		{                                         
 357:e:/LiteOS/LiteOS/targets/Cloud_FM33A0XX/GCC/../../../targets/Cloud_FM33A0XX/Drivers\fm33a0xx_gpio.c **** 			para->PxFCR = GPIO_FCR_IN;
 1134              		.loc 1 357 0
 1135 005e 1371     		strb	r3, [r2, #4]
 1136 0060 09E0     		b	.L79
 1137              	.L90:
 358:e:/LiteOS/LiteOS/targets/Cloud_FM33A0XX/GCC/../../../targets/Cloud_FM33A0XX/Drivers\fm33a0xx_gpio.c **** 		}
 359:e:/LiteOS/LiteOS/targets/Cloud_FM33A0XX/GCC/../../../targets/Cloud_FM33A0XX/Drivers\fm33a0xx_gpio.c **** 		else if(temp == (uint32_t)GPIO_FCR_OUT)
 1138              		.loc 1 359 0
 1139 0062 012B     		cmp	r3, #1
 1140 0064 01D1     		bne	.L91
 360:e:/LiteOS/LiteOS/targets/Cloud_FM33A0XX/GCC/../../../targets/Cloud_FM33A0XX/Drivers\fm33a0xx_gpio.c **** 		{
 361:e:/LiteOS/LiteOS/targets/Cloud_FM33A0XX/GCC/../../../targets/Cloud_FM33A0XX/Drivers\fm33a0xx_gpio.c **** 			para->PxFCR = GPIO_FCR_OUT;
 1141              		.loc 1 361 0
 1142 0066 1371     		strb	r3, [r2, #4]
 1143 0068 05E0     		b	.L79
 1144              	.L91:
 362:e:/LiteOS/LiteOS/targets/Cloud_FM33A0XX/GCC/../../../targets/Cloud_FM33A0XX/Drivers\fm33a0xx_gpio.c **** 		}
 363:e:/LiteOS/LiteOS/targets/Cloud_FM33A0XX/GCC/../../../targets/Cloud_FM33A0XX/Drivers\fm33a0xx_gpio.c **** 		else if(temp == (uint32_t)GPIO_FCR_DIG)
 1145              		.loc 1 363 0
 1146 006a 022B     		cmp	r3, #2
 1147 006c 01D1     		bne	.L92
 364:e:/LiteOS/LiteOS/targets/Cloud_FM33A0XX/GCC/../../../targets/Cloud_FM33A0XX/Drivers\fm33a0xx_gpio.c **** 		{                                         
 365:e:/LiteOS/LiteOS/targets/Cloud_FM33A0XX/GCC/../../../targets/Cloud_FM33A0XX/Drivers\fm33a0xx_gpio.c **** 			para->PxFCR = GPIO_FCR_DIG;
 1148              		.loc 1 365 0
 1149 006e 1371     		strb	r3, [r2, #4]
 1150 0070 01E0     		b	.L79
 1151              	.L92:
 366:e:/LiteOS/LiteOS/targets/Cloud_FM33A0XX/GCC/../../../targets/Cloud_FM33A0XX/Drivers\fm33a0xx_gpio.c **** 		}
 367:e:/LiteOS/LiteOS/targets/Cloud_FM33A0XX/GCC/../../../targets/Cloud_FM33A0XX/Drivers\fm33a0xx_gpio.c **** 		else
 368:e:/LiteOS/LiteOS/targets/Cloud_FM33A0XX/GCC/../../../targets/Cloud_FM33A0XX/Drivers\fm33a0xx_gpio.c **** 		{
 369:e:/LiteOS/LiteOS/targets/Cloud_FM33A0XX/GCC/../../../targets/Cloud_FM33A0XX/Drivers\fm33a0xx_gpio.c **** 			para->PxFCR = GPIO_FCR_ANA;
 1152              		.loc 1 369 0
 1153 0072 0323     		movs	r3, #3
 1154              	.LVL99:
 1155 0074 1371     		strb	r3, [r2, #4]
 1156              	.LVL100:
 1157              	.L79:
 370:e:/LiteOS/LiteOS/targets/Cloud_FM33A0XX/GCC/../../../targets/Cloud_FM33A0XX/Drivers\fm33a0xx_gpio.c **** 		}
 371:e:/LiteOS/LiteOS/targets/Cloud_FM33A0XX/GCC/../../../targets/Cloud_FM33A0XX/Drivers\fm33a0xx_gpio.c **** 	}  
 372:e:/LiteOS/LiteOS/targets/Cloud_FM33A0XX/GCC/../../../targets/Cloud_FM33A0XX/Drivers\fm33a0xx_gpio.c **** }
 1158              		.loc 1 372 0
 1159              		@ sp needed
 1160 0076 10BD     		pop	{r4, pc}
 1161              		.cfi_endproc
ARM GAS  C:\Users\WANGBI~1\AppData\Local\Temp\ccUoabl7.s 			page 27


 1162              	.LFE63:
 1164              		.section	.text.GPIO_ReadInputData,"ax",%progbits
 1165              		.align	2
 1166              		.global	GPIO_ReadInputData
 1167              		.code	16
 1168              		.thumb_func
 1170              	GPIO_ReadInputData:
 1171              	.LFB64:
 373:e:/LiteOS/LiteOS/targets/Cloud_FM33A0XX/GCC/../../../targets/Cloud_FM33A0XX/Drivers\fm33a0xx_gpio.c **** 
 374:e:/LiteOS/LiteOS/targets/Cloud_FM33A0XX/GCC/../../../targets/Cloud_FM33A0XX/Drivers\fm33a0xx_gpio.c **** /* 读取GPIOx输入数据寄存器 */
 375:e:/LiteOS/LiteOS/targets/Cloud_FM33A0XX/GCC/../../../targets/Cloud_FM33A0XX/Drivers\fm33a0xx_gpio.c **** uint32_t GPIO_ReadInputData(GPIOx_Type* GPIOx)
 376:e:/LiteOS/LiteOS/targets/Cloud_FM33A0XX/GCC/../../../targets/Cloud_FM33A0XX/Drivers\fm33a0xx_gpio.c **** {
 1172              		.loc 1 376 0
 1173              		.cfi_startproc
 1174              		@ args = 0, pretend = 0, frame = 0
 1175              		@ frame_needed = 0, uses_anonymous_args = 0
 1176              		@ link register save eliminated.
 1177              	.LVL101:
 377:e:/LiteOS/LiteOS/targets/Cloud_FM33A0XX/GCC/../../../targets/Cloud_FM33A0XX/Drivers\fm33a0xx_gpio.c **** 	assert_param(IS_GPIO_ALL_PERIPH(GPIOx));
 378:e:/LiteOS/LiteOS/targets/Cloud_FM33A0XX/GCC/../../../targets/Cloud_FM33A0XX/Drivers\fm33a0xx_gpio.c **** 	
 379:e:/LiteOS/LiteOS/targets/Cloud_FM33A0XX/GCC/../../../targets/Cloud_FM33A0XX/Drivers\fm33a0xx_gpio.c **** //	return(GPIOx_DIN_Read(GPIOx));
 380:e:/LiteOS/LiteOS/targets/Cloud_FM33A0XX/GCC/../../../targets/Cloud_FM33A0XX/Drivers\fm33a0xx_gpio.c **** 	return (GPIOx->DIN);
 1178              		.loc 1 380 0
 1179 0000 C069     		ldr	r0, [r0, #28]
 1180              	.LVL102:
 381:e:/LiteOS/LiteOS/targets/Cloud_FM33A0XX/GCC/../../../targets/Cloud_FM33A0XX/Drivers\fm33a0xx_gpio.c **** }
 1181              		.loc 1 381 0
 1182              		@ sp needed
 1183 0002 7047     		bx	lr
 1184              		.cfi_endproc
 1185              	.LFE64:
 1187              		.section	.text.GPIO_ReadInputDataBit,"ax",%progbits
 1188              		.align	2
 1189              		.global	GPIO_ReadInputDataBit
 1190              		.code	16
 1191              		.thumb_func
 1193              	GPIO_ReadInputDataBit:
 1194              	.LFB65:
 382:e:/LiteOS/LiteOS/targets/Cloud_FM33A0XX/GCC/../../../targets/Cloud_FM33A0XX/Drivers\fm33a0xx_gpio.c **** 
 383:e:/LiteOS/LiteOS/targets/Cloud_FM33A0XX/GCC/../../../targets/Cloud_FM33A0XX/Drivers\fm33a0xx_gpio.c **** /* 读取GPIOx输入数据寄存器bit */
 384:e:/LiteOS/LiteOS/targets/Cloud_FM33A0XX/GCC/../../../targets/Cloud_FM33A0XX/Drivers\fm33a0xx_gpio.c **** uint8_t GPIO_ReadInputDataBit(GPIOx_Type* GPIOx, uint32_t GPIO_Pin)
 385:e:/LiteOS/LiteOS/targets/Cloud_FM33A0XX/GCC/../../../targets/Cloud_FM33A0XX/Drivers\fm33a0xx_gpio.c **** {
 1195              		.loc 1 385 0
 1196              		.cfi_startproc
 1197              		@ args = 0, pretend = 0, frame = 0
 1198              		@ frame_needed = 0, uses_anonymous_args = 0
 1199              		@ link register save eliminated.
 1200              	.LVL103:
 386:e:/LiteOS/LiteOS/targets/Cloud_FM33A0XX/GCC/../../../targets/Cloud_FM33A0XX/Drivers\fm33a0xx_gpio.c ****     uint8_t bitstatus = 0x00;
 387:e:/LiteOS/LiteOS/targets/Cloud_FM33A0XX/GCC/../../../targets/Cloud_FM33A0XX/Drivers\fm33a0xx_gpio.c **** 
 388:e:/LiteOS/LiteOS/targets/Cloud_FM33A0XX/GCC/../../../targets/Cloud_FM33A0XX/Drivers\fm33a0xx_gpio.c **** 	assert_param(IS_GPIO_ALL_PERIPH(GPIOx));
 389:e:/LiteOS/LiteOS/targets/Cloud_FM33A0XX/GCC/../../../targets/Cloud_FM33A0XX/Drivers\fm33a0xx_gpio.c **** 	assert_param(IS_GET_GPIO_PIN(GPIO_Pin));
 390:e:/LiteOS/LiteOS/targets/Cloud_FM33A0XX/GCC/../../../targets/Cloud_FM33A0XX/Drivers\fm33a0xx_gpio.c **** 
 391:e:/LiteOS/LiteOS/targets/Cloud_FM33A0XX/GCC/../../../targets/Cloud_FM33A0XX/Drivers\fm33a0xx_gpio.c ****     if ((GPIOx->DIN & GPIO_Pin) != (uint32_t)Bit_RESET)
 1201              		.loc 1 391 0
 1202 0000 C369     		ldr	r3, [r0, #28]
 1203 0002 1942     		tst	r1, r3
ARM GAS  C:\Users\WANGBI~1\AppData\Local\Temp\ccUoabl7.s 			page 28


 1204 0004 01D0     		beq	.L96
 392:e:/LiteOS/LiteOS/targets/Cloud_FM33A0XX/GCC/../../../targets/Cloud_FM33A0XX/Drivers\fm33a0xx_gpio.c ****     {
 393:e:/LiteOS/LiteOS/targets/Cloud_FM33A0XX/GCC/../../../targets/Cloud_FM33A0XX/Drivers\fm33a0xx_gpio.c ****         bitstatus = (uint8_t)Bit_SET;
 1205              		.loc 1 393 0
 1206 0006 0120     		movs	r0, #1
 1207              	.LVL104:
 1208 0008 00E0     		b	.L95
 1209              	.LVL105:
 1210              	.L96:
 394:e:/LiteOS/LiteOS/targets/Cloud_FM33A0XX/GCC/../../../targets/Cloud_FM33A0XX/Drivers\fm33a0xx_gpio.c ****     }
 395:e:/LiteOS/LiteOS/targets/Cloud_FM33A0XX/GCC/../../../targets/Cloud_FM33A0XX/Drivers\fm33a0xx_gpio.c ****     else
 396:e:/LiteOS/LiteOS/targets/Cloud_FM33A0XX/GCC/../../../targets/Cloud_FM33A0XX/Drivers\fm33a0xx_gpio.c ****     {
 397:e:/LiteOS/LiteOS/targets/Cloud_FM33A0XX/GCC/../../../targets/Cloud_FM33A0XX/Drivers\fm33a0xx_gpio.c ****         bitstatus = (uint8_t)Bit_RESET;
 1211              		.loc 1 397 0
 1212 000a 0020     		movs	r0, #0
 1213              	.LVL106:
 1214              	.L95:
 398:e:/LiteOS/LiteOS/targets/Cloud_FM33A0XX/GCC/../../../targets/Cloud_FM33A0XX/Drivers\fm33a0xx_gpio.c ****     }
 399:e:/LiteOS/LiteOS/targets/Cloud_FM33A0XX/GCC/../../../targets/Cloud_FM33A0XX/Drivers\fm33a0xx_gpio.c ****     return bitstatus;
 400:e:/LiteOS/LiteOS/targets/Cloud_FM33A0XX/GCC/../../../targets/Cloud_FM33A0XX/Drivers\fm33a0xx_gpio.c **** }
 1215              		.loc 1 400 0
 1216              		@ sp needed
 1217 000c 7047     		bx	lr
 1218              		.cfi_endproc
 1219              	.LFE65:
 1221 000e C046     		.section	.text.GPIO_SetBits,"ax",%progbits
 1222              		.align	2
 1223              		.global	GPIO_SetBits
 1224              		.code	16
 1225              		.thumb_func
 1227              	GPIO_SetBits:
 1228              	.LFB66:
 401:e:/LiteOS/LiteOS/targets/Cloud_FM33A0XX/GCC/../../../targets/Cloud_FM33A0XX/Drivers\fm33a0xx_gpio.c **** 
 402:e:/LiteOS/LiteOS/targets/Cloud_FM33A0XX/GCC/../../../targets/Cloud_FM33A0XX/Drivers\fm33a0xx_gpio.c **** /* GPIOx输出数据置1 */
 403:e:/LiteOS/LiteOS/targets/Cloud_FM33A0XX/GCC/../../../targets/Cloud_FM33A0XX/Drivers\fm33a0xx_gpio.c **** void GPIO_SetBits(GPIOx_Type* GPIOx, uint32_t GPIO_Pin)
 404:e:/LiteOS/LiteOS/targets/Cloud_FM33A0XX/GCC/../../../targets/Cloud_FM33A0XX/Drivers\fm33a0xx_gpio.c **** {
 1229              		.loc 1 404 0
 1230              		.cfi_startproc
 1231              		@ args = 0, pretend = 0, frame = 0
 1232              		@ frame_needed = 0, uses_anonymous_args = 0
 1233              		@ link register save eliminated.
 1234              	.LVL107:
 405:e:/LiteOS/LiteOS/targets/Cloud_FM33A0XX/GCC/../../../targets/Cloud_FM33A0XX/Drivers\fm33a0xx_gpio.c ****     assert_param(IS_GPIO_ALL_PERIPH(GPIOx));
 406:e:/LiteOS/LiteOS/targets/Cloud_FM33A0XX/GCC/../../../targets/Cloud_FM33A0XX/Drivers\fm33a0xx_gpio.c ****     assert_param(IS_GPIO_PIN(GPIO_Pin));
 407:e:/LiteOS/LiteOS/targets/Cloud_FM33A0XX/GCC/../../../targets/Cloud_FM33A0XX/Drivers\fm33a0xx_gpio.c **** 
 408:e:/LiteOS/LiteOS/targets/Cloud_FM33A0XX/GCC/../../../targets/Cloud_FM33A0XX/Drivers\fm33a0xx_gpio.c **** //	GPIOx_DSET_Write(GPIOx, Pin);
 409:e:/LiteOS/LiteOS/targets/Cloud_FM33A0XX/GCC/../../../targets/Cloud_FM33A0XX/Drivers\fm33a0xx_gpio.c ****     GPIOx->DSET = GPIO_Pin;
 1235              		.loc 1 409 0
 1236 0000 4161     		str	r1, [r0, #20]
 410:e:/LiteOS/LiteOS/targets/Cloud_FM33A0XX/GCC/../../../targets/Cloud_FM33A0XX/Drivers\fm33a0xx_gpio.c **** }
 1237              		.loc 1 410 0
 1238              		@ sp needed
 1239 0002 7047     		bx	lr
 1240              		.cfi_endproc
 1241              	.LFE66:
 1243              		.section	.text.GPIO_ResetBits,"ax",%progbits
 1244              		.align	2
ARM GAS  C:\Users\WANGBI~1\AppData\Local\Temp\ccUoabl7.s 			page 29


 1245              		.global	GPIO_ResetBits
 1246              		.code	16
 1247              		.thumb_func
 1249              	GPIO_ResetBits:
 1250              	.LFB67:
 411:e:/LiteOS/LiteOS/targets/Cloud_FM33A0XX/GCC/../../../targets/Cloud_FM33A0XX/Drivers\fm33a0xx_gpio.c **** 
 412:e:/LiteOS/LiteOS/targets/Cloud_FM33A0XX/GCC/../../../targets/Cloud_FM33A0XX/Drivers\fm33a0xx_gpio.c **** /* GPIOx输出数据置0 */
 413:e:/LiteOS/LiteOS/targets/Cloud_FM33A0XX/GCC/../../../targets/Cloud_FM33A0XX/Drivers\fm33a0xx_gpio.c **** void GPIO_ResetBits(GPIOx_Type* GPIOx, uint32_t GPIO_Pin)
 414:e:/LiteOS/LiteOS/targets/Cloud_FM33A0XX/GCC/../../../targets/Cloud_FM33A0XX/Drivers\fm33a0xx_gpio.c **** {
 1251              		.loc 1 414 0
 1252              		.cfi_startproc
 1253              		@ args = 0, pretend = 0, frame = 0
 1254              		@ frame_needed = 0, uses_anonymous_args = 0
 1255              		@ link register save eliminated.
 1256              	.LVL108:
 415:e:/LiteOS/LiteOS/targets/Cloud_FM33A0XX/GCC/../../../targets/Cloud_FM33A0XX/Drivers\fm33a0xx_gpio.c ****     assert_param(IS_GPIO_ALL_PERIPH(GPIOx));
 416:e:/LiteOS/LiteOS/targets/Cloud_FM33A0XX/GCC/../../../targets/Cloud_FM33A0XX/Drivers\fm33a0xx_gpio.c ****     assert_param(IS_GPIO_PIN(GPIO_Pin));
 417:e:/LiteOS/LiteOS/targets/Cloud_FM33A0XX/GCC/../../../targets/Cloud_FM33A0XX/Drivers\fm33a0xx_gpio.c **** 	
 418:e:/LiteOS/LiteOS/targets/Cloud_FM33A0XX/GCC/../../../targets/Cloud_FM33A0XX/Drivers\fm33a0xx_gpio.c **** //	GPIOx_DRESET_Write(GPIOx, Pin);
 419:e:/LiteOS/LiteOS/targets/Cloud_FM33A0XX/GCC/../../../targets/Cloud_FM33A0XX/Drivers\fm33a0xx_gpio.c ****     GPIOx->DRESET = GPIO_Pin;
 1257              		.loc 1 419 0
 1258 0000 8161     		str	r1, [r0, #24]
 420:e:/LiteOS/LiteOS/targets/Cloud_FM33A0XX/GCC/../../../targets/Cloud_FM33A0XX/Drivers\fm33a0xx_gpio.c **** }
 1259              		.loc 1 420 0
 1260              		@ sp needed
 1261 0002 7047     		bx	lr
 1262              		.cfi_endproc
 1263              	.LFE67:
 1265              		.section	.text.GPIO_ToggleBits,"ax",%progbits
 1266              		.align	2
 1267              		.global	GPIO_ToggleBits
 1268              		.code	16
 1269              		.thumb_func
 1271              	GPIO_ToggleBits:
 1272              	.LFB68:
 421:e:/LiteOS/LiteOS/targets/Cloud_FM33A0XX/GCC/../../../targets/Cloud_FM33A0XX/Drivers\fm33a0xx_gpio.c **** 
 422:e:/LiteOS/LiteOS/targets/Cloud_FM33A0XX/GCC/../../../targets/Cloud_FM33A0XX/Drivers\fm33a0xx_gpio.c **** /* GPIOx输出数据置翻转 */
 423:e:/LiteOS/LiteOS/targets/Cloud_FM33A0XX/GCC/../../../targets/Cloud_FM33A0XX/Drivers\fm33a0xx_gpio.c **** void GPIO_ToggleBits(GPIOx_Type* GPIOx, uint32_t GPIO_Pin)
 424:e:/LiteOS/LiteOS/targets/Cloud_FM33A0XX/GCC/../../../targets/Cloud_FM33A0XX/Drivers\fm33a0xx_gpio.c **** {
 1273              		.loc 1 424 0
 1274              		.cfi_startproc
 1275              		@ args = 0, pretend = 0, frame = 0
 1276              		@ frame_needed = 0, uses_anonymous_args = 0
 1277              		@ link register save eliminated.
 1278              	.LVL109:
 425:e:/LiteOS/LiteOS/targets/Cloud_FM33A0XX/GCC/../../../targets/Cloud_FM33A0XX/Drivers\fm33a0xx_gpio.c ****     assert_param(IS_GPIO_ALL_PERIPH(GPIOx));
 426:e:/LiteOS/LiteOS/targets/Cloud_FM33A0XX/GCC/../../../targets/Cloud_FM33A0XX/Drivers\fm33a0xx_gpio.c ****     assert_param(IS_GPIO_PIN(GPIO_Pin));
 427:e:/LiteOS/LiteOS/targets/Cloud_FM33A0XX/GCC/../../../targets/Cloud_FM33A0XX/Drivers\fm33a0xx_gpio.c **** 	
 428:e:/LiteOS/LiteOS/targets/Cloud_FM33A0XX/GCC/../../../targets/Cloud_FM33A0XX/Drivers\fm33a0xx_gpio.c **** 	if(GPIO_Pin&GPIOx->DO)
 1279              		.loc 1 428 0
 1280 0000 0369     		ldr	r3, [r0, #16]
 1281 0002 1942     		tst	r1, r3
 1282 0004 01D0     		beq	.L100
 429:e:/LiteOS/LiteOS/targets/Cloud_FM33A0XX/GCC/../../../targets/Cloud_FM33A0XX/Drivers\fm33a0xx_gpio.c **** 	{
 430:e:/LiteOS/LiteOS/targets/Cloud_FM33A0XX/GCC/../../../targets/Cloud_FM33A0XX/Drivers\fm33a0xx_gpio.c **** 		//GPIO_ResetBits(GPIOx, GPIO_Pin);
 431:e:/LiteOS/LiteOS/targets/Cloud_FM33A0XX/GCC/../../../targets/Cloud_FM33A0XX/Drivers\fm33a0xx_gpio.c **** 		GPIOx->DRESET = GPIO_Pin;	
 1283              		.loc 1 431 0
ARM GAS  C:\Users\WANGBI~1\AppData\Local\Temp\ccUoabl7.s 			page 30


 1284 0006 8161     		str	r1, [r0, #24]
 1285 0008 00E0     		b	.L99
 1286              	.L100:
 432:e:/LiteOS/LiteOS/targets/Cloud_FM33A0XX/GCC/../../../targets/Cloud_FM33A0XX/Drivers\fm33a0xx_gpio.c **** 	}
 433:e:/LiteOS/LiteOS/targets/Cloud_FM33A0XX/GCC/../../../targets/Cloud_FM33A0XX/Drivers\fm33a0xx_gpio.c **** 	else
 434:e:/LiteOS/LiteOS/targets/Cloud_FM33A0XX/GCC/../../../targets/Cloud_FM33A0XX/Drivers\fm33a0xx_gpio.c **** 	{
 435:e:/LiteOS/LiteOS/targets/Cloud_FM33A0XX/GCC/../../../targets/Cloud_FM33A0XX/Drivers\fm33a0xx_gpio.c **** 		//GPIO_SetBits(GPIOx, GPIO_Pin);	
 436:e:/LiteOS/LiteOS/targets/Cloud_FM33A0XX/GCC/../../../targets/Cloud_FM33A0XX/Drivers\fm33a0xx_gpio.c **** 		GPIOx->DSET = GPIO_Pin;
 1287              		.loc 1 436 0
 1288 000a 4161     		str	r1, [r0, #20]
 1289              	.L99:
 437:e:/LiteOS/LiteOS/targets/Cloud_FM33A0XX/GCC/../../../targets/Cloud_FM33A0XX/Drivers\fm33a0xx_gpio.c **** 	}
 438:e:/LiteOS/LiteOS/targets/Cloud_FM33A0XX/GCC/../../../targets/Cloud_FM33A0XX/Drivers\fm33a0xx_gpio.c **** }
 1290              		.loc 1 438 0
 1291              		@ sp needed
 1292 000c 7047     		bx	lr
 1293              		.cfi_endproc
 1294              	.LFE68:
 1296 000e C046     		.section	.text.GPIO_ReadOutputData,"ax",%progbits
 1297              		.align	2
 1298              		.global	GPIO_ReadOutputData
 1299              		.code	16
 1300              		.thumb_func
 1302              	GPIO_ReadOutputData:
 1303              	.LFB69:
 439:e:/LiteOS/LiteOS/targets/Cloud_FM33A0XX/GCC/../../../targets/Cloud_FM33A0XX/Drivers\fm33a0xx_gpio.c **** 
 440:e:/LiteOS/LiteOS/targets/Cloud_FM33A0XX/GCC/../../../targets/Cloud_FM33A0XX/Drivers\fm33a0xx_gpio.c **** /* 读取GPIOx输出数据寄存器 */
 441:e:/LiteOS/LiteOS/targets/Cloud_FM33A0XX/GCC/../../../targets/Cloud_FM33A0XX/Drivers\fm33a0xx_gpio.c **** uint32_t GPIO_ReadOutputData(GPIOx_Type* GPIOx)
 442:e:/LiteOS/LiteOS/targets/Cloud_FM33A0XX/GCC/../../../targets/Cloud_FM33A0XX/Drivers\fm33a0xx_gpio.c **** {
 1304              		.loc 1 442 0
 1305              		.cfi_startproc
 1306              		@ args = 0, pretend = 0, frame = 0
 1307              		@ frame_needed = 0, uses_anonymous_args = 0
 1308              		@ link register save eliminated.
 1309              	.LVL110:
 443:e:/LiteOS/LiteOS/targets/Cloud_FM33A0XX/GCC/../../../targets/Cloud_FM33A0XX/Drivers\fm33a0xx_gpio.c **** 	assert_param(IS_GPIO_ALL_PERIPH(GPIOx));
 444:e:/LiteOS/LiteOS/targets/Cloud_FM33A0XX/GCC/../../../targets/Cloud_FM33A0XX/Drivers\fm33a0xx_gpio.c **** 	
 445:e:/LiteOS/LiteOS/targets/Cloud_FM33A0XX/GCC/../../../targets/Cloud_FM33A0XX/Drivers\fm33a0xx_gpio.c **** //	return(GPIOx_DO_Read(GPIOx));
 446:e:/LiteOS/LiteOS/targets/Cloud_FM33A0XX/GCC/../../../targets/Cloud_FM33A0XX/Drivers\fm33a0xx_gpio.c **** 	return (GPIOx->DO);
 1310              		.loc 1 446 0
 1311 0000 0069     		ldr	r0, [r0, #16]
 1312              	.LVL111:
 447:e:/LiteOS/LiteOS/targets/Cloud_FM33A0XX/GCC/../../../targets/Cloud_FM33A0XX/Drivers\fm33a0xx_gpio.c **** }
 1313              		.loc 1 447 0
 1314              		@ sp needed
 1315 0002 7047     		bx	lr
 1316              		.cfi_endproc
 1317              	.LFE69:
 1319              		.section	.text.GPIO_ReadOutputDataBit,"ax",%progbits
 1320              		.align	2
 1321              		.global	GPIO_ReadOutputDataBit
 1322              		.code	16
 1323              		.thumb_func
 1325              	GPIO_ReadOutputDataBit:
 1326              	.LFB70:
 448:e:/LiteOS/LiteOS/targets/Cloud_FM33A0XX/GCC/../../../targets/Cloud_FM33A0XX/Drivers\fm33a0xx_gpio.c **** 
 449:e:/LiteOS/LiteOS/targets/Cloud_FM33A0XX/GCC/../../../targets/Cloud_FM33A0XX/Drivers\fm33a0xx_gpio.c **** /* 读取GPIOx输出数据寄存器bit */
ARM GAS  C:\Users\WANGBI~1\AppData\Local\Temp\ccUoabl7.s 			page 31


 450:e:/LiteOS/LiteOS/targets/Cloud_FM33A0XX/GCC/../../../targets/Cloud_FM33A0XX/Drivers\fm33a0xx_gpio.c **** uint8_t GPIO_ReadOutputDataBit(GPIOx_Type* GPIOx, uint32_t GPIO_Pin)
 451:e:/LiteOS/LiteOS/targets/Cloud_FM33A0XX/GCC/../../../targets/Cloud_FM33A0XX/Drivers\fm33a0xx_gpio.c **** {
 1327              		.loc 1 451 0
 1328              		.cfi_startproc
 1329              		@ args = 0, pretend = 0, frame = 0
 1330              		@ frame_needed = 0, uses_anonymous_args = 0
 1331              		@ link register save eliminated.
 1332              	.LVL112:
 452:e:/LiteOS/LiteOS/targets/Cloud_FM33A0XX/GCC/../../../targets/Cloud_FM33A0XX/Drivers\fm33a0xx_gpio.c ****     uint8_t bitstatus = 0x00;
 453:e:/LiteOS/LiteOS/targets/Cloud_FM33A0XX/GCC/../../../targets/Cloud_FM33A0XX/Drivers\fm33a0xx_gpio.c **** 	
 454:e:/LiteOS/LiteOS/targets/Cloud_FM33A0XX/GCC/../../../targets/Cloud_FM33A0XX/Drivers\fm33a0xx_gpio.c ****     assert_param(IS_GPIO_ALL_PERIPH(GPIOx));
 455:e:/LiteOS/LiteOS/targets/Cloud_FM33A0XX/GCC/../../../targets/Cloud_FM33A0XX/Drivers\fm33a0xx_gpio.c ****     assert_param(IS_GET_GPIO_PIN(GPIO_Pin));
 456:e:/LiteOS/LiteOS/targets/Cloud_FM33A0XX/GCC/../../../targets/Cloud_FM33A0XX/Drivers\fm33a0xx_gpio.c **** 	
 457:e:/LiteOS/LiteOS/targets/Cloud_FM33A0XX/GCC/../../../targets/Cloud_FM33A0XX/Drivers\fm33a0xx_gpio.c ****     if (((GPIOx->DO) & GPIO_Pin) != (uint32_t)Bit_RESET)
 1333              		.loc 1 457 0
 1334 0000 0369     		ldr	r3, [r0, #16]
 1335 0002 1942     		tst	r1, r3
 1336 0004 01D0     		beq	.L105
 458:e:/LiteOS/LiteOS/targets/Cloud_FM33A0XX/GCC/../../../targets/Cloud_FM33A0XX/Drivers\fm33a0xx_gpio.c ****     {
 459:e:/LiteOS/LiteOS/targets/Cloud_FM33A0XX/GCC/../../../targets/Cloud_FM33A0XX/Drivers\fm33a0xx_gpio.c ****         bitstatus = (uint8_t)Bit_SET;
 1337              		.loc 1 459 0
 1338 0006 0120     		movs	r0, #1
 1339              	.LVL113:
 1340 0008 00E0     		b	.L104
 1341              	.LVL114:
 1342              	.L105:
 460:e:/LiteOS/LiteOS/targets/Cloud_FM33A0XX/GCC/../../../targets/Cloud_FM33A0XX/Drivers\fm33a0xx_gpio.c ****     }
 461:e:/LiteOS/LiteOS/targets/Cloud_FM33A0XX/GCC/../../../targets/Cloud_FM33A0XX/Drivers\fm33a0xx_gpio.c ****     else
 462:e:/LiteOS/LiteOS/targets/Cloud_FM33A0XX/GCC/../../../targets/Cloud_FM33A0XX/Drivers\fm33a0xx_gpio.c ****     {
 463:e:/LiteOS/LiteOS/targets/Cloud_FM33A0XX/GCC/../../../targets/Cloud_FM33A0XX/Drivers\fm33a0xx_gpio.c ****         bitstatus = (uint8_t)Bit_RESET;
 1343              		.loc 1 463 0
 1344 000a 0020     		movs	r0, #0
 1345              	.LVL115:
 1346              	.L104:
 464:e:/LiteOS/LiteOS/targets/Cloud_FM33A0XX/GCC/../../../targets/Cloud_FM33A0XX/Drivers\fm33a0xx_gpio.c ****     }
 465:e:/LiteOS/LiteOS/targets/Cloud_FM33A0XX/GCC/../../../targets/Cloud_FM33A0XX/Drivers\fm33a0xx_gpio.c ****     return bitstatus;
 466:e:/LiteOS/LiteOS/targets/Cloud_FM33A0XX/GCC/../../../targets/Cloud_FM33A0XX/Drivers\fm33a0xx_gpio.c **** }
 1347              		.loc 1 466 0
 1348              		@ sp needed
 1349 000c 7047     		bx	lr
 1350              		.cfi_endproc
 1351              	.LFE70:
 1353 000e C046     		.section	.text.GPIO_IODF_SetableEx,"ax",%progbits
 1354              		.align	2
 1355              		.global	GPIO_IODF_SetableEx
 1356              		.code	16
 1357              		.thumb_func
 1359              	GPIO_IODF_SetableEx:
 1360              	.LFB71:
 467:e:/LiteOS/LiteOS/targets/Cloud_FM33A0XX/GCC/../../../targets/Cloud_FM33A0XX/Drivers\fm33a0xx_gpio.c **** 
 468:e:/LiteOS/LiteOS/targets/Cloud_FM33A0XX/GCC/../../../targets/Cloud_FM33A0XX/Drivers\fm33a0xx_gpio.c **** /* GPIO输入数字滤波配置 */
 469:e:/LiteOS/LiteOS/targets/Cloud_FM33A0XX/GCC/../../../targets/Cloud_FM33A0XX/Drivers\fm33a0xx_gpio.c **** void GPIO_IODF_SetableEx(uint32_t DFPinDef, FunState NewState)
 470:e:/LiteOS/LiteOS/targets/Cloud_FM33A0XX/GCC/../../../targets/Cloud_FM33A0XX/Drivers\fm33a0xx_gpio.c **** {
 1361              		.loc 1 470 0
 1362              		.cfi_startproc
 1363              		@ args = 0, pretend = 0, frame = 0
 1364              		@ frame_needed = 0, uses_anonymous_args = 0
ARM GAS  C:\Users\WANGBI~1\AppData\Local\Temp\ccUoabl7.s 			page 32


 1365              		@ link register save eliminated.
 1366              	.LVL116:
 471:e:/LiteOS/LiteOS/targets/Cloud_FM33A0XX/GCC/../../../targets/Cloud_FM33A0XX/Drivers\fm33a0xx_gpio.c **** 	if (NewState == ENABLE)
 1367              		.loc 1 471 0
 1368 0000 0129     		cmp	r1, #1
 1369 0002 06D1     		bne	.L107
 472:e:/LiteOS/LiteOS/targets/Cloud_FM33A0XX/GCC/../../../targets/Cloud_FM33A0XX/Drivers\fm33a0xx_gpio.c **** 	{
 473:e:/LiteOS/LiteOS/targets/Cloud_FM33A0XX/GCC/../../../targets/Cloud_FM33A0XX/Drivers\fm33a0xx_gpio.c **** 		GPIO->IODF |= ((uint32_t)0x01) << DFPinDef;
 1370              		.loc 1 473 0
 1371 0004 064A     		ldr	r2, .L109
 1372 0006 516A     		ldr	r1, [r2, #36]
 1373              	.LVL117:
 1374 0008 0123     		movs	r3, #1
 1375 000a 8340     		lsls	r3, r3, r0
 1376 000c 0B43     		orrs	r3, r1
 1377 000e 5362     		str	r3, [r2, #36]
 1378 0010 05E0     		b	.L106
 1379              	.LVL118:
 1380              	.L107:
 474:e:/LiteOS/LiteOS/targets/Cloud_FM33A0XX/GCC/../../../targets/Cloud_FM33A0XX/Drivers\fm33a0xx_gpio.c **** 	}
 475:e:/LiteOS/LiteOS/targets/Cloud_FM33A0XX/GCC/../../../targets/Cloud_FM33A0XX/Drivers\fm33a0xx_gpio.c **** 	else
 476:e:/LiteOS/LiteOS/targets/Cloud_FM33A0XX/GCC/../../../targets/Cloud_FM33A0XX/Drivers\fm33a0xx_gpio.c **** 	{
 477:e:/LiteOS/LiteOS/targets/Cloud_FM33A0XX/GCC/../../../targets/Cloud_FM33A0XX/Drivers\fm33a0xx_gpio.c **** 		GPIO->IODF &= ~(((uint32_t)0x01) << DFPinDef);
 1381              		.loc 1 477 0
 1382 0012 0349     		ldr	r1, .L109
 1383              	.LVL119:
 1384 0014 4B6A     		ldr	r3, [r1, #36]
 1385 0016 0122     		movs	r2, #1
 1386 0018 8240     		lsls	r2, r2, r0
 1387 001a 9343     		bics	r3, r2
 1388 001c 4B62     		str	r3, [r1, #36]
 1389              	.L106:
 478:e:/LiteOS/LiteOS/targets/Cloud_FM33A0XX/GCC/../../../targets/Cloud_FM33A0XX/Drivers\fm33a0xx_gpio.c **** 	}
 479:e:/LiteOS/LiteOS/targets/Cloud_FM33A0XX/GCC/../../../targets/Cloud_FM33A0XX/Drivers\fm33a0xx_gpio.c **** }
 1390              		.loc 1 479 0
 1391              		@ sp needed
 1392 001e 7047     		bx	lr
 1393              	.L110:
 1394              		.align	2
 1395              	.L109:
 1396 0020 E00C0040 		.word	1073745120
 1397              		.cfi_endproc
 1398              	.LFE71:
 1400              		.section	.text.GPIO_PINWKEN_SetableEx,"ax",%progbits
 1401              		.align	2
 1402              		.global	GPIO_PINWKEN_SetableEx
 1403              		.code	16
 1404              		.thumb_func
 1406              	GPIO_PINWKEN_SetableEx:
 1407              	.LFB72:
 480:e:/LiteOS/LiteOS/targets/Cloud_FM33A0XX/GCC/../../../targets/Cloud_FM33A0XX/Drivers\fm33a0xx_gpio.c **** 
 481:e:/LiteOS/LiteOS/targets/Cloud_FM33A0XX/GCC/../../../targets/Cloud_FM33A0XX/Drivers\fm33a0xx_gpio.c **** /* WKUP引脚使能 */
 482:e:/LiteOS/LiteOS/targets/Cloud_FM33A0XX/GCC/../../../targets/Cloud_FM33A0XX/Drivers\fm33a0xx_gpio.c **** void GPIO_PINWKEN_SetableEx(uint32_t NWKPinDef, FunState NewState)
 483:e:/LiteOS/LiteOS/targets/Cloud_FM33A0XX/GCC/../../../targets/Cloud_FM33A0XX/Drivers\fm33a0xx_gpio.c **** {
 1408              		.loc 1 483 0
 1409              		.cfi_startproc
 1410              		@ args = 0, pretend = 0, frame = 0
ARM GAS  C:\Users\WANGBI~1\AppData\Local\Temp\ccUoabl7.s 			page 33


 1411              		@ frame_needed = 0, uses_anonymous_args = 0
 1412              		@ link register save eliminated.
 1413              	.LVL120:
 484:e:/LiteOS/LiteOS/targets/Cloud_FM33A0XX/GCC/../../../targets/Cloud_FM33A0XX/Drivers\fm33a0xx_gpio.c **** 	if (NewState == ENABLE)
 1414              		.loc 1 484 0
 1415 0000 0129     		cmp	r1, #1
 1416 0002 04D1     		bne	.L112
 485:e:/LiteOS/LiteOS/targets/Cloud_FM33A0XX/GCC/../../../targets/Cloud_FM33A0XX/Drivers\fm33a0xx_gpio.c **** 	{
 486:e:/LiteOS/LiteOS/targets/Cloud_FM33A0XX/GCC/../../../targets/Cloud_FM33A0XX/Drivers\fm33a0xx_gpio.c **** 		GPIO->PINWKEN |= NWKPinDef;
 1417              		.loc 1 486 0
 1418 0004 044B     		ldr	r3, .L114
 1419 0006 9A6A     		ldr	r2, [r3, #40]
 1420 0008 1043     		orrs	r0, r2
 1421              	.LVL121:
 1422 000a 9862     		str	r0, [r3, #40]
 1423 000c 03E0     		b	.L111
 1424              	.LVL122:
 1425              	.L112:
 487:e:/LiteOS/LiteOS/targets/Cloud_FM33A0XX/GCC/../../../targets/Cloud_FM33A0XX/Drivers\fm33a0xx_gpio.c **** 	}
 488:e:/LiteOS/LiteOS/targets/Cloud_FM33A0XX/GCC/../../../targets/Cloud_FM33A0XX/Drivers\fm33a0xx_gpio.c **** 	else
 489:e:/LiteOS/LiteOS/targets/Cloud_FM33A0XX/GCC/../../../targets/Cloud_FM33A0XX/Drivers\fm33a0xx_gpio.c **** 	{
 490:e:/LiteOS/LiteOS/targets/Cloud_FM33A0XX/GCC/../../../targets/Cloud_FM33A0XX/Drivers\fm33a0xx_gpio.c **** 		GPIO->PINWKEN &= ~ NWKPinDef;
 1426              		.loc 1 490 0
 1427 000e 024A     		ldr	r2, .L114
 1428 0010 936A     		ldr	r3, [r2, #40]
 1429 0012 8343     		bics	r3, r0
 1430 0014 9362     		str	r3, [r2, #40]
 1431              	.LVL123:
 1432              	.L111:
 491:e:/LiteOS/LiteOS/targets/Cloud_FM33A0XX/GCC/../../../targets/Cloud_FM33A0XX/Drivers\fm33a0xx_gpio.c **** 	}
 492:e:/LiteOS/LiteOS/targets/Cloud_FM33A0XX/GCC/../../../targets/Cloud_FM33A0XX/Drivers\fm33a0xx_gpio.c **** }
 1433              		.loc 1 492 0
 1434              		@ sp needed
 1435 0016 7047     		bx	lr
 1436              	.L115:
 1437              		.align	2
 1438              	.L114:
 1439 0018 E00C0040 		.word	1073745120
 1440              		.cfi_endproc
 1441              	.LFE72:
 1443              		.section	.text.GPIO_EXTI_Select_Pin,"ax",%progbits
 1444              		.align	2
 1445              		.global	GPIO_EXTI_Select_Pin
 1446              		.code	16
 1447              		.thumb_func
 1449              	GPIO_EXTI_Select_Pin:
 1450              	.LFB73:
 493:e:/LiteOS/LiteOS/targets/Cloud_FM33A0XX/GCC/../../../targets/Cloud_FM33A0XX/Drivers\fm33a0xx_gpio.c **** 
 494:e:/LiteOS/LiteOS/targets/Cloud_FM33A0XX/GCC/../../../targets/Cloud_FM33A0XX/Drivers\fm33a0xx_gpio.c **** /*************************************************************************
 495:e:/LiteOS/LiteOS/targets/Cloud_FM33A0XX/GCC/../../../targets/Cloud_FM33A0XX/Drivers\fm33a0xx_gpio.c ****  函数名称：GPIO_EXTI_Select_Pin
 496:e:/LiteOS/LiteOS/targets/Cloud_FM33A0XX/GCC/../../../targets/Cloud_FM33A0XX/Drivers\fm33a0xx_gpio.c ****  功能说明：GPIO EXTI 外部引脚选择
 497:e:/LiteOS/LiteOS/targets/Cloud_FM33A0XX/GCC/../../../targets/Cloud_FM33A0XX/Drivers\fm33a0xx_gpio.c ****  输入参数：GPIOx 端口 GPIO_Pinpin 端口内引脚 
 498:e:/LiteOS/LiteOS/targets/Cloud_FM33A0XX/GCC/../../../targets/Cloud_FM33A0XX/Drivers\fm33a0xx_gpio.c ****  输出参数：无
 499:e:/LiteOS/LiteOS/targets/Cloud_FM33A0XX/GCC/../../../targets/Cloud_FM33A0XX/Drivers\fm33a0xx_gpio.c ****  返回参数w无
 500:e:/LiteOS/LiteOS/targets/Cloud_FM33A0XX/GCC/../../../targets/Cloud_FM33A0XX/Drivers\fm33a0xx_gpio.c ****  *************************************************************************/
 501:e:/LiteOS/LiteOS/targets/Cloud_FM33A0XX/GCC/../../../targets/Cloud_FM33A0XX/Drivers\fm33a0xx_gpio.c **** void GPIO_EXTI_Select_Pin(GPIOx_Type* GPIOx,uint32_t GPIO_Pin)
 502:e:/LiteOS/LiteOS/targets/Cloud_FM33A0XX/GCC/../../../targets/Cloud_FM33A0XX/Drivers\fm33a0xx_gpio.c **** {
ARM GAS  C:\Users\WANGBI~1\AppData\Local\Temp\ccUoabl7.s 			page 34


 1451              		.loc 1 502 0
 1452              		.cfi_startproc
 1453              		@ args = 0, pretend = 0, frame = 0
 1454              		@ frame_needed = 0, uses_anonymous_args = 0
 1455              	.LVL124:
 1456 0000 10B5     		push	{r4, lr}
 1457              	.LCFI3:
 1458              		.cfi_def_cfa_offset 8
 1459              		.cfi_offset 4, -8
 1460              		.cfi_offset 14, -4
 1461              	.LVL125:
 503:e:/LiteOS/LiteOS/targets/Cloud_FM33A0XX/GCC/../../../targets/Cloud_FM33A0XX/Drivers\fm33a0xx_gpio.c **** 	uint32_t pin_num = 0,i;	
 504:e:/LiteOS/LiteOS/targets/Cloud_FM33A0XX/GCC/../../../targets/Cloud_FM33A0XX/Drivers\fm33a0xx_gpio.c **** 	uint32_t pin_shift;
 505:e:/LiteOS/LiteOS/targets/Cloud_FM33A0XX/GCC/../../../targets/Cloud_FM33A0XX/Drivers\fm33a0xx_gpio.c **** 	uint32_t tmpreg;
 506:e:/LiteOS/LiteOS/targets/Cloud_FM33A0XX/GCC/../../../targets/Cloud_FM33A0XX/Drivers\fm33a0xx_gpio.c **** 	
 507:e:/LiteOS/LiteOS/targets/Cloud_FM33A0XX/GCC/../../../targets/Cloud_FM33A0XX/Drivers\fm33a0xx_gpio.c **** 	for(i= 0;i<16;i++)
 1462              		.loc 1 507 0
 1463 0002 0023     		movs	r3, #0
 1464 0004 04E0     		b	.L117
 1465              	.LVL126:
 1466              	.L119:
 508:e:/LiteOS/LiteOS/targets/Cloud_FM33A0XX/GCC/../../../targets/Cloud_FM33A0XX/Drivers\fm33a0xx_gpio.c **** 	{
 509:e:/LiteOS/LiteOS/targets/Cloud_FM33A0XX/GCC/../../../targets/Cloud_FM33A0XX/Drivers\fm33a0xx_gpio.c **** 		if(GPIO_Pin&(1<<i))
 1467              		.loc 1 509 0
 1468 0006 0122     		movs	r2, #1
 1469 0008 9A40     		lsls	r2, r2, r3
 1470 000a 1142     		tst	r1, r2
 1471 000c 03D1     		bne	.L118
 507:e:/LiteOS/LiteOS/targets/Cloud_FM33A0XX/GCC/../../../targets/Cloud_FM33A0XX/Drivers\fm33a0xx_gpio.c **** 	{
 1472              		.loc 1 507 0 discriminator 2
 1473 000e 0133     		adds	r3, r3, #1
 1474              	.LVL127:
 1475              	.L117:
 507:e:/LiteOS/LiteOS/targets/Cloud_FM33A0XX/GCC/../../../targets/Cloud_FM33A0XX/Drivers\fm33a0xx_gpio.c **** 	{
 1476              		.loc 1 507 0 is_stmt 0 discriminator 1
 1477 0010 0F2B     		cmp	r3, #15
 1478 0012 F8D9     		bls	.L119
 503:e:/LiteOS/LiteOS/targets/Cloud_FM33A0XX/GCC/../../../targets/Cloud_FM33A0XX/Drivers\fm33a0xx_gpio.c **** 	uint32_t pin_num = 0,i;	
 1479              		.loc 1 503 0 is_stmt 1
 1480 0014 0023     		movs	r3, #0
 1481              	.LVL128:
 1482              	.L118:
 510:e:/LiteOS/LiteOS/targets/Cloud_FM33A0XX/GCC/../../../targets/Cloud_FM33A0XX/Drivers\fm33a0xx_gpio.c **** 		{
 511:e:/LiteOS/LiteOS/targets/Cloud_FM33A0XX/GCC/../../../targets/Cloud_FM33A0XX/Drivers\fm33a0xx_gpio.c **** 			pin_num = i;
 512:e:/LiteOS/LiteOS/targets/Cloud_FM33A0XX/GCC/../../../targets/Cloud_FM33A0XX/Drivers\fm33a0xx_gpio.c **** 			break;
 513:e:/LiteOS/LiteOS/targets/Cloud_FM33A0XX/GCC/../../../targets/Cloud_FM33A0XX/Drivers\fm33a0xx_gpio.c **** 		}
 514:e:/LiteOS/LiteOS/targets/Cloud_FM33A0XX/GCC/../../../targets/Cloud_FM33A0XX/Drivers\fm33a0xx_gpio.c **** 	}
 515:e:/LiteOS/LiteOS/targets/Cloud_FM33A0XX/GCC/../../../targets/Cloud_FM33A0XX/Drivers\fm33a0xx_gpio.c **** 
 516:e:/LiteOS/LiteOS/targets/Cloud_FM33A0XX/GCC/../../../targets/Cloud_FM33A0XX/Drivers\fm33a0xx_gpio.c **** 	switch((uint32_t)GPIOx)
 1483              		.loc 1 516 0
 1484 0016 5849     		ldr	r1, .L134
 1485              	.LVL129:
 1486 0018 8842     		cmp	r0, r1
 1487 001a 3AD0     		beq	.L121
 1488 001c 0AD8     		bhi	.L122
 1489 001e 5749     		ldr	r1, .L134+4
 1490 0020 8842     		cmp	r0, r1
ARM GAS  C:\Users\WANGBI~1\AppData\Local\Temp\ccUoabl7.s 			page 35


 1491 0022 13D0     		beq	.L123
 1492 0024 5649     		ldr	r1, .L134+8
 1493 0026 8842     		cmp	r0, r1
 1494 0028 26D0     		beq	.L124
 1495 002a 5649     		ldr	r1, .L134+12
 1496 002c 8842     		cmp	r0, r1
 1497 002e 00D0     		beq	.LCB1207
 1498 0030 A0E0     		b	.L116	@long jump
 1499              	.LCB1207:
 1500 0032 0BE0     		b	.L123
 1501              	.L122:
 1502 0034 5449     		ldr	r1, .L134+16
 1503 0036 8842     		cmp	r0, r1
 1504 0038 53D0     		beq	.L125
 1505 003a 5449     		ldr	r1, .L134+20
 1506 003c 8842     		cmp	r0, r1
 1507 003e 00D1     		bne	.LCB1217
 1508 0040 80E0     		b	.L126	@long jump
 1509              	.LCB1217:
 1510 0042 5349     		ldr	r1, .L134+24
 1511 0044 8842     		cmp	r0, r1
 1512 0046 00D0     		beq	.LCB1220
 1513 0048 94E0     		b	.L116	@long jump
 1514              	.LCB1220:
 1515 004a 32E0     		b	.L127
 1516              	.L123:
 517:e:/LiteOS/LiteOS/targets/Cloud_FM33A0XX/GCC/../../../targets/Cloud_FM33A0XX/Drivers\fm33a0xx_gpio.c **** 	{
 518:e:/LiteOS/LiteOS/targets/Cloud_FM33A0XX/GCC/../../../targets/Cloud_FM33A0XX/Drivers\fm33a0xx_gpio.c **** 		case (uint32_t)GPIOA:
 519:e:/LiteOS/LiteOS/targets/Cloud_FM33A0XX/GCC/../../../targets/Cloud_FM33A0XX/Drivers\fm33a0xx_gpio.c **** 		case (uint32_t)GPIOB:
 520:e:/LiteOS/LiteOS/targets/Cloud_FM33A0XX/GCC/../../../targets/Cloud_FM33A0XX/Drivers\fm33a0xx_gpio.c **** 			pin_shift = (pin_num%8)*2;
 1517              		.loc 1 520 0
 1518 004c 0722     		movs	r2, #7
 1519 004e 1A40     		ands	r2, r3
 1520 0050 5200     		lsls	r2, r2, #1
 1521              	.LVL130:
 521:e:/LiteOS/LiteOS/targets/Cloud_FM33A0XX/GCC/../../../targets/Cloud_FM33A0XX/Drivers\fm33a0xx_gpio.c **** 			tmpreg = GPIO->EXTI0_SEL;
 1522              		.loc 1 521 0
 1523 0052 5049     		ldr	r1, .L134+28
 1524 0054 0968     		ldr	r1, [r1]
 1525              	.LVL131:
 522:e:/LiteOS/LiteOS/targets/Cloud_FM33A0XX/GCC/../../../targets/Cloud_FM33A0XX/Drivers\fm33a0xx_gpio.c **** 			tmpreg &= (~(0x00000003 << pin_shift));
 1526              		.loc 1 522 0
 1527 0056 0324     		movs	r4, #3
 1528 0058 9440     		lsls	r4, r4, r2
 1529 005a A143     		bics	r1, r4
 1530              	.LVL132:
 523:e:/LiteOS/LiteOS/targets/Cloud_FM33A0XX/GCC/../../../targets/Cloud_FM33A0XX/Drivers\fm33a0xx_gpio.c **** 			if(GPIOx == GPIOA)
 1531              		.loc 1 523 0
 1532 005c 494C     		ldr	r4, .L134+12
 1533 005e A042     		cmp	r0, r4
 1534 0060 03D1     		bne	.L128
 524:e:/LiteOS/LiteOS/targets/Cloud_FM33A0XX/GCC/../../../targets/Cloud_FM33A0XX/Drivers\fm33a0xx_gpio.c **** 			{
 525:e:/LiteOS/LiteOS/targets/Cloud_FM33A0XX/GCC/../../../targets/Cloud_FM33A0XX/Drivers\fm33a0xx_gpio.c **** 				tmpreg |= ((pin_num/8) << pin_shift);
 1535              		.loc 1 525 0
 1536 0062 DB08     		lsrs	r3, r3, #3
 1537              	.LVL133:
 1538 0064 9340     		lsls	r3, r3, r2
ARM GAS  C:\Users\WANGBI~1\AppData\Local\Temp\ccUoabl7.s 			page 36


 1539 0066 0B43     		orrs	r3, r1
 1540              	.LVL134:
 1541 0068 03E0     		b	.L129
 1542              	.LVL135:
 1543              	.L128:
 526:e:/LiteOS/LiteOS/targets/Cloud_FM33A0XX/GCC/../../../targets/Cloud_FM33A0XX/Drivers\fm33a0xx_gpio.c **** 			}
 527:e:/LiteOS/LiteOS/targets/Cloud_FM33A0XX/GCC/../../../targets/Cloud_FM33A0XX/Drivers\fm33a0xx_gpio.c **** 			else
 528:e:/LiteOS/LiteOS/targets/Cloud_FM33A0XX/GCC/../../../targets/Cloud_FM33A0XX/Drivers\fm33a0xx_gpio.c **** 			{
 529:e:/LiteOS/LiteOS/targets/Cloud_FM33A0XX/GCC/../../../targets/Cloud_FM33A0XX/Drivers\fm33a0xx_gpio.c **** 				tmpreg |= (((pin_num/8)+ 2) << pin_shift);
 1544              		.loc 1 529 0
 1545 006a DB08     		lsrs	r3, r3, #3
 1546              	.LVL136:
 1547 006c 0233     		adds	r3, r3, #2
 1548 006e 9340     		lsls	r3, r3, r2
 1549 0070 0B43     		orrs	r3, r1
 1550              	.LVL137:
 1551              	.L129:
 530:e:/LiteOS/LiteOS/targets/Cloud_FM33A0XX/GCC/../../../targets/Cloud_FM33A0XX/Drivers\fm33a0xx_gpio.c **** 			}
 531:e:/LiteOS/LiteOS/targets/Cloud_FM33A0XX/GCC/../../../targets/Cloud_FM33A0XX/Drivers\fm33a0xx_gpio.c **** 			GPIO->EXTI0_SEL = tmpreg;
 1552              		.loc 1 531 0
 1553 0072 484A     		ldr	r2, .L134+28
 1554              	.LVL138:
 1555 0074 1360     		str	r3, [r2]
 532:e:/LiteOS/LiteOS/targets/Cloud_FM33A0XX/GCC/../../../targets/Cloud_FM33A0XX/Drivers\fm33a0xx_gpio.c **** 			break;
 1556              		.loc 1 532 0
 1557 0076 7DE0     		b	.L116
 1558              	.LVL139:
 1559              	.L124:
 533:e:/LiteOS/LiteOS/targets/Cloud_FM33A0XX/GCC/../../../targets/Cloud_FM33A0XX/Drivers\fm33a0xx_gpio.c **** 
 534:e:/LiteOS/LiteOS/targets/Cloud_FM33A0XX/GCC/../../../targets/Cloud_FM33A0XX/Drivers\fm33a0xx_gpio.c **** 		case (uint32_t)GPIOC:
 535:e:/LiteOS/LiteOS/targets/Cloud_FM33A0XX/GCC/../../../targets/Cloud_FM33A0XX/Drivers\fm33a0xx_gpio.c **** 			pin_shift = (pin_num%8)*2;
 1560              		.loc 1 535 0
 1561 0078 0722     		movs	r2, #7
 1562 007a 1A40     		ands	r2, r3
 1563 007c 5200     		lsls	r2, r2, #1
 1564              	.LVL140:
 536:e:/LiteOS/LiteOS/targets/Cloud_FM33A0XX/GCC/../../../targets/Cloud_FM33A0XX/Drivers\fm33a0xx_gpio.c **** 			tmpreg = GPIO->EXTI1_SEL;
 1565              		.loc 1 536 0
 1566 007e 454C     		ldr	r4, .L134+28
 1567 0080 6168     		ldr	r1, [r4, #4]
 1568              	.LVL141:
 537:e:/LiteOS/LiteOS/targets/Cloud_FM33A0XX/GCC/../../../targets/Cloud_FM33A0XX/Drivers\fm33a0xx_gpio.c **** 			tmpreg &= (~(0x00000003 << pin_shift));
 1569              		.loc 1 537 0
 1570 0082 0320     		movs	r0, #3
 1571              	.LVL142:
 1572 0084 9040     		lsls	r0, r0, r2
 1573 0086 8143     		bics	r1, r0
 1574              	.LVL143:
 538:e:/LiteOS/LiteOS/targets/Cloud_FM33A0XX/GCC/../../../targets/Cloud_FM33A0XX/Drivers\fm33a0xx_gpio.c **** 			tmpreg |= ((pin_num/8) << pin_shift);
 1575              		.loc 1 538 0
 1576 0088 DB08     		lsrs	r3, r3, #3
 1577              	.LVL144:
 1578 008a 9340     		lsls	r3, r3, r2
 1579 008c 0B43     		orrs	r3, r1
 1580              	.LVL145:
 539:e:/LiteOS/LiteOS/targets/Cloud_FM33A0XX/GCC/../../../targets/Cloud_FM33A0XX/Drivers\fm33a0xx_gpio.c **** 			GPIO->EXTI1_SEL = tmpreg;
 1581              		.loc 1 539 0
ARM GAS  C:\Users\WANGBI~1\AppData\Local\Temp\ccUoabl7.s 			page 37


 1582 008e 6360     		str	r3, [r4, #4]
 540:e:/LiteOS/LiteOS/targets/Cloud_FM33A0XX/GCC/../../../targets/Cloud_FM33A0XX/Drivers\fm33a0xx_gpio.c **** 			break;
 1583              		.loc 1 540 0
 1584 0090 70E0     		b	.L116
 1585              	.LVL146:
 1586              	.L121:
 541:e:/LiteOS/LiteOS/targets/Cloud_FM33A0XX/GCC/../../../targets/Cloud_FM33A0XX/Drivers\fm33a0xx_gpio.c **** 
 542:e:/LiteOS/LiteOS/targets/Cloud_FM33A0XX/GCC/../../../targets/Cloud_FM33A0XX/Drivers\fm33a0xx_gpio.c **** 		case (uint32_t)GPIOD://0~10
 543:e:/LiteOS/LiteOS/targets/Cloud_FM33A0XX/GCC/../../../targets/Cloud_FM33A0XX/Drivers\fm33a0xx_gpio.c **** 			if(pin_num <= 10)
 1587              		.loc 1 543 0
 1588 0092 0A2B     		cmp	r3, #10
 1589 0094 6ED8     		bhi	.L116
 544:e:/LiteOS/LiteOS/targets/Cloud_FM33A0XX/GCC/../../../targets/Cloud_FM33A0XX/Drivers\fm33a0xx_gpio.c **** 			{
 545:e:/LiteOS/LiteOS/targets/Cloud_FM33A0XX/GCC/../../../targets/Cloud_FM33A0XX/Drivers\fm33a0xx_gpio.c **** 				pin_shift = (pin_num%8)*2;
 1590              		.loc 1 545 0
 1591 0096 0722     		movs	r2, #7
 1592 0098 1A40     		ands	r2, r3
 1593 009a 5200     		lsls	r2, r2, #1
 1594              	.LVL147:
 546:e:/LiteOS/LiteOS/targets/Cloud_FM33A0XX/GCC/../../../targets/Cloud_FM33A0XX/Drivers\fm33a0xx_gpio.c **** 				tmpreg = GPIO->EXTI1_SEL;
 1595              		.loc 1 546 0
 1596 009c 3D4C     		ldr	r4, .L134+28
 1597 009e 6168     		ldr	r1, [r4, #4]
 1598              	.LVL148:
 547:e:/LiteOS/LiteOS/targets/Cloud_FM33A0XX/GCC/../../../targets/Cloud_FM33A0XX/Drivers\fm33a0xx_gpio.c **** 				tmpreg &= (~(0x00000003 << pin_shift));
 1599              		.loc 1 547 0
 1600 00a0 0320     		movs	r0, #3
 1601              	.LVL149:
 1602 00a2 9040     		lsls	r0, r0, r2
 1603 00a4 8143     		bics	r1, r0
 1604              	.LVL150:
 548:e:/LiteOS/LiteOS/targets/Cloud_FM33A0XX/GCC/../../../targets/Cloud_FM33A0XX/Drivers\fm33a0xx_gpio.c **** 				tmpreg |= (((pin_num/8)+ 2) << pin_shift);
 1605              		.loc 1 548 0
 1606 00a6 DB08     		lsrs	r3, r3, #3
 1607              	.LVL151:
 1608 00a8 0233     		adds	r3, r3, #2
 1609 00aa 9340     		lsls	r3, r3, r2
 1610 00ac 0B43     		orrs	r3, r1
 1611              	.LVL152:
 549:e:/LiteOS/LiteOS/targets/Cloud_FM33A0XX/GCC/../../../targets/Cloud_FM33A0XX/Drivers\fm33a0xx_gpio.c **** 				GPIO->EXTI1_SEL = tmpreg;
 1612              		.loc 1 549 0
 1613 00ae 6360     		str	r3, [r4, #4]
 1614 00b0 60E0     		b	.L116
 1615              	.LVL153:
 1616              	.L127:
 550:e:/LiteOS/LiteOS/targets/Cloud_FM33A0XX/GCC/../../../targets/Cloud_FM33A0XX/Drivers\fm33a0xx_gpio.c **** 			}
 551:e:/LiteOS/LiteOS/targets/Cloud_FM33A0XX/GCC/../../../targets/Cloud_FM33A0XX/Drivers\fm33a0xx_gpio.c **** 			break;
 552:e:/LiteOS/LiteOS/targets/Cloud_FM33A0XX/GCC/../../../targets/Cloud_FM33A0XX/Drivers\fm33a0xx_gpio.c **** 
 553:e:/LiteOS/LiteOS/targets/Cloud_FM33A0XX/GCC/../../../targets/Cloud_FM33A0XX/Drivers\fm33a0xx_gpio.c **** 		case (uint32_t)GPIOE://2~9(-2)
 554:e:/LiteOS/LiteOS/targets/Cloud_FM33A0XX/GCC/../../../targets/Cloud_FM33A0XX/Drivers\fm33a0xx_gpio.c **** 			if((pin_num >= 2)&&(pin_num <= 5))//1bit
 1617              		.loc 1 554 0
 1618 00b2 9A1E     		subs	r2, r3, #2
 1619 00b4 032A     		cmp	r2, #3
 1620 00b6 06D8     		bhi	.L130
 1621              	.LVL154:
 555:e:/LiteOS/LiteOS/targets/Cloud_FM33A0XX/GCC/../../../targets/Cloud_FM33A0XX/Drivers\fm33a0xx_gpio.c **** 			{
 556:e:/LiteOS/LiteOS/targets/Cloud_FM33A0XX/GCC/../../../targets/Cloud_FM33A0XX/Drivers\fm33a0xx_gpio.c **** 				pin_shift = pin_num - 2;
ARM GAS  C:\Users\WANGBI~1\AppData\Local\Temp\ccUoabl7.s 			page 38


 557:e:/LiteOS/LiteOS/targets/Cloud_FM33A0XX/GCC/../../../targets/Cloud_FM33A0XX/Drivers\fm33a0xx_gpio.c **** 				tmpreg = GPIO->EXTI2_SEL;
 1622              		.loc 1 557 0
 1623 00b8 3648     		ldr	r0, .L134+28
 1624              	.LVL155:
 1625 00ba 8368     		ldr	r3, [r0, #8]
 1626              	.LVL156:
 558:e:/LiteOS/LiteOS/targets/Cloud_FM33A0XX/GCC/../../../targets/Cloud_FM33A0XX/Drivers\fm33a0xx_gpio.c **** 				tmpreg &= (~(0x00000001 << pin_shift));
 1627              		.loc 1 558 0
 1628 00bc 0121     		movs	r1, #1
 1629 00be 9140     		lsls	r1, r1, r2
 1630 00c0 8B43     		bics	r3, r1
 1631              	.LVL157:
 559:e:/LiteOS/LiteOS/targets/Cloud_FM33A0XX/GCC/../../../targets/Cloud_FM33A0XX/Drivers\fm33a0xx_gpio.c **** 				GPIO->EXTI2_SEL = tmpreg;
 1632              		.loc 1 559 0
 1633 00c2 8360     		str	r3, [r0, #8]
 1634 00c4 56E0     		b	.L116
 1635              	.LVL158:
 1636              	.L130:
 560:e:/LiteOS/LiteOS/targets/Cloud_FM33A0XX/GCC/../../../targets/Cloud_FM33A0XX/Drivers\fm33a0xx_gpio.c **** 			}
 561:e:/LiteOS/LiteOS/targets/Cloud_FM33A0XX/GCC/../../../targets/Cloud_FM33A0XX/Drivers\fm33a0xx_gpio.c **** 			else if((pin_num >= 6)&&(pin_num <= 9))//2bit
 1637              		.loc 1 561 0
 1638 00c6 9A1F     		subs	r2, r3, #6
 1639 00c8 032A     		cmp	r2, #3
 1640 00ca 53D8     		bhi	.L116
 562:e:/LiteOS/LiteOS/targets/Cloud_FM33A0XX/GCC/../../../targets/Cloud_FM33A0XX/Drivers\fm33a0xx_gpio.c **** 			{
 563:e:/LiteOS/LiteOS/targets/Cloud_FM33A0XX/GCC/../../../targets/Cloud_FM33A0XX/Drivers\fm33a0xx_gpio.c **** 				pin_shift = 4 + (pin_num - 6)*2;
 1641              		.loc 1 563 0
 1642 00cc 324A     		ldr	r2, .L134+32
 1643 00ce 9446     		mov	ip, r2
 1644 00d0 6344     		add	r3, r3, ip
 1645              	.LVL159:
 1646 00d2 5900     		lsls	r1, r3, #1
 1647              	.LVL160:
 564:e:/LiteOS/LiteOS/targets/Cloud_FM33A0XX/GCC/../../../targets/Cloud_FM33A0XX/Drivers\fm33a0xx_gpio.c **** 				tmpreg = GPIO->EXTI2_SEL;
 1648              		.loc 1 564 0
 1649 00d4 2F48     		ldr	r0, .L134+28
 1650              	.LVL161:
 1651 00d6 8368     		ldr	r3, [r0, #8]
 1652              	.LVL162:
 565:e:/LiteOS/LiteOS/targets/Cloud_FM33A0XX/GCC/../../../targets/Cloud_FM33A0XX/Drivers\fm33a0xx_gpio.c **** 				tmpreg &= (~(0x00000003 << pin_shift));
 1653              		.loc 1 565 0
 1654 00d8 0322     		movs	r2, #3
 1655 00da 8A40     		lsls	r2, r2, r1
 1656 00dc 9343     		bics	r3, r2
 1657              	.LVL163:
 566:e:/LiteOS/LiteOS/targets/Cloud_FM33A0XX/GCC/../../../targets/Cloud_FM33A0XX/Drivers\fm33a0xx_gpio.c **** 				GPIO->EXTI2_SEL = tmpreg;
 1658              		.loc 1 566 0
 1659 00de 8360     		str	r3, [r0, #8]
 1660 00e0 48E0     		b	.L116
 1661              	.LVL164:
 1662              	.L125:
 567:e:/LiteOS/LiteOS/targets/Cloud_FM33A0XX/GCC/../../../targets/Cloud_FM33A0XX/Drivers\fm33a0xx_gpio.c **** 			}
 568:e:/LiteOS/LiteOS/targets/Cloud_FM33A0XX/GCC/../../../targets/Cloud_FM33A0XX/Drivers\fm33a0xx_gpio.c **** 			break;
 569:e:/LiteOS/LiteOS/targets/Cloud_FM33A0XX/GCC/../../../targets/Cloud_FM33A0XX/Drivers\fm33a0xx_gpio.c **** 
 570:e:/LiteOS/LiteOS/targets/Cloud_FM33A0XX/GCC/../../../targets/Cloud_FM33A0XX/Drivers\fm33a0xx_gpio.c **** 		case (uint32_t)GPIOF://1~7   8~11(-4)
 571:e:/LiteOS/LiteOS/targets/Cloud_FM33A0XX/GCC/../../../targets/Cloud_FM33A0XX/Drivers\fm33a0xx_gpio.c **** 			if((pin_num >= 1)&&(pin_num <= 3))//1bit
 1663              		.loc 1 571 0
ARM GAS  C:\Users\WANGBI~1\AppData\Local\Temp\ccUoabl7.s 			page 39


 1664 00e2 5A1E     		subs	r2, r3, #1
 1665 00e4 022A     		cmp	r2, #2
 1666 00e6 08D8     		bhi	.L131
 1667              	.LVL165:
 572:e:/LiteOS/LiteOS/targets/Cloud_FM33A0XX/GCC/../../../targets/Cloud_FM33A0XX/Drivers\fm33a0xx_gpio.c **** 			{
 573:e:/LiteOS/LiteOS/targets/Cloud_FM33A0XX/GCC/../../../targets/Cloud_FM33A0XX/Drivers\fm33a0xx_gpio.c **** 				pin_shift = pin_num;
 574:e:/LiteOS/LiteOS/targets/Cloud_FM33A0XX/GCC/../../../targets/Cloud_FM33A0XX/Drivers\fm33a0xx_gpio.c **** 				tmpreg = GPIO->EXTI2_SEL;
 1668              		.loc 1 574 0
 1669 00e8 2A48     		ldr	r0, .L134+28
 1670              	.LVL166:
 1671 00ea 8268     		ldr	r2, [r0, #8]
 1672              	.LVL167:
 575:e:/LiteOS/LiteOS/targets/Cloud_FM33A0XX/GCC/../../../targets/Cloud_FM33A0XX/Drivers\fm33a0xx_gpio.c **** 				tmpreg &= (~(0x00000001 << pin_shift));
 1673              		.loc 1 575 0
 1674 00ec 0121     		movs	r1, #1
 1675 00ee 9940     		lsls	r1, r1, r3
 1676 00f0 1300     		movs	r3, r2
 1677              	.LVL168:
 1678 00f2 8B43     		bics	r3, r1
 1679              	.LVL169:
 576:e:/LiteOS/LiteOS/targets/Cloud_FM33A0XX/GCC/../../../targets/Cloud_FM33A0XX/Drivers\fm33a0xx_gpio.c **** 				tmpreg |= (0x00000001 << pin_shift);
 1680              		.loc 1 576 0
 1681 00f4 0B43     		orrs	r3, r1
 1682              	.LVL170:
 577:e:/LiteOS/LiteOS/targets/Cloud_FM33A0XX/GCC/../../../targets/Cloud_FM33A0XX/Drivers\fm33a0xx_gpio.c **** 				GPIO->EXTI2_SEL = tmpreg;
 1683              		.loc 1 577 0
 1684 00f6 8360     		str	r3, [r0, #8]
 1685 00f8 3CE0     		b	.L116
 1686              	.LVL171:
 1687              	.L131:
 578:e:/LiteOS/LiteOS/targets/Cloud_FM33A0XX/GCC/../../../targets/Cloud_FM33A0XX/Drivers\fm33a0xx_gpio.c **** 			}
 579:e:/LiteOS/LiteOS/targets/Cloud_FM33A0XX/GCC/../../../targets/Cloud_FM33A0XX/Drivers\fm33a0xx_gpio.c **** 			else if((pin_num >= 4)&&(pin_num <= 7))//2bit-a
 1688              		.loc 1 579 0
 1689 00fa 1A1F     		subs	r2, r3, #4
 1690 00fc 032A     		cmp	r2, #3
 1691 00fe 0ED8     		bhi	.L132
 580:e:/LiteOS/LiteOS/targets/Cloud_FM33A0XX/GCC/../../../targets/Cloud_FM33A0XX/Drivers\fm33a0xx_gpio.c **** 			{
 581:e:/LiteOS/LiteOS/targets/Cloud_FM33A0XX/GCC/../../../targets/Cloud_FM33A0XX/Drivers\fm33a0xx_gpio.c **** 				pin_shift = 4 + (pin_num - 4)*2;
 1692              		.loc 1 581 0
 1693 0100 264A     		ldr	r2, .L134+36
 1694 0102 9446     		mov	ip, r2
 1695 0104 6344     		add	r3, r3, ip
 1696              	.LVL172:
 1697 0106 5B00     		lsls	r3, r3, #1
 1698              	.LVL173:
 582:e:/LiteOS/LiteOS/targets/Cloud_FM33A0XX/GCC/../../../targets/Cloud_FM33A0XX/Drivers\fm33a0xx_gpio.c **** 				tmpreg = GPIO->EXTI2_SEL;
 1699              		.loc 1 582 0
 1700 0108 2248     		ldr	r0, .L134+28
 1701              	.LVL174:
 1702 010a 8268     		ldr	r2, [r0, #8]
 1703              	.LVL175:
 583:e:/LiteOS/LiteOS/targets/Cloud_FM33A0XX/GCC/../../../targets/Cloud_FM33A0XX/Drivers\fm33a0xx_gpio.c **** 				tmpreg &= (~(0x00000003 << pin_shift));
 1704              		.loc 1 583 0
 1705 010c 0321     		movs	r1, #3
 1706 010e 9940     		lsls	r1, r1, r3
 1707 0110 8A43     		bics	r2, r1
 1708              	.LVL176:
ARM GAS  C:\Users\WANGBI~1\AppData\Local\Temp\ccUoabl7.s 			page 40


 584:e:/LiteOS/LiteOS/targets/Cloud_FM33A0XX/GCC/../../../targets/Cloud_FM33A0XX/Drivers\fm33a0xx_gpio.c **** 				tmpreg |= (0x00000001 << pin_shift);
 1709              		.loc 1 584 0
 1710 0112 0121     		movs	r1, #1
 1711 0114 9940     		lsls	r1, r1, r3
 1712 0116 0B00     		movs	r3, r1
 1713              	.LVL177:
 1714 0118 1343     		orrs	r3, r2
 1715              	.LVL178:
 585:e:/LiteOS/LiteOS/targets/Cloud_FM33A0XX/GCC/../../../targets/Cloud_FM33A0XX/Drivers\fm33a0xx_gpio.c **** 				GPIO->EXTI2_SEL = tmpreg;
 1716              		.loc 1 585 0
 1717 011a 8360     		str	r3, [r0, #8]
 1718 011c 2AE0     		b	.L116
 1719              	.LVL179:
 1720              	.L132:
 586:e:/LiteOS/LiteOS/targets/Cloud_FM33A0XX/GCC/../../../targets/Cloud_FM33A0XX/Drivers\fm33a0xx_gpio.c **** 			}
 587:e:/LiteOS/LiteOS/targets/Cloud_FM33A0XX/GCC/../../../targets/Cloud_FM33A0XX/Drivers\fm33a0xx_gpio.c **** 			else if((pin_num >= 8)&&(pin_num <= 11))//2bit-b
 1721              		.loc 1 587 0
 1722 011e 1A00     		movs	r2, r3
 1723 0120 083A     		subs	r2, r2, #8
 1724 0122 032A     		cmp	r2, #3
 1725 0124 26D8     		bhi	.L116
 588:e:/LiteOS/LiteOS/targets/Cloud_FM33A0XX/GCC/../../../targets/Cloud_FM33A0XX/Drivers\fm33a0xx_gpio.c **** 			{
 589:e:/LiteOS/LiteOS/targets/Cloud_FM33A0XX/GCC/../../../targets/Cloud_FM33A0XX/Drivers\fm33a0xx_gpio.c **** 				pin_shift = 4 + (pin_num - 8)*2;
 1726              		.loc 1 589 0
 1727 0126 1E4A     		ldr	r2, .L134+40
 1728 0128 9446     		mov	ip, r2
 1729 012a 6344     		add	r3, r3, ip
 1730              	.LVL180:
 1731 012c 5B00     		lsls	r3, r3, #1
 1732              	.LVL181:
 590:e:/LiteOS/LiteOS/targets/Cloud_FM33A0XX/GCC/../../../targets/Cloud_FM33A0XX/Drivers\fm33a0xx_gpio.c **** 				tmpreg = GPIO->EXTI2_SEL;
 1733              		.loc 1 590 0
 1734 012e 1948     		ldr	r0, .L134+28
 1735              	.LVL182:
 1736 0130 8268     		ldr	r2, [r0, #8]
 1737              	.LVL183:
 591:e:/LiteOS/LiteOS/targets/Cloud_FM33A0XX/GCC/../../../targets/Cloud_FM33A0XX/Drivers\fm33a0xx_gpio.c **** 				tmpreg &= (~(0x00000003 << pin_shift));
 1738              		.loc 1 591 0
 1739 0132 0321     		movs	r1, #3
 1740 0134 9940     		lsls	r1, r1, r3
 1741 0136 8A43     		bics	r2, r1
 1742              	.LVL184:
 592:e:/LiteOS/LiteOS/targets/Cloud_FM33A0XX/GCC/../../../targets/Cloud_FM33A0XX/Drivers\fm33a0xx_gpio.c **** 				tmpreg |= (0x00000002 << pin_shift);
 1743              		.loc 1 592 0
 1744 0138 0221     		movs	r1, #2
 1745 013a 9940     		lsls	r1, r1, r3
 1746 013c 0B00     		movs	r3, r1
 1747              	.LVL185:
 1748 013e 1343     		orrs	r3, r2
 1749              	.LVL186:
 593:e:/LiteOS/LiteOS/targets/Cloud_FM33A0XX/GCC/../../../targets/Cloud_FM33A0XX/Drivers\fm33a0xx_gpio.c **** 				GPIO->EXTI2_SEL = tmpreg;
 1750              		.loc 1 593 0
 1751 0140 8360     		str	r3, [r0, #8]
 1752 0142 17E0     		b	.L116
 1753              	.LVL187:
 1754              	.L126:
 594:e:/LiteOS/LiteOS/targets/Cloud_FM33A0XX/GCC/../../../targets/Cloud_FM33A0XX/Drivers\fm33a0xx_gpio.c **** 			}
ARM GAS  C:\Users\WANGBI~1\AppData\Local\Temp\ccUoabl7.s 			page 41


 595:e:/LiteOS/LiteOS/targets/Cloud_FM33A0XX/GCC/../../../targets/Cloud_FM33A0XX/Drivers\fm33a0xx_gpio.c **** 			break;
 596:e:/LiteOS/LiteOS/targets/Cloud_FM33A0XX/GCC/../../../targets/Cloud_FM33A0XX/Drivers\fm33a0xx_gpio.c **** 
 597:e:/LiteOS/LiteOS/targets/Cloud_FM33A0XX/GCC/../../../targets/Cloud_FM33A0XX/Drivers\fm33a0xx_gpio.c **** 		case (uint32_t)GPIOG://2(+1) 5~8(-1)
 598:e:/LiteOS/LiteOS/targets/Cloud_FM33A0XX/GCC/../../../targets/Cloud_FM33A0XX/Drivers\fm33a0xx_gpio.c **** 			if(pin_num == 2)
 1755              		.loc 1 598 0
 1756 0144 022B     		cmp	r3, #2
 1757 0146 06D1     		bne	.L133
 1758              	.LVL188:
 599:e:/LiteOS/LiteOS/targets/Cloud_FM33A0XX/GCC/../../../targets/Cloud_FM33A0XX/Drivers\fm33a0xx_gpio.c **** 			{
 600:e:/LiteOS/LiteOS/targets/Cloud_FM33A0XX/GCC/../../../targets/Cloud_FM33A0XX/Drivers\fm33a0xx_gpio.c **** 				pin_shift = 6;
 601:e:/LiteOS/LiteOS/targets/Cloud_FM33A0XX/GCC/../../../targets/Cloud_FM33A0XX/Drivers\fm33a0xx_gpio.c **** 				tmpreg = GPIO->EXTI1_SEL;
 1759              		.loc 1 601 0
 1760 0148 1249     		ldr	r1, .L134+28
 1761 014a 4A68     		ldr	r2, [r1, #4]
 1762              	.LVL189:
 602:e:/LiteOS/LiteOS/targets/Cloud_FM33A0XX/GCC/../../../targets/Cloud_FM33A0XX/Drivers\fm33a0xx_gpio.c **** 				tmpreg &= (~(0x00000003 << pin_shift));
 1763              		.loc 1 602 0
 1764 014c BE33     		adds	r3, r3, #190
 1765              	.LVL190:
 1766 014e 9A43     		bics	r2, r3
 1767              	.LVL191:
 603:e:/LiteOS/LiteOS/targets/Cloud_FM33A0XX/GCC/../../../targets/Cloud_FM33A0XX/Drivers\fm33a0xx_gpio.c **** 				tmpreg |= (0x00000003 << pin_shift);
 1768              		.loc 1 603 0
 1769 0150 1343     		orrs	r3, r2
 1770              	.LVL192:
 604:e:/LiteOS/LiteOS/targets/Cloud_FM33A0XX/GCC/../../../targets/Cloud_FM33A0XX/Drivers\fm33a0xx_gpio.c **** 				GPIO->EXTI1_SEL = tmpreg;
 1771              		.loc 1 604 0
 1772 0152 4B60     		str	r3, [r1, #4]
 1773 0154 0EE0     		b	.L116
 1774              	.LVL193:
 1775              	.L133:
 605:e:/LiteOS/LiteOS/targets/Cloud_FM33A0XX/GCC/../../../targets/Cloud_FM33A0XX/Drivers\fm33a0xx_gpio.c **** 			}
 606:e:/LiteOS/LiteOS/targets/Cloud_FM33A0XX/GCC/../../../targets/Cloud_FM33A0XX/Drivers\fm33a0xx_gpio.c **** 			else if((pin_num >= 5)&&(pin_num <= 8))
 1776              		.loc 1 606 0
 1777 0156 5A1F     		subs	r2, r3, #5
 1778 0158 032A     		cmp	r2, #3
 1779 015a 0BD8     		bhi	.L116
 607:e:/LiteOS/LiteOS/targets/Cloud_FM33A0XX/GCC/../../../targets/Cloud_FM33A0XX/Drivers\fm33a0xx_gpio.c **** 			{
 608:e:/LiteOS/LiteOS/targets/Cloud_FM33A0XX/GCC/../../../targets/Cloud_FM33A0XX/Drivers\fm33a0xx_gpio.c **** 				pin_shift = (pin_num - 1)*2;
 1780              		.loc 1 608 0
 1781 015c 114A     		ldr	r2, .L134+44
 1782 015e 9446     		mov	ip, r2
 1783 0160 6344     		add	r3, r3, ip
 1784              	.LVL194:
 1785 0162 5B00     		lsls	r3, r3, #1
 1786              	.LVL195:
 609:e:/LiteOS/LiteOS/targets/Cloud_FM33A0XX/GCC/../../../targets/Cloud_FM33A0XX/Drivers\fm33a0xx_gpio.c **** 				tmpreg = GPIO->EXTI1_SEL;
 1787              		.loc 1 609 0
 1788 0164 0B48     		ldr	r0, .L134+28
 1789              	.LVL196:
 1790 0166 4268     		ldr	r2, [r0, #4]
 1791              	.LVL197:
 610:e:/LiteOS/LiteOS/targets/Cloud_FM33A0XX/GCC/../../../targets/Cloud_FM33A0XX/Drivers\fm33a0xx_gpio.c **** 				tmpreg &= (~(0x00000003 << pin_shift));
 1792              		.loc 1 610 0
 1793 0168 0321     		movs	r1, #3
 1794 016a 9940     		lsls	r1, r1, r3
 1795 016c 1300     		movs	r3, r2
ARM GAS  C:\Users\WANGBI~1\AppData\Local\Temp\ccUoabl7.s 			page 42


 1796              	.LVL198:
 1797 016e 8B43     		bics	r3, r1
 1798              	.LVL199:
 611:e:/LiteOS/LiteOS/targets/Cloud_FM33A0XX/GCC/../../../targets/Cloud_FM33A0XX/Drivers\fm33a0xx_gpio.c **** 				tmpreg |= (0x00000003 << pin_shift);
 1799              		.loc 1 611 0
 1800 0170 0B43     		orrs	r3, r1
 1801              	.LVL200:
 612:e:/LiteOS/LiteOS/targets/Cloud_FM33A0XX/GCC/../../../targets/Cloud_FM33A0XX/Drivers\fm33a0xx_gpio.c **** 				GPIO->EXTI1_SEL = tmpreg;
 1802              		.loc 1 612 0
 1803 0172 4360     		str	r3, [r0, #4]
 1804              	.LVL201:
 1805              	.L116:
 613:e:/LiteOS/LiteOS/targets/Cloud_FM33A0XX/GCC/../../../targets/Cloud_FM33A0XX/Drivers\fm33a0xx_gpio.c **** 			}
 614:e:/LiteOS/LiteOS/targets/Cloud_FM33A0XX/GCC/../../../targets/Cloud_FM33A0XX/Drivers\fm33a0xx_gpio.c **** 			break;
 615:e:/LiteOS/LiteOS/targets/Cloud_FM33A0XX/GCC/../../../targets/Cloud_FM33A0XX/Drivers\fm33a0xx_gpio.c **** 		
 616:e:/LiteOS/LiteOS/targets/Cloud_FM33A0XX/GCC/../../../targets/Cloud_FM33A0XX/Drivers\fm33a0xx_gpio.c **** 		default:
 617:e:/LiteOS/LiteOS/targets/Cloud_FM33A0XX/GCC/../../../targets/Cloud_FM33A0XX/Drivers\fm33a0xx_gpio.c **** 			break;
 618:e:/LiteOS/LiteOS/targets/Cloud_FM33A0XX/GCC/../../../targets/Cloud_FM33A0XX/Drivers\fm33a0xx_gpio.c **** 	}
 619:e:/LiteOS/LiteOS/targets/Cloud_FM33A0XX/GCC/../../../targets/Cloud_FM33A0XX/Drivers\fm33a0xx_gpio.c **** }
 1806              		.loc 1 619 0
 1807              		@ sp needed
 1808 0174 10BD     		pop	{r4, pc}
 1809              	.L135:
 1810 0176 C046     		.align	2
 1811              	.L134:
 1812 0178 600C0040 		.word	1073744992
 1813 017c 200C0040 		.word	1073744928
 1814 0180 400C0040 		.word	1073744960
 1815 0184 000C0040 		.word	1073744896
 1816 0188 A00C0040 		.word	1073745056
 1817 018c C00C0040 		.word	1073745088
 1818 0190 800C0040 		.word	1073745024
 1819 0194 E00C0040 		.word	1073745120
 1820 0198 FCFFFF7F 		.word	2147483644
 1821 019c FEFFFF7F 		.word	2147483646
 1822 01a0 FAFFFF7F 		.word	2147483642
 1823 01a4 FFFFFF7F 		.word	2147483647
 1824              		.cfi_endproc
 1825              	.LFE73:
 1827              		.section	.text.GPIO_EXTI_Select_Edge,"ax",%progbits
 1828              		.align	2
 1829              		.global	GPIO_EXTI_Select_Edge
 1830              		.code	16
 1831              		.thumb_func
 1833              	GPIO_EXTI_Select_Edge:
 1834              	.LFB74:
 620:e:/LiteOS/LiteOS/targets/Cloud_FM33A0XX/GCC/../../../targets/Cloud_FM33A0XX/Drivers\fm33a0xx_gpio.c **** 
 621:e:/LiteOS/LiteOS/targets/Cloud_FM33A0XX/GCC/../../../targets/Cloud_FM33A0XX/Drivers\fm33a0xx_gpio.c **** /*************************************************************************
 622:e:/LiteOS/LiteOS/targets/Cloud_FM33A0XX/GCC/../../../targets/Cloud_FM33A0XX/Drivers\fm33a0xx_gpio.c ****  函数名称：GPIO_EXTI_Select_Edge
 623:e:/LiteOS/LiteOS/targets/Cloud_FM33A0XX/GCC/../../../targets/Cloud_FM33A0XX/Drivers\fm33a0xx_gpio.c ****  功能说明：GPIO EXTI_Select_Edge 外部中断边沿选择
 624:e:/LiteOS/LiteOS/targets/Cloud_FM33A0XX/GCC/../../../targets/Cloud_FM33A0XX/Drivers\fm33a0xx_gpio.c ****  输入参数：GPIOx 端口 ，GPIO_Pin 端口内引脚 ,edge_select 触发沿
 625:e:/LiteOS/LiteOS/targets/Cloud_FM33A0XX/GCC/../../../targets/Cloud_FM33A0XX/Drivers\fm33a0xx_gpio.c ****  输出参数：无
 626:e:/LiteOS/LiteOS/targets/Cloud_FM33A0XX/GCC/../../../targets/Cloud_FM33A0XX/Drivers\fm33a0xx_gpio.c ****  返回参数w无
 627:e:/LiteOS/LiteOS/targets/Cloud_FM33A0XX/GCC/../../../targets/Cloud_FM33A0XX/Drivers\fm33a0xx_gpio.c ****  *************************************************************************/
 628:e:/LiteOS/LiteOS/targets/Cloud_FM33A0XX/GCC/../../../targets/Cloud_FM33A0XX/Drivers\fm33a0xx_gpio.c **** void GPIO_EXTI_Select_Edge(GPIOx_Type* GPIOx,uint32_t GPIO_Pin,GPIOExtiEdge edge_select)
 629:e:/LiteOS/LiteOS/targets/Cloud_FM33A0XX/GCC/../../../targets/Cloud_FM33A0XX/Drivers\fm33a0xx_gpio.c **** {
 1835              		.loc 1 629 0
ARM GAS  C:\Users\WANGBI~1\AppData\Local\Temp\ccUoabl7.s 			page 43


 1836              		.cfi_startproc
 1837              		@ args = 0, pretend = 0, frame = 0
 1838              		@ frame_needed = 0, uses_anonymous_args = 0
 1839              	.LVL202:
 1840 0000 10B5     		push	{r4, lr}
 1841              	.LCFI4:
 1842              		.cfi_def_cfa_offset 8
 1843              		.cfi_offset 4, -8
 1844              		.cfi_offset 14, -4
 1845              	.LVL203:
 630:e:/LiteOS/LiteOS/targets/Cloud_FM33A0XX/GCC/../../../targets/Cloud_FM33A0XX/Drivers\fm33a0xx_gpio.c **** 	uint32_t pin_num = 0,i;	
 631:e:/LiteOS/LiteOS/targets/Cloud_FM33A0XX/GCC/../../../targets/Cloud_FM33A0XX/Drivers\fm33a0xx_gpio.c **** 	uint32_t pin_shift;
 632:e:/LiteOS/LiteOS/targets/Cloud_FM33A0XX/GCC/../../../targets/Cloud_FM33A0XX/Drivers\fm33a0xx_gpio.c **** 	uint32_t tmpreg;
 633:e:/LiteOS/LiteOS/targets/Cloud_FM33A0XX/GCC/../../../targets/Cloud_FM33A0XX/Drivers\fm33a0xx_gpio.c **** 
 634:e:/LiteOS/LiteOS/targets/Cloud_FM33A0XX/GCC/../../../targets/Cloud_FM33A0XX/Drivers\fm33a0xx_gpio.c **** 	for(i= 0;i<16;i++)
 1846              		.loc 1 634 0
 1847 0002 0023     		movs	r3, #0
 1848 0004 04E0     		b	.L137
 1849              	.LVL204:
 1850              	.L139:
 635:e:/LiteOS/LiteOS/targets/Cloud_FM33A0XX/GCC/../../../targets/Cloud_FM33A0XX/Drivers\fm33a0xx_gpio.c **** 	{
 636:e:/LiteOS/LiteOS/targets/Cloud_FM33A0XX/GCC/../../../targets/Cloud_FM33A0XX/Drivers\fm33a0xx_gpio.c **** 		if(GPIO_Pin&(1<<i))
 1851              		.loc 1 636 0
 1852 0006 0124     		movs	r4, #1
 1853 0008 9C40     		lsls	r4, r4, r3
 1854 000a 2142     		tst	r1, r4
 1855 000c 03D1     		bne	.L138
 634:e:/LiteOS/LiteOS/targets/Cloud_FM33A0XX/GCC/../../../targets/Cloud_FM33A0XX/Drivers\fm33a0xx_gpio.c **** 	{
 1856              		.loc 1 634 0 discriminator 2
 1857 000e 0133     		adds	r3, r3, #1
 1858              	.LVL205:
 1859              	.L137:
 634:e:/LiteOS/LiteOS/targets/Cloud_FM33A0XX/GCC/../../../targets/Cloud_FM33A0XX/Drivers\fm33a0xx_gpio.c **** 	{
 1860              		.loc 1 634 0 is_stmt 0 discriminator 1
 1861 0010 0F2B     		cmp	r3, #15
 1862 0012 F8D9     		bls	.L139
 630:e:/LiteOS/LiteOS/targets/Cloud_FM33A0XX/GCC/../../../targets/Cloud_FM33A0XX/Drivers\fm33a0xx_gpio.c **** 	uint32_t pin_num = 0,i;	
 1863              		.loc 1 630 0 is_stmt 1
 1864 0014 0023     		movs	r3, #0
 1865              	.LVL206:
 1866              	.L138:
 637:e:/LiteOS/LiteOS/targets/Cloud_FM33A0XX/GCC/../../../targets/Cloud_FM33A0XX/Drivers\fm33a0xx_gpio.c **** 		{
 638:e:/LiteOS/LiteOS/targets/Cloud_FM33A0XX/GCC/../../../targets/Cloud_FM33A0XX/Drivers\fm33a0xx_gpio.c **** 			pin_num = i;
 639:e:/LiteOS/LiteOS/targets/Cloud_FM33A0XX/GCC/../../../targets/Cloud_FM33A0XX/Drivers\fm33a0xx_gpio.c **** 			break;
 640:e:/LiteOS/LiteOS/targets/Cloud_FM33A0XX/GCC/../../../targets/Cloud_FM33A0XX/Drivers\fm33a0xx_gpio.c **** 		}							
 641:e:/LiteOS/LiteOS/targets/Cloud_FM33A0XX/GCC/../../../targets/Cloud_FM33A0XX/Drivers\fm33a0xx_gpio.c **** 	}	
 642:e:/LiteOS/LiteOS/targets/Cloud_FM33A0XX/GCC/../../../targets/Cloud_FM33A0XX/Drivers\fm33a0xx_gpio.c **** 	
 643:e:/LiteOS/LiteOS/targets/Cloud_FM33A0XX/GCC/../../../targets/Cloud_FM33A0XX/Drivers\fm33a0xx_gpio.c **** 	switch((uint32_t)GPIOx)
 1867              		.loc 1 643 0
 1868 0016 4349     		ldr	r1, .L150
 1869              	.LVL207:
 1870 0018 8842     		cmp	r0, r1
 1871 001a 2ED0     		beq	.L141
 1872 001c 09D8     		bhi	.L142
 1873 001e 4249     		ldr	r1, .L150+4
 1874 0020 8842     		cmp	r0, r1
 1875 0022 10D0     		beq	.L143
ARM GAS  C:\Users\WANGBI~1\AppData\Local\Temp\ccUoabl7.s 			page 44


 1876 0024 4149     		ldr	r1, .L150+8
 1877 0026 8842     		cmp	r0, r1
 1878 0028 1AD0     		beq	.L144
 1879 002a 4149     		ldr	r1, .L150+12
 1880 002c 8842     		cmp	r0, r1
 1881 002e 78D1     		bne	.L136
 1882 0030 09E0     		b	.L143
 1883              	.L142:
 1884 0032 4049     		ldr	r1, .L150+16
 1885 0034 8842     		cmp	r0, r1
 1886 0036 3DD0     		beq	.L145
 1887 0038 3F49     		ldr	r1, .L150+20
 1888 003a 8842     		cmp	r0, r1
 1889 003c 57D0     		beq	.L146
 1890 003e 3F49     		ldr	r1, .L150+24
 1891 0040 8842     		cmp	r0, r1
 1892 0042 6ED1     		bne	.L136
 1893 0044 28E0     		b	.L147
 1894              	.L143:
 644:e:/LiteOS/LiteOS/targets/Cloud_FM33A0XX/GCC/../../../targets/Cloud_FM33A0XX/Drivers\fm33a0xx_gpio.c **** 	{
 645:e:/LiteOS/LiteOS/targets/Cloud_FM33A0XX/GCC/../../../targets/Cloud_FM33A0XX/Drivers\fm33a0xx_gpio.c **** 		case (uint32_t)GPIOA:
 646:e:/LiteOS/LiteOS/targets/Cloud_FM33A0XX/GCC/../../../targets/Cloud_FM33A0XX/Drivers\fm33a0xx_gpio.c **** 		case (uint32_t)GPIOB:
 647:e:/LiteOS/LiteOS/targets/Cloud_FM33A0XX/GCC/../../../targets/Cloud_FM33A0XX/Drivers\fm33a0xx_gpio.c **** 			pin_shift = (pin_num%8)*2 + 16;
 1895              		.loc 1 647 0
 1896 0046 0721     		movs	r1, #7
 1897 0048 0B40     		ands	r3, r1
 1898              	.LVL208:
 1899 004a 0833     		adds	r3, r3, #8
 1900 004c 5B00     		lsls	r3, r3, #1
 1901              	.LVL209:
 648:e:/LiteOS/LiteOS/targets/Cloud_FM33A0XX/GCC/../../../targets/Cloud_FM33A0XX/Drivers\fm33a0xx_gpio.c **** 			tmpreg = GPIO->EXTI0_SEL;
 1902              		.loc 1 648 0
 1903 004e 3C4C     		ldr	r4, .L150+28
 1904 0050 2168     		ldr	r1, [r4]
 1905              	.LVL210:
 649:e:/LiteOS/LiteOS/targets/Cloud_FM33A0XX/GCC/../../../targets/Cloud_FM33A0XX/Drivers\fm33a0xx_gpio.c **** 			tmpreg &= (~(0x00000003 << pin_shift));			  
 1906              		.loc 1 649 0
 1907 0052 0320     		movs	r0, #3
 1908              	.LVL211:
 1909 0054 9840     		lsls	r0, r0, r3
 1910 0056 8143     		bics	r1, r0
 1911              	.LVL212:
 650:e:/LiteOS/LiteOS/targets/Cloud_FM33A0XX/GCC/../../../targets/Cloud_FM33A0XX/Drivers\fm33a0xx_gpio.c **** 			tmpreg |= edge_select << pin_shift;
 1912              		.loc 1 650 0
 1913 0058 9A40     		lsls	r2, r2, r3
 1914              	.LVL213:
 1915 005a 0A43     		orrs	r2, r1
 1916              	.LVL214:
 651:e:/LiteOS/LiteOS/targets/Cloud_FM33A0XX/GCC/../../../targets/Cloud_FM33A0XX/Drivers\fm33a0xx_gpio.c **** 			GPIO->EXTI0_SEL = tmpreg;
 1917              		.loc 1 651 0
 1918 005c 2260     		str	r2, [r4]
 652:e:/LiteOS/LiteOS/targets/Cloud_FM33A0XX/GCC/../../../targets/Cloud_FM33A0XX/Drivers\fm33a0xx_gpio.c **** 			break;
 1919              		.loc 1 652 0
 1920 005e 60E0     		b	.L136
 1921              	.LVL215:
 1922              	.L144:
 653:e:/LiteOS/LiteOS/targets/Cloud_FM33A0XX/GCC/../../../targets/Cloud_FM33A0XX/Drivers\fm33a0xx_gpio.c **** 
ARM GAS  C:\Users\WANGBI~1\AppData\Local\Temp\ccUoabl7.s 			page 45


 654:e:/LiteOS/LiteOS/targets/Cloud_FM33A0XX/GCC/../../../targets/Cloud_FM33A0XX/Drivers\fm33a0xx_gpio.c **** 		case (uint32_t)GPIOC:
 655:e:/LiteOS/LiteOS/targets/Cloud_FM33A0XX/GCC/../../../targets/Cloud_FM33A0XX/Drivers\fm33a0xx_gpio.c **** 			pin_shift = (pin_num%8)*2 + 16;
 1923              		.loc 1 655 0
 1924 0060 0721     		movs	r1, #7
 1925 0062 0B40     		ands	r3, r1
 1926              	.LVL216:
 1927 0064 0833     		adds	r3, r3, #8
 1928 0066 5B00     		lsls	r3, r3, #1
 1929              	.LVL217:
 656:e:/LiteOS/LiteOS/targets/Cloud_FM33A0XX/GCC/../../../targets/Cloud_FM33A0XX/Drivers\fm33a0xx_gpio.c **** 			tmpreg = GPIO->EXTI1_SEL;
 1930              		.loc 1 656 0
 1931 0068 354C     		ldr	r4, .L150+28
 1932 006a 6168     		ldr	r1, [r4, #4]
 1933              	.LVL218:
 657:e:/LiteOS/LiteOS/targets/Cloud_FM33A0XX/GCC/../../../targets/Cloud_FM33A0XX/Drivers\fm33a0xx_gpio.c **** 			tmpreg &= (~(0x00000003 << pin_shift));			  
 1934              		.loc 1 657 0
 1935 006c 0320     		movs	r0, #3
 1936              	.LVL219:
 1937 006e 9840     		lsls	r0, r0, r3
 1938 0070 8143     		bics	r1, r0
 1939              	.LVL220:
 658:e:/LiteOS/LiteOS/targets/Cloud_FM33A0XX/GCC/../../../targets/Cloud_FM33A0XX/Drivers\fm33a0xx_gpio.c **** 			tmpreg |= edge_select << pin_shift;
 1940              		.loc 1 658 0
 1941 0072 9A40     		lsls	r2, r2, r3
 1942              	.LVL221:
 1943 0074 0A43     		orrs	r2, r1
 1944              	.LVL222:
 659:e:/LiteOS/LiteOS/targets/Cloud_FM33A0XX/GCC/../../../targets/Cloud_FM33A0XX/Drivers\fm33a0xx_gpio.c **** 			GPIO->EXTI1_SEL = tmpreg;
 1945              		.loc 1 659 0
 1946 0076 6260     		str	r2, [r4, #4]
 660:e:/LiteOS/LiteOS/targets/Cloud_FM33A0XX/GCC/../../../targets/Cloud_FM33A0XX/Drivers\fm33a0xx_gpio.c **** 			break;
 1947              		.loc 1 660 0
 1948 0078 53E0     		b	.L136
 1949              	.LVL223:
 1950              	.L141:
 661:e:/LiteOS/LiteOS/targets/Cloud_FM33A0XX/GCC/../../../targets/Cloud_FM33A0XX/Drivers\fm33a0xx_gpio.c **** 
 662:e:/LiteOS/LiteOS/targets/Cloud_FM33A0XX/GCC/../../../targets/Cloud_FM33A0XX/Drivers\fm33a0xx_gpio.c **** 		case (uint32_t)GPIOD://0~10
 663:e:/LiteOS/LiteOS/targets/Cloud_FM33A0XX/GCC/../../../targets/Cloud_FM33A0XX/Drivers\fm33a0xx_gpio.c **** 			if(pin_num <= 10)
 1951              		.loc 1 663 0
 1952 007a 0A2B     		cmp	r3, #10
 1953 007c 51D8     		bhi	.L136
 664:e:/LiteOS/LiteOS/targets/Cloud_FM33A0XX/GCC/../../../targets/Cloud_FM33A0XX/Drivers\fm33a0xx_gpio.c **** 			{
 665:e:/LiteOS/LiteOS/targets/Cloud_FM33A0XX/GCC/../../../targets/Cloud_FM33A0XX/Drivers\fm33a0xx_gpio.c **** 				pin_shift = (pin_num%8)*2 + 16;
 1954              		.loc 1 665 0
 1955 007e 0721     		movs	r1, #7
 1956 0080 0B40     		ands	r3, r1
 1957              	.LVL224:
 1958 0082 0833     		adds	r3, r3, #8
 1959 0084 5B00     		lsls	r3, r3, #1
 1960              	.LVL225:
 666:e:/LiteOS/LiteOS/targets/Cloud_FM33A0XX/GCC/../../../targets/Cloud_FM33A0XX/Drivers\fm33a0xx_gpio.c **** 				tmpreg = GPIO->EXTI1_SEL;
 1961              		.loc 1 666 0
 1962 0086 2E4C     		ldr	r4, .L150+28
 1963 0088 6168     		ldr	r1, [r4, #4]
 1964              	.LVL226:
 667:e:/LiteOS/LiteOS/targets/Cloud_FM33A0XX/GCC/../../../targets/Cloud_FM33A0XX/Drivers\fm33a0xx_gpio.c **** 				tmpreg &= (~(0x00000003 << pin_shift));			  
 1965              		.loc 1 667 0
ARM GAS  C:\Users\WANGBI~1\AppData\Local\Temp\ccUoabl7.s 			page 46


 1966 008a 0320     		movs	r0, #3
 1967              	.LVL227:
 1968 008c 9840     		lsls	r0, r0, r3
 1969 008e 8143     		bics	r1, r0
 1970              	.LVL228:
 668:e:/LiteOS/LiteOS/targets/Cloud_FM33A0XX/GCC/../../../targets/Cloud_FM33A0XX/Drivers\fm33a0xx_gpio.c **** 				tmpreg |= edge_select << pin_shift;
 1971              		.loc 1 668 0
 1972 0090 9A40     		lsls	r2, r2, r3
 1973              	.LVL229:
 1974 0092 0A43     		orrs	r2, r1
 1975              	.LVL230:
 669:e:/LiteOS/LiteOS/targets/Cloud_FM33A0XX/GCC/../../../targets/Cloud_FM33A0XX/Drivers\fm33a0xx_gpio.c **** 				GPIO->EXTI1_SEL = tmpreg;
 1976              		.loc 1 669 0
 1977 0094 6260     		str	r2, [r4, #4]
 1978 0096 44E0     		b	.L136
 1979              	.LVL231:
 1980              	.L147:
 670:e:/LiteOS/LiteOS/targets/Cloud_FM33A0XX/GCC/../../../targets/Cloud_FM33A0XX/Drivers\fm33a0xx_gpio.c **** 			}
 671:e:/LiteOS/LiteOS/targets/Cloud_FM33A0XX/GCC/../../../targets/Cloud_FM33A0XX/Drivers\fm33a0xx_gpio.c **** 			break;
 672:e:/LiteOS/LiteOS/targets/Cloud_FM33A0XX/GCC/../../../targets/Cloud_FM33A0XX/Drivers\fm33a0xx_gpio.c **** 
 673:e:/LiteOS/LiteOS/targets/Cloud_FM33A0XX/GCC/../../../targets/Cloud_FM33A0XX/Drivers\fm33a0xx_gpio.c **** 		case (uint32_t)GPIOE://2~9(-2)
 674:e:/LiteOS/LiteOS/targets/Cloud_FM33A0XX/GCC/../../../targets/Cloud_FM33A0XX/Drivers\fm33a0xx_gpio.c **** 			if((pin_num >= 2)&&(pin_num <= 9))
 1981              		.loc 1 674 0
 1982 0098 991E     		subs	r1, r3, #2
 1983 009a 0729     		cmp	r1, #7
 1984 009c 41D8     		bhi	.L136
 675:e:/LiteOS/LiteOS/targets/Cloud_FM33A0XX/GCC/../../../targets/Cloud_FM33A0XX/Drivers\fm33a0xx_gpio.c **** 			{
 676:e:/LiteOS/LiteOS/targets/Cloud_FM33A0XX/GCC/../../../targets/Cloud_FM33A0XX/Drivers\fm33a0xx_gpio.c **** 				pin_shift = (pin_num - 2)*2 + 16;
 1985              		.loc 1 676 0
 1986 009e 0633     		adds	r3, r3, #6
 1987              	.LVL232:
 1988 00a0 5B00     		lsls	r3, r3, #1
 1989              	.LVL233:
 677:e:/LiteOS/LiteOS/targets/Cloud_FM33A0XX/GCC/../../../targets/Cloud_FM33A0XX/Drivers\fm33a0xx_gpio.c **** 				tmpreg = GPIO->EXTI2_SEL;
 1990              		.loc 1 677 0
 1991 00a2 274C     		ldr	r4, .L150+28
 1992 00a4 A168     		ldr	r1, [r4, #8]
 1993              	.LVL234:
 678:e:/LiteOS/LiteOS/targets/Cloud_FM33A0XX/GCC/../../../targets/Cloud_FM33A0XX/Drivers\fm33a0xx_gpio.c **** 				tmpreg &= (~(0x00000003 << pin_shift));
 1994              		.loc 1 678 0
 1995 00a6 0320     		movs	r0, #3
 1996              	.LVL235:
 1997 00a8 9840     		lsls	r0, r0, r3
 1998 00aa 8143     		bics	r1, r0
 1999              	.LVL236:
 679:e:/LiteOS/LiteOS/targets/Cloud_FM33A0XX/GCC/../../../targets/Cloud_FM33A0XX/Drivers\fm33a0xx_gpio.c **** 				tmpreg |= edge_select << pin_shift;
 2000              		.loc 1 679 0
 2001 00ac 9A40     		lsls	r2, r2, r3
 2002              	.LVL237:
 2003 00ae 0A43     		orrs	r2, r1
 2004              	.LVL238:
 680:e:/LiteOS/LiteOS/targets/Cloud_FM33A0XX/GCC/../../../targets/Cloud_FM33A0XX/Drivers\fm33a0xx_gpio.c **** 				GPIO->EXTI2_SEL = tmpreg;
 2005              		.loc 1 680 0
 2006 00b0 A260     		str	r2, [r4, #8]
 2007 00b2 36E0     		b	.L136
 2008              	.LVL239:
 2009              	.L145:
ARM GAS  C:\Users\WANGBI~1\AppData\Local\Temp\ccUoabl7.s 			page 47


 681:e:/LiteOS/LiteOS/targets/Cloud_FM33A0XX/GCC/../../../targets/Cloud_FM33A0XX/Drivers\fm33a0xx_gpio.c **** 			}
 682:e:/LiteOS/LiteOS/targets/Cloud_FM33A0XX/GCC/../../../targets/Cloud_FM33A0XX/Drivers\fm33a0xx_gpio.c **** 			break;
 683:e:/LiteOS/LiteOS/targets/Cloud_FM33A0XX/GCC/../../../targets/Cloud_FM33A0XX/Drivers\fm33a0xx_gpio.c **** 
 684:e:/LiteOS/LiteOS/targets/Cloud_FM33A0XX/GCC/../../../targets/Cloud_FM33A0XX/Drivers\fm33a0xx_gpio.c **** 		case (uint32_t)GPIOF://1~7   8~11(-4)
 685:e:/LiteOS/LiteOS/targets/Cloud_FM33A0XX/GCC/../../../targets/Cloud_FM33A0XX/Drivers\fm33a0xx_gpio.c **** 			if((pin_num >= 1)&&(pin_num <= 7))
 2010              		.loc 1 685 0
 2011 00b4 591E     		subs	r1, r3, #1
 2012 00b6 0629     		cmp	r1, #6
 2013 00b8 0AD8     		bhi	.L148
 686:e:/LiteOS/LiteOS/targets/Cloud_FM33A0XX/GCC/../../../targets/Cloud_FM33A0XX/Drivers\fm33a0xx_gpio.c **** 			{
 687:e:/LiteOS/LiteOS/targets/Cloud_FM33A0XX/GCC/../../../targets/Cloud_FM33A0XX/Drivers\fm33a0xx_gpio.c **** 				pin_shift = pin_num*2 + 16;
 2014              		.loc 1 687 0
 2015 00ba 0833     		adds	r3, r3, #8
 2016              	.LVL240:
 2017 00bc 5B00     		lsls	r3, r3, #1
 2018              	.LVL241:
 688:e:/LiteOS/LiteOS/targets/Cloud_FM33A0XX/GCC/../../../targets/Cloud_FM33A0XX/Drivers\fm33a0xx_gpio.c **** 				tmpreg = GPIO->EXTI2_SEL;
 2019              		.loc 1 688 0
 2020 00be 204C     		ldr	r4, .L150+28
 2021 00c0 A168     		ldr	r1, [r4, #8]
 2022              	.LVL242:
 689:e:/LiteOS/LiteOS/targets/Cloud_FM33A0XX/GCC/../../../targets/Cloud_FM33A0XX/Drivers\fm33a0xx_gpio.c **** 				tmpreg &= (~(0x00000003 << pin_shift));
 2023              		.loc 1 689 0
 2024 00c2 0320     		movs	r0, #3
 2025              	.LVL243:
 2026 00c4 9840     		lsls	r0, r0, r3
 2027 00c6 8143     		bics	r1, r0
 2028              	.LVL244:
 690:e:/LiteOS/LiteOS/targets/Cloud_FM33A0XX/GCC/../../../targets/Cloud_FM33A0XX/Drivers\fm33a0xx_gpio.c **** 				tmpreg |= edge_select << pin_shift;
 2029              		.loc 1 690 0
 2030 00c8 9A40     		lsls	r2, r2, r3
 2031              	.LVL245:
 2032 00ca 0A43     		orrs	r2, r1
 2033              	.LVL246:
 691:e:/LiteOS/LiteOS/targets/Cloud_FM33A0XX/GCC/../../../targets/Cloud_FM33A0XX/Drivers\fm33a0xx_gpio.c **** 				GPIO->EXTI2_SEL = tmpreg;
 2034              		.loc 1 691 0
 2035 00cc A260     		str	r2, [r4, #8]
 2036 00ce 28E0     		b	.L136
 2037              	.LVL247:
 2038              	.L148:
 692:e:/LiteOS/LiteOS/targets/Cloud_FM33A0XX/GCC/../../../targets/Cloud_FM33A0XX/Drivers\fm33a0xx_gpio.c **** 			}
 693:e:/LiteOS/LiteOS/targets/Cloud_FM33A0XX/GCC/../../../targets/Cloud_FM33A0XX/Drivers\fm33a0xx_gpio.c **** 			else if((pin_num >= 8)&&(pin_num <= 11))
 2039              		.loc 1 693 0
 2040 00d0 1900     		movs	r1, r3
 2041 00d2 0839     		subs	r1, r1, #8
 2042 00d4 0329     		cmp	r1, #3
 2043 00d6 24D8     		bhi	.L136
 694:e:/LiteOS/LiteOS/targets/Cloud_FM33A0XX/GCC/../../../targets/Cloud_FM33A0XX/Drivers\fm33a0xx_gpio.c **** 			{
 695:e:/LiteOS/LiteOS/targets/Cloud_FM33A0XX/GCC/../../../targets/Cloud_FM33A0XX/Drivers\fm33a0xx_gpio.c **** 				pin_shift = ((pin_num - 8)+4)*2 + 16;	
 2044              		.loc 1 695 0
 2045 00d8 0433     		adds	r3, r3, #4
 2046              	.LVL248:
 2047 00da 5B00     		lsls	r3, r3, #1
 2048              	.LVL249:
 696:e:/LiteOS/LiteOS/targets/Cloud_FM33A0XX/GCC/../../../targets/Cloud_FM33A0XX/Drivers\fm33a0xx_gpio.c **** 				tmpreg = GPIO->EXTI2_SEL;
 2049              		.loc 1 696 0
 2050 00dc 184C     		ldr	r4, .L150+28
ARM GAS  C:\Users\WANGBI~1\AppData\Local\Temp\ccUoabl7.s 			page 48


 2051 00de A168     		ldr	r1, [r4, #8]
 2052              	.LVL250:
 697:e:/LiteOS/LiteOS/targets/Cloud_FM33A0XX/GCC/../../../targets/Cloud_FM33A0XX/Drivers\fm33a0xx_gpio.c **** 				tmpreg &= (~(0x00000003 << pin_shift));
 2053              		.loc 1 697 0
 2054 00e0 0320     		movs	r0, #3
 2055              	.LVL251:
 2056 00e2 9840     		lsls	r0, r0, r3
 2057 00e4 8143     		bics	r1, r0
 2058              	.LVL252:
 698:e:/LiteOS/LiteOS/targets/Cloud_FM33A0XX/GCC/../../../targets/Cloud_FM33A0XX/Drivers\fm33a0xx_gpio.c **** 				tmpreg |= edge_select << pin_shift;
 2059              		.loc 1 698 0
 2060 00e6 9A40     		lsls	r2, r2, r3
 2061              	.LVL253:
 2062 00e8 0A43     		orrs	r2, r1
 2063              	.LVL254:
 699:e:/LiteOS/LiteOS/targets/Cloud_FM33A0XX/GCC/../../../targets/Cloud_FM33A0XX/Drivers\fm33a0xx_gpio.c **** 				GPIO->EXTI2_SEL = tmpreg;
 2064              		.loc 1 699 0
 2065 00ea A260     		str	r2, [r4, #8]
 2066 00ec 19E0     		b	.L136
 2067              	.LVL255:
 2068              	.L146:
 700:e:/LiteOS/LiteOS/targets/Cloud_FM33A0XX/GCC/../../../targets/Cloud_FM33A0XX/Drivers\fm33a0xx_gpio.c **** 			}
 701:e:/LiteOS/LiteOS/targets/Cloud_FM33A0XX/GCC/../../../targets/Cloud_FM33A0XX/Drivers\fm33a0xx_gpio.c **** 			break;
 702:e:/LiteOS/LiteOS/targets/Cloud_FM33A0XX/GCC/../../../targets/Cloud_FM33A0XX/Drivers\fm33a0xx_gpio.c **** 
 703:e:/LiteOS/LiteOS/targets/Cloud_FM33A0XX/GCC/../../../targets/Cloud_FM33A0XX/Drivers\fm33a0xx_gpio.c **** 		case (uint32_t)GPIOG://2(+1) 5~8(-1)
 704:e:/LiteOS/LiteOS/targets/Cloud_FM33A0XX/GCC/../../../targets/Cloud_FM33A0XX/Drivers\fm33a0xx_gpio.c **** 			if(pin_num == 2)
 2069              		.loc 1 704 0
 2070 00ee 022B     		cmp	r3, #2
 2071 00f0 0AD1     		bne	.L149
 705:e:/LiteOS/LiteOS/targets/Cloud_FM33A0XX/GCC/../../../targets/Cloud_FM33A0XX/Drivers\fm33a0xx_gpio.c **** 			{
 706:e:/LiteOS/LiteOS/targets/Cloud_FM33A0XX/GCC/../../../targets/Cloud_FM33A0XX/Drivers\fm33a0xx_gpio.c **** 				pin_shift = (pin_num + 1)*2 + 16;
 2072              		.loc 1 706 0
 2073 00f2 0933     		adds	r3, r3, #9
 2074              	.LVL256:
 2075 00f4 5B00     		lsls	r3, r3, #1
 2076              	.LVL257:
 707:e:/LiteOS/LiteOS/targets/Cloud_FM33A0XX/GCC/../../../targets/Cloud_FM33A0XX/Drivers\fm33a0xx_gpio.c **** 				tmpreg = GPIO->EXTI1_SEL;
 2077              		.loc 1 707 0
 2078 00f6 124C     		ldr	r4, .L150+28
 2079 00f8 6168     		ldr	r1, [r4, #4]
 2080              	.LVL258:
 708:e:/LiteOS/LiteOS/targets/Cloud_FM33A0XX/GCC/../../../targets/Cloud_FM33A0XX/Drivers\fm33a0xx_gpio.c **** 				tmpreg &= (~(0x00000003 << pin_shift));			  
 2081              		.loc 1 708 0
 2082 00fa 0320     		movs	r0, #3
 2083              	.LVL259:
 2084 00fc 9840     		lsls	r0, r0, r3
 2085 00fe 8143     		bics	r1, r0
 2086              	.LVL260:
 709:e:/LiteOS/LiteOS/targets/Cloud_FM33A0XX/GCC/../../../targets/Cloud_FM33A0XX/Drivers\fm33a0xx_gpio.c **** 				tmpreg |= edge_select << pin_shift;
 2087              		.loc 1 709 0
 2088 0100 9A40     		lsls	r2, r2, r3
 2089              	.LVL261:
 2090 0102 0A43     		orrs	r2, r1
 2091              	.LVL262:
 710:e:/LiteOS/LiteOS/targets/Cloud_FM33A0XX/GCC/../../../targets/Cloud_FM33A0XX/Drivers\fm33a0xx_gpio.c **** 				GPIO->EXTI1_SEL = tmpreg;
 2092              		.loc 1 710 0
 2093 0104 6260     		str	r2, [r4, #4]
ARM GAS  C:\Users\WANGBI~1\AppData\Local\Temp\ccUoabl7.s 			page 49


 2094 0106 0CE0     		b	.L136
 2095              	.LVL263:
 2096              	.L149:
 711:e:/LiteOS/LiteOS/targets/Cloud_FM33A0XX/GCC/../../../targets/Cloud_FM33A0XX/Drivers\fm33a0xx_gpio.c **** 			}
 712:e:/LiteOS/LiteOS/targets/Cloud_FM33A0XX/GCC/../../../targets/Cloud_FM33A0XX/Drivers\fm33a0xx_gpio.c **** 			else if((pin_num >= 5)&&(pin_num <= 8))
 2097              		.loc 1 712 0
 2098 0108 591F     		subs	r1, r3, #5
 2099 010a 0329     		cmp	r1, #3
 2100 010c 09D8     		bhi	.L136
 713:e:/LiteOS/LiteOS/targets/Cloud_FM33A0XX/GCC/../../../targets/Cloud_FM33A0XX/Drivers\fm33a0xx_gpio.c **** 			{
 714:e:/LiteOS/LiteOS/targets/Cloud_FM33A0XX/GCC/../../../targets/Cloud_FM33A0XX/Drivers\fm33a0xx_gpio.c **** 				pin_shift = (pin_num - 1)*2 + 16;
 2101              		.loc 1 714 0
 2102 010e 0733     		adds	r3, r3, #7
 2103              	.LVL264:
 2104 0110 5B00     		lsls	r3, r3, #1
 2105              	.LVL265:
 715:e:/LiteOS/LiteOS/targets/Cloud_FM33A0XX/GCC/../../../targets/Cloud_FM33A0XX/Drivers\fm33a0xx_gpio.c **** 				tmpreg = GPIO->EXTI1_SEL;
 2106              		.loc 1 715 0
 2107 0112 0B4C     		ldr	r4, .L150+28
 2108 0114 6168     		ldr	r1, [r4, #4]
 2109              	.LVL266:
 716:e:/LiteOS/LiteOS/targets/Cloud_FM33A0XX/GCC/../../../targets/Cloud_FM33A0XX/Drivers\fm33a0xx_gpio.c **** 				tmpreg &= (~(0x00000003 << pin_shift));
 2110              		.loc 1 716 0
 2111 0116 0320     		movs	r0, #3
 2112              	.LVL267:
 2113 0118 9840     		lsls	r0, r0, r3
 2114 011a 8143     		bics	r1, r0
 2115              	.LVL268:
 717:e:/LiteOS/LiteOS/targets/Cloud_FM33A0XX/GCC/../../../targets/Cloud_FM33A0XX/Drivers\fm33a0xx_gpio.c **** 				tmpreg |= edge_select << pin_shift;
 2116              		.loc 1 717 0
 2117 011c 9A40     		lsls	r2, r2, r3
 2118              	.LVL269:
 2119 011e 0A43     		orrs	r2, r1
 2120              	.LVL270:
 718:e:/LiteOS/LiteOS/targets/Cloud_FM33A0XX/GCC/../../../targets/Cloud_FM33A0XX/Drivers\fm33a0xx_gpio.c **** 				GPIO->EXTI1_SEL = tmpreg;
 2121              		.loc 1 718 0
 2122 0120 6260     		str	r2, [r4, #4]
 2123              	.LVL271:
 2124              	.L136:
 719:e:/LiteOS/LiteOS/targets/Cloud_FM33A0XX/GCC/../../../targets/Cloud_FM33A0XX/Drivers\fm33a0xx_gpio.c **** 			}
 720:e:/LiteOS/LiteOS/targets/Cloud_FM33A0XX/GCC/../../../targets/Cloud_FM33A0XX/Drivers\fm33a0xx_gpio.c **** 			break;
 721:e:/LiteOS/LiteOS/targets/Cloud_FM33A0XX/GCC/../../../targets/Cloud_FM33A0XX/Drivers\fm33a0xx_gpio.c **** 		
 722:e:/LiteOS/LiteOS/targets/Cloud_FM33A0XX/GCC/../../../targets/Cloud_FM33A0XX/Drivers\fm33a0xx_gpio.c **** 		default:
 723:e:/LiteOS/LiteOS/targets/Cloud_FM33A0XX/GCC/../../../targets/Cloud_FM33A0XX/Drivers\fm33a0xx_gpio.c **** 			break;
 724:e:/LiteOS/LiteOS/targets/Cloud_FM33A0XX/GCC/../../../targets/Cloud_FM33A0XX/Drivers\fm33a0xx_gpio.c **** 	}
 725:e:/LiteOS/LiteOS/targets/Cloud_FM33A0XX/GCC/../../../targets/Cloud_FM33A0XX/Drivers\fm33a0xx_gpio.c **** }
 2125              		.loc 1 725 0
 2126              		@ sp needed
 2127 0122 10BD     		pop	{r4, pc}
 2128              	.L151:
 2129              		.align	2
 2130              	.L150:
 2131 0124 600C0040 		.word	1073744992
 2132 0128 200C0040 		.word	1073744928
 2133 012c 400C0040 		.word	1073744960
 2134 0130 000C0040 		.word	1073744896
 2135 0134 A00C0040 		.word	1073745056
ARM GAS  C:\Users\WANGBI~1\AppData\Local\Temp\ccUoabl7.s 			page 50


 2136 0138 C00C0040 		.word	1073745088
 2137 013c 800C0040 		.word	1073745024
 2138 0140 E00C0040 		.word	1073745120
 2139              		.cfi_endproc
 2140              	.LFE74:
 2142              		.section	.text.GPIO_EXTI_EXTIxIF_ClrEx,"ax",%progbits
 2143              		.align	2
 2144              		.global	GPIO_EXTI_EXTIxIF_ClrEx
 2145              		.code	16
 2146              		.thumb_func
 2148              	GPIO_EXTI_EXTIxIF_ClrEx:
 2149              	.LFB75:
 726:e:/LiteOS/LiteOS/targets/Cloud_FM33A0XX/GCC/../../../targets/Cloud_FM33A0XX/Drivers\fm33a0xx_gpio.c **** 
 727:e:/LiteOS/LiteOS/targets/Cloud_FM33A0XX/GCC/../../../targets/Cloud_FM33A0XX/Drivers\fm33a0xx_gpio.c **** /*************************************************************************
 728:e:/LiteOS/LiteOS/targets/Cloud_FM33A0XX/GCC/../../../targets/Cloud_FM33A0XX/Drivers\fm33a0xx_gpio.c ****  函数名称：GPIO_EXTI_EXTIxIF_ClrEx
 729:e:/LiteOS/LiteOS/targets/Cloud_FM33A0XX/GCC/../../../targets/Cloud_FM33A0XX/Drivers\fm33a0xx_gpio.c ****  功能说明：GPIO_EXTI_EXTIxIF_ClrEx 清除中断标志
 730:e:/LiteOS/LiteOS/targets/Cloud_FM33A0XX/GCC/../../../targets/Cloud_FM33A0XX/Drivers\fm33a0xx_gpio.c ****  输入参数：GPIOx 端口 ，GPIO_Pin 端口内引脚 
 731:e:/LiteOS/LiteOS/targets/Cloud_FM33A0XX/GCC/../../../targets/Cloud_FM33A0XX/Drivers\fm33a0xx_gpio.c ****  输出参数：无
 732:e:/LiteOS/LiteOS/targets/Cloud_FM33A0XX/GCC/../../../targets/Cloud_FM33A0XX/Drivers\fm33a0xx_gpio.c ****  返回参数w无
 733:e:/LiteOS/LiteOS/targets/Cloud_FM33A0XX/GCC/../../../targets/Cloud_FM33A0XX/Drivers\fm33a0xx_gpio.c ****  *************************************************************************/
 734:e:/LiteOS/LiteOS/targets/Cloud_FM33A0XX/GCC/../../../targets/Cloud_FM33A0XX/Drivers\fm33a0xx_gpio.c **** void GPIO_EXTI_EXTIxIF_ClrEx(GPIOx_Type* GPIOx,uint32_t GPIO_Pin)
 735:e:/LiteOS/LiteOS/targets/Cloud_FM33A0XX/GCC/../../../targets/Cloud_FM33A0XX/Drivers\fm33a0xx_gpio.c **** {
 2150              		.loc 1 735 0
 2151              		.cfi_startproc
 2152              		@ args = 0, pretend = 0, frame = 0
 2153              		@ frame_needed = 0, uses_anonymous_args = 0
 2154              		@ link register save eliminated.
 2155              	.LVL272:
 736:e:/LiteOS/LiteOS/targets/Cloud_FM33A0XX/GCC/../../../targets/Cloud_FM33A0XX/Drivers\fm33a0xx_gpio.c **** 	uint32_t pin_num = 0,i;	
 737:e:/LiteOS/LiteOS/targets/Cloud_FM33A0XX/GCC/../../../targets/Cloud_FM33A0XX/Drivers\fm33a0xx_gpio.c **** 	
 738:e:/LiteOS/LiteOS/targets/Cloud_FM33A0XX/GCC/../../../targets/Cloud_FM33A0XX/Drivers\fm33a0xx_gpio.c **** 	for(i= 0;i<16;i++)
 2156              		.loc 1 738 0
 2157 0000 0023     		movs	r3, #0
 2158 0002 04E0     		b	.L153
 2159              	.LVL273:
 2160              	.L155:
 739:e:/LiteOS/LiteOS/targets/Cloud_FM33A0XX/GCC/../../../targets/Cloud_FM33A0XX/Drivers\fm33a0xx_gpio.c **** 	{
 740:e:/LiteOS/LiteOS/targets/Cloud_FM33A0XX/GCC/../../../targets/Cloud_FM33A0XX/Drivers\fm33a0xx_gpio.c **** 		if(GPIO_Pin&(1<<i))
 2161              		.loc 1 740 0
 2162 0004 0122     		movs	r2, #1
 2163 0006 9A40     		lsls	r2, r2, r3
 2164 0008 1142     		tst	r1, r2
 2165 000a 03D1     		bne	.L154
 738:e:/LiteOS/LiteOS/targets/Cloud_FM33A0XX/GCC/../../../targets/Cloud_FM33A0XX/Drivers\fm33a0xx_gpio.c **** 	{
 2166              		.loc 1 738 0 discriminator 2
 2167 000c 0133     		adds	r3, r3, #1
 2168              	.LVL274:
 2169              	.L153:
 738:e:/LiteOS/LiteOS/targets/Cloud_FM33A0XX/GCC/../../../targets/Cloud_FM33A0XX/Drivers\fm33a0xx_gpio.c **** 	{
 2170              		.loc 1 738 0 is_stmt 0 discriminator 1
 2171 000e 0F2B     		cmp	r3, #15
 2172 0010 F8D9     		bls	.L155
 736:e:/LiteOS/LiteOS/targets/Cloud_FM33A0XX/GCC/../../../targets/Cloud_FM33A0XX/Drivers\fm33a0xx_gpio.c **** 	uint32_t pin_num = 0,i;	
 2173              		.loc 1 736 0 is_stmt 1
 2174 0012 0023     		movs	r3, #0
 2175              	.LVL275:
 2176              	.L154:
ARM GAS  C:\Users\WANGBI~1\AppData\Local\Temp\ccUoabl7.s 			page 51


 741:e:/LiteOS/LiteOS/targets/Cloud_FM33A0XX/GCC/../../../targets/Cloud_FM33A0XX/Drivers\fm33a0xx_gpio.c **** 		{
 742:e:/LiteOS/LiteOS/targets/Cloud_FM33A0XX/GCC/../../../targets/Cloud_FM33A0XX/Drivers\fm33a0xx_gpio.c **** 			pin_num = i;
 743:e:/LiteOS/LiteOS/targets/Cloud_FM33A0XX/GCC/../../../targets/Cloud_FM33A0XX/Drivers\fm33a0xx_gpio.c **** 			break;
 744:e:/LiteOS/LiteOS/targets/Cloud_FM33A0XX/GCC/../../../targets/Cloud_FM33A0XX/Drivers\fm33a0xx_gpio.c **** 		}							
 745:e:/LiteOS/LiteOS/targets/Cloud_FM33A0XX/GCC/../../../targets/Cloud_FM33A0XX/Drivers\fm33a0xx_gpio.c **** 	}
 746:e:/LiteOS/LiteOS/targets/Cloud_FM33A0XX/GCC/../../../targets/Cloud_FM33A0XX/Drivers\fm33a0xx_gpio.c **** 
 747:e:/LiteOS/LiteOS/targets/Cloud_FM33A0XX/GCC/../../../targets/Cloud_FM33A0XX/Drivers\fm33a0xx_gpio.c **** 	switch((uint32_t)GPIOx)
 2177              		.loc 1 747 0
 2178 0014 2F4A     		ldr	r2, .L166
 2179 0016 9042     		cmp	r0, r2
 2180 0018 24D0     		beq	.L157
 2181 001a 09D8     		bhi	.L158
 2182 001c 2E4A     		ldr	r2, .L166+4
 2183 001e 9042     		cmp	r0, r2
 2184 0020 10D0     		beq	.L159
 2185 0022 2E4A     		ldr	r2, .L166+8
 2186 0024 9042     		cmp	r0, r2
 2187 0026 15D0     		beq	.L160
 2188 0028 2D4A     		ldr	r2, .L166+12
 2189 002a 9042     		cmp	r0, r2
 2190 002c 51D1     		bne	.L152
 2191 002e 09E0     		b	.L159
 2192              	.L158:
 2193 0030 2C4A     		ldr	r2, .L166+16
 2194 0032 9042     		cmp	r0, r2
 2195 0034 28D0     		beq	.L161
 2196 0036 2C4A     		ldr	r2, .L166+20
 2197 0038 9042     		cmp	r0, r2
 2198 003a 39D0     		beq	.L162
 2199 003c 2B4A     		ldr	r2, .L166+24
 2200 003e 9042     		cmp	r0, r2
 2201 0040 47D1     		bne	.L152
 2202 0042 18E0     		b	.L163
 2203              	.L159:
 748:e:/LiteOS/LiteOS/targets/Cloud_FM33A0XX/GCC/../../../targets/Cloud_FM33A0XX/Drivers\fm33a0xx_gpio.c **** 	{
 749:e:/LiteOS/LiteOS/targets/Cloud_FM33A0XX/GCC/../../../targets/Cloud_FM33A0XX/Drivers\fm33a0xx_gpio.c **** 		case (uint32_t)GPIOA:
 750:e:/LiteOS/LiteOS/targets/Cloud_FM33A0XX/GCC/../../../targets/Cloud_FM33A0XX/Drivers\fm33a0xx_gpio.c **** 		case (uint32_t)GPIOB:
 751:e:/LiteOS/LiteOS/targets/Cloud_FM33A0XX/GCC/../../../targets/Cloud_FM33A0XX/Drivers\fm33a0xx_gpio.c **** 			GPIO->EXTI0IF = (0x00000001 << (pin_num&0x07));
 2204              		.loc 1 751 0
 2205 0044 0722     		movs	r2, #7
 2206 0046 1340     		ands	r3, r2
 2207              	.LVL276:
 2208 0048 063A     		subs	r2, r2, #6
 2209 004a 9A40     		lsls	r2, r2, r3
 2210 004c 1300     		movs	r3, r2
 2211 004e 284A     		ldr	r2, .L166+28
 2212 0050 D360     		str	r3, [r2, #12]
 752:e:/LiteOS/LiteOS/targets/Cloud_FM33A0XX/GCC/../../../targets/Cloud_FM33A0XX/Drivers\fm33a0xx_gpio.c **** 			break;
 2213              		.loc 1 752 0
 2214 0052 3EE0     		b	.L152
 2215              	.LVL277:
 2216              	.L160:
 753:e:/LiteOS/LiteOS/targets/Cloud_FM33A0XX/GCC/../../../targets/Cloud_FM33A0XX/Drivers\fm33a0xx_gpio.c **** 
 754:e:/LiteOS/LiteOS/targets/Cloud_FM33A0XX/GCC/../../../targets/Cloud_FM33A0XX/Drivers\fm33a0xx_gpio.c **** 		case (uint32_t)GPIOC:
 755:e:/LiteOS/LiteOS/targets/Cloud_FM33A0XX/GCC/../../../targets/Cloud_FM33A0XX/Drivers\fm33a0xx_gpio.c **** 			GPIO->EXTI1IF = (0x00000001 << (pin_num&0x07));
 2217              		.loc 1 755 0
 2218 0054 0722     		movs	r2, #7
ARM GAS  C:\Users\WANGBI~1\AppData\Local\Temp\ccUoabl7.s 			page 52


 2219 0056 1340     		ands	r3, r2
 2220              	.LVL278:
 2221 0058 063A     		subs	r2, r2, #6
 2222 005a 9A40     		lsls	r2, r2, r3
 2223 005c 1300     		movs	r3, r2
 2224 005e 244A     		ldr	r2, .L166+28
 2225 0060 1361     		str	r3, [r2, #16]
 756:e:/LiteOS/LiteOS/targets/Cloud_FM33A0XX/GCC/../../../targets/Cloud_FM33A0XX/Drivers\fm33a0xx_gpio.c **** 			break;
 2226              		.loc 1 756 0
 2227 0062 36E0     		b	.L152
 2228              	.LVL279:
 2229              	.L157:
 757:e:/LiteOS/LiteOS/targets/Cloud_FM33A0XX/GCC/../../../targets/Cloud_FM33A0XX/Drivers\fm33a0xx_gpio.c **** 
 758:e:/LiteOS/LiteOS/targets/Cloud_FM33A0XX/GCC/../../../targets/Cloud_FM33A0XX/Drivers\fm33a0xx_gpio.c **** 		case (uint32_t)GPIOD://0~10
 759:e:/LiteOS/LiteOS/targets/Cloud_FM33A0XX/GCC/../../../targets/Cloud_FM33A0XX/Drivers\fm33a0xx_gpio.c **** 			if(pin_num <= 10)
 2230              		.loc 1 759 0
 2231 0064 0A2B     		cmp	r3, #10
 2232 0066 34D8     		bhi	.L152
 760:e:/LiteOS/LiteOS/targets/Cloud_FM33A0XX/GCC/../../../targets/Cloud_FM33A0XX/Drivers\fm33a0xx_gpio.c **** 			{
 761:e:/LiteOS/LiteOS/targets/Cloud_FM33A0XX/GCC/../../../targets/Cloud_FM33A0XX/Drivers\fm33a0xx_gpio.c **** 				GPIO->EXTI1IF = (0x00000001 << (pin_num&0x07));
 2233              		.loc 1 761 0
 2234 0068 0722     		movs	r2, #7
 2235 006a 1A40     		ands	r2, r3
 2236 006c 0123     		movs	r3, #1
 2237              	.LVL280:
 2238 006e 9340     		lsls	r3, r3, r2
 2239 0070 1F4A     		ldr	r2, .L166+28
 2240 0072 1361     		str	r3, [r2, #16]
 2241 0074 2DE0     		b	.L152
 2242              	.LVL281:
 2243              	.L163:
 762:e:/LiteOS/LiteOS/targets/Cloud_FM33A0XX/GCC/../../../targets/Cloud_FM33A0XX/Drivers\fm33a0xx_gpio.c **** 			}
 763:e:/LiteOS/LiteOS/targets/Cloud_FM33A0XX/GCC/../../../targets/Cloud_FM33A0XX/Drivers\fm33a0xx_gpio.c **** 			break;
 764:e:/LiteOS/LiteOS/targets/Cloud_FM33A0XX/GCC/../../../targets/Cloud_FM33A0XX/Drivers\fm33a0xx_gpio.c **** 
 765:e:/LiteOS/LiteOS/targets/Cloud_FM33A0XX/GCC/../../../targets/Cloud_FM33A0XX/Drivers\fm33a0xx_gpio.c **** 		case (uint32_t)GPIOE://2~9(-2)
 766:e:/LiteOS/LiteOS/targets/Cloud_FM33A0XX/GCC/../../../targets/Cloud_FM33A0XX/Drivers\fm33a0xx_gpio.c **** 			if((pin_num >= 2)&&(pin_num <= 9))
 2244              		.loc 1 766 0
 2245 0076 023B     		subs	r3, r3, #2
 2246              	.LVL282:
 2247 0078 072B     		cmp	r3, #7
 2248 007a 2AD8     		bhi	.L152
 767:e:/LiteOS/LiteOS/targets/Cloud_FM33A0XX/GCC/../../../targets/Cloud_FM33A0XX/Drivers\fm33a0xx_gpio.c **** 			{
 768:e:/LiteOS/LiteOS/targets/Cloud_FM33A0XX/GCC/../../../targets/Cloud_FM33A0XX/Drivers\fm33a0xx_gpio.c **** 				GPIO->EXTI2IF = (0x00000001 << (pin_num - 2));
 2249              		.loc 1 768 0
 2250 007c 0122     		movs	r2, #1
 2251 007e 9A40     		lsls	r2, r2, r3
 2252 0080 1300     		movs	r3, r2
 2253              	.LVL283:
 2254 0082 1B4A     		ldr	r2, .L166+28
 2255 0084 5361     		str	r3, [r2, #20]
 2256 0086 24E0     		b	.L152
 2257              	.LVL284:
 2258              	.L161:
 769:e:/LiteOS/LiteOS/targets/Cloud_FM33A0XX/GCC/../../../targets/Cloud_FM33A0XX/Drivers\fm33a0xx_gpio.c **** 			}
 770:e:/LiteOS/LiteOS/targets/Cloud_FM33A0XX/GCC/../../../targets/Cloud_FM33A0XX/Drivers\fm33a0xx_gpio.c **** 			break;
 771:e:/LiteOS/LiteOS/targets/Cloud_FM33A0XX/GCC/../../../targets/Cloud_FM33A0XX/Drivers\fm33a0xx_gpio.c **** 
 772:e:/LiteOS/LiteOS/targets/Cloud_FM33A0XX/GCC/../../../targets/Cloud_FM33A0XX/Drivers\fm33a0xx_gpio.c **** 		case (uint32_t)GPIOF://1~7   8~11(-4)
ARM GAS  C:\Users\WANGBI~1\AppData\Local\Temp\ccUoabl7.s 			page 53


 773:e:/LiteOS/LiteOS/targets/Cloud_FM33A0XX/GCC/../../../targets/Cloud_FM33A0XX/Drivers\fm33a0xx_gpio.c **** 			if((pin_num >= 1)&&(pin_num <= 7))
 2259              		.loc 1 773 0
 2260 0088 5A1E     		subs	r2, r3, #1
 2261 008a 062A     		cmp	r2, #6
 2262 008c 06D8     		bhi	.L164
 774:e:/LiteOS/LiteOS/targets/Cloud_FM33A0XX/GCC/../../../targets/Cloud_FM33A0XX/Drivers\fm33a0xx_gpio.c **** 			{
 775:e:/LiteOS/LiteOS/targets/Cloud_FM33A0XX/GCC/../../../targets/Cloud_FM33A0XX/Drivers\fm33a0xx_gpio.c **** 				GPIO->EXTI2IF = (0x00000001 << (pin_num&0x07));
 2263              		.loc 1 775 0
 2264 008e 0722     		movs	r2, #7
 2265 0090 1A40     		ands	r2, r3
 2266 0092 0123     		movs	r3, #1
 2267              	.LVL285:
 2268 0094 9340     		lsls	r3, r3, r2
 2269 0096 164A     		ldr	r2, .L166+28
 2270 0098 5361     		str	r3, [r2, #20]
 2271 009a 1AE0     		b	.L152
 2272              	.LVL286:
 2273              	.L164:
 776:e:/LiteOS/LiteOS/targets/Cloud_FM33A0XX/GCC/../../../targets/Cloud_FM33A0XX/Drivers\fm33a0xx_gpio.c **** 			}
 777:e:/LiteOS/LiteOS/targets/Cloud_FM33A0XX/GCC/../../../targets/Cloud_FM33A0XX/Drivers\fm33a0xx_gpio.c **** 			else if((pin_num >= 8)&&(pin_num <= 11))
 2274              		.loc 1 777 0
 2275 009c 1A00     		movs	r2, r3
 2276 009e 083A     		subs	r2, r2, #8
 2277 00a0 032A     		cmp	r2, #3
 2278 00a2 16D8     		bhi	.L152
 778:e:/LiteOS/LiteOS/targets/Cloud_FM33A0XX/GCC/../../../targets/Cloud_FM33A0XX/Drivers\fm33a0xx_gpio.c **** 			{
 779:e:/LiteOS/LiteOS/targets/Cloud_FM33A0XX/GCC/../../../targets/Cloud_FM33A0XX/Drivers\fm33a0xx_gpio.c **** 				GPIO->EXTI2IF = (0x00000001 << (pin_num - 4));
 2279              		.loc 1 779 0
 2280 00a4 1A1F     		subs	r2, r3, #4
 2281 00a6 0123     		movs	r3, #1
 2282              	.LVL287:
 2283 00a8 9340     		lsls	r3, r3, r2
 2284 00aa 114A     		ldr	r2, .L166+28
 2285              	.LVL288:
 2286 00ac 5361     		str	r3, [r2, #20]
 2287 00ae 10E0     		b	.L152
 2288              	.LVL289:
 2289              	.L162:
 780:e:/LiteOS/LiteOS/targets/Cloud_FM33A0XX/GCC/../../../targets/Cloud_FM33A0XX/Drivers\fm33a0xx_gpio.c **** 			}
 781:e:/LiteOS/LiteOS/targets/Cloud_FM33A0XX/GCC/../../../targets/Cloud_FM33A0XX/Drivers\fm33a0xx_gpio.c **** 			break;
 782:e:/LiteOS/LiteOS/targets/Cloud_FM33A0XX/GCC/../../../targets/Cloud_FM33A0XX/Drivers\fm33a0xx_gpio.c **** 
 783:e:/LiteOS/LiteOS/targets/Cloud_FM33A0XX/GCC/../../../targets/Cloud_FM33A0XX/Drivers\fm33a0xx_gpio.c **** 		case (uint32_t)GPIOG://2(+1) 5~8(-1)
 784:e:/LiteOS/LiteOS/targets/Cloud_FM33A0XX/GCC/../../../targets/Cloud_FM33A0XX/Drivers\fm33a0xx_gpio.c **** 			if(pin_num == 2)
 2290              		.loc 1 784 0
 2291 00b0 022B     		cmp	r3, #2
 2292 00b2 05D1     		bne	.L165
 785:e:/LiteOS/LiteOS/targets/Cloud_FM33A0XX/GCC/../../../targets/Cloud_FM33A0XX/Drivers\fm33a0xx_gpio.c **** 			{
 786:e:/LiteOS/LiteOS/targets/Cloud_FM33A0XX/GCC/../../../targets/Cloud_FM33A0XX/Drivers\fm33a0xx_gpio.c **** 				GPIO->EXTI1IF = (0x00000001 << (pin_num + 1));
 2293              		.loc 1 786 0
 2294 00b4 5A1C     		adds	r2, r3, #1
 2295 00b6 013B     		subs	r3, r3, #1
 2296              	.LVL290:
 2297 00b8 9340     		lsls	r3, r3, r2
 2298              	.LVL291:
 2299 00ba 0D4A     		ldr	r2, .L166+28
 2300              	.LVL292:
 2301 00bc 1361     		str	r3, [r2, #16]
ARM GAS  C:\Users\WANGBI~1\AppData\Local\Temp\ccUoabl7.s 			page 54


 2302 00be 08E0     		b	.L152
 2303              	.LVL293:
 2304              	.L165:
 787:e:/LiteOS/LiteOS/targets/Cloud_FM33A0XX/GCC/../../../targets/Cloud_FM33A0XX/Drivers\fm33a0xx_gpio.c **** 			}
 788:e:/LiteOS/LiteOS/targets/Cloud_FM33A0XX/GCC/../../../targets/Cloud_FM33A0XX/Drivers\fm33a0xx_gpio.c **** 			else if((pin_num >= 5)&&(pin_num <= 8))
 2305              		.loc 1 788 0
 2306 00c0 5A1F     		subs	r2, r3, #5
 2307 00c2 032A     		cmp	r2, #3
 2308 00c4 05D8     		bhi	.L152
 789:e:/LiteOS/LiteOS/targets/Cloud_FM33A0XX/GCC/../../../targets/Cloud_FM33A0XX/Drivers\fm33a0xx_gpio.c **** 			{
 790:e:/LiteOS/LiteOS/targets/Cloud_FM33A0XX/GCC/../../../targets/Cloud_FM33A0XX/Drivers\fm33a0xx_gpio.c **** 				GPIO->EXTI1IF = (0x00000001 << (pin_num - 1));
 2309              		.loc 1 790 0
 2310 00c6 013B     		subs	r3, r3, #1
 2311              	.LVL294:
 2312 00c8 0122     		movs	r2, #1
 2313 00ca 9A40     		lsls	r2, r2, r3
 2314 00cc 1300     		movs	r3, r2
 2315              	.LVL295:
 2316 00ce 084A     		ldr	r2, .L166+28
 2317 00d0 1361     		str	r3, [r2, #16]
 2318              	.L152:
 791:e:/LiteOS/LiteOS/targets/Cloud_FM33A0XX/GCC/../../../targets/Cloud_FM33A0XX/Drivers\fm33a0xx_gpio.c **** 			}
 792:e:/LiteOS/LiteOS/targets/Cloud_FM33A0XX/GCC/../../../targets/Cloud_FM33A0XX/Drivers\fm33a0xx_gpio.c **** 			break;
 793:e:/LiteOS/LiteOS/targets/Cloud_FM33A0XX/GCC/../../../targets/Cloud_FM33A0XX/Drivers\fm33a0xx_gpio.c **** 		
 794:e:/LiteOS/LiteOS/targets/Cloud_FM33A0XX/GCC/../../../targets/Cloud_FM33A0XX/Drivers\fm33a0xx_gpio.c **** 		default:
 795:e:/LiteOS/LiteOS/targets/Cloud_FM33A0XX/GCC/../../../targets/Cloud_FM33A0XX/Drivers\fm33a0xx_gpio.c **** 			break;
 796:e:/LiteOS/LiteOS/targets/Cloud_FM33A0XX/GCC/../../../targets/Cloud_FM33A0XX/Drivers\fm33a0xx_gpio.c **** 	}
 797:e:/LiteOS/LiteOS/targets/Cloud_FM33A0XX/GCC/../../../targets/Cloud_FM33A0XX/Drivers\fm33a0xx_gpio.c **** }
 2319              		.loc 1 797 0
 2320              		@ sp needed
 2321 00d2 7047     		bx	lr
 2322              	.L167:
 2323              		.align	2
 2324              	.L166:
 2325 00d4 600C0040 		.word	1073744992
 2326 00d8 200C0040 		.word	1073744928
 2327 00dc 400C0040 		.word	1073744960
 2328 00e0 000C0040 		.word	1073744896
 2329 00e4 A00C0040 		.word	1073745056
 2330 00e8 C00C0040 		.word	1073745088
 2331 00ec 800C0040 		.word	1073745024
 2332 00f0 E00C0040 		.word	1073745120
 2333              		.cfi_endproc
 2334              	.LFE75:
 2336              		.section	.text.GPIO_EXTI_EXTIxIF_ChkEx,"ax",%progbits
 2337              		.align	2
 2338              		.global	GPIO_EXTI_EXTIxIF_ChkEx
 2339              		.code	16
 2340              		.thumb_func
 2342              	GPIO_EXTI_EXTIxIF_ChkEx:
 2343              	.LFB76:
 798:e:/LiteOS/LiteOS/targets/Cloud_FM33A0XX/GCC/../../../targets/Cloud_FM33A0XX/Drivers\fm33a0xx_gpio.c **** 
 799:e:/LiteOS/LiteOS/targets/Cloud_FM33A0XX/GCC/../../../targets/Cloud_FM33A0XX/Drivers\fm33a0xx_gpio.c **** /*************************************************************************
 800:e:/LiteOS/LiteOS/targets/Cloud_FM33A0XX/GCC/../../../targets/Cloud_FM33A0XX/Drivers\fm33a0xx_gpio.c ****  函数名称：GPIO_EXTI_EXTIxIF_ChkEx
 801:e:/LiteOS/LiteOS/targets/Cloud_FM33A0XX/GCC/../../../targets/Cloud_FM33A0XX/Drivers\fm33a0xx_gpio.c ****  功能说明：GPIO_EXTI_EXTIxIF_ChkEx 读取中断标志状态
 802:e:/LiteOS/LiteOS/targets/Cloud_FM33A0XX/GCC/../../../targets/Cloud_FM33A0XX/Drivers\fm33a0xx_gpio.c ****  输入参数：GPIOx 端口 ，GPIO_Pin 端口内引脚 
 803:e:/LiteOS/LiteOS/targets/Cloud_FM33A0XX/GCC/../../../targets/Cloud_FM33A0XX/Drivers\fm33a0xx_gpio.c ****  输出参数：无
ARM GAS  C:\Users\WANGBI~1\AppData\Local\Temp\ccUoabl7.s 			page 55


 804:e:/LiteOS/LiteOS/targets/Cloud_FM33A0XX/GCC/../../../targets/Cloud_FM33A0XX/Drivers\fm33a0xx_gpio.c ****  返回参数wFlagStatus 中断标志状态
 805:e:/LiteOS/LiteOS/targets/Cloud_FM33A0XX/GCC/../../../targets/Cloud_FM33A0XX/Drivers\fm33a0xx_gpio.c ****  *************************************************************************/
 806:e:/LiteOS/LiteOS/targets/Cloud_FM33A0XX/GCC/../../../targets/Cloud_FM33A0XX/Drivers\fm33a0xx_gpio.c **** FlagStatus GPIO_EXTI_EXTIxIF_ChkEx(GPIOx_Type* GPIOx,uint32_t GPIO_Pin)
 807:e:/LiteOS/LiteOS/targets/Cloud_FM33A0XX/GCC/../../../targets/Cloud_FM33A0XX/Drivers\fm33a0xx_gpio.c **** {
 2344              		.loc 1 807 0
 2345              		.cfi_startproc
 2346              		@ args = 0, pretend = 0, frame = 0
 2347              		@ frame_needed = 0, uses_anonymous_args = 0
 2348              		@ link register save eliminated.
 2349              	.LVL296:
 808:e:/LiteOS/LiteOS/targets/Cloud_FM33A0XX/GCC/../../../targets/Cloud_FM33A0XX/Drivers\fm33a0xx_gpio.c **** 	uint32_t pin_num = 0,i;	
 809:e:/LiteOS/LiteOS/targets/Cloud_FM33A0XX/GCC/../../../targets/Cloud_FM33A0XX/Drivers\fm33a0xx_gpio.c **** 	FlagStatus Result = RESET;
 810:e:/LiteOS/LiteOS/targets/Cloud_FM33A0XX/GCC/../../../targets/Cloud_FM33A0XX/Drivers\fm33a0xx_gpio.c **** 	
 811:e:/LiteOS/LiteOS/targets/Cloud_FM33A0XX/GCC/../../../targets/Cloud_FM33A0XX/Drivers\fm33a0xx_gpio.c **** 	for(i= 0;i<16;i++)
 2350              		.loc 1 811 0
 2351 0000 0023     		movs	r3, #0
 2352 0002 04E0     		b	.L169
 2353              	.LVL297:
 2354              	.L171:
 812:e:/LiteOS/LiteOS/targets/Cloud_FM33A0XX/GCC/../../../targets/Cloud_FM33A0XX/Drivers\fm33a0xx_gpio.c **** 	{
 813:e:/LiteOS/LiteOS/targets/Cloud_FM33A0XX/GCC/../../../targets/Cloud_FM33A0XX/Drivers\fm33a0xx_gpio.c **** 		if(GPIO_Pin&(1<<i))
 2355              		.loc 1 813 0
 2356 0004 0122     		movs	r2, #1
 2357 0006 9A40     		lsls	r2, r2, r3
 2358 0008 1142     		tst	r1, r2
 2359 000a 03D1     		bne	.L170
 811:e:/LiteOS/LiteOS/targets/Cloud_FM33A0XX/GCC/../../../targets/Cloud_FM33A0XX/Drivers\fm33a0xx_gpio.c **** 	{
 2360              		.loc 1 811 0 discriminator 2
 2361 000c 0133     		adds	r3, r3, #1
 2362              	.LVL298:
 2363              	.L169:
 811:e:/LiteOS/LiteOS/targets/Cloud_FM33A0XX/GCC/../../../targets/Cloud_FM33A0XX/Drivers\fm33a0xx_gpio.c **** 	{
 2364              		.loc 1 811 0 is_stmt 0 discriminator 1
 2365 000e 0F2B     		cmp	r3, #15
 2366 0010 F8D9     		bls	.L171
 808:e:/LiteOS/LiteOS/targets/Cloud_FM33A0XX/GCC/../../../targets/Cloud_FM33A0XX/Drivers\fm33a0xx_gpio.c **** 	uint32_t pin_num = 0,i;	
 2367              		.loc 1 808 0 is_stmt 1
 2368 0012 0023     		movs	r3, #0
 2369              	.LVL299:
 2370              	.L170:
 814:e:/LiteOS/LiteOS/targets/Cloud_FM33A0XX/GCC/../../../targets/Cloud_FM33A0XX/Drivers\fm33a0xx_gpio.c **** 		{
 815:e:/LiteOS/LiteOS/targets/Cloud_FM33A0XX/GCC/../../../targets/Cloud_FM33A0XX/Drivers\fm33a0xx_gpio.c **** 			pin_num = i;
 816:e:/LiteOS/LiteOS/targets/Cloud_FM33A0XX/GCC/../../../targets/Cloud_FM33A0XX/Drivers\fm33a0xx_gpio.c **** 			break;
 817:e:/LiteOS/LiteOS/targets/Cloud_FM33A0XX/GCC/../../../targets/Cloud_FM33A0XX/Drivers\fm33a0xx_gpio.c **** 		}							
 818:e:/LiteOS/LiteOS/targets/Cloud_FM33A0XX/GCC/../../../targets/Cloud_FM33A0XX/Drivers\fm33a0xx_gpio.c **** 	}
 819:e:/LiteOS/LiteOS/targets/Cloud_FM33A0XX/GCC/../../../targets/Cloud_FM33A0XX/Drivers\fm33a0xx_gpio.c **** 
 820:e:/LiteOS/LiteOS/targets/Cloud_FM33A0XX/GCC/../../../targets/Cloud_FM33A0XX/Drivers\fm33a0xx_gpio.c **** 	Result = RESET;
 821:e:/LiteOS/LiteOS/targets/Cloud_FM33A0XX/GCC/../../../targets/Cloud_FM33A0XX/Drivers\fm33a0xx_gpio.c **** 	switch((uint32_t)GPIOx)
 2371              		.loc 1 821 0
 2372 0014 464A     		ldr	r2, .L195
 2373 0016 9042     		cmp	r0, r2
 2374 0018 28D0     		beq	.L173
 2375 001a 09D8     		bhi	.L174
 2376 001c 454A     		ldr	r2, .L195+4
 2377 001e 9042     		cmp	r0, r2
 2378 0020 10D0     		beq	.L175
 2379 0022 454A     		ldr	r2, .L195+8
ARM GAS  C:\Users\WANGBI~1\AppData\Local\Temp\ccUoabl7.s 			page 56


 2380 0024 9042     		cmp	r0, r2
 2381 0026 17D0     		beq	.L176
 2382 0028 444A     		ldr	r2, .L195+12
 2383 002a 9042     		cmp	r0, r2
 2384 002c 66D1     		bne	.L182
 2385 002e 09E0     		b	.L175
 2386              	.L174:
 2387 0030 434A     		ldr	r2, .L195+16
 2388 0032 9042     		cmp	r0, r2
 2389 0034 31D0     		beq	.L177
 2390 0036 434A     		ldr	r2, .L195+20
 2391 0038 9042     		cmp	r0, r2
 2392 003a 48D0     		beq	.L178
 2393 003c 424A     		ldr	r2, .L195+24
 2394 003e 9042     		cmp	r0, r2
 2395 0040 5CD1     		bne	.L182
 2396 0042 1FE0     		b	.L179
 2397              	.L175:
 822:e:/LiteOS/LiteOS/targets/Cloud_FM33A0XX/GCC/../../../targets/Cloud_FM33A0XX/Drivers\fm33a0xx_gpio.c **** 	{
 823:e:/LiteOS/LiteOS/targets/Cloud_FM33A0XX/GCC/../../../targets/Cloud_FM33A0XX/Drivers\fm33a0xx_gpio.c **** 		case (uint32_t)GPIOA:
 824:e:/LiteOS/LiteOS/targets/Cloud_FM33A0XX/GCC/../../../targets/Cloud_FM33A0XX/Drivers\fm33a0xx_gpio.c **** 		case (uint32_t)GPIOB:
 825:e:/LiteOS/LiteOS/targets/Cloud_FM33A0XX/GCC/../../../targets/Cloud_FM33A0XX/Drivers\fm33a0xx_gpio.c **** 			if(GPIO->EXTI0IF & (0x00000001 << (pin_num&0x07))) Result = SET;
 2398              		.loc 1 825 0
 2399 0044 414A     		ldr	r2, .L195+28
 2400 0046 D168     		ldr	r1, [r2, #12]
 2401              	.LVL300:
 2402 0048 0722     		movs	r2, #7
 2403 004a 1340     		ands	r3, r2
 2404              	.LVL301:
 2405 004c 063A     		subs	r2, r2, #6
 2406 004e 9A40     		lsls	r2, r2, r3
 2407 0050 1142     		tst	r1, r2
 2408 0052 55D1     		bne	.L183
 820:e:/LiteOS/LiteOS/targets/Cloud_FM33A0XX/GCC/../../../targets/Cloud_FM33A0XX/Drivers\fm33a0xx_gpio.c **** 	switch((uint32_t)GPIOx)
 2409              		.loc 1 820 0
 2410 0054 0020     		movs	r0, #0
 2411              	.LVL302:
 2412 0056 6AE0     		b	.L172
 2413              	.LVL303:
 2414              	.L176:
 826:e:/LiteOS/LiteOS/targets/Cloud_FM33A0XX/GCC/../../../targets/Cloud_FM33A0XX/Drivers\fm33a0xx_gpio.c **** 			break;
 827:e:/LiteOS/LiteOS/targets/Cloud_FM33A0XX/GCC/../../../targets/Cloud_FM33A0XX/Drivers\fm33a0xx_gpio.c **** 
 828:e:/LiteOS/LiteOS/targets/Cloud_FM33A0XX/GCC/../../../targets/Cloud_FM33A0XX/Drivers\fm33a0xx_gpio.c **** 		case (uint32_t)GPIOC:
 829:e:/LiteOS/LiteOS/targets/Cloud_FM33A0XX/GCC/../../../targets/Cloud_FM33A0XX/Drivers\fm33a0xx_gpio.c **** 			if(GPIO->EXTI1IF & (0x00000001 << (pin_num&0x07))) Result = SET;
 2415              		.loc 1 829 0
 2416 0058 3C4A     		ldr	r2, .L195+28
 2417 005a 1169     		ldr	r1, [r2, #16]
 2418              	.LVL304:
 2419 005c 0722     		movs	r2, #7
 2420 005e 1340     		ands	r3, r2
 2421              	.LVL305:
 2422 0060 063A     		subs	r2, r2, #6
 2423 0062 9A40     		lsls	r2, r2, r3
 2424 0064 1142     		tst	r1, r2
 2425 0066 4DD1     		bne	.L184
 820:e:/LiteOS/LiteOS/targets/Cloud_FM33A0XX/GCC/../../../targets/Cloud_FM33A0XX/Drivers\fm33a0xx_gpio.c **** 	switch((uint32_t)GPIOx)
 2426              		.loc 1 820 0
ARM GAS  C:\Users\WANGBI~1\AppData\Local\Temp\ccUoabl7.s 			page 57


 2427 0068 0020     		movs	r0, #0
 2428              	.LVL306:
 2429 006a 60E0     		b	.L172
 2430              	.LVL307:
 2431              	.L173:
 830:e:/LiteOS/LiteOS/targets/Cloud_FM33A0XX/GCC/../../../targets/Cloud_FM33A0XX/Drivers\fm33a0xx_gpio.c **** 			break;
 831:e:/LiteOS/LiteOS/targets/Cloud_FM33A0XX/GCC/../../../targets/Cloud_FM33A0XX/Drivers\fm33a0xx_gpio.c **** 
 832:e:/LiteOS/LiteOS/targets/Cloud_FM33A0XX/GCC/../../../targets/Cloud_FM33A0XX/Drivers\fm33a0xx_gpio.c **** 		case (uint32_t)GPIOD://0~10
 833:e:/LiteOS/LiteOS/targets/Cloud_FM33A0XX/GCC/../../../targets/Cloud_FM33A0XX/Drivers\fm33a0xx_gpio.c **** 			if(pin_num <= 10)
 2432              		.loc 1 833 0
 2433 006c 0A2B     		cmp	r3, #10
 2434 006e 4BD8     		bhi	.L185
 834:e:/LiteOS/LiteOS/targets/Cloud_FM33A0XX/GCC/../../../targets/Cloud_FM33A0XX/Drivers\fm33a0xx_gpio.c **** 			{
 835:e:/LiteOS/LiteOS/targets/Cloud_FM33A0XX/GCC/../../../targets/Cloud_FM33A0XX/Drivers\fm33a0xx_gpio.c **** 				if(GPIO->EXTI1IF & (0x00000001 << (pin_num&0x07))) Result = SET;
 2435              		.loc 1 835 0
 2436 0070 364A     		ldr	r2, .L195+28
 2437 0072 1169     		ldr	r1, [r2, #16]
 2438              	.LVL308:
 2439 0074 0722     		movs	r2, #7
 2440 0076 1340     		ands	r3, r2
 2441              	.LVL309:
 2442 0078 063A     		subs	r2, r2, #6
 2443 007a 9A40     		lsls	r2, r2, r3
 2444 007c 1142     		tst	r1, r2
 2445 007e 45D1     		bne	.L186
 820:e:/LiteOS/LiteOS/targets/Cloud_FM33A0XX/GCC/../../../targets/Cloud_FM33A0XX/Drivers\fm33a0xx_gpio.c **** 	switch((uint32_t)GPIOx)
 2446              		.loc 1 820 0
 2447 0080 0020     		movs	r0, #0
 2448              	.LVL310:
 2449 0082 54E0     		b	.L172
 2450              	.LVL311:
 2451              	.L179:
 836:e:/LiteOS/LiteOS/targets/Cloud_FM33A0XX/GCC/../../../targets/Cloud_FM33A0XX/Drivers\fm33a0xx_gpio.c **** 			}
 837:e:/LiteOS/LiteOS/targets/Cloud_FM33A0XX/GCC/../../../targets/Cloud_FM33A0XX/Drivers\fm33a0xx_gpio.c **** 			break;
 838:e:/LiteOS/LiteOS/targets/Cloud_FM33A0XX/GCC/../../../targets/Cloud_FM33A0XX/Drivers\fm33a0xx_gpio.c **** 
 839:e:/LiteOS/LiteOS/targets/Cloud_FM33A0XX/GCC/../../../targets/Cloud_FM33A0XX/Drivers\fm33a0xx_gpio.c **** 		case (uint32_t)GPIOE://2~9(-2)
 840:e:/LiteOS/LiteOS/targets/Cloud_FM33A0XX/GCC/../../../targets/Cloud_FM33A0XX/Drivers\fm33a0xx_gpio.c **** 			if((pin_num >= 2)&&(pin_num <= 9))
 2452              		.loc 1 840 0
 2453 0084 023B     		subs	r3, r3, #2
 2454              	.LVL312:
 2455 0086 072B     		cmp	r3, #7
 2456 0088 42D8     		bhi	.L187
 841:e:/LiteOS/LiteOS/targets/Cloud_FM33A0XX/GCC/../../../targets/Cloud_FM33A0XX/Drivers\fm33a0xx_gpio.c **** 			{
 842:e:/LiteOS/LiteOS/targets/Cloud_FM33A0XX/GCC/../../../targets/Cloud_FM33A0XX/Drivers\fm33a0xx_gpio.c **** 				if(GPIO->EXTI2IF & (0x00000001 << (pin_num - 2))) Result = SET;
 2457              		.loc 1 842 0
 2458 008a 304A     		ldr	r2, .L195+28
 2459 008c 5169     		ldr	r1, [r2, #20]
 2460              	.LVL313:
 2461 008e 0122     		movs	r2, #1
 2462 0090 9A40     		lsls	r2, r2, r3
 2463 0092 1142     		tst	r1, r2
 2464 0094 3ED1     		bne	.L188
 820:e:/LiteOS/LiteOS/targets/Cloud_FM33A0XX/GCC/../../../targets/Cloud_FM33A0XX/Drivers\fm33a0xx_gpio.c **** 	switch((uint32_t)GPIOx)
 2465              		.loc 1 820 0
 2466 0096 0020     		movs	r0, #0
 2467              	.LVL314:
 2468 0098 49E0     		b	.L172
ARM GAS  C:\Users\WANGBI~1\AppData\Local\Temp\ccUoabl7.s 			page 58


 2469              	.LVL315:
 2470              	.L177:
 843:e:/LiteOS/LiteOS/targets/Cloud_FM33A0XX/GCC/../../../targets/Cloud_FM33A0XX/Drivers\fm33a0xx_gpio.c **** 			}
 844:e:/LiteOS/LiteOS/targets/Cloud_FM33A0XX/GCC/../../../targets/Cloud_FM33A0XX/Drivers\fm33a0xx_gpio.c **** 			break;
 845:e:/LiteOS/LiteOS/targets/Cloud_FM33A0XX/GCC/../../../targets/Cloud_FM33A0XX/Drivers\fm33a0xx_gpio.c **** 
 846:e:/LiteOS/LiteOS/targets/Cloud_FM33A0XX/GCC/../../../targets/Cloud_FM33A0XX/Drivers\fm33a0xx_gpio.c **** 		case (uint32_t)GPIOF://1~7   8~11(-4)
 847:e:/LiteOS/LiteOS/targets/Cloud_FM33A0XX/GCC/../../../targets/Cloud_FM33A0XX/Drivers\fm33a0xx_gpio.c **** 			if((pin_num >= 1)&&(pin_num <= 7))
 2471              		.loc 1 847 0
 2472 009a 5A1E     		subs	r2, r3, #1
 2473 009c 062A     		cmp	r2, #6
 2474 009e 09D8     		bhi	.L180
 848:e:/LiteOS/LiteOS/targets/Cloud_FM33A0XX/GCC/../../../targets/Cloud_FM33A0XX/Drivers\fm33a0xx_gpio.c **** 			{
 849:e:/LiteOS/LiteOS/targets/Cloud_FM33A0XX/GCC/../../../targets/Cloud_FM33A0XX/Drivers\fm33a0xx_gpio.c **** 				if(GPIO->EXTI2IF & (0x00000001 << (pin_num&0x07))) Result = SET;
 2475              		.loc 1 849 0
 2476 00a0 2A4A     		ldr	r2, .L195+28
 2477 00a2 5169     		ldr	r1, [r2, #20]
 2478              	.LVL316:
 2479 00a4 0722     		movs	r2, #7
 2480 00a6 1A40     		ands	r2, r3
 2481 00a8 0123     		movs	r3, #1
 2482              	.LVL317:
 2483 00aa 9340     		lsls	r3, r3, r2
 2484 00ac 1942     		tst	r1, r3
 2485 00ae 33D1     		bne	.L189
 820:e:/LiteOS/LiteOS/targets/Cloud_FM33A0XX/GCC/../../../targets/Cloud_FM33A0XX/Drivers\fm33a0xx_gpio.c **** 	switch((uint32_t)GPIOx)
 2486              		.loc 1 820 0
 2487 00b0 0020     		movs	r0, #0
 2488              	.LVL318:
 2489 00b2 3CE0     		b	.L172
 2490              	.LVL319:
 2491              	.L180:
 850:e:/LiteOS/LiteOS/targets/Cloud_FM33A0XX/GCC/../../../targets/Cloud_FM33A0XX/Drivers\fm33a0xx_gpio.c **** 			}
 851:e:/LiteOS/LiteOS/targets/Cloud_FM33A0XX/GCC/../../../targets/Cloud_FM33A0XX/Drivers\fm33a0xx_gpio.c **** 			else if((pin_num >= 8)&&(pin_num <= 11))
 2492              		.loc 1 851 0
 2493 00b4 1A00     		movs	r2, r3
 2494 00b6 083A     		subs	r2, r2, #8
 2495 00b8 032A     		cmp	r2, #3
 2496 00ba 2FD8     		bhi	.L190
 852:e:/LiteOS/LiteOS/targets/Cloud_FM33A0XX/GCC/../../../targets/Cloud_FM33A0XX/Drivers\fm33a0xx_gpio.c **** 			{
 853:e:/LiteOS/LiteOS/targets/Cloud_FM33A0XX/GCC/../../../targets/Cloud_FM33A0XX/Drivers\fm33a0xx_gpio.c **** 				if(GPIO->EXTI2IF & (0x00000001 << (pin_num - 4))) Result = SET;
 2497              		.loc 1 853 0
 2498 00bc 234A     		ldr	r2, .L195+28
 2499 00be 5269     		ldr	r2, [r2, #20]
 2500 00c0 191F     		subs	r1, r3, #4
 2501              	.LVL320:
 2502 00c2 0123     		movs	r3, #1
 2503              	.LVL321:
 2504 00c4 8B40     		lsls	r3, r3, r1
 2505 00c6 1A42     		tst	r2, r3
 2506 00c8 2AD1     		bne	.L191
 820:e:/LiteOS/LiteOS/targets/Cloud_FM33A0XX/GCC/../../../targets/Cloud_FM33A0XX/Drivers\fm33a0xx_gpio.c **** 	switch((uint32_t)GPIOx)
 2507              		.loc 1 820 0
 2508 00ca 0020     		movs	r0, #0
 2509              	.LVL322:
 2510 00cc 2FE0     		b	.L172
 2511              	.LVL323:
 2512              	.L178:
ARM GAS  C:\Users\WANGBI~1\AppData\Local\Temp\ccUoabl7.s 			page 59


 854:e:/LiteOS/LiteOS/targets/Cloud_FM33A0XX/GCC/../../../targets/Cloud_FM33A0XX/Drivers\fm33a0xx_gpio.c **** 			}
 855:e:/LiteOS/LiteOS/targets/Cloud_FM33A0XX/GCC/../../../targets/Cloud_FM33A0XX/Drivers\fm33a0xx_gpio.c **** 			break;
 856:e:/LiteOS/LiteOS/targets/Cloud_FM33A0XX/GCC/../../../targets/Cloud_FM33A0XX/Drivers\fm33a0xx_gpio.c **** 
 857:e:/LiteOS/LiteOS/targets/Cloud_FM33A0XX/GCC/../../../targets/Cloud_FM33A0XX/Drivers\fm33a0xx_gpio.c **** 		case (uint32_t)GPIOG://2(+1) 5~8(-1)
 858:e:/LiteOS/LiteOS/targets/Cloud_FM33A0XX/GCC/../../../targets/Cloud_FM33A0XX/Drivers\fm33a0xx_gpio.c **** 			if(pin_num == 2)
 2513              		.loc 1 858 0
 2514 00ce 022B     		cmp	r3, #2
 2515 00d0 08D1     		bne	.L181
 859:e:/LiteOS/LiteOS/targets/Cloud_FM33A0XX/GCC/../../../targets/Cloud_FM33A0XX/Drivers\fm33a0xx_gpio.c **** 			{
 860:e:/LiteOS/LiteOS/targets/Cloud_FM33A0XX/GCC/../../../targets/Cloud_FM33A0XX/Drivers\fm33a0xx_gpio.c **** 				if(GPIO->EXTI1IF & (0x00000001 << (pin_num + 1))) Result = SET;
 2516              		.loc 1 860 0
 2517 00d2 1E4A     		ldr	r2, .L195+28
 2518 00d4 1269     		ldr	r2, [r2, #16]
 2519 00d6 591C     		adds	r1, r3, #1
 2520              	.LVL324:
 2521 00d8 013B     		subs	r3, r3, #1
 2522              	.LVL325:
 2523 00da 8B40     		lsls	r3, r3, r1
 2524              	.LVL326:
 2525 00dc 1A42     		tst	r2, r3
 2526 00de 21D1     		bne	.L192
 820:e:/LiteOS/LiteOS/targets/Cloud_FM33A0XX/GCC/../../../targets/Cloud_FM33A0XX/Drivers\fm33a0xx_gpio.c **** 	switch((uint32_t)GPIOx)
 2527              		.loc 1 820 0
 2528 00e0 0020     		movs	r0, #0
 2529              	.LVL327:
 2530 00e2 24E0     		b	.L172
 2531              	.LVL328:
 2532              	.L181:
 861:e:/LiteOS/LiteOS/targets/Cloud_FM33A0XX/GCC/../../../targets/Cloud_FM33A0XX/Drivers\fm33a0xx_gpio.c **** 			}
 862:e:/LiteOS/LiteOS/targets/Cloud_FM33A0XX/GCC/../../../targets/Cloud_FM33A0XX/Drivers\fm33a0xx_gpio.c **** 			else if((pin_num >= 5)&&(pin_num <= 8))
 2533              		.loc 1 862 0
 2534 00e4 5A1F     		subs	r2, r3, #5
 2535 00e6 032A     		cmp	r2, #3
 2536 00e8 1ED8     		bhi	.L193
 863:e:/LiteOS/LiteOS/targets/Cloud_FM33A0XX/GCC/../../../targets/Cloud_FM33A0XX/Drivers\fm33a0xx_gpio.c **** 			{
 864:e:/LiteOS/LiteOS/targets/Cloud_FM33A0XX/GCC/../../../targets/Cloud_FM33A0XX/Drivers\fm33a0xx_gpio.c **** 				if(GPIO->EXTI1IF & (0x00000001 << (pin_num - 1))) Result = SET;
 2537              		.loc 1 864 0
 2538 00ea 184A     		ldr	r2, .L195+28
 2539 00ec 1169     		ldr	r1, [r2, #16]
 2540              	.LVL329:
 2541 00ee 013B     		subs	r3, r3, #1
 2542              	.LVL330:
 2543 00f0 0122     		movs	r2, #1
 2544 00f2 9A40     		lsls	r2, r2, r3
 2545 00f4 1142     		tst	r1, r2
 2546 00f6 19D1     		bne	.L194
 820:e:/LiteOS/LiteOS/targets/Cloud_FM33A0XX/GCC/../../../targets/Cloud_FM33A0XX/Drivers\fm33a0xx_gpio.c **** 	switch((uint32_t)GPIOx)
 2547              		.loc 1 820 0
 2548 00f8 0020     		movs	r0, #0
 2549              	.LVL331:
 2550 00fa 18E0     		b	.L172
 2551              	.LVL332:
 2552              	.L182:
 2553 00fc 0020     		movs	r0, #0
 2554              	.LVL333:
 2555 00fe 16E0     		b	.L172
 2556              	.LVL334:
ARM GAS  C:\Users\WANGBI~1\AppData\Local\Temp\ccUoabl7.s 			page 60


 2557              	.L183:
 825:e:/LiteOS/LiteOS/targets/Cloud_FM33A0XX/GCC/../../../targets/Cloud_FM33A0XX/Drivers\fm33a0xx_gpio.c **** 			break;
 2558              		.loc 1 825 0
 2559 0100 0120     		movs	r0, #1
 2560              	.LVL335:
 2561 0102 14E0     		b	.L172
 2562              	.LVL336:
 2563              	.L184:
 829:e:/LiteOS/LiteOS/targets/Cloud_FM33A0XX/GCC/../../../targets/Cloud_FM33A0XX/Drivers\fm33a0xx_gpio.c **** 			break;
 2564              		.loc 1 829 0
 2565 0104 0120     		movs	r0, #1
 2566              	.LVL337:
 2567 0106 12E0     		b	.L172
 2568              	.LVL338:
 2569              	.L185:
 820:e:/LiteOS/LiteOS/targets/Cloud_FM33A0XX/GCC/../../../targets/Cloud_FM33A0XX/Drivers\fm33a0xx_gpio.c **** 	switch((uint32_t)GPIOx)
 2570              		.loc 1 820 0
 2571 0108 0020     		movs	r0, #0
 2572              	.LVL339:
 2573 010a 10E0     		b	.L172
 2574              	.LVL340:
 2575              	.L186:
 835:e:/LiteOS/LiteOS/targets/Cloud_FM33A0XX/GCC/../../../targets/Cloud_FM33A0XX/Drivers\fm33a0xx_gpio.c **** 			}
 2576              		.loc 1 835 0
 2577 010c 0120     		movs	r0, #1
 2578              	.LVL341:
 2579 010e 0EE0     		b	.L172
 2580              	.LVL342:
 2581              	.L187:
 820:e:/LiteOS/LiteOS/targets/Cloud_FM33A0XX/GCC/../../../targets/Cloud_FM33A0XX/Drivers\fm33a0xx_gpio.c **** 	switch((uint32_t)GPIOx)
 2582              		.loc 1 820 0
 2583 0110 0020     		movs	r0, #0
 2584              	.LVL343:
 2585 0112 0CE0     		b	.L172
 2586              	.LVL344:
 2587              	.L188:
 842:e:/LiteOS/LiteOS/targets/Cloud_FM33A0XX/GCC/../../../targets/Cloud_FM33A0XX/Drivers\fm33a0xx_gpio.c **** 			}
 2588              		.loc 1 842 0
 2589 0114 0120     		movs	r0, #1
 2590              	.LVL345:
 2591 0116 0AE0     		b	.L172
 2592              	.LVL346:
 2593              	.L189:
 849:e:/LiteOS/LiteOS/targets/Cloud_FM33A0XX/GCC/../../../targets/Cloud_FM33A0XX/Drivers\fm33a0xx_gpio.c **** 			}
 2594              		.loc 1 849 0
 2595 0118 0120     		movs	r0, #1
 2596              	.LVL347:
 2597 011a 08E0     		b	.L172
 2598              	.LVL348:
 2599              	.L190:
 820:e:/LiteOS/LiteOS/targets/Cloud_FM33A0XX/GCC/../../../targets/Cloud_FM33A0XX/Drivers\fm33a0xx_gpio.c **** 	switch((uint32_t)GPIOx)
 2600              		.loc 1 820 0
 2601 011c 0020     		movs	r0, #0
 2602              	.LVL349:
 2603 011e 06E0     		b	.L172
 2604              	.LVL350:
 2605              	.L191:
ARM GAS  C:\Users\WANGBI~1\AppData\Local\Temp\ccUoabl7.s 			page 61


 853:e:/LiteOS/LiteOS/targets/Cloud_FM33A0XX/GCC/../../../targets/Cloud_FM33A0XX/Drivers\fm33a0xx_gpio.c **** 			}
 2606              		.loc 1 853 0
 2607 0120 0120     		movs	r0, #1
 2608              	.LVL351:
 2609 0122 04E0     		b	.L172
 2610              	.LVL352:
 2611              	.L192:
 860:e:/LiteOS/LiteOS/targets/Cloud_FM33A0XX/GCC/../../../targets/Cloud_FM33A0XX/Drivers\fm33a0xx_gpio.c **** 			}
 2612              		.loc 1 860 0
 2613 0124 0120     		movs	r0, #1
 2614              	.LVL353:
 2615 0126 02E0     		b	.L172
 2616              	.LVL354:
 2617              	.L193:
 820:e:/LiteOS/LiteOS/targets/Cloud_FM33A0XX/GCC/../../../targets/Cloud_FM33A0XX/Drivers\fm33a0xx_gpio.c **** 	switch((uint32_t)GPIOx)
 2618              		.loc 1 820 0
 2619 0128 0020     		movs	r0, #0
 2620              	.LVL355:
 2621 012a 00E0     		b	.L172
 2622              	.LVL356:
 2623              	.L194:
 2624              		.loc 1 864 0
 2625 012c 0120     		movs	r0, #1
 2626              	.LVL357:
 2627              	.L172:
 865:e:/LiteOS/LiteOS/targets/Cloud_FM33A0XX/GCC/../../../targets/Cloud_FM33A0XX/Drivers\fm33a0xx_gpio.c **** 			}
 866:e:/LiteOS/LiteOS/targets/Cloud_FM33A0XX/GCC/../../../targets/Cloud_FM33A0XX/Drivers\fm33a0xx_gpio.c **** 			break;
 867:e:/LiteOS/LiteOS/targets/Cloud_FM33A0XX/GCC/../../../targets/Cloud_FM33A0XX/Drivers\fm33a0xx_gpio.c **** 		
 868:e:/LiteOS/LiteOS/targets/Cloud_FM33A0XX/GCC/../../../targets/Cloud_FM33A0XX/Drivers\fm33a0xx_gpio.c **** 		default:
 869:e:/LiteOS/LiteOS/targets/Cloud_FM33A0XX/GCC/../../../targets/Cloud_FM33A0XX/Drivers\fm33a0xx_gpio.c **** 			break;
 870:e:/LiteOS/LiteOS/targets/Cloud_FM33A0XX/GCC/../../../targets/Cloud_FM33A0XX/Drivers\fm33a0xx_gpio.c **** 	}
 871:e:/LiteOS/LiteOS/targets/Cloud_FM33A0XX/GCC/../../../targets/Cloud_FM33A0XX/Drivers\fm33a0xx_gpio.c **** 	
 872:e:/LiteOS/LiteOS/targets/Cloud_FM33A0XX/GCC/../../../targets/Cloud_FM33A0XX/Drivers\fm33a0xx_gpio.c **** 	return Result;
 873:e:/LiteOS/LiteOS/targets/Cloud_FM33A0XX/GCC/../../../targets/Cloud_FM33A0XX/Drivers\fm33a0xx_gpio.c **** }
 2628              		.loc 1 873 0
 2629              		@ sp needed
 2630 012e 7047     		bx	lr
 2631              	.L196:
 2632              		.align	2
 2633              	.L195:
 2634 0130 600C0040 		.word	1073744992
 2635 0134 200C0040 		.word	1073744928
 2636 0138 400C0040 		.word	1073744960
 2637 013c 000C0040 		.word	1073744896
 2638 0140 A00C0040 		.word	1073745056
 2639 0144 C00C0040 		.word	1073745088
 2640 0148 800C0040 		.word	1073745024
 2641 014c E00C0040 		.word	1073745120
 2642              		.cfi_endproc
 2643              	.LFE76:
 2645              		.section	.text.GPIO_EXTI_Init,"ax",%progbits
 2646              		.align	2
 2647              		.global	GPIO_EXTI_Init
 2648              		.code	16
 2649              		.thumb_func
 2651              	GPIO_EXTI_Init:
 2652              	.LFB77:
ARM GAS  C:\Users\WANGBI~1\AppData\Local\Temp\ccUoabl7.s 			page 62


 874:e:/LiteOS/LiteOS/targets/Cloud_FM33A0XX/GCC/../../../targets/Cloud_FM33A0XX/Drivers\fm33a0xx_gpio.c **** 
 875:e:/LiteOS/LiteOS/targets/Cloud_FM33A0XX/GCC/../../../targets/Cloud_FM33A0XX/Drivers\fm33a0xx_gpio.c **** /*************************************************************************
 876:e:/LiteOS/LiteOS/targets/Cloud_FM33A0XX/GCC/../../../targets/Cloud_FM33A0XX/Drivers\fm33a0xx_gpio.c ****  函数名称：GPIO_EXTI_Init
 877:e:/LiteOS/LiteOS/targets/Cloud_FM33A0XX/GCC/../../../targets/Cloud_FM33A0XX/Drivers\fm33a0xx_gpio.c ****  功能说明：GPIO_EXTI_Init 外部中断初始化
 878:e:/LiteOS/LiteOS/targets/Cloud_FM33A0XX/GCC/../../../targets/Cloud_FM33A0XX/Drivers\fm33a0xx_gpio.c ****  输入参数：port 端口 ，pin 端口内引脚 ,edge 触发沿
 879:e:/LiteOS/LiteOS/targets/Cloud_FM33A0XX/GCC/../../../targets/Cloud_FM33A0XX/Drivers\fm33a0xx_gpio.c ****  输出参数：无
 880:e:/LiteOS/LiteOS/targets/Cloud_FM33A0XX/GCC/../../../targets/Cloud_FM33A0XX/Drivers\fm33a0xx_gpio.c ****  返回参数w无
 881:e:/LiteOS/LiteOS/targets/Cloud_FM33A0XX/GCC/../../../targets/Cloud_FM33A0XX/Drivers\fm33a0xx_gpio.c ****  *************************************************************************/
 882:e:/LiteOS/LiteOS/targets/Cloud_FM33A0XX/GCC/../../../targets/Cloud_FM33A0XX/Drivers\fm33a0xx_gpio.c **** //FM33A0XX的7组GPIO（A~G）最多可以产生24个外部引脚中断，部分IO不能同时开启中断功能
 883:e:/LiteOS/LiteOS/targets/Cloud_FM33A0XX/GCC/../../../targets/Cloud_FM33A0XX/Drivers\fm33a0xx_gpio.c **** void GPIO_EXTI_Init(GPIOx_Type* GPIOx,uint32_t GPIO_Pin,GPIOExtiEdge edge_select)
 884:e:/LiteOS/LiteOS/targets/Cloud_FM33A0XX/GCC/../../../targets/Cloud_FM33A0XX/Drivers\fm33a0xx_gpio.c **** {
 2653              		.loc 1 884 0
 2654              		.cfi_startproc
 2655              		@ args = 0, pretend = 0, frame = 0
 2656              		@ frame_needed = 0, uses_anonymous_args = 0
 2657              	.LVL358:
 2658 0000 70B5     		push	{r4, r5, r6, lr}
 2659              	.LCFI5:
 2660              		.cfi_def_cfa_offset 16
 2661              		.cfi_offset 4, -16
 2662              		.cfi_offset 5, -12
 2663              		.cfi_offset 6, -8
 2664              		.cfi_offset 14, -4
 2665 0002 0400     		movs	r4, r0
 2666 0004 0D00     		movs	r5, r1
 2667 0006 1600     		movs	r6, r2
 885:e:/LiteOS/LiteOS/targets/Cloud_FM33A0XX/GCC/../../../targets/Cloud_FM33A0XX/Drivers\fm33a0xx_gpio.c **** 	GPIO_EXTI_Select_Edge(GPIOx, GPIO_Pin, EXTI_DISABLE);	//关闭边沿触发
 2668              		.loc 1 885 0
 2669 0008 0322     		movs	r2, #3
 2670              	.LVL359:
 2671 000a FFF7FEFF 		bl	GPIO_EXTI_Select_Edge
 2672              	.LVL360:
 886:e:/LiteOS/LiteOS/targets/Cloud_FM33A0XX/GCC/../../../targets/Cloud_FM33A0XX/Drivers\fm33a0xx_gpio.c **** 	GPIO_EXTI_Select_Pin(GPIOx, GPIO_Pin);					//外部引脚选择
 2673              		.loc 1 886 0
 2674 000e 2900     		movs	r1, r5
 2675 0010 2000     		movs	r0, r4
 2676 0012 FFF7FEFF 		bl	GPIO_EXTI_Select_Pin
 2677              	.LVL361:
 887:e:/LiteOS/LiteOS/targets/Cloud_FM33A0XX/GCC/../../../targets/Cloud_FM33A0XX/Drivers\fm33a0xx_gpio.c **** 	GPIO_EXTI_Select_Edge(GPIOx, GPIO_Pin, edge_select);	//修改边沿选择
 2678              		.loc 1 887 0
 2679 0016 3200     		movs	r2, r6
 2680 0018 2900     		movs	r1, r5
 2681 001a 2000     		movs	r0, r4
 2682 001c FFF7FEFF 		bl	GPIO_EXTI_Select_Edge
 2683              	.LVL362:
 888:e:/LiteOS/LiteOS/targets/Cloud_FM33A0XX/GCC/../../../targets/Cloud_FM33A0XX/Drivers\fm33a0xx_gpio.c **** 	GPIO_EXTI_EXTIxIF_ClrEx(GPIOx, GPIO_Pin);				//清除中断标志
 2684              		.loc 1 888 0
 2685 0020 2900     		movs	r1, r5
 2686 0022 2000     		movs	r0, r4
 2687 0024 FFF7FEFF 		bl	GPIO_EXTI_EXTIxIF_ClrEx
 2688              	.LVL363:
 889:e:/LiteOS/LiteOS/targets/Cloud_FM33A0XX/GCC/../../../targets/Cloud_FM33A0XX/Drivers\fm33a0xx_gpio.c **** }
 2689              		.loc 1 889 0
 2690              		@ sp needed
 2691              	.LVL364:
 2692              	.LVL365:
 2693 0028 70BD     		pop	{r4, r5, r6, pc}
ARM GAS  C:\Users\WANGBI~1\AppData\Local\Temp\ccUoabl7.s 			page 63


 2694              		.cfi_endproc
 2695              	.LFE77:
 2697 002a C046     		.section	.text.GPIO_EXTI_Close,"ax",%progbits
 2698              		.align	2
 2699              		.global	GPIO_EXTI_Close
 2700              		.code	16
 2701              		.thumb_func
 2703              	GPIO_EXTI_Close:
 2704              	.LFB78:
 890:e:/LiteOS/LiteOS/targets/Cloud_FM33A0XX/GCC/../../../targets/Cloud_FM33A0XX/Drivers\fm33a0xx_gpio.c **** 
 891:e:/LiteOS/LiteOS/targets/Cloud_FM33A0XX/GCC/../../../targets/Cloud_FM33A0XX/Drivers\fm33a0xx_gpio.c **** /*************************************************************************
 892:e:/LiteOS/LiteOS/targets/Cloud_FM33A0XX/GCC/../../../targets/Cloud_FM33A0XX/Drivers\fm33a0xx_gpio.c ****  函数名称：GPIO_EXTI_Close
 893:e:/LiteOS/LiteOS/targets/Cloud_FM33A0XX/GCC/../../../targets/Cloud_FM33A0XX/Drivers\fm33a0xx_gpio.c ****  功能说明：GPIO_EXTI_Close 外部中断关闭
 894:e:/LiteOS/LiteOS/targets/Cloud_FM33A0XX/GCC/../../../targets/Cloud_FM33A0XX/Drivers\fm33a0xx_gpio.c ****  输入参数：port 端口 ，pin 端口内引脚 
 895:e:/LiteOS/LiteOS/targets/Cloud_FM33A0XX/GCC/../../../targets/Cloud_FM33A0XX/Drivers\fm33a0xx_gpio.c ****  输出参数：无
 896:e:/LiteOS/LiteOS/targets/Cloud_FM33A0XX/GCC/../../../targets/Cloud_FM33A0XX/Drivers\fm33a0xx_gpio.c ****  返回参数w无
 897:e:/LiteOS/LiteOS/targets/Cloud_FM33A0XX/GCC/../../../targets/Cloud_FM33A0XX/Drivers\fm33a0xx_gpio.c ****  *************************************************************************/
 898:e:/LiteOS/LiteOS/targets/Cloud_FM33A0XX/GCC/../../../targets/Cloud_FM33A0XX/Drivers\fm33a0xx_gpio.c **** void GPIO_EXTI_Close(GPIOx_Type* GPIOx,uint32_t GPIO_Pin)
 899:e:/LiteOS/LiteOS/targets/Cloud_FM33A0XX/GCC/../../../targets/Cloud_FM33A0XX/Drivers\fm33a0xx_gpio.c **** {
 2705              		.loc 1 899 0
 2706              		.cfi_startproc
 2707              		@ args = 0, pretend = 0, frame = 0
 2708              		@ frame_needed = 0, uses_anonymous_args = 0
 2709              	.LVL366:
 2710 0000 10B5     		push	{r4, lr}
 2711              	.LCFI6:
 2712              		.cfi_def_cfa_offset 8
 2713              		.cfi_offset 4, -8
 2714              		.cfi_offset 14, -4
 900:e:/LiteOS/LiteOS/targets/Cloud_FM33A0XX/GCC/../../../targets/Cloud_FM33A0XX/Drivers\fm33a0xx_gpio.c **** 	GPIO_EXTI_Select_Edge(GPIOx, GPIO_Pin, EXTI_DISABLE);//关闭边沿触发
 2715              		.loc 1 900 0
 2716 0002 0322     		movs	r2, #3
 2717 0004 FFF7FEFF 		bl	GPIO_EXTI_Select_Edge
 2718              	.LVL367:
 901:e:/LiteOS/LiteOS/targets/Cloud_FM33A0XX/GCC/../../../targets/Cloud_FM33A0XX/Drivers\fm33a0xx_gpio.c **** }
 2719              		.loc 1 901 0
 2720              		@ sp needed
 2721 0008 10BD     		pop	{r4, pc}
 2722              		.cfi_endproc
 2723              	.LFE78:
 2725 000a C046     		.text
 2726              	.Letext0:
 2727              		.file 2 "e:\\liteos\\liteos\\targets\\cloud_fm33a0xx\\device\\include\\fm33a0xx.h"
 2728              		.file 3 "d:\\gnu tools arm embedded\\5.4 2016q3\\arm-none-eabi\\include\\machine\\_default_types.h
 2729              		.file 4 "d:\\gnu tools arm embedded\\5.4 2016q3\\arm-none-eabi\\include\\sys\\_stdint.h"
 2730              		.file 5 "e:\\liteos\\liteos\\targets\\cloud_fm33a0xx\\drivers\\fm33A0xx_gpio.h"
ARM GAS  C:\Users\WANGBI~1\AppData\Local\Temp\ccUoabl7.s 			page 64

