ARM GAS  C:\Users\WANGBI~1\AppData\Local\Temp\ccac8q5z.s 			page 1


   1              		.syntax unified
   2              		.cpu cortex-m0plus
   3              		.fpu softvfp
   4              		.eabi_attribute 20, 1
   5              		.eabi_attribute 21, 1
   6              		.eabi_attribute 23, 3
   7              		.eabi_attribute 24, 1
   8              		.eabi_attribute 25, 1
   9              		.eabi_attribute 26, 1
  10              		.eabi_attribute 30, 1
  11              		.eabi_attribute 34, 0
  12              		.eabi_attribute 18, 4
  13              		.thumb
  14              		.syntax unified
  15              		.file	"los_queue.c"
  16              		.text
  17              	.Ltext0:
  18              		.cfi_sections	.debug_frame
  19              		.section	.text.osQueueInit,"ax",%progbits
  20              		.align	2
  21              		.global	osQueueInit
  22              		.code	16
  23              		.thumb_func
  25              	osQueueInit:
  26              	.LFB43:
  27              		.file 1 "e:/LiteOS/LiteOS/targets/Cloud_FM33A0XX/GCC/../../../kernel/base/ipc/los_queue.c"
   1:e:/LiteOS/LiteOS/targets/Cloud_FM33A0XX/GCC/../../../kernel/base/ipc\los_queue.c **** /*----------------------------------------------------------------------------
   2:e:/LiteOS/LiteOS/targets/Cloud_FM33A0XX/GCC/../../../kernel/base/ipc\los_queue.c ****  * Copyright (c) <2013-2015>, <Huawei Technologies Co., Ltd>
   3:e:/LiteOS/LiteOS/targets/Cloud_FM33A0XX/GCC/../../../kernel/base/ipc\los_queue.c ****  * All rights reserved.
   4:e:/LiteOS/LiteOS/targets/Cloud_FM33A0XX/GCC/../../../kernel/base/ipc\los_queue.c ****  * Redistribution and use in source and binary forms, with or without modification,
   5:e:/LiteOS/LiteOS/targets/Cloud_FM33A0XX/GCC/../../../kernel/base/ipc\los_queue.c ****  * are permitted provided that the following conditions are met:
   6:e:/LiteOS/LiteOS/targets/Cloud_FM33A0XX/GCC/../../../kernel/base/ipc\los_queue.c ****  * 1. Redistributions of source code must retain the above copyright notice, this list of
   7:e:/LiteOS/LiteOS/targets/Cloud_FM33A0XX/GCC/../../../kernel/base/ipc\los_queue.c ****  * conditions and the following disclaimer.
   8:e:/LiteOS/LiteOS/targets/Cloud_FM33A0XX/GCC/../../../kernel/base/ipc\los_queue.c ****  * 2. Redistributions in binary form must reproduce the above copyright notice, this list
   9:e:/LiteOS/LiteOS/targets/Cloud_FM33A0XX/GCC/../../../kernel/base/ipc\los_queue.c ****  * of conditions and the following disclaimer in the documentation and/or other materials
  10:e:/LiteOS/LiteOS/targets/Cloud_FM33A0XX/GCC/../../../kernel/base/ipc\los_queue.c ****  * provided with the distribution.
  11:e:/LiteOS/LiteOS/targets/Cloud_FM33A0XX/GCC/../../../kernel/base/ipc\los_queue.c ****  * 3. Neither the name of the copyright holder nor the names of its contributors may be used
  12:e:/LiteOS/LiteOS/targets/Cloud_FM33A0XX/GCC/../../../kernel/base/ipc\los_queue.c ****  * to endorse or promote products derived from this software without specific prior written
  13:e:/LiteOS/LiteOS/targets/Cloud_FM33A0XX/GCC/../../../kernel/base/ipc\los_queue.c ****  * permission.
  14:e:/LiteOS/LiteOS/targets/Cloud_FM33A0XX/GCC/../../../kernel/base/ipc\los_queue.c ****  * THIS SOFTWARE IS PROVIDED BY THE COPYRIGHT HOLDERS AND CONTRIBUTORS
  15:e:/LiteOS/LiteOS/targets/Cloud_FM33A0XX/GCC/../../../kernel/base/ipc\los_queue.c ****  * "AS IS" AND ANY EXPRESS OR IMPLIED WARRANTIES, INCLUDING, BUT NOT LIMITED TO,
  16:e:/LiteOS/LiteOS/targets/Cloud_FM33A0XX/GCC/../../../kernel/base/ipc\los_queue.c ****  * THE IMPLIED WARRANTIES OF MERCHANTABILITY AND FITNESS FOR A PARTICULAR
  17:e:/LiteOS/LiteOS/targets/Cloud_FM33A0XX/GCC/../../../kernel/base/ipc\los_queue.c ****  * PURPOSE ARE DISCLAIMED. IN NO EVENT SHALL THE COPYRIGHT HOLDER OR
  18:e:/LiteOS/LiteOS/targets/Cloud_FM33A0XX/GCC/../../../kernel/base/ipc\los_queue.c ****  * CONTRIBUTORS BE LIABLE FOR ANY DIRECT, INDIRECT, INCIDENTAL, SPECIAL,
  19:e:/LiteOS/LiteOS/targets/Cloud_FM33A0XX/GCC/../../../kernel/base/ipc\los_queue.c ****  * EXEMPLARY, OR CONSEQUENTIAL DAMAGES (INCLUDING, BUT NOT LIMITED TO,
  20:e:/LiteOS/LiteOS/targets/Cloud_FM33A0XX/GCC/../../../kernel/base/ipc\los_queue.c ****  * PROCUREMENT OF SUBSTITUTE GOODS OR SERVICES; LOSS OF USE, DATA, OR PROFITS;
  21:e:/LiteOS/LiteOS/targets/Cloud_FM33A0XX/GCC/../../../kernel/base/ipc\los_queue.c ****  * OR BUSINESS INTERRUPTION) HOWEVER CAUSED AND ON ANY THEORY OF LIABILITY,
  22:e:/LiteOS/LiteOS/targets/Cloud_FM33A0XX/GCC/../../../kernel/base/ipc\los_queue.c ****  * WHETHER IN CONTRACT, STRICT LIABILITY, OR TORT (INCLUDING NEGLIGENCE OR
  23:e:/LiteOS/LiteOS/targets/Cloud_FM33A0XX/GCC/../../../kernel/base/ipc\los_queue.c ****  * OTHERWISE) ARISING IN ANY WAY OUT OF THE USE OF THIS SOFTWARE, EVEN IF
  24:e:/LiteOS/LiteOS/targets/Cloud_FM33A0XX/GCC/../../../kernel/base/ipc\los_queue.c ****  * ADVISED OF THE POSSIBILITY OF SUCH DAMAGE.
  25:e:/LiteOS/LiteOS/targets/Cloud_FM33A0XX/GCC/../../../kernel/base/ipc\los_queue.c ****  *---------------------------------------------------------------------------*/
  26:e:/LiteOS/LiteOS/targets/Cloud_FM33A0XX/GCC/../../../kernel/base/ipc\los_queue.c **** /*----------------------------------------------------------------------------
  27:e:/LiteOS/LiteOS/targets/Cloud_FM33A0XX/GCC/../../../kernel/base/ipc\los_queue.c ****  * Notice of Export Control Law
  28:e:/LiteOS/LiteOS/targets/Cloud_FM33A0XX/GCC/../../../kernel/base/ipc\los_queue.c ****  * ===============================================
  29:e:/LiteOS/LiteOS/targets/Cloud_FM33A0XX/GCC/../../../kernel/base/ipc\los_queue.c ****  * Huawei LiteOS may be subject to applicable export control laws and regulations, which might
  30:e:/LiteOS/LiteOS/targets/Cloud_FM33A0XX/GCC/../../../kernel/base/ipc\los_queue.c ****  * include those applicable to Huawei LiteOS of U.S. and the country in which you are located.
  31:e:/LiteOS/LiteOS/targets/Cloud_FM33A0XX/GCC/../../../kernel/base/ipc\los_queue.c ****  * Import, export and usage of Huawei LiteOS in any manner by you shall be in compliance with such
ARM GAS  C:\Users\WANGBI~1\AppData\Local\Temp\ccac8q5z.s 			page 2


  32:e:/LiteOS/LiteOS/targets/Cloud_FM33A0XX/GCC/../../../kernel/base/ipc\los_queue.c ****  * applicable export control laws and regulations.
  33:e:/LiteOS/LiteOS/targets/Cloud_FM33A0XX/GCC/../../../kernel/base/ipc\los_queue.c ****  *---------------------------------------------------------------------------*/
  34:e:/LiteOS/LiteOS/targets/Cloud_FM33A0XX/GCC/../../../kernel/base/ipc\los_queue.c **** #include "string.h"
  35:e:/LiteOS/LiteOS/targets/Cloud_FM33A0XX/GCC/../../../kernel/base/ipc\los_queue.c **** #include "los_queue.ph"
  36:e:/LiteOS/LiteOS/targets/Cloud_FM33A0XX/GCC/../../../kernel/base/ipc\los_queue.c **** #include "los_membox.ph"
  37:e:/LiteOS/LiteOS/targets/Cloud_FM33A0XX/GCC/../../../kernel/base/ipc\los_queue.c **** #include "los_memory.ph"
  38:e:/LiteOS/LiteOS/targets/Cloud_FM33A0XX/GCC/../../../kernel/base/ipc\los_queue.c **** #include "los_priqueue.ph"
  39:e:/LiteOS/LiteOS/targets/Cloud_FM33A0XX/GCC/../../../kernel/base/ipc\los_queue.c **** #include "los_task.ph"
  40:e:/LiteOS/LiteOS/targets/Cloud_FM33A0XX/GCC/../../../kernel/base/ipc\los_queue.c **** #if (LOSCFG_PLATFORM_EXC == YES)
  41:e:/LiteOS/LiteOS/targets/Cloud_FM33A0XX/GCC/../../../kernel/base/ipc\los_queue.c **** #include "los_exc.ph"
  42:e:/LiteOS/LiteOS/targets/Cloud_FM33A0XX/GCC/../../../kernel/base/ipc\los_queue.c **** #endif
  43:e:/LiteOS/LiteOS/targets/Cloud_FM33A0XX/GCC/../../../kernel/base/ipc\los_queue.c **** 
  44:e:/LiteOS/LiteOS/targets/Cloud_FM33A0XX/GCC/../../../kernel/base/ipc\los_queue.c **** #ifdef __cplusplus
  45:e:/LiteOS/LiteOS/targets/Cloud_FM33A0XX/GCC/../../../kernel/base/ipc\los_queue.c **** #if __cplusplus
  46:e:/LiteOS/LiteOS/targets/Cloud_FM33A0XX/GCC/../../../kernel/base/ipc\los_queue.c **** extern "C"{
  47:e:/LiteOS/LiteOS/targets/Cloud_FM33A0XX/GCC/../../../kernel/base/ipc\los_queue.c **** #endif
  48:e:/LiteOS/LiteOS/targets/Cloud_FM33A0XX/GCC/../../../kernel/base/ipc\los_queue.c **** #endif /* __cplusplus */
  49:e:/LiteOS/LiteOS/targets/Cloud_FM33A0XX/GCC/../../../kernel/base/ipc\los_queue.c **** 
  50:e:/LiteOS/LiteOS/targets/Cloud_FM33A0XX/GCC/../../../kernel/base/ipc\los_queue.c **** #if (LOSCFG_BASE_IPC_QUEUE == YES)
  51:e:/LiteOS/LiteOS/targets/Cloud_FM33A0XX/GCC/../../../kernel/base/ipc\los_queue.c **** 
  52:e:/LiteOS/LiteOS/targets/Cloud_FM33A0XX/GCC/../../../kernel/base/ipc\los_queue.c **** /*lint -save -e64*/
  53:e:/LiteOS/LiteOS/targets/Cloud_FM33A0XX/GCC/../../../kernel/base/ipc\los_queue.c **** LITE_OS_SEC_BSS      QUEUE_CB_S       *g_pstAllQueue;
  54:e:/LiteOS/LiteOS/targets/Cloud_FM33A0XX/GCC/../../../kernel/base/ipc\los_queue.c **** LITE_OS_SEC_BSS      LOS_DL_LIST      g_stFreeQueueList;
  55:e:/LiteOS/LiteOS/targets/Cloud_FM33A0XX/GCC/../../../kernel/base/ipc\los_queue.c **** #if ((LOSCFG_PLATFORM_EXC == YES) && (LOSCFG_SAVE_EXC_INFO == YES))
  56:e:/LiteOS/LiteOS/targets/Cloud_FM33A0XX/GCC/../../../kernel/base/ipc\los_queue.c **** LITE_OS_SEC_BSS      UINT32           g_uwExcQueueMaxNum;
  57:e:/LiteOS/LiteOS/targets/Cloud_FM33A0XX/GCC/../../../kernel/base/ipc\los_queue.c **** #endif
  58:e:/LiteOS/LiteOS/targets/Cloud_FM33A0XX/GCC/../../../kernel/base/ipc\los_queue.c **** 
  59:e:/LiteOS/LiteOS/targets/Cloud_FM33A0XX/GCC/../../../kernel/base/ipc\los_queue.c **** /**************************************************************************
  60:e:/LiteOS/LiteOS/targets/Cloud_FM33A0XX/GCC/../../../kernel/base/ipc\los_queue.c ****  Function    : osQueueInit
  61:e:/LiteOS/LiteOS/targets/Cloud_FM33A0XX/GCC/../../../kernel/base/ipc\los_queue.c ****  Description : queue initial
  62:e:/LiteOS/LiteOS/targets/Cloud_FM33A0XX/GCC/../../../kernel/base/ipc\los_queue.c ****  Input       : None
  63:e:/LiteOS/LiteOS/targets/Cloud_FM33A0XX/GCC/../../../kernel/base/ipc\los_queue.c ****  Output      : None
  64:e:/LiteOS/LiteOS/targets/Cloud_FM33A0XX/GCC/../../../kernel/base/ipc\los_queue.c ****  Return      : LOS_OK on success or error code on failure
  65:e:/LiteOS/LiteOS/targets/Cloud_FM33A0XX/GCC/../../../kernel/base/ipc\los_queue.c **** **************************************************************************/
  66:e:/LiteOS/LiteOS/targets/Cloud_FM33A0XX/GCC/../../../kernel/base/ipc\los_queue.c **** LITE_OS_SEC_TEXT_INIT UINT32 osQueueInit(VOID)
  67:e:/LiteOS/LiteOS/targets/Cloud_FM33A0XX/GCC/../../../kernel/base/ipc\los_queue.c **** {
  28              		.loc 1 67 0
  29              		.cfi_startproc
  30              		@ args = 0, pretend = 0, frame = 0
  31              		@ frame_needed = 0, uses_anonymous_args = 0
  32 0000 10B5     		push	{r4, lr}
  33              	.LCFI0:
  34              		.cfi_def_cfa_offset 8
  35              		.cfi_offset 4, -8
  36              		.cfi_offset 14, -4
  68:e:/LiteOS/LiteOS/targets/Cloud_FM33A0XX/GCC/../../../kernel/base/ipc\los_queue.c ****     QUEUE_CB_S *pstQueueNode;
  69:e:/LiteOS/LiteOS/targets/Cloud_FM33A0XX/GCC/../../../kernel/base/ipc\los_queue.c ****     UINT16   usIndex;
  70:e:/LiteOS/LiteOS/targets/Cloud_FM33A0XX/GCC/../../../kernel/base/ipc\los_queue.c **** 
  71:e:/LiteOS/LiteOS/targets/Cloud_FM33A0XX/GCC/../../../kernel/base/ipc\los_queue.c ****     if (0 == LOSCFG_BASE_IPC_QUEUE_LIMIT)   /*lint !e506*/
  72:e:/LiteOS/LiteOS/targets/Cloud_FM33A0XX/GCC/../../../kernel/base/ipc\los_queue.c ****     {
  73:e:/LiteOS/LiteOS/targets/Cloud_FM33A0XX/GCC/../../../kernel/base/ipc\los_queue.c ****         return LOS_ERRNO_QUEUE_MAXNUM_ZERO;
  74:e:/LiteOS/LiteOS/targets/Cloud_FM33A0XX/GCC/../../../kernel/base/ipc\los_queue.c ****     }
  75:e:/LiteOS/LiteOS/targets/Cloud_FM33A0XX/GCC/../../../kernel/base/ipc\los_queue.c **** 
  76:e:/LiteOS/LiteOS/targets/Cloud_FM33A0XX/GCC/../../../kernel/base/ipc\los_queue.c ****     g_pstAllQueue = (QUEUE_CB_S *)LOS_MemAlloc(m_aucSysMem0, LOSCFG_BASE_IPC_QUEUE_LIMIT * sizeof(Q
  37              		.loc 1 76 0
  38 0002 164B     		ldr	r3, .L6
  39 0004 1868     		ldr	r0, [r3]
ARM GAS  C:\Users\WANGBI~1\AppData\Local\Temp\ccac8q5z.s 			page 3


  40 0006 DC21     		movs	r1, #220
  41 0008 4900     		lsls	r1, r1, #1
  42 000a FFF7FEFF 		bl	LOS_MemAlloc
  43              	.LVL0:
  44 000e 144B     		ldr	r3, .L6+4
  45 0010 1860     		str	r0, [r3]
  77:e:/LiteOS/LiteOS/targets/Cloud_FM33A0XX/GCC/../../../kernel/base/ipc\los_queue.c ****     if (NULL == g_pstAllQueue)
  46              		.loc 1 77 0
  47 0012 0028     		cmp	r0, #0
  48 0014 1FD0     		beq	.L5
  78:e:/LiteOS/LiteOS/targets/Cloud_FM33A0XX/GCC/../../../kernel/base/ipc\los_queue.c ****     {
  79:e:/LiteOS/LiteOS/targets/Cloud_FM33A0XX/GCC/../../../kernel/base/ipc\los_queue.c ****         return LOS_ERRNO_QUEUE_NO_MEMORY;
  80:e:/LiteOS/LiteOS/targets/Cloud_FM33A0XX/GCC/../../../kernel/base/ipc\los_queue.c ****     }
  81:e:/LiteOS/LiteOS/targets/Cloud_FM33A0XX/GCC/../../../kernel/base/ipc\los_queue.c **** 
  82:e:/LiteOS/LiteOS/targets/Cloud_FM33A0XX/GCC/../../../kernel/base/ipc\los_queue.c ****     (VOID)memset(g_pstAllQueue, 0, LOSCFG_BASE_IPC_QUEUE_LIMIT * sizeof(QUEUE_CB_S));
  49              		.loc 1 82 0
  50 0016 DC22     		movs	r2, #220
  51 0018 5200     		lsls	r2, r2, #1
  52 001a 0021     		movs	r1, #0
  53 001c FFF7FEFF 		bl	memset
  54              	.LVL1:
  55              	.LBB40:
  56              	.LBB41:
  57              		.file 2 "e:\\liteos\\liteos\\kernel\\include\\los_list.h"
   1:e:\liteos\liteos\kernel\include\los_list.h **** /*----------------------------------------------------------------------------
   2:e:\liteos\liteos\kernel\include\los_list.h ****  * Copyright (c) <2013-2015>, <Huawei Technologies Co., Ltd>
   3:e:\liteos\liteos\kernel\include\los_list.h ****  * All rights reserved.
   4:e:\liteos\liteos\kernel\include\los_list.h ****  * Redistribution and use in source and binary forms, with or without modification,
   5:e:\liteos\liteos\kernel\include\los_list.h ****  * are permitted provided that the following conditions are met:
   6:e:\liteos\liteos\kernel\include\los_list.h ****  * 1. Redistributions of source code must retain the above copyright notice, this list of
   7:e:\liteos\liteos\kernel\include\los_list.h ****  * conditions and the following disclaimer.
   8:e:\liteos\liteos\kernel\include\los_list.h ****  * 2. Redistributions in binary form must reproduce the above copyright notice, this list
   9:e:\liteos\liteos\kernel\include\los_list.h ****  * of conditions and the following disclaimer in the documentation and/or other materials
  10:e:\liteos\liteos\kernel\include\los_list.h ****  * provided with the distribution.
  11:e:\liteos\liteos\kernel\include\los_list.h ****  * 3. Neither the name of the copyright holder nor the names of its contributors may be used
  12:e:\liteos\liteos\kernel\include\los_list.h ****  * to endorse or promote products derived from this software without specific prior written
  13:e:\liteos\liteos\kernel\include\los_list.h ****  * permission.
  14:e:\liteos\liteos\kernel\include\los_list.h ****  * THIS SOFTWARE IS PROVIDED BY THE COPYRIGHT HOLDERS AND CONTRIBUTORS
  15:e:\liteos\liteos\kernel\include\los_list.h ****  * "AS IS" AND ANY EXPRESS OR IMPLIED WARRANTIES, INCLUDING, BUT NOT LIMITED TO,
  16:e:\liteos\liteos\kernel\include\los_list.h ****  * THE IMPLIED WARRANTIES OF MERCHANTABILITY AND FITNESS FOR A PARTICULAR
  17:e:\liteos\liteos\kernel\include\los_list.h ****  * PURPOSE ARE DISCLAIMED. IN NO EVENT SHALL THE COPYRIGHT HOLDER OR
  18:e:\liteos\liteos\kernel\include\los_list.h ****  * CONTRIBUTORS BE LIABLE FOR ANY DIRECT, INDIRECT, INCIDENTAL, SPECIAL,
  19:e:\liteos\liteos\kernel\include\los_list.h ****  * EXEMPLARY, OR CONSEQUENTIAL DAMAGES (INCLUDING, BUT NOT LIMITED TO,
  20:e:\liteos\liteos\kernel\include\los_list.h ****  * PROCUREMENT OF SUBSTITUTE GOODS OR SERVICES; LOSS OF USE, DATA, OR PROFITS;
  21:e:\liteos\liteos\kernel\include\los_list.h ****  * OR BUSINESS INTERRUPTION) HOWEVER CAUSED AND ON ANY THEORY OF LIABILITY,
  22:e:\liteos\liteos\kernel\include\los_list.h ****  * WHETHER IN CONTRACT, STRICT LIABILITY, OR TORT (INCLUDING NEGLIGENCE OR
  23:e:\liteos\liteos\kernel\include\los_list.h ****  * OTHERWISE) ARISING IN ANY WAY OUT OF THE USE OF THIS SOFTWARE, EVEN IF
  24:e:\liteos\liteos\kernel\include\los_list.h ****  * ADVISED OF THE POSSIBILITY OF SUCH DAMAGE.
  25:e:\liteos\liteos\kernel\include\los_list.h ****  *---------------------------------------------------------------------------*/
  26:e:\liteos\liteos\kernel\include\los_list.h **** /*----------------------------------------------------------------------------
  27:e:\liteos\liteos\kernel\include\los_list.h ****  * Notice of Export Control Law
  28:e:\liteos\liteos\kernel\include\los_list.h ****  * ===============================================
  29:e:\liteos\liteos\kernel\include\los_list.h ****  * Huawei LiteOS may be subject to applicable export control laws and regulations, which might
  30:e:\liteos\liteos\kernel\include\los_list.h ****  * include those applicable to Huawei LiteOS of U.S. and the country in which you are located.
  31:e:\liteos\liteos\kernel\include\los_list.h ****  * Import, export and usage of Huawei LiteOS in any manner by you shall be in compliance with such
  32:e:\liteos\liteos\kernel\include\los_list.h ****  * applicable export control laws and regulations.
  33:e:\liteos\liteos\kernel\include\los_list.h ****  *---------------------------------------------------------------------------*/
ARM GAS  C:\Users\WANGBI~1\AppData\Local\Temp\ccac8q5z.s 			page 4


  34:e:\liteos\liteos\kernel\include\los_list.h **** 
  35:e:\liteos\liteos\kernel\include\los_list.h ****  /** @defgroup los_list Doubly linked list
  36:e:\liteos\liteos\kernel\include\los_list.h ****  * @ingroup kernel
  37:e:\liteos\liteos\kernel\include\los_list.h ****  */
  38:e:\liteos\liteos\kernel\include\los_list.h **** 
  39:e:\liteos\liteos\kernel\include\los_list.h **** #ifndef _LOS_LIST_H
  40:e:\liteos\liteos\kernel\include\los_list.h **** #define _LOS_LIST_H
  41:e:\liteos\liteos\kernel\include\los_list.h **** 
  42:e:\liteos\liteos\kernel\include\los_list.h **** #include "los_typedef.h"
  43:e:\liteos\liteos\kernel\include\los_list.h **** 
  44:e:\liteos\liteos\kernel\include\los_list.h **** #ifdef __cplusplus
  45:e:\liteos\liteos\kernel\include\los_list.h **** #if __cplusplus
  46:e:\liteos\liteos\kernel\include\los_list.h **** extern "C" {
  47:e:\liteos\liteos\kernel\include\los_list.h **** #endif /* __cplusplus */
  48:e:\liteos\liteos\kernel\include\los_list.h **** #endif /* __cplusplus */
  49:e:\liteos\liteos\kernel\include\los_list.h **** 
  50:e:\liteos\liteos\kernel\include\los_list.h **** 
  51:e:\liteos\liteos\kernel\include\los_list.h **** /**
  52:e:\liteos\liteos\kernel\include\los_list.h ****  *@ingroup los_list
  53:e:\liteos\liteos\kernel\include\los_list.h ****  *Structure of a node in a doubly linked list.
  54:e:\liteos\liteos\kernel\include\los_list.h ****  */
  55:e:\liteos\liteos\kernel\include\los_list.h **** typedef struct LOS_DL_LIST
  56:e:\liteos\liteos\kernel\include\los_list.h **** {
  57:e:\liteos\liteos\kernel\include\los_list.h ****     struct LOS_DL_LIST *pstPrev;            /**< Current node's pointer to the previous node*/
  58:e:\liteos\liteos\kernel\include\los_list.h ****     struct LOS_DL_LIST *pstNext;            /**< Current node's pointer to the next node*/
  59:e:\liteos\liteos\kernel\include\los_list.h **** } LOS_DL_LIST;
  60:e:\liteos\liteos\kernel\include\los_list.h **** 
  61:e:\liteos\liteos\kernel\include\los_list.h **** /**
  62:e:\liteos\liteos\kernel\include\los_list.h ****  *@ingroup los_list
  63:e:\liteos\liteos\kernel\include\los_list.h ****  *@brief Initialize a doubly linked list.
  64:e:\liteos\liteos\kernel\include\los_list.h ****  *
  65:e:\liteos\liteos\kernel\include\los_list.h ****  *@par Description:
  66:e:\liteos\liteos\kernel\include\los_list.h ****  *This API is used to initialize a doubly linked list.
  67:e:\liteos\liteos\kernel\include\los_list.h ****  *@attention
  68:e:\liteos\liteos\kernel\include\los_list.h ****  *<ul>
  69:e:\liteos\liteos\kernel\include\los_list.h ****  *<li>The parameter passed in should be ensured to be a legal pointer.</li>
  70:e:\liteos\liteos\kernel\include\los_list.h ****  *</ul>
  71:e:\liteos\liteos\kernel\include\los_list.h ****  *
  72:e:\liteos\liteos\kernel\include\los_list.h ****  *@param pstList    [IN] Node in a doubly linked list.
  73:e:\liteos\liteos\kernel\include\los_list.h ****  *
  74:e:\liteos\liteos\kernel\include\los_list.h ****  *@retval None.
  75:e:\liteos\liteos\kernel\include\los_list.h ****  *@par Dependency:
  76:e:\liteos\liteos\kernel\include\los_list.h ****  *<ul><li>los_list.h: the header file that contains the API declaration.</li></ul>
  77:e:\liteos\liteos\kernel\include\los_list.h ****  *@see
  78:e:\liteos\liteos\kernel\include\los_list.h ****  *@since Huawei LiteOS V100R001C00
  79:e:\liteos\liteos\kernel\include\los_list.h ****  */
  80:e:\liteos\liteos\kernel\include\los_list.h **** LITE_OS_SEC_ALW_INLINE STATIC_INLINE VOID LOS_ListInit(LOS_DL_LIST *pstList)
  81:e:\liteos\liteos\kernel\include\los_list.h **** {
  82:e:\liteos\liteos\kernel\include\los_list.h ****     pstList->pstNext = pstList;
  58              		.loc 2 82 0
  59 0020 104B     		ldr	r3, .L6+8
  60 0022 5B60     		str	r3, [r3, #4]
  83:e:\liteos\liteos\kernel\include\los_list.h ****     pstList->pstPrev = pstList;
  61              		.loc 2 83 0
  62 0024 1B60     		str	r3, [r3]
  63              	.LVL2:
  64              	.LBE41:
ARM GAS  C:\Users\WANGBI~1\AppData\Local\Temp\ccac8q5z.s 			page 5


  65              	.LBE40:
  83:e:/LiteOS/LiteOS/targets/Cloud_FM33A0XX/GCC/../../../kernel/base/ipc\los_queue.c **** 
  84:e:/LiteOS/LiteOS/targets/Cloud_FM33A0XX/GCC/../../../kernel/base/ipc\los_queue.c ****     LOS_ListInit(&g_stFreeQueueList);
  85:e:/LiteOS/LiteOS/targets/Cloud_FM33A0XX/GCC/../../../kernel/base/ipc\los_queue.c ****     for (usIndex = 0; usIndex < LOSCFG_BASE_IPC_QUEUE_LIMIT; usIndex++)
  66              		.loc 1 85 0
  67 0026 0022     		movs	r2, #0
  68 0028 11E0     		b	.L3
  69              	.LVL3:
  70              	.L4:
  86:e:/LiteOS/LiteOS/targets/Cloud_FM33A0XX/GCC/../../../kernel/base/ipc\los_queue.c ****     {
  87:e:/LiteOS/LiteOS/targets/Cloud_FM33A0XX/GCC/../../../kernel/base/ipc\los_queue.c ****         pstQueueNode = ((QUEUE_CB_S *)g_pstAllQueue) + usIndex;
  71              		.loc 1 87 0 discriminator 3
  72 002a 0D4B     		ldr	r3, .L6+4
  73 002c 1968     		ldr	r1, [r3]
  74 002e 2C23     		movs	r3, #44
  75 0030 5343     		muls	r3, r2
  76 0032 CB18     		adds	r3, r1, r3
  77              	.LVL4:
  88:e:/LiteOS/LiteOS/targets/Cloud_FM33A0XX/GCC/../../../kernel/base/ipc\los_queue.c ****         pstQueueNode->usQueueID = usIndex;
  78              		.loc 1 88 0 discriminator 3
  79 0034 5A81     		strh	r2, [r3, #10]
  89:e:/LiteOS/LiteOS/targets/Cloud_FM33A0XX/GCC/../../../kernel/base/ipc\los_queue.c ****         LOS_ListTailInsert(&g_stFreeQueueList, &pstQueueNode->stReadWriteList[OS_QUEUE_WRITE]);
  80              		.loc 1 89 0 discriminator 3
  81 0036 1800     		movs	r0, r3
  82 0038 1C30     		adds	r0, r0, #28
  83              	.LVL5:
  84              	.LBB42:
  85              	.LBB43:
  84:e:\liteos\liteos\kernel\include\los_list.h **** }
  85:e:\liteos\liteos\kernel\include\los_list.h **** 
  86:e:\liteos\liteos\kernel\include\los_list.h **** /**
  87:e:\liteos\liteos\kernel\include\los_list.h ****  *@ingroup los_list
  88:e:\liteos\liteos\kernel\include\los_list.h ****  *@brief Point to the next node pointed to by the current node.
  89:e:\liteos\liteos\kernel\include\los_list.h ****  *
  90:e:\liteos\liteos\kernel\include\los_list.h ****  *@par Description:
  91:e:\liteos\liteos\kernel\include\los_list.h ****  *<ul>
  92:e:\liteos\liteos\kernel\include\los_list.h ****  *<li>This API is used to point to the next node pointed to by the current node.</li>
  93:e:\liteos\liteos\kernel\include\los_list.h ****  *</ul>
  94:e:\liteos\liteos\kernel\include\los_list.h ****  *@attention
  95:e:\liteos\liteos\kernel\include\los_list.h ****  *<ul>
  96:e:\liteos\liteos\kernel\include\los_list.h ****  *<li>None.</li>
  97:e:\liteos\liteos\kernel\include\los_list.h ****  *</ul>
  98:e:\liteos\liteos\kernel\include\los_list.h ****  *
  99:e:\liteos\liteos\kernel\include\los_list.h ****  *@param pstObject  [IN] Node in the doubly linked list.
 100:e:\liteos\liteos\kernel\include\los_list.h ****  *
 101:e:\liteos\liteos\kernel\include\los_list.h ****  *@retval None.
 102:e:\liteos\liteos\kernel\include\los_list.h ****  *@par Dependency:
 103:e:\liteos\liteos\kernel\include\los_list.h ****  *<ul><li>los_list.h: the header file that contains the API declaration.</li></ul>
 104:e:\liteos\liteos\kernel\include\los_list.h ****  *@see
 105:e:\liteos\liteos\kernel\include\los_list.h ****  *@since Huawei LiteOS V100R001C00
 106:e:\liteos\liteos\kernel\include\los_list.h ****  */
 107:e:\liteos\liteos\kernel\include\los_list.h **** #define LOS_DL_LIST_FIRST(pstObject) ((pstObject)->pstNext)
 108:e:\liteos\liteos\kernel\include\los_list.h **** 
 109:e:\liteos\liteos\kernel\include\los_list.h **** /**
 110:e:\liteos\liteos\kernel\include\los_list.h ****  *@ingroup los_list
 111:e:\liteos\liteos\kernel\include\los_list.h ****  *@brief Insert a new node to a doubly linked list.
 112:e:\liteos\liteos\kernel\include\los_list.h ****  *
ARM GAS  C:\Users\WANGBI~1\AppData\Local\Temp\ccac8q5z.s 			page 6


 113:e:\liteos\liteos\kernel\include\los_list.h ****  *@par Description:
 114:e:\liteos\liteos\kernel\include\los_list.h ****  *This API is used to insert a new node to a doubly linked list.
 115:e:\liteos\liteos\kernel\include\los_list.h ****  *@attention
 116:e:\liteos\liteos\kernel\include\los_list.h ****  *<ul>
 117:e:\liteos\liteos\kernel\include\los_list.h ****  *<li>The parameters passed in should be ensured to be legal pointers.</li>
 118:e:\liteos\liteos\kernel\include\los_list.h ****  *</ul>
 119:e:\liteos\liteos\kernel\include\los_list.h ****  *
 120:e:\liteos\liteos\kernel\include\los_list.h ****  *@param pstList    [IN]   Doubly linked list where the new node is inserted.
 121:e:\liteos\liteos\kernel\include\los_list.h ****  *@param pstNode    [IN]   New node to be inserted.
 122:e:\liteos\liteos\kernel\include\los_list.h ****  *
 123:e:\liteos\liteos\kernel\include\los_list.h ****  *@retval None
 124:e:\liteos\liteos\kernel\include\los_list.h ****  *@par Dependency:
 125:e:\liteos\liteos\kernel\include\los_list.h ****  *<ul><li>los_list.h: the header file that contains the API declaration.</li></ul>
 126:e:\liteos\liteos\kernel\include\los_list.h ****  *@see LOS_ListDelete
 127:e:\liteos\liteos\kernel\include\los_list.h ****  *@since Huawei LiteOS V100R001C00
 128:e:\liteos\liteos\kernel\include\los_list.h ****  */
 129:e:\liteos\liteos\kernel\include\los_list.h **** LITE_OS_SEC_ALW_INLINE STATIC_INLINE VOID LOS_ListAdd(LOS_DL_LIST *pstList, LOS_DL_LIST *pstNode)
 130:e:\liteos\liteos\kernel\include\los_list.h **** {
 131:e:\liteos\liteos\kernel\include\los_list.h ****     pstNode->pstNext = pstList->pstNext;
 132:e:\liteos\liteos\kernel\include\los_list.h ****     pstNode->pstPrev = pstList;
 133:e:\liteos\liteos\kernel\include\los_list.h ****     pstList->pstNext->pstPrev = pstNode;
 134:e:\liteos\liteos\kernel\include\los_list.h ****     pstList->pstNext = pstNode;
 135:e:\liteos\liteos\kernel\include\los_list.h **** }
 136:e:\liteos\liteos\kernel\include\los_list.h **** 
 137:e:\liteos\liteos\kernel\include\los_list.h **** /**
 138:e:\liteos\liteos\kernel\include\los_list.h ****  *@ingroup los_list
 139:e:\liteos\liteos\kernel\include\los_list.h ****  *@brief Insert a node to the tail of a doubly linked list.
 140:e:\liteos\liteos\kernel\include\los_list.h ****  *
 141:e:\liteos\liteos\kernel\include\los_list.h ****  *@par Description:
 142:e:\liteos\liteos\kernel\include\los_list.h ****  *This API is used to insert a new node to the tail of a doubly linked list.
 143:e:\liteos\liteos\kernel\include\los_list.h ****  *@attention
 144:e:\liteos\liteos\kernel\include\los_list.h ****  *<ul>
 145:e:\liteos\liteos\kernel\include\los_list.h ****  *<li>The parameters passed in should be ensured to be legal pointers.</li>
 146:e:\liteos\liteos\kernel\include\los_list.h ****  *</ul>
 147:e:\liteos\liteos\kernel\include\los_list.h ****  *
 148:e:\liteos\liteos\kernel\include\los_list.h ****  *@param pstList     [IN] Doubly linked list where the new node is inserted.
 149:e:\liteos\liteos\kernel\include\los_list.h ****  *@param pstNode     [IN] New node to be inserted.
 150:e:\liteos\liteos\kernel\include\los_list.h ****  *
 151:e:\liteos\liteos\kernel\include\los_list.h ****  *@retval None.
 152:e:\liteos\liteos\kernel\include\los_list.h ****  *@par Dependency:
 153:e:\liteos\liteos\kernel\include\los_list.h ****  *<ul><li>los_list.h: the header file that contains the API declaration.</li></ul>
 154:e:\liteos\liteos\kernel\include\los_list.h ****  *@see LOS_ListAdd | LOS_ListHeadInsert
 155:e:\liteos\liteos\kernel\include\los_list.h ****  *@since Huawei LiteOS V100R001C00
 156:e:\liteos\liteos\kernel\include\los_list.h ****  */
 157:e:\liteos\liteos\kernel\include\los_list.h **** LITE_OS_SEC_ALW_INLINE STATIC_INLINE VOID LOS_ListTailInsert(LOS_DL_LIST *pstList, LOS_DL_LIST *pst
 158:e:\liteos\liteos\kernel\include\los_list.h **** {
 159:e:\liteos\liteos\kernel\include\los_list.h ****     LOS_ListAdd(pstList->pstPrev, pstNode);
  86              		.loc 2 159 0 discriminator 3
  87 003a 0A49     		ldr	r1, .L6+8
  88 003c 0968     		ldr	r1, [r1]
  89              	.LVL6:
  90              	.LBB44:
  91              	.LBB45:
 131:e:\liteos\liteos\kernel\include\los_list.h ****     pstNode->pstPrev = pstList;
  92              		.loc 2 131 0 discriminator 3
  93 003e 4C68     		ldr	r4, [r1, #4]
  94 0040 1C62     		str	r4, [r3, #32]
ARM GAS  C:\Users\WANGBI~1\AppData\Local\Temp\ccac8q5z.s 			page 7


 132:e:\liteos\liteos\kernel\include\los_list.h ****     pstList->pstNext->pstPrev = pstNode;
  95              		.loc 2 132 0 discriminator 3
  96 0042 D961     		str	r1, [r3, #28]
 133:e:\liteos\liteos\kernel\include\los_list.h ****     pstList->pstNext = pstNode;
  97              		.loc 2 133 0 discriminator 3
  98 0044 4B68     		ldr	r3, [r1, #4]
  99              	.LVL7:
 100 0046 1860     		str	r0, [r3]
 134:e:\liteos\liteos\kernel\include\los_list.h **** }
 101              		.loc 2 134 0 discriminator 3
 102 0048 4860     		str	r0, [r1, #4]
 103              	.LVL8:
 104              	.LBE45:
 105              	.LBE44:
 106              	.LBE43:
 107              	.LBE42:
  85:e:/LiteOS/LiteOS/targets/Cloud_FM33A0XX/GCC/../../../kernel/base/ipc\los_queue.c ****     {
 108              		.loc 1 85 0 discriminator 3
 109 004a 0132     		adds	r2, r2, #1
 110              	.LVL9:
 111 004c 92B2     		uxth	r2, r2
 112              	.LVL10:
 113              	.L3:
  85:e:/LiteOS/LiteOS/targets/Cloud_FM33A0XX/GCC/../../../kernel/base/ipc\los_queue.c ****     {
 114              		.loc 1 85 0 is_stmt 0 discriminator 1
 115 004e 092A     		cmp	r2, #9
 116 0050 EBD9     		bls	.L4
  90:e:/LiteOS/LiteOS/targets/Cloud_FM33A0XX/GCC/../../../kernel/base/ipc\los_queue.c ****     }
  91:e:/LiteOS/LiteOS/targets/Cloud_FM33A0XX/GCC/../../../kernel/base/ipc\los_queue.c **** 
  92:e:/LiteOS/LiteOS/targets/Cloud_FM33A0XX/GCC/../../../kernel/base/ipc\los_queue.c **** #if ((LOSCFG_PLATFORM_EXC == YES) && (LOSCFG_SAVE_EXC_INFO == YES))
  93:e:/LiteOS/LiteOS/targets/Cloud_FM33A0XX/GCC/../../../kernel/base/ipc\los_queue.c ****     g_uwExcQueueMaxNum = LOSCFG_BASE_IPC_QUEUE_LIMIT;
  94:e:/LiteOS/LiteOS/targets/Cloud_FM33A0XX/GCC/../../../kernel/base/ipc\los_queue.c ****     osExcRegister(OS_EXC_TYPE_QUE, (EXC_INFO_SAVE_CALLBACK)LOS_QueueInfoGet, &g_uwExcQueueMaxNum);
  95:e:/LiteOS/LiteOS/targets/Cloud_FM33A0XX/GCC/../../../kernel/base/ipc\los_queue.c **** #endif
  96:e:/LiteOS/LiteOS/targets/Cloud_FM33A0XX/GCC/../../../kernel/base/ipc\los_queue.c **** 
  97:e:/LiteOS/LiteOS/targets/Cloud_FM33A0XX/GCC/../../../kernel/base/ipc\los_queue.c ****     return LOS_OK;
 117              		.loc 1 97 0 is_stmt 1
 118 0052 0020     		movs	r0, #0
 119 0054 00E0     		b	.L2
 120              	.LVL11:
 121              	.L5:
  79:e:/LiteOS/LiteOS/targets/Cloud_FM33A0XX/GCC/../../../kernel/base/ipc\los_queue.c ****     }
 122              		.loc 1 79 0
 123 0056 0448     		ldr	r0, .L6+12
 124              	.L2:
  98:e:/LiteOS/LiteOS/targets/Cloud_FM33A0XX/GCC/../../../kernel/base/ipc\los_queue.c **** }
 125              		.loc 1 98 0
 126              		@ sp needed
 127 0058 10BD     		pop	{r4, pc}
 128              	.L7:
 129 005a C046     		.align	2
 130              	.L6:
 131 005c 00000000 		.word	m_aucSysMem0
 132 0060 00000000 		.word	g_pstAllQueue
 133 0064 00000000 		.word	g_stFreeQueueList
 134 0068 01060002 		.word	33555969
 135              		.cfi_endproc
 136              	.LFE43:
ARM GAS  C:\Users\WANGBI~1\AppData\Local\Temp\ccac8q5z.s 			page 8


 138              		.section	.text.LOS_QueueCreate,"ax",%progbits
 139              		.align	2
 140              		.global	LOS_QueueCreate
 141              		.code	16
 142              		.thumb_func
 144              	LOS_QueueCreate:
 145              	.LFB44:
  99:e:/LiteOS/LiteOS/targets/Cloud_FM33A0XX/GCC/../../../kernel/base/ipc\los_queue.c **** 
 100:e:/LiteOS/LiteOS/targets/Cloud_FM33A0XX/GCC/../../../kernel/base/ipc\los_queue.c **** /*****************************************************************************
 101:e:/LiteOS/LiteOS/targets/Cloud_FM33A0XX/GCC/../../../kernel/base/ipc\los_queue.c ****  Function    : LOS_QueueCreate
 102:e:/LiteOS/LiteOS/targets/Cloud_FM33A0XX/GCC/../../../kernel/base/ipc\los_queue.c ****  Description : Create a queue
 103:e:/LiteOS/LiteOS/targets/Cloud_FM33A0XX/GCC/../../../kernel/base/ipc\los_queue.c ****  Input       : pcQueueName  --- Queue name, less than 4 characters
 104:e:/LiteOS/LiteOS/targets/Cloud_FM33A0XX/GCC/../../../kernel/base/ipc\los_queue.c ****                usLen        --- Queue lenth
 105:e:/LiteOS/LiteOS/targets/Cloud_FM33A0XX/GCC/../../../kernel/base/ipc\los_queue.c ****                uwFlags      --- Queue type, FIFO or PRIO
 106:e:/LiteOS/LiteOS/targets/Cloud_FM33A0XX/GCC/../../../kernel/base/ipc\los_queue.c ****                usMaxMsgSize --- Maximum message size in byte
 107:e:/LiteOS/LiteOS/targets/Cloud_FM33A0XX/GCC/../../../kernel/base/ipc\los_queue.c ****  Output      : puwQueueID   --- Queue ID
 108:e:/LiteOS/LiteOS/targets/Cloud_FM33A0XX/GCC/../../../kernel/base/ipc\los_queue.c ****  Return      : LOS_OK on success or error code on failure
 109:e:/LiteOS/LiteOS/targets/Cloud_FM33A0XX/GCC/../../../kernel/base/ipc\los_queue.c ****  *****************************************************************************/
 110:e:/LiteOS/LiteOS/targets/Cloud_FM33A0XX/GCC/../../../kernel/base/ipc\los_queue.c **** LITE_OS_SEC_TEXT_INIT UINT32 LOS_QueueCreate(CHAR *pcQueueName,
 111:e:/LiteOS/LiteOS/targets/Cloud_FM33A0XX/GCC/../../../kernel/base/ipc\los_queue.c ****                                           UINT16 usLen,
 112:e:/LiteOS/LiteOS/targets/Cloud_FM33A0XX/GCC/../../../kernel/base/ipc\los_queue.c ****                                           UINT32 *puwQueueID,
 113:e:/LiteOS/LiteOS/targets/Cloud_FM33A0XX/GCC/../../../kernel/base/ipc\los_queue.c ****                                           UINT32 uwFlags,
 114:e:/LiteOS/LiteOS/targets/Cloud_FM33A0XX/GCC/../../../kernel/base/ipc\los_queue.c ****                                           UINT16 usMaxMsgSize )
 115:e:/LiteOS/LiteOS/targets/Cloud_FM33A0XX/GCC/../../../kernel/base/ipc\los_queue.c **** {
 146              		.loc 1 115 0
 147              		.cfi_startproc
 148              		@ args = 4, pretend = 0, frame = 0
 149              		@ frame_needed = 0, uses_anonymous_args = 0
 150              	.LVL12:
 151 0000 F0B5     		push	{r4, r5, r6, r7, lr}
 152              	.LCFI1:
 153              		.cfi_def_cfa_offset 20
 154              		.cfi_offset 4, -20
 155              		.cfi_offset 5, -16
 156              		.cfi_offset 6, -12
 157              		.cfi_offset 7, -8
 158              		.cfi_offset 14, -4
 159 0002 4746     		mov	r7, r8
 160 0004 80B4     		push	{r7}
 161              	.LCFI2:
 162              		.cfi_def_cfa_offset 24
 163              		.cfi_offset 8, -24
 164 0006 0D00     		movs	r5, r1
 165 0008 1600     		movs	r6, r2
 166 000a 06AB     		add	r3, sp, #24
 167              	.LVL13:
 168 000c 1B88     		ldrh	r3, [r3]
 169              	.LVL14:
 116:e:/LiteOS/LiteOS/targets/Cloud_FM33A0XX/GCC/../../../kernel/base/ipc\los_queue.c ****     QUEUE_CB_S      *pstQueueCB;
 117:e:/LiteOS/LiteOS/targets/Cloud_FM33A0XX/GCC/../../../kernel/base/ipc\los_queue.c ****     UINTPTR         uvIntSave;
 118:e:/LiteOS/LiteOS/targets/Cloud_FM33A0XX/GCC/../../../kernel/base/ipc\los_queue.c ****     LOS_DL_LIST     *pstUnusedQueue;
 119:e:/LiteOS/LiteOS/targets/Cloud_FM33A0XX/GCC/../../../kernel/base/ipc\los_queue.c ****     UINT8           *pucQueue;
 120:e:/LiteOS/LiteOS/targets/Cloud_FM33A0XX/GCC/../../../kernel/base/ipc\los_queue.c ****     UINT16          usMsgSize = usMaxMsgSize + sizeof(UINT32);
 170              		.loc 1 120 0
 171 000e 1A1D     		adds	r2, r3, #4
 172              	.LVL15:
 173 0010 94B2     		uxth	r4, r2
ARM GAS  C:\Users\WANGBI~1\AppData\Local\Temp\ccac8q5z.s 			page 9


 174              	.LVL16:
 121:e:/LiteOS/LiteOS/targets/Cloud_FM33A0XX/GCC/../../../kernel/base/ipc\los_queue.c **** 
 122:e:/LiteOS/LiteOS/targets/Cloud_FM33A0XX/GCC/../../../kernel/base/ipc\los_queue.c ****     (VOID)pcQueueName;
 123:e:/LiteOS/LiteOS/targets/Cloud_FM33A0XX/GCC/../../../kernel/base/ipc\los_queue.c ****     (VOID)uwFlags;
 124:e:/LiteOS/LiteOS/targets/Cloud_FM33A0XX/GCC/../../../kernel/base/ipc\los_queue.c **** 
 125:e:/LiteOS/LiteOS/targets/Cloud_FM33A0XX/GCC/../../../kernel/base/ipc\los_queue.c ****     if (NULL == puwQueueID)
 175              		.loc 1 125 0
 176 0012 002E     		cmp	r6, #0
 177 0014 40D0     		beq	.L11
 126:e:/LiteOS/LiteOS/targets/Cloud_FM33A0XX/GCC/../../../kernel/base/ipc\los_queue.c ****     {
 127:e:/LiteOS/LiteOS/targets/Cloud_FM33A0XX/GCC/../../../kernel/base/ipc\los_queue.c ****         return LOS_ERRNO_QUEUE_CREAT_PTR_NULL;
 128:e:/LiteOS/LiteOS/targets/Cloud_FM33A0XX/GCC/../../../kernel/base/ipc\los_queue.c ****     }
 129:e:/LiteOS/LiteOS/targets/Cloud_FM33A0XX/GCC/../../../kernel/base/ipc\los_queue.c **** 
 130:e:/LiteOS/LiteOS/targets/Cloud_FM33A0XX/GCC/../../../kernel/base/ipc\los_queue.c ****     if(usMaxMsgSize > OS_NULL_SHORT -4)
 178              		.loc 1 130 0
 179 0016 264A     		ldr	r2, .L16
 180 0018 9342     		cmp	r3, r2
 181 001a 3FD8     		bhi	.L12
 131:e:/LiteOS/LiteOS/targets/Cloud_FM33A0XX/GCC/../../../kernel/base/ipc\los_queue.c ****     {
 132:e:/LiteOS/LiteOS/targets/Cloud_FM33A0XX/GCC/../../../kernel/base/ipc\los_queue.c ****         return LOS_ERRNO_QUEUE_SIZE_TOO_BIG;
 133:e:/LiteOS/LiteOS/targets/Cloud_FM33A0XX/GCC/../../../kernel/base/ipc\los_queue.c ****     }
 134:e:/LiteOS/LiteOS/targets/Cloud_FM33A0XX/GCC/../../../kernel/base/ipc\los_queue.c **** 
 135:e:/LiteOS/LiteOS/targets/Cloud_FM33A0XX/GCC/../../../kernel/base/ipc\los_queue.c ****     if ((0 == usLen) || (0 == usMaxMsgSize))
 182              		.loc 1 135 0
 183 001c 0029     		cmp	r1, #0
 184 001e 3FD0     		beq	.L13
 185              		.loc 1 135 0 is_stmt 0 discriminator 1
 186 0020 002B     		cmp	r3, #0
 187 0022 3FD0     		beq	.L14
 136:e:/LiteOS/LiteOS/targets/Cloud_FM33A0XX/GCC/../../../kernel/base/ipc\los_queue.c ****     {
 137:e:/LiteOS/LiteOS/targets/Cloud_FM33A0XX/GCC/../../../kernel/base/ipc\los_queue.c ****         return LOS_ERRNO_QUEUE_PARA_ISZERO;
 138:e:/LiteOS/LiteOS/targets/Cloud_FM33A0XX/GCC/../../../kernel/base/ipc\los_queue.c ****     }
 139:e:/LiteOS/LiteOS/targets/Cloud_FM33A0XX/GCC/../../../kernel/base/ipc\los_queue.c **** 
 140:e:/LiteOS/LiteOS/targets/Cloud_FM33A0XX/GCC/../../../kernel/base/ipc\los_queue.c ****     /* Memory allocation is time-consuming, to shorten the time of disable interrupt,
 141:e:/LiteOS/LiteOS/targets/Cloud_FM33A0XX/GCC/../../../kernel/base/ipc\los_queue.c ****        move the memory allocation to here. */
 142:e:/LiteOS/LiteOS/targets/Cloud_FM33A0XX/GCC/../../../kernel/base/ipc\los_queue.c ****     pucQueue = (UINT8 *)LOS_MemAlloc(m_aucSysMem0, usLen * usMsgSize);
 188              		.loc 1 142 0 is_stmt 1
 189 0024 234B     		ldr	r3, .L16+4
 190 0026 1868     		ldr	r0, [r3]
 191              	.LVL17:
 192 0028 2100     		movs	r1, r4
 193              	.LVL18:
 194 002a 6943     		muls	r1, r5
 195 002c FFF7FEFF 		bl	LOS_MemAlloc
 196              	.LVL19:
 197 0030 8046     		mov	r8, r0
 198              	.LVL20:
 143:e:/LiteOS/LiteOS/targets/Cloud_FM33A0XX/GCC/../../../kernel/base/ipc\los_queue.c ****     if (NULL == pucQueue)
 199              		.loc 1 143 0
 200 0032 0028     		cmp	r0, #0
 201 0034 38D0     		beq	.L15
 144:e:/LiteOS/LiteOS/targets/Cloud_FM33A0XX/GCC/../../../kernel/base/ipc\los_queue.c ****     {
 145:e:/LiteOS/LiteOS/targets/Cloud_FM33A0XX/GCC/../../../kernel/base/ipc\los_queue.c ****         return LOS_ERRNO_QUEUE_CREATE_NO_MEMORY;
 146:e:/LiteOS/LiteOS/targets/Cloud_FM33A0XX/GCC/../../../kernel/base/ipc\los_queue.c ****     }
 147:e:/LiteOS/LiteOS/targets/Cloud_FM33A0XX/GCC/../../../kernel/base/ipc\los_queue.c **** 
 148:e:/LiteOS/LiteOS/targets/Cloud_FM33A0XX/GCC/../../../kernel/base/ipc\los_queue.c ****     uvIntSave = LOS_IntLock();
 202              		.loc 1 148 0
ARM GAS  C:\Users\WANGBI~1\AppData\Local\Temp\ccac8q5z.s 			page 10


 203 0036 FFF7FEFF 		bl	LOS_IntLock
 204              	.LVL21:
 205              	.LBB46:
 206              	.LBB47:
 160:e:\liteos\liteos\kernel\include\los_list.h **** }
 161:e:\liteos\liteos\kernel\include\los_list.h **** 
 162:e:\liteos\liteos\kernel\include\los_list.h **** /**
 163:e:\liteos\liteos\kernel\include\los_list.h ****  *@ingroup los_list
 164:e:\liteos\liteos\kernel\include\los_list.h ****  *@brief Delete a specified node from a doubly linked list.
 165:e:\liteos\liteos\kernel\include\los_list.h ****  *
 166:e:\liteos\liteos\kernel\include\los_list.h ****  *@par Description:
 167:e:\liteos\liteos\kernel\include\los_list.h ****  *<ul>
 168:e:\liteos\liteos\kernel\include\los_list.h ****  *<li>This API is used to delete a specified node from a doubly linked list.</li>
 169:e:\liteos\liteos\kernel\include\los_list.h ****  *</ul>
 170:e:\liteos\liteos\kernel\include\los_list.h ****  *@attention
 171:e:\liteos\liteos\kernel\include\los_list.h ****  *<ul>
 172:e:\liteos\liteos\kernel\include\los_list.h ****  *<li>The parameter passed in should be ensured to be a legal pointer.</li>
 173:e:\liteos\liteos\kernel\include\los_list.h ****  *</ul>
 174:e:\liteos\liteos\kernel\include\los_list.h ****  *
 175:e:\liteos\liteos\kernel\include\los_list.h ****  *@param pstNode    [IN] Node to be deleted.
 176:e:\liteos\liteos\kernel\include\los_list.h ****  *
 177:e:\liteos\liteos\kernel\include\los_list.h ****  *@retval None.
 178:e:\liteos\liteos\kernel\include\los_list.h ****  *@par Dependency:
 179:e:\liteos\liteos\kernel\include\los_list.h ****  *<ul><li>los_list.h: the header file that contains the API declaration.</li></ul>
 180:e:\liteos\liteos\kernel\include\los_list.h ****  *@see LOS_ListAdd
 181:e:\liteos\liteos\kernel\include\los_list.h ****  *@since Huawei LiteOS V100R001C00
 182:e:\liteos\liteos\kernel\include\los_list.h ****  */
 183:e:\liteos\liteos\kernel\include\los_list.h **** LITE_OS_SEC_ALW_INLINE STATIC_INLINE VOID LOS_ListDelete(LOS_DL_LIST *pstNode)
 184:e:\liteos\liteos\kernel\include\los_list.h **** {
 185:e:\liteos\liteos\kernel\include\los_list.h ****     pstNode->pstNext->pstPrev = pstNode->pstPrev;
 186:e:\liteos\liteos\kernel\include\los_list.h ****     pstNode->pstPrev->pstNext = pstNode->pstNext;
 187:e:\liteos\liteos\kernel\include\los_list.h ****     pstNode->pstNext = (LOS_DL_LIST *)NULL;
 188:e:\liteos\liteos\kernel\include\los_list.h ****     pstNode->pstPrev = (LOS_DL_LIST *)NULL;
 189:e:\liteos\liteos\kernel\include\los_list.h **** }
 190:e:\liteos\liteos\kernel\include\los_list.h **** 
 191:e:\liteos\liteos\kernel\include\los_list.h **** /**
 192:e:\liteos\liteos\kernel\include\los_list.h ****  *@ingroup los_list
 193:e:\liteos\liteos\kernel\include\los_list.h ****  *@brief Identify whether a specified doubly linked list is empty.
 194:e:\liteos\liteos\kernel\include\los_list.h ****  *
 195:e:\liteos\liteos\kernel\include\los_list.h ****  *@par Description:
 196:e:\liteos\liteos\kernel\include\los_list.h ****  *<ul>
 197:e:\liteos\liteos\kernel\include\los_list.h ****  *<li>This API is used to return whether a doubly linked list is empty.</li>
 198:e:\liteos\liteos\kernel\include\los_list.h ****  *</ul>
 199:e:\liteos\liteos\kernel\include\los_list.h ****  *@attention
 200:e:\liteos\liteos\kernel\include\los_list.h ****  *<ul>
 201:e:\liteos\liteos\kernel\include\los_list.h ****  *<li>The parameter passed in should be ensured to be a legal pointer.</li>
 202:e:\liteos\liteos\kernel\include\los_list.h ****  *</ul>
 203:e:\liteos\liteos\kernel\include\los_list.h ****  *
 204:e:\liteos\liteos\kernel\include\los_list.h ****  *@param pstList  [IN] Doubly linked list.
 205:e:\liteos\liteos\kernel\include\los_list.h ****  *
 206:e:\liteos\liteos\kernel\include\los_list.h ****  *@retval TRUE The doubly linked list is empty.
 207:e:\liteos\liteos\kernel\include\los_list.h ****  *@retval FALSE The doubly linked list is not empty.
 208:e:\liteos\liteos\kernel\include\los_list.h ****  *@par Dependency:
 209:e:\liteos\liteos\kernel\include\los_list.h ****  *<ul><li>los_list.h: the header file that contains the API declaration.</li></ul>
 210:e:\liteos\liteos\kernel\include\los_list.h ****  *@see
 211:e:\liteos\liteos\kernel\include\los_list.h ****  *@since Huawei LiteOS V100R001C00
 212:e:\liteos\liteos\kernel\include\los_list.h ****  */
ARM GAS  C:\Users\WANGBI~1\AppData\Local\Temp\ccac8q5z.s 			page 11


 213:e:\liteos\liteos\kernel\include\los_list.h **** LITE_OS_SEC_ALW_INLINE STATIC_INLINE BOOL LOS_ListEmpty(LOS_DL_LIST *pstNode)
 214:e:\liteos\liteos\kernel\include\los_list.h **** {
 215:e:\liteos\liteos\kernel\include\los_list.h ****     return (BOOL)(pstNode->pstNext == pstNode);
 207              		.loc 2 215 0
 208 003a 1F4A     		ldr	r2, .L16+8
 209 003c 5368     		ldr	r3, [r2, #4]
 210              	.LVL22:
 211              	.LBE47:
 212              	.LBE46:
 149:e:/LiteOS/LiteOS/targets/Cloud_FM33A0XX/GCC/../../../kernel/base/ipc\los_queue.c ****     if (LOS_ListEmpty(&g_stFreeQueueList))
 213              		.loc 1 149 0
 214 003e 9342     		cmp	r3, r2
 215 0040 08D1     		bne	.L10
 150:e:/LiteOS/LiteOS/targets/Cloud_FM33A0XX/GCC/../../../kernel/base/ipc\los_queue.c ****     {
 151:e:/LiteOS/LiteOS/targets/Cloud_FM33A0XX/GCC/../../../kernel/base/ipc\los_queue.c ****         LOS_IntRestore(uvIntSave);
 216              		.loc 1 151 0
 217 0042 FFF7FEFF 		bl	LOS_IntRestore
 218              	.LVL23:
 152:e:/LiteOS/LiteOS/targets/Cloud_FM33A0XX/GCC/../../../kernel/base/ipc\los_queue.c ****         (VOID)LOS_MemFree(m_aucSysMem0, pucQueue);
 219              		.loc 1 152 0
 220 0046 1B4B     		ldr	r3, .L16+4
 221 0048 1868     		ldr	r0, [r3]
 222 004a 4146     		mov	r1, r8
 223 004c FFF7FEFF 		bl	LOS_MemFree
 224              	.LVL24:
 153:e:/LiteOS/LiteOS/targets/Cloud_FM33A0XX/GCC/../../../kernel/base/ipc\los_queue.c ****         return LOS_ERRNO_QUEUE_CB_UNAVAILABLE;
 225              		.loc 1 153 0
 226 0050 1A48     		ldr	r0, .L16+12
 227 0052 2AE0     		b	.L9
 228              	.LVL25:
 229              	.L10:
 230              	.LBB48:
 231              	.LBB49:
 185:e:\liteos\liteos\kernel\include\los_list.h ****     pstNode->pstPrev->pstNext = pstNode->pstNext;
 232              		.loc 2 185 0
 233 0054 5A68     		ldr	r2, [r3, #4]
 234 0056 1968     		ldr	r1, [r3]
 235 0058 1160     		str	r1, [r2]
 186:e:\liteos\liteos\kernel\include\los_list.h ****     pstNode->pstNext = (LOS_DL_LIST *)NULL;
 236              		.loc 2 186 0
 237 005a 1A68     		ldr	r2, [r3]
 238 005c 5968     		ldr	r1, [r3, #4]
 239 005e 5160     		str	r1, [r2, #4]
 187:e:\liteos\liteos\kernel\include\los_list.h ****     pstNode->pstPrev = (LOS_DL_LIST *)NULL;
 240              		.loc 2 187 0
 241 0060 0022     		movs	r2, #0
 242              	.LVL26:
 243              	.LBE49:
 244              	.LBE48:
 154:e:/LiteOS/LiteOS/targets/Cloud_FM33A0XX/GCC/../../../kernel/base/ipc\los_queue.c ****     }
 155:e:/LiteOS/LiteOS/targets/Cloud_FM33A0XX/GCC/../../../kernel/base/ipc\los_queue.c **** 
 156:e:/LiteOS/LiteOS/targets/Cloud_FM33A0XX/GCC/../../../kernel/base/ipc\los_queue.c ****     pstUnusedQueue = LOS_DL_LIST_FIRST(&(g_stFreeQueueList));
 157:e:/LiteOS/LiteOS/targets/Cloud_FM33A0XX/GCC/../../../kernel/base/ipc\los_queue.c ****     LOS_ListDelete(pstUnusedQueue);
 158:e:/LiteOS/LiteOS/targets/Cloud_FM33A0XX/GCC/../../../kernel/base/ipc\los_queue.c ****     pstQueueCB = (GET_QUEUE_LIST(pstUnusedQueue));
 159:e:/LiteOS/LiteOS/targets/Cloud_FM33A0XX/GCC/../../../kernel/base/ipc\los_queue.c ****     pstQueueCB->usQueueLen = usLen;
 245              		.loc 1 159 0
 246 0062 1F00     		movs	r7, r3
ARM GAS  C:\Users\WANGBI~1\AppData\Local\Temp\ccac8q5z.s 			page 12


 247 0064 1C3F     		subs	r7, r7, #28
 248              	.LVL27:
 249 0066 FD80     		strh	r5, [r7, #6]
 160:e:/LiteOS/LiteOS/targets/Cloud_FM33A0XX/GCC/../../../kernel/base/ipc\los_queue.c ****     pstQueueCB->usQueueSize = usMsgSize;
 250              		.loc 1 160 0
 251 0068 3C81     		strh	r4, [r7, #8]
 161:e:/LiteOS/LiteOS/targets/Cloud_FM33A0XX/GCC/../../../kernel/base/ipc\los_queue.c ****     pstQueueCB->pucQueue = pucQueue;
 252              		.loc 1 161 0
 253 006a 4146     		mov	r1, r8
 254 006c 3960     		str	r1, [r7]
 162:e:/LiteOS/LiteOS/targets/Cloud_FM33A0XX/GCC/../../../kernel/base/ipc\los_queue.c ****     pstQueueCB->usQueueState = OS_QUEUE_INUSED;
 255              		.loc 1 162 0
 256 006e 0121     		movs	r1, #1
 257 0070 B980     		strh	r1, [r7, #4]
 163:e:/LiteOS/LiteOS/targets/Cloud_FM33A0XX/GCC/../../../kernel/base/ipc\los_queue.c ****     pstQueueCB->usReadWriteableCnt[OS_QUEUE_READ]  = 0;
 258              		.loc 1 163 0
 259 0072 3A82     		strh	r2, [r7, #16]
 164:e:/LiteOS/LiteOS/targets/Cloud_FM33A0XX/GCC/../../../kernel/base/ipc\los_queue.c ****     pstQueueCB->usReadWriteableCnt[OS_QUEUE_WRITE] = usLen;
 260              		.loc 1 164 0
 261 0074 7D82     		strh	r5, [r7, #18]
 165:e:/LiteOS/LiteOS/targets/Cloud_FM33A0XX/GCC/../../../kernel/base/ipc\los_queue.c ****     pstQueueCB->usQueueHead = 0;
 262              		.loc 1 165 0
 263 0076 BA81     		strh	r2, [r7, #12]
 166:e:/LiteOS/LiteOS/targets/Cloud_FM33A0XX/GCC/../../../kernel/base/ipc\los_queue.c ****     pstQueueCB->usQueueTail = 0;
 264              		.loc 1 166 0
 265 0078 FA81     		strh	r2, [r7, #14]
 167:e:/LiteOS/LiteOS/targets/Cloud_FM33A0XX/GCC/../../../kernel/base/ipc\los_queue.c ****     LOS_ListInit(&pstQueueCB->stReadWriteList[OS_QUEUE_READ]);
 266              		.loc 1 167 0
 267 007a 1A00     		movs	r2, r3
 268 007c 083A     		subs	r2, r2, #8
 269              	.LVL28:
 270              	.LBB50:
 271              	.LBB51:
  82:e:\liteos\liteos\kernel\include\los_list.h ****     pstList->pstPrev = pstList;
 272              		.loc 2 82 0
 273 007e 5260     		str	r2, [r2, #4]
  83:e:\liteos\liteos\kernel\include\los_list.h **** }
 274              		.loc 2 83 0
 275 0080 1260     		str	r2, [r2]
 276              	.LVL29:
 277              	.LBE51:
 278              	.LBE50:
 279              	.LBB52:
 280              	.LBB53:
  82:e:\liteos\liteos\kernel\include\los_list.h ****     pstList->pstPrev = pstList;
 281              		.loc 2 82 0
 282 0082 5B60     		str	r3, [r3, #4]
  83:e:\liteos\liteos\kernel\include\los_list.h **** }
 283              		.loc 2 83 0
 284 0084 1B60     		str	r3, [r3]
 285              	.LVL30:
 286              	.LBE53:
 287              	.LBE52:
 168:e:/LiteOS/LiteOS/targets/Cloud_FM33A0XX/GCC/../../../kernel/base/ipc\los_queue.c ****     LOS_ListInit(&pstQueueCB->stReadWriteList[OS_QUEUE_WRITE]);
 169:e:/LiteOS/LiteOS/targets/Cloud_FM33A0XX/GCC/../../../kernel/base/ipc\los_queue.c ****     LOS_ListInit(&pstQueueCB->stMemList);
 288              		.loc 1 169 0
 289 0086 1032     		adds	r2, r2, #16
ARM GAS  C:\Users\WANGBI~1\AppData\Local\Temp\ccac8q5z.s 			page 13


 290              	.LVL31:
 291              	.LBB54:
 292              	.LBB55:
  82:e:\liteos\liteos\kernel\include\los_list.h ****     pstList->pstPrev = pstList;
 293              		.loc 2 82 0
 294 0088 DA60     		str	r2, [r3, #12]
  83:e:\liteos\liteos\kernel\include\los_list.h **** }
 295              		.loc 2 83 0
 296 008a 9A60     		str	r2, [r3, #8]
 297              	.LVL32:
 298              	.LBE55:
 299              	.LBE54:
 170:e:/LiteOS/LiteOS/targets/Cloud_FM33A0XX/GCC/../../../kernel/base/ipc\los_queue.c ****     LOS_IntRestore(uvIntSave);
 300              		.loc 1 170 0
 301 008c FFF7FEFF 		bl	LOS_IntRestore
 302              	.LVL33:
 171:e:/LiteOS/LiteOS/targets/Cloud_FM33A0XX/GCC/../../../kernel/base/ipc\los_queue.c **** 
 172:e:/LiteOS/LiteOS/targets/Cloud_FM33A0XX/GCC/../../../kernel/base/ipc\los_queue.c ****     *puwQueueID = pstQueueCB->usQueueID;
 303              		.loc 1 172 0
 304 0090 7B89     		ldrh	r3, [r7, #10]
 305 0092 3360     		str	r3, [r6]
 173:e:/LiteOS/LiteOS/targets/Cloud_FM33A0XX/GCC/../../../kernel/base/ipc\los_queue.c **** 
 174:e:/LiteOS/LiteOS/targets/Cloud_FM33A0XX/GCC/../../../kernel/base/ipc\los_queue.c ****     return LOS_OK;
 306              		.loc 1 174 0
 307 0094 0020     		movs	r0, #0
 308 0096 08E0     		b	.L9
 309              	.LVL34:
 310              	.L11:
 127:e:/LiteOS/LiteOS/targets/Cloud_FM33A0XX/GCC/../../../kernel/base/ipc\los_queue.c ****     }
 311              		.loc 1 127 0
 312 0098 0948     		ldr	r0, .L16+16
 313              	.LVL35:
 314 009a 06E0     		b	.L9
 315              	.LVL36:
 316              	.L12:
 132:e:/LiteOS/LiteOS/targets/Cloud_FM33A0XX/GCC/../../../kernel/base/ipc\los_queue.c ****     }
 317              		.loc 1 132 0
 318 009c 0948     		ldr	r0, .L16+20
 319              	.LVL37:
 320 009e 04E0     		b	.L9
 321              	.LVL38:
 322              	.L13:
 137:e:/LiteOS/LiteOS/targets/Cloud_FM33A0XX/GCC/../../../kernel/base/ipc\los_queue.c ****     }
 323              		.loc 1 137 0
 324 00a0 0948     		ldr	r0, .L16+24
 325              	.LVL39:
 326 00a2 02E0     		b	.L9
 327              	.LVL40:
 328              	.L14:
 329 00a4 0848     		ldr	r0, .L16+24
 330              	.LVL41:
 331 00a6 00E0     		b	.L9
 332              	.LVL42:
 333              	.L15:
 145:e:/LiteOS/LiteOS/targets/Cloud_FM33A0XX/GCC/../../../kernel/base/ipc\los_queue.c ****     }
 334              		.loc 1 145 0
 335 00a8 0848     		ldr	r0, .L16+28
ARM GAS  C:\Users\WANGBI~1\AppData\Local\Temp\ccac8q5z.s 			page 14


 336              	.LVL43:
 337              	.L9:
 175:e:/LiteOS/LiteOS/targets/Cloud_FM33A0XX/GCC/../../../kernel/base/ipc\los_queue.c **** }
 338              		.loc 1 175 0
 339              		@ sp needed
 340              	.LVL44:
 341              	.LVL45:
 342 00aa 04BC     		pop	{r2}
 343 00ac 9046     		mov	r8, r2
 344 00ae F0BD     		pop	{r4, r5, r6, r7, pc}
 345              	.L17:
 346              		.align	2
 347              	.L16:
 348 00b0 FBFF0000 		.word	65531
 349 00b4 00000000 		.word	m_aucSysMem0
 350 00b8 00000000 		.word	g_stFreeQueueList
 351 00bc 04060002 		.word	33555972
 352 00c0 0C060002 		.word	33555980
 353 00c4 03060002 		.word	33555971
 354 00c8 0D060002 		.word	33555981
 355 00cc 02060002 		.word	33555970
 356              		.cfi_endproc
 357              	.LFE44:
 359              		.section	.text.osQueueOperate,"ax",%progbits
 360              		.align	2
 361              		.global	osQueueOperate
 362              		.code	16
 363              		.thumb_func
 365              	osQueueOperate:
 366              	.LFB48:
 176:e:/LiteOS/LiteOS/targets/Cloud_FM33A0XX/GCC/../../../kernel/base/ipc\los_queue.c **** 
 177:e:/LiteOS/LiteOS/targets/Cloud_FM33A0XX/GCC/../../../kernel/base/ipc\los_queue.c **** LITE_OS_SEC_TEXT static INLINE UINT32 osQueueReadParameterCheck(UINT32 uwQueueID, VOID *pBufferAddr
 178:e:/LiteOS/LiteOS/targets/Cloud_FM33A0XX/GCC/../../../kernel/base/ipc\los_queue.c **** {
 179:e:/LiteOS/LiteOS/targets/Cloud_FM33A0XX/GCC/../../../kernel/base/ipc\los_queue.c ****     if (uwQueueID >= LOSCFG_BASE_IPC_QUEUE_LIMIT)
 180:e:/LiteOS/LiteOS/targets/Cloud_FM33A0XX/GCC/../../../kernel/base/ipc\los_queue.c ****     {
 181:e:/LiteOS/LiteOS/targets/Cloud_FM33A0XX/GCC/../../../kernel/base/ipc\los_queue.c ****         return LOS_ERRNO_QUEUE_INVALID;
 182:e:/LiteOS/LiteOS/targets/Cloud_FM33A0XX/GCC/../../../kernel/base/ipc\los_queue.c ****     }
 183:e:/LiteOS/LiteOS/targets/Cloud_FM33A0XX/GCC/../../../kernel/base/ipc\los_queue.c ****     if ((NULL == pBufferAddr) || (NULL == puwBufferSize))
 184:e:/LiteOS/LiteOS/targets/Cloud_FM33A0XX/GCC/../../../kernel/base/ipc\los_queue.c ****     {
 185:e:/LiteOS/LiteOS/targets/Cloud_FM33A0XX/GCC/../../../kernel/base/ipc\los_queue.c ****         return LOS_ERRNO_QUEUE_READ_PTR_NULL;
 186:e:/LiteOS/LiteOS/targets/Cloud_FM33A0XX/GCC/../../../kernel/base/ipc\los_queue.c ****     }
 187:e:/LiteOS/LiteOS/targets/Cloud_FM33A0XX/GCC/../../../kernel/base/ipc\los_queue.c **** 
 188:e:/LiteOS/LiteOS/targets/Cloud_FM33A0XX/GCC/../../../kernel/base/ipc\los_queue.c ****     if (0 == *puwBufferSize)
 189:e:/LiteOS/LiteOS/targets/Cloud_FM33A0XX/GCC/../../../kernel/base/ipc\los_queue.c ****     {
 190:e:/LiteOS/LiteOS/targets/Cloud_FM33A0XX/GCC/../../../kernel/base/ipc\los_queue.c ****         return LOS_ERRNO_QUEUE_READSIZE_ISZERO;
 191:e:/LiteOS/LiteOS/targets/Cloud_FM33A0XX/GCC/../../../kernel/base/ipc\los_queue.c ****     }
 192:e:/LiteOS/LiteOS/targets/Cloud_FM33A0XX/GCC/../../../kernel/base/ipc\los_queue.c **** 
 193:e:/LiteOS/LiteOS/targets/Cloud_FM33A0XX/GCC/../../../kernel/base/ipc\los_queue.c ****     if (LOS_NO_WAIT != uwTimeOut)
 194:e:/LiteOS/LiteOS/targets/Cloud_FM33A0XX/GCC/../../../kernel/base/ipc\los_queue.c ****     {
 195:e:/LiteOS/LiteOS/targets/Cloud_FM33A0XX/GCC/../../../kernel/base/ipc\los_queue.c ****         if (OS_INT_ACTIVE)
 196:e:/LiteOS/LiteOS/targets/Cloud_FM33A0XX/GCC/../../../kernel/base/ipc\los_queue.c ****         {
 197:e:/LiteOS/LiteOS/targets/Cloud_FM33A0XX/GCC/../../../kernel/base/ipc\los_queue.c ****             return LOS_ERRNO_QUEUE_READ_IN_INTERRUPT;
 198:e:/LiteOS/LiteOS/targets/Cloud_FM33A0XX/GCC/../../../kernel/base/ipc\los_queue.c ****         }
 199:e:/LiteOS/LiteOS/targets/Cloud_FM33A0XX/GCC/../../../kernel/base/ipc\los_queue.c ****     }
 200:e:/LiteOS/LiteOS/targets/Cloud_FM33A0XX/GCC/../../../kernel/base/ipc\los_queue.c ****     return LOS_OK;
 201:e:/LiteOS/LiteOS/targets/Cloud_FM33A0XX/GCC/../../../kernel/base/ipc\los_queue.c **** }
 202:e:/LiteOS/LiteOS/targets/Cloud_FM33A0XX/GCC/../../../kernel/base/ipc\los_queue.c **** 
ARM GAS  C:\Users\WANGBI~1\AppData\Local\Temp\ccac8q5z.s 			page 15


 203:e:/LiteOS/LiteOS/targets/Cloud_FM33A0XX/GCC/../../../kernel/base/ipc\los_queue.c **** 
 204:e:/LiteOS/LiteOS/targets/Cloud_FM33A0XX/GCC/../../../kernel/base/ipc\los_queue.c **** LITE_OS_SEC_TEXT static INLINE UINT32 osQueueWriteParameterCheck(UINT32 uwQueueID, VOID *pBufferAdd
 205:e:/LiteOS/LiteOS/targets/Cloud_FM33A0XX/GCC/../../../kernel/base/ipc\los_queue.c **** {
 206:e:/LiteOS/LiteOS/targets/Cloud_FM33A0XX/GCC/../../../kernel/base/ipc\los_queue.c ****     if (uwQueueID >= LOSCFG_BASE_IPC_QUEUE_LIMIT)
 207:e:/LiteOS/LiteOS/targets/Cloud_FM33A0XX/GCC/../../../kernel/base/ipc\los_queue.c ****     {
 208:e:/LiteOS/LiteOS/targets/Cloud_FM33A0XX/GCC/../../../kernel/base/ipc\los_queue.c ****         return LOS_ERRNO_QUEUE_INVALID;
 209:e:/LiteOS/LiteOS/targets/Cloud_FM33A0XX/GCC/../../../kernel/base/ipc\los_queue.c ****     }
 210:e:/LiteOS/LiteOS/targets/Cloud_FM33A0XX/GCC/../../../kernel/base/ipc\los_queue.c **** 
 211:e:/LiteOS/LiteOS/targets/Cloud_FM33A0XX/GCC/../../../kernel/base/ipc\los_queue.c ****     if (NULL == pBufferAddr)
 212:e:/LiteOS/LiteOS/targets/Cloud_FM33A0XX/GCC/../../../kernel/base/ipc\los_queue.c ****     {
 213:e:/LiteOS/LiteOS/targets/Cloud_FM33A0XX/GCC/../../../kernel/base/ipc\los_queue.c ****         return LOS_ERRNO_QUEUE_WRITE_PTR_NULL;
 214:e:/LiteOS/LiteOS/targets/Cloud_FM33A0XX/GCC/../../../kernel/base/ipc\los_queue.c ****     }
 215:e:/LiteOS/LiteOS/targets/Cloud_FM33A0XX/GCC/../../../kernel/base/ipc\los_queue.c **** 
 216:e:/LiteOS/LiteOS/targets/Cloud_FM33A0XX/GCC/../../../kernel/base/ipc\los_queue.c ****     if (0 == *puwBufferSize)
 217:e:/LiteOS/LiteOS/targets/Cloud_FM33A0XX/GCC/../../../kernel/base/ipc\los_queue.c ****     {
 218:e:/LiteOS/LiteOS/targets/Cloud_FM33A0XX/GCC/../../../kernel/base/ipc\los_queue.c ****         return LOS_ERRNO_QUEUE_WRITESIZE_ISZERO;
 219:e:/LiteOS/LiteOS/targets/Cloud_FM33A0XX/GCC/../../../kernel/base/ipc\los_queue.c ****     }
 220:e:/LiteOS/LiteOS/targets/Cloud_FM33A0XX/GCC/../../../kernel/base/ipc\los_queue.c **** 
 221:e:/LiteOS/LiteOS/targets/Cloud_FM33A0XX/GCC/../../../kernel/base/ipc\los_queue.c ****     if (LOS_NO_WAIT != uwTimeOut)
 222:e:/LiteOS/LiteOS/targets/Cloud_FM33A0XX/GCC/../../../kernel/base/ipc\los_queue.c ****     {
 223:e:/LiteOS/LiteOS/targets/Cloud_FM33A0XX/GCC/../../../kernel/base/ipc\los_queue.c ****         if (OS_INT_ACTIVE)
 224:e:/LiteOS/LiteOS/targets/Cloud_FM33A0XX/GCC/../../../kernel/base/ipc\los_queue.c ****         {
 225:e:/LiteOS/LiteOS/targets/Cloud_FM33A0XX/GCC/../../../kernel/base/ipc\los_queue.c ****             return LOS_ERRNO_QUEUE_WRITE_IN_INTERRUPT;
 226:e:/LiteOS/LiteOS/targets/Cloud_FM33A0XX/GCC/../../../kernel/base/ipc\los_queue.c ****         }
 227:e:/LiteOS/LiteOS/targets/Cloud_FM33A0XX/GCC/../../../kernel/base/ipc\los_queue.c ****     }
 228:e:/LiteOS/LiteOS/targets/Cloud_FM33A0XX/GCC/../../../kernel/base/ipc\los_queue.c ****     return LOS_OK;
 229:e:/LiteOS/LiteOS/targets/Cloud_FM33A0XX/GCC/../../../kernel/base/ipc\los_queue.c **** }
 230:e:/LiteOS/LiteOS/targets/Cloud_FM33A0XX/GCC/../../../kernel/base/ipc\los_queue.c **** 
 231:e:/LiteOS/LiteOS/targets/Cloud_FM33A0XX/GCC/../../../kernel/base/ipc\los_queue.c **** LITE_OS_SEC_TEXT static INLINE VOID osQueueBufferOperate(QUEUE_CB_S *pstQueueCB, UINT32 uwOperateTy
 232:e:/LiteOS/LiteOS/targets/Cloud_FM33A0XX/GCC/../../../kernel/base/ipc\los_queue.c **** {
 233:e:/LiteOS/LiteOS/targets/Cloud_FM33A0XX/GCC/../../../kernel/base/ipc\los_queue.c ****     UINT8        *pucQueueNode;
 234:e:/LiteOS/LiteOS/targets/Cloud_FM33A0XX/GCC/../../../kernel/base/ipc\los_queue.c ****     UINT32       uwMsgDataSize = 0;
 235:e:/LiteOS/LiteOS/targets/Cloud_FM33A0XX/GCC/../../../kernel/base/ipc\los_queue.c ****     UINT16      usQueuePosion = 0;
 236:e:/LiteOS/LiteOS/targets/Cloud_FM33A0XX/GCC/../../../kernel/base/ipc\los_queue.c **** 
 237:e:/LiteOS/LiteOS/targets/Cloud_FM33A0XX/GCC/../../../kernel/base/ipc\los_queue.c ****     /* get the queue position */
 238:e:/LiteOS/LiteOS/targets/Cloud_FM33A0XX/GCC/../../../kernel/base/ipc\los_queue.c ****     switch (OS_QUEUE_OPERATE_GET(uwOperateType))
 239:e:/LiteOS/LiteOS/targets/Cloud_FM33A0XX/GCC/../../../kernel/base/ipc\los_queue.c ****     {
 240:e:/LiteOS/LiteOS/targets/Cloud_FM33A0XX/GCC/../../../kernel/base/ipc\los_queue.c ****         case OS_QUEUE_READ_HEAD:
 241:e:/LiteOS/LiteOS/targets/Cloud_FM33A0XX/GCC/../../../kernel/base/ipc\los_queue.c ****             usQueuePosion = pstQueueCB->usQueueHead;
 242:e:/LiteOS/LiteOS/targets/Cloud_FM33A0XX/GCC/../../../kernel/base/ipc\los_queue.c ****             (pstQueueCB->usQueueHead + 1 == pstQueueCB->usQueueLen) ? (pstQueueCB->usQueueHead = 0)
 243:e:/LiteOS/LiteOS/targets/Cloud_FM33A0XX/GCC/../../../kernel/base/ipc\los_queue.c ****             break;
 244:e:/LiteOS/LiteOS/targets/Cloud_FM33A0XX/GCC/../../../kernel/base/ipc\los_queue.c **** 
 245:e:/LiteOS/LiteOS/targets/Cloud_FM33A0XX/GCC/../../../kernel/base/ipc\los_queue.c ****         case OS_QUEUE_WRITE_HEAD:
 246:e:/LiteOS/LiteOS/targets/Cloud_FM33A0XX/GCC/../../../kernel/base/ipc\los_queue.c ****             (0 == pstQueueCB->usQueueHead) ? (pstQueueCB->usQueueHead = pstQueueCB->usQueueLen - 1)
 247:e:/LiteOS/LiteOS/targets/Cloud_FM33A0XX/GCC/../../../kernel/base/ipc\los_queue.c ****             usQueuePosion = pstQueueCB->usQueueHead;
 248:e:/LiteOS/LiteOS/targets/Cloud_FM33A0XX/GCC/../../../kernel/base/ipc\los_queue.c ****             break;
 249:e:/LiteOS/LiteOS/targets/Cloud_FM33A0XX/GCC/../../../kernel/base/ipc\los_queue.c **** 
 250:e:/LiteOS/LiteOS/targets/Cloud_FM33A0XX/GCC/../../../kernel/base/ipc\los_queue.c ****         case OS_QUEUE_WRITE_TAIL :
 251:e:/LiteOS/LiteOS/targets/Cloud_FM33A0XX/GCC/../../../kernel/base/ipc\los_queue.c ****             usQueuePosion = pstQueueCB->usQueueTail;
 252:e:/LiteOS/LiteOS/targets/Cloud_FM33A0XX/GCC/../../../kernel/base/ipc\los_queue.c ****             (pstQueueCB->usQueueTail + 1 == pstQueueCB->usQueueLen) ? (pstQueueCB->usQueueTail = 0)
 253:e:/LiteOS/LiteOS/targets/Cloud_FM33A0XX/GCC/../../../kernel/base/ipc\los_queue.c ****             break;
 254:e:/LiteOS/LiteOS/targets/Cloud_FM33A0XX/GCC/../../../kernel/base/ipc\los_queue.c **** 
 255:e:/LiteOS/LiteOS/targets/Cloud_FM33A0XX/GCC/../../../kernel/base/ipc\los_queue.c ****         default: //read tail , reserved.
 256:e:/LiteOS/LiteOS/targets/Cloud_FM33A0XX/GCC/../../../kernel/base/ipc\los_queue.c ****             PRINT_ERR("invalid queue operate type!\n");
 257:e:/LiteOS/LiteOS/targets/Cloud_FM33A0XX/GCC/../../../kernel/base/ipc\los_queue.c ****             return;
 258:e:/LiteOS/LiteOS/targets/Cloud_FM33A0XX/GCC/../../../kernel/base/ipc\los_queue.c ****     }
 259:e:/LiteOS/LiteOS/targets/Cloud_FM33A0XX/GCC/../../../kernel/base/ipc\los_queue.c **** 
ARM GAS  C:\Users\WANGBI~1\AppData\Local\Temp\ccac8q5z.s 			page 16


 260:e:/LiteOS/LiteOS/targets/Cloud_FM33A0XX/GCC/../../../kernel/base/ipc\los_queue.c ****     pucQueueNode = &(pstQueueCB->pucQueue[(usQueuePosion * (pstQueueCB->usQueueSize))]);
 261:e:/LiteOS/LiteOS/targets/Cloud_FM33A0XX/GCC/../../../kernel/base/ipc\los_queue.c **** 
 262:e:/LiteOS/LiteOS/targets/Cloud_FM33A0XX/GCC/../../../kernel/base/ipc\los_queue.c ****     if(OS_QUEUE_IS_POINT(uwOperateType))
 263:e:/LiteOS/LiteOS/targets/Cloud_FM33A0XX/GCC/../../../kernel/base/ipc\los_queue.c ****     {
 264:e:/LiteOS/LiteOS/targets/Cloud_FM33A0XX/GCC/../../../kernel/base/ipc\los_queue.c ****         if(OS_QUEUE_IS_READ(uwOperateType))
 265:e:/LiteOS/LiteOS/targets/Cloud_FM33A0XX/GCC/../../../kernel/base/ipc\los_queue.c ****         {
 266:e:/LiteOS/LiteOS/targets/Cloud_FM33A0XX/GCC/../../../kernel/base/ipc\los_queue.c ****             *(UINT32 *)pBufferAddr = *(UINT32 *)pucQueueNode;
 267:e:/LiteOS/LiteOS/targets/Cloud_FM33A0XX/GCC/../../../kernel/base/ipc\los_queue.c ****         }
 268:e:/LiteOS/LiteOS/targets/Cloud_FM33A0XX/GCC/../../../kernel/base/ipc\los_queue.c ****         else
 269:e:/LiteOS/LiteOS/targets/Cloud_FM33A0XX/GCC/../../../kernel/base/ipc\los_queue.c ****         {
 270:e:/LiteOS/LiteOS/targets/Cloud_FM33A0XX/GCC/../../../kernel/base/ipc\los_queue.c ****             *(UINT32 *)pucQueueNode = *(UINT32 *)pBufferAddr;//change to pp when calling osQueueOpe
 271:e:/LiteOS/LiteOS/targets/Cloud_FM33A0XX/GCC/../../../kernel/base/ipc\los_queue.c ****         }
 272:e:/LiteOS/LiteOS/targets/Cloud_FM33A0XX/GCC/../../../kernel/base/ipc\los_queue.c ****     }
 273:e:/LiteOS/LiteOS/targets/Cloud_FM33A0XX/GCC/../../../kernel/base/ipc\los_queue.c ****     else
 274:e:/LiteOS/LiteOS/targets/Cloud_FM33A0XX/GCC/../../../kernel/base/ipc\los_queue.c ****     {
 275:e:/LiteOS/LiteOS/targets/Cloud_FM33A0XX/GCC/../../../kernel/base/ipc\los_queue.c ****         if(OS_QUEUE_IS_READ(uwOperateType))
 276:e:/LiteOS/LiteOS/targets/Cloud_FM33A0XX/GCC/../../../kernel/base/ipc\los_queue.c ****         {
 277:e:/LiteOS/LiteOS/targets/Cloud_FM33A0XX/GCC/../../../kernel/base/ipc\los_queue.c ****             memcpy((VOID *)&uwMsgDataSize, (VOID *)(pucQueueNode + pstQueueCB->usQueueSize - sizeof
 278:e:/LiteOS/LiteOS/targets/Cloud_FM33A0XX/GCC/../../../kernel/base/ipc\los_queue.c ****             memcpy((VOID *)pBufferAddr, (VOID *)pucQueueNode, uwMsgDataSize);
 279:e:/LiteOS/LiteOS/targets/Cloud_FM33A0XX/GCC/../../../kernel/base/ipc\los_queue.c ****             *puwBufferSize = uwMsgDataSize;
 280:e:/LiteOS/LiteOS/targets/Cloud_FM33A0XX/GCC/../../../kernel/base/ipc\los_queue.c ****         }
 281:e:/LiteOS/LiteOS/targets/Cloud_FM33A0XX/GCC/../../../kernel/base/ipc\los_queue.c ****         else
 282:e:/LiteOS/LiteOS/targets/Cloud_FM33A0XX/GCC/../../../kernel/base/ipc\los_queue.c ****         {
 283:e:/LiteOS/LiteOS/targets/Cloud_FM33A0XX/GCC/../../../kernel/base/ipc\los_queue.c ****             memcpy((VOID *)pucQueueNode, (VOID *)pBufferAddr, *puwBufferSize);
 284:e:/LiteOS/LiteOS/targets/Cloud_FM33A0XX/GCC/../../../kernel/base/ipc\los_queue.c ****             memcpy((VOID *)(pucQueueNode + pstQueueCB->usQueueSize - sizeof(UINT32)), puwBufferSize
 285:e:/LiteOS/LiteOS/targets/Cloud_FM33A0XX/GCC/../../../kernel/base/ipc\los_queue.c ****         }
 286:e:/LiteOS/LiteOS/targets/Cloud_FM33A0XX/GCC/../../../kernel/base/ipc\los_queue.c ****     }
 287:e:/LiteOS/LiteOS/targets/Cloud_FM33A0XX/GCC/../../../kernel/base/ipc\los_queue.c **** }
 288:e:/LiteOS/LiteOS/targets/Cloud_FM33A0XX/GCC/../../../kernel/base/ipc\los_queue.c **** 
 289:e:/LiteOS/LiteOS/targets/Cloud_FM33A0XX/GCC/../../../kernel/base/ipc\los_queue.c **** 
 290:e:/LiteOS/LiteOS/targets/Cloud_FM33A0XX/GCC/../../../kernel/base/ipc\los_queue.c **** LITE_OS_SEC_TEXT UINT32 osQueueOperate(UINT32 uwQueueID, UINT32 uwOperateType, VOID *pBufferAddr, U
 291:e:/LiteOS/LiteOS/targets/Cloud_FM33A0XX/GCC/../../../kernel/base/ipc\los_queue.c **** {
 367              		.loc 1 291 0
 368              		.cfi_startproc
 369              		@ args = 4, pretend = 0, frame = 24
 370              		@ frame_needed = 0, uses_anonymous_args = 0
 371              	.LVL46:
 372 0000 F0B5     		push	{r4, r5, r6, r7, lr}
 373              	.LCFI3:
 374              		.cfi_def_cfa_offset 20
 375              		.cfi_offset 4, -20
 376              		.cfi_offset 5, -16
 377              		.cfi_offset 6, -12
 378              		.cfi_offset 7, -8
 379              		.cfi_offset 14, -4
 380 0002 5746     		mov	r7, r10
 381 0004 80B4     		push	{r7}
 382              	.LCFI4:
 383              		.cfi_def_cfa_offset 24
 384              		.cfi_offset 10, -24
 385 0006 86B0     		sub	sp, sp, #24
 386              	.LCFI5:
 387              		.cfi_def_cfa_offset 48
 388 0008 0400     		movs	r4, r0
 389 000a 0F00     		movs	r7, r1
 390 000c 0292     		str	r2, [sp, #8]
 391 000e 1E00     		movs	r6, r3
ARM GAS  C:\Users\WANGBI~1\AppData\Local\Temp\ccac8q5z.s 			page 17


 392              	.LVL47:
 292:e:/LiteOS/LiteOS/targets/Cloud_FM33A0XX/GCC/../../../kernel/base/ipc\los_queue.c ****     QUEUE_CB_S *pstQueueCB;
 293:e:/LiteOS/LiteOS/targets/Cloud_FM33A0XX/GCC/../../../kernel/base/ipc\los_queue.c ****     LOS_TASK_CB  *pstRunTsk;
 294:e:/LiteOS/LiteOS/targets/Cloud_FM33A0XX/GCC/../../../kernel/base/ipc\los_queue.c ****     UINTPTR      uvIntSave;
 295:e:/LiteOS/LiteOS/targets/Cloud_FM33A0XX/GCC/../../../kernel/base/ipc\los_queue.c ****     LOS_TASK_CB  *pstResumedTask;
 296:e:/LiteOS/LiteOS/targets/Cloud_FM33A0XX/GCC/../../../kernel/base/ipc\los_queue.c ****     UINT32       uwRet = LOS_OK;
 297:e:/LiteOS/LiteOS/targets/Cloud_FM33A0XX/GCC/../../../kernel/base/ipc\los_queue.c ****     UINT32       uwReadWrite = OS_QUEUE_READ_WRITE_GET(uwOperateType);
 393              		.loc 1 297 0
 394 0010 0125     		movs	r5, #1
 395 0012 0D40     		ands	r5, r1
 396              	.LVL48:
 298:e:/LiteOS/LiteOS/targets/Cloud_FM33A0XX/GCC/../../../kernel/base/ipc\los_queue.c **** 
 299:e:/LiteOS/LiteOS/targets/Cloud_FM33A0XX/GCC/../../../kernel/base/ipc\los_queue.c ****     uvIntSave = LOS_IntLock();
 397              		.loc 1 299 0
 398 0014 FFF7FEFF 		bl	LOS_IntLock
 399              	.LVL49:
 400 0018 0190     		str	r0, [sp, #4]
 401              	.LVL50:
 300:e:/LiteOS/LiteOS/targets/Cloud_FM33A0XX/GCC/../../../kernel/base/ipc\los_queue.c **** 
 301:e:/LiteOS/LiteOS/targets/Cloud_FM33A0XX/GCC/../../../kernel/base/ipc\los_queue.c ****     pstQueueCB = (QUEUE_CB_S *)GET_QUEUE_HANDLE(uwQueueID);
 402              		.loc 1 301 0
 403 001a 704B     		ldr	r3, .L47
 404 001c 1B68     		ldr	r3, [r3]
 405 001e 2C20     		movs	r0, #44
 406              	.LVL51:
 407 0020 6043     		muls	r0, r4
 408 0022 1C18     		adds	r4, r3, r0
 409              	.LVL52:
 302:e:/LiteOS/LiteOS/targets/Cloud_FM33A0XX/GCC/../../../kernel/base/ipc\los_queue.c ****     if (OS_QUEUE_UNUSED == pstQueueCB->usQueueState)
 410              		.loc 1 302 0
 411 0024 A388     		ldrh	r3, [r4, #4]
 412 0026 002B     		cmp	r3, #0
 413 0028 00D1     		bne	.LCB383
 414 002a C5E0     		b	.L41	@long jump
 415              	.LCB383:
 303:e:/LiteOS/LiteOS/targets/Cloud_FM33A0XX/GCC/../../../kernel/base/ipc\los_queue.c ****     {
 304:e:/LiteOS/LiteOS/targets/Cloud_FM33A0XX/GCC/../../../kernel/base/ipc\los_queue.c ****         uwRet = LOS_ERRNO_QUEUE_NOT_CREATE;
 305:e:/LiteOS/LiteOS/targets/Cloud_FM33A0XX/GCC/../../../kernel/base/ipc\los_queue.c ****         goto QUEUE_END;
 306:e:/LiteOS/LiteOS/targets/Cloud_FM33A0XX/GCC/../../../kernel/base/ipc\los_queue.c **** 
 307:e:/LiteOS/LiteOS/targets/Cloud_FM33A0XX/GCC/../../../kernel/base/ipc\los_queue.c ****     }
 308:e:/LiteOS/LiteOS/targets/Cloud_FM33A0XX/GCC/../../../kernel/base/ipc\los_queue.c **** 
 309:e:/LiteOS/LiteOS/targets/Cloud_FM33A0XX/GCC/../../../kernel/base/ipc\los_queue.c ****     if(OS_QUEUE_IS_READ(uwOperateType) && (*puwBufferSize < pstQueueCB->usQueueSize - sizeof(UINT32
 416              		.loc 1 309 0
 417 002c 002D     		cmp	r5, #0
 418 002e 05D1     		bne	.L20
 419              		.loc 1 309 0 is_stmt 0 discriminator 1
 420 0030 2389     		ldrh	r3, [r4, #8]
 421 0032 043B     		subs	r3, r3, #4
 422 0034 3268     		ldr	r2, [r6]
 423 0036 9A42     		cmp	r2, r3
 424 0038 00D2     		bcs	.LCB391
 425 003a BFE0     		b	.L42	@long jump
 426              	.LCB391:
 427              	.L20:
 310:e:/LiteOS/LiteOS/targets/Cloud_FM33A0XX/GCC/../../../kernel/base/ipc\los_queue.c ****     {
 311:e:/LiteOS/LiteOS/targets/Cloud_FM33A0XX/GCC/../../../kernel/base/ipc\los_queue.c ****         uwRet = LOS_ERRNO_QUEUE_READ_SIZE_TOO_SMALL;
 312:e:/LiteOS/LiteOS/targets/Cloud_FM33A0XX/GCC/../../../kernel/base/ipc\los_queue.c ****         goto QUEUE_END;
ARM GAS  C:\Users\WANGBI~1\AppData\Local\Temp\ccac8q5z.s 			page 18


 313:e:/LiteOS/LiteOS/targets/Cloud_FM33A0XX/GCC/../../../kernel/base/ipc\los_queue.c ****     }
 314:e:/LiteOS/LiteOS/targets/Cloud_FM33A0XX/GCC/../../../kernel/base/ipc\los_queue.c ****     else if(OS_QUEUE_IS_WRITE(uwOperateType) && (*puwBufferSize > pstQueueCB->usQueueSize - sizeof(
 428              		.loc 1 314 0 is_stmt 1
 429 003c 002D     		cmp	r5, #0
 430 003e 05D0     		beq	.L21
 431              		.loc 1 314 0 is_stmt 0 discriminator 1
 432 0040 2389     		ldrh	r3, [r4, #8]
 433 0042 043B     		subs	r3, r3, #4
 434 0044 3268     		ldr	r2, [r6]
 435 0046 9A42     		cmp	r2, r3
 436 0048 00D9     		bls	.LCB400
 437 004a B9E0     		b	.L43	@long jump
 438              	.LCB400:
 439              	.L21:
 315:e:/LiteOS/LiteOS/targets/Cloud_FM33A0XX/GCC/../../../kernel/base/ipc\los_queue.c ****     {
 316:e:/LiteOS/LiteOS/targets/Cloud_FM33A0XX/GCC/../../../kernel/base/ipc\los_queue.c ****         uwRet = LOS_ERRNO_QUEUE_WRITE_SIZE_TOO_BIG;
 317:e:/LiteOS/LiteOS/targets/Cloud_FM33A0XX/GCC/../../../kernel/base/ipc\los_queue.c ****         goto QUEUE_END;
 318:e:/LiteOS/LiteOS/targets/Cloud_FM33A0XX/GCC/../../../kernel/base/ipc\los_queue.c ****     }
 319:e:/LiteOS/LiteOS/targets/Cloud_FM33A0XX/GCC/../../../kernel/base/ipc\los_queue.c **** 
 320:e:/LiteOS/LiteOS/targets/Cloud_FM33A0XX/GCC/../../../kernel/base/ipc\los_queue.c ****     if (0 == pstQueueCB->usReadWriteableCnt[uwReadWrite])
 440              		.loc 1 320 0 is_stmt 1
 441 004c 2B00     		movs	r3, r5
 442 004e 0833     		adds	r3, r3, #8
 443 0050 5B00     		lsls	r3, r3, #1
 444 0052 1B5B     		ldrh	r3, [r3, r4]
 445 0054 002B     		cmp	r3, #0
 446 0056 2AD1     		bne	.L22
 321:e:/LiteOS/LiteOS/targets/Cloud_FM33A0XX/GCC/../../../kernel/base/ipc\los_queue.c ****     {
 322:e:/LiteOS/LiteOS/targets/Cloud_FM33A0XX/GCC/../../../kernel/base/ipc\los_queue.c ****         if (LOS_NO_WAIT == uwTimeOut)
 447              		.loc 1 322 0
 448 0058 0C9B     		ldr	r3, [sp, #48]
 449 005a 002B     		cmp	r3, #0
 450 005c 04D1     		bne	.L23
 323:e:/LiteOS/LiteOS/targets/Cloud_FM33A0XX/GCC/../../../kernel/base/ipc\los_queue.c ****         {
 324:e:/LiteOS/LiteOS/targets/Cloud_FM33A0XX/GCC/../../../kernel/base/ipc\los_queue.c ****             uwRet = OS_QUEUE_IS_READ(uwOperateType) ? LOS_ERRNO_QUEUE_ISEMPTY : LOS_ERRNO_QUEUE_ISF
 451              		.loc 1 324 0
 452 005e 002D     		cmp	r5, #0
 453 0060 00D0     		beq	.LCB414
 454 0062 AFE0     		b	.L44	@long jump
 455              	.LCB414:
 456 0064 5E4C     		ldr	r4, .L47+4
 457              	.LVL53:
 458 0066 B0E0     		b	.L19
 459              	.LVL54:
 460              	.L23:
 325:e:/LiteOS/LiteOS/targets/Cloud_FM33A0XX/GCC/../../../kernel/base/ipc\los_queue.c ****             goto QUEUE_END;
 326:e:/LiteOS/LiteOS/targets/Cloud_FM33A0XX/GCC/../../../kernel/base/ipc\los_queue.c ****         }
 327:e:/LiteOS/LiteOS/targets/Cloud_FM33A0XX/GCC/../../../kernel/base/ipc\los_queue.c **** 
 328:e:/LiteOS/LiteOS/targets/Cloud_FM33A0XX/GCC/../../../kernel/base/ipc\los_queue.c ****         if (g_usLosTaskLock)
 461              		.loc 1 328 0
 462 0068 5E4B     		ldr	r3, .L47+8
 463 006a 1B88     		ldrh	r3, [r3]
 464 006c 002B     		cmp	r3, #0
 465 006e 00D0     		beq	.LCB425
 466 0070 AAE0     		b	.L45	@long jump
 467              	.LCB425:
 329:e:/LiteOS/LiteOS/targets/Cloud_FM33A0XX/GCC/../../../kernel/base/ipc\los_queue.c ****         {
ARM GAS  C:\Users\WANGBI~1\AppData\Local\Temp\ccac8q5z.s 			page 19


 330:e:/LiteOS/LiteOS/targets/Cloud_FM33A0XX/GCC/../../../kernel/base/ipc\los_queue.c ****             uwRet = LOS_ERRNO_QUEUE_PEND_IN_LOCK;
 331:e:/LiteOS/LiteOS/targets/Cloud_FM33A0XX/GCC/../../../kernel/base/ipc\los_queue.c ****             goto QUEUE_END;
 332:e:/LiteOS/LiteOS/targets/Cloud_FM33A0XX/GCC/../../../kernel/base/ipc\los_queue.c ****         }
 333:e:/LiteOS/LiteOS/targets/Cloud_FM33A0XX/GCC/../../../kernel/base/ipc\los_queue.c **** 
 334:e:/LiteOS/LiteOS/targets/Cloud_FM33A0XX/GCC/../../../kernel/base/ipc\los_queue.c ****         pstRunTsk = (LOS_TASK_CB *)g_stLosTask.pstRunTask;
 468              		.loc 1 334 0
 469 0072 5D4B     		ldr	r3, .L47+12
 470 0074 1B68     		ldr	r3, [r3]
 471 0076 9A46     		mov	r10, r3
 472              	.LVL55:
 335:e:/LiteOS/LiteOS/targets/Cloud_FM33A0XX/GCC/../../../kernel/base/ipc\los_queue.c ****         osTaskWait(&pstQueueCB->stReadWriteList[uwReadWrite], OS_TASK_STATUS_PEND_QUEUE, uwTimeOut)
 473              		.loc 1 335 0
 474 0078 A81C     		adds	r0, r5, #2
 475 007a C000     		lsls	r0, r0, #3
 476 007c 2018     		adds	r0, r4, r0
 477 007e 0430     		adds	r0, r0, #4
 478 0080 0C9A     		ldr	r2, [sp, #48]
 479 0082 8021     		movs	r1, #128
 480 0084 8901     		lsls	r1, r1, #6
 481 0086 FFF7FEFF 		bl	osTaskWait
 482              	.LVL56:
 336:e:/LiteOS/LiteOS/targets/Cloud_FM33A0XX/GCC/../../../kernel/base/ipc\los_queue.c ****         LOS_IntRestore(uvIntSave);
 483              		.loc 1 336 0
 484 008a 0198     		ldr	r0, [sp, #4]
 485 008c FFF7FEFF 		bl	LOS_IntRestore
 486              	.LVL57:
 337:e:/LiteOS/LiteOS/targets/Cloud_FM33A0XX/GCC/../../../kernel/base/ipc\los_queue.c ****         LOS_Schedule();
 487              		.loc 1 337 0
 488 0090 FFF7FEFF 		bl	LOS_Schedule
 489              	.LVL58:
 338:e:/LiteOS/LiteOS/targets/Cloud_FM33A0XX/GCC/../../../kernel/base/ipc\los_queue.c **** 
 339:e:/LiteOS/LiteOS/targets/Cloud_FM33A0XX/GCC/../../../kernel/base/ipc\los_queue.c ****         uvIntSave = LOS_IntLock();
 490              		.loc 1 339 0
 491 0094 FFF7FEFF 		bl	LOS_IntLock
 492              	.LVL59:
 493 0098 0190     		str	r0, [sp, #4]
 494              	.LVL60:
 340:e:/LiteOS/LiteOS/targets/Cloud_FM33A0XX/GCC/../../../kernel/base/ipc\los_queue.c **** 
 341:e:/LiteOS/LiteOS/targets/Cloud_FM33A0XX/GCC/../../../kernel/base/ipc\los_queue.c ****         if (pstRunTsk->usTaskStatus & OS_TASK_STATUS_TIMEOUT)
 495              		.loc 1 341 0
 496 009a 5346     		mov	r3, r10
 497 009c 9B88     		ldrh	r3, [r3, #4]
 498 009e 5A06     		lsls	r2, r3, #25
 499 00a0 0AD5     		bpl	.L24
 342:e:/LiteOS/LiteOS/targets/Cloud_FM33A0XX/GCC/../../../kernel/base/ipc\los_queue.c ****         {
 343:e:/LiteOS/LiteOS/targets/Cloud_FM33A0XX/GCC/../../../kernel/base/ipc\los_queue.c ****             pstRunTsk->usTaskStatus &= (~OS_TASK_STATUS_TIMEOUT);
 500              		.loc 1 343 0
 501 00a2 4022     		movs	r2, #64
 502 00a4 9343     		bics	r3, r2
 503 00a6 5246     		mov	r2, r10
 504 00a8 9380     		strh	r3, [r2, #4]
 505              	.LVL61:
 344:e:/LiteOS/LiteOS/targets/Cloud_FM33A0XX/GCC/../../../kernel/base/ipc\los_queue.c ****             uwRet = LOS_ERRNO_QUEUE_TIMEOUT;
 506              		.loc 1 344 0
 507 00aa 504C     		ldr	r4, .L47+16
 508              	.LVL62:
 345:e:/LiteOS/LiteOS/targets/Cloud_FM33A0XX/GCC/../../../kernel/base/ipc\los_queue.c ****             goto QUEUE_END;
ARM GAS  C:\Users\WANGBI~1\AppData\Local\Temp\ccac8q5z.s 			page 20


 509              		.loc 1 345 0
 510 00ac 8DE0     		b	.L19
 511              	.LVL63:
 512              	.L22:
 346:e:/LiteOS/LiteOS/targets/Cloud_FM33A0XX/GCC/../../../kernel/base/ipc\los_queue.c ****         }
 347:e:/LiteOS/LiteOS/targets/Cloud_FM33A0XX/GCC/../../../kernel/base/ipc\los_queue.c ****     }
 348:e:/LiteOS/LiteOS/targets/Cloud_FM33A0XX/GCC/../../../kernel/base/ipc\los_queue.c ****     else
 349:e:/LiteOS/LiteOS/targets/Cloud_FM33A0XX/GCC/../../../kernel/base/ipc\los_queue.c ****     {
 350:e:/LiteOS/LiteOS/targets/Cloud_FM33A0XX/GCC/../../../kernel/base/ipc\los_queue.c ****         pstQueueCB->usReadWriteableCnt[uwReadWrite]--;
 513              		.loc 1 350 0
 514 00ae 2A00     		movs	r2, r5
 515 00b0 0832     		adds	r2, r2, #8
 516 00b2 5200     		lsls	r2, r2, #1
 517 00b4 013B     		subs	r3, r3, #1
 518 00b6 1353     		strh	r3, [r2, r4]
 519              	.L24:
 520              	.LVL64:
 521              	.LBB60:
 522              	.LBB61:
 234:e:/LiteOS/LiteOS/targets/Cloud_FM33A0XX/GCC/../../../kernel/base/ipc\los_queue.c ****     UINT16      usQueuePosion = 0;
 523              		.loc 1 234 0
 524 00b8 0023     		movs	r3, #0
 525 00ba 0593     		str	r3, [sp, #20]
 526              	.LVL65:
 238:e:/LiteOS/LiteOS/targets/Cloud_FM33A0XX/GCC/../../../kernel/base/ipc\los_queue.c ****     {
 527              		.loc 1 238 0
 528 00bc 0333     		adds	r3, r3, #3
 529 00be 3B40     		ands	r3, r7
 530 00c0 012B     		cmp	r3, #1
 531 00c2 0FD0     		beq	.L26
 532 00c4 002B     		cmp	r3, #0
 533 00c6 02D0     		beq	.L27
 534 00c8 032B     		cmp	r3, #3
 535 00ca 16D0     		beq	.L28
 536 00cc 20E0     		b	.L46
 537              	.L27:
 241:e:/LiteOS/LiteOS/targets/Cloud_FM33A0XX/GCC/../../../kernel/base/ipc\los_queue.c ****             (pstQueueCB->usQueueHead + 1 == pstQueueCB->usQueueLen) ? (pstQueueCB->usQueueHead = 0)
 538              		.loc 1 241 0
 539 00ce A089     		ldrh	r0, [r4, #12]
 540              	.LVL66:
 242:e:/LiteOS/LiteOS/targets/Cloud_FM33A0XX/GCC/../../../kernel/base/ipc\los_queue.c ****             break;
 541              		.loc 1 242 0
 542 00d0 421C     		adds	r2, r0, #1
 543 00d2 E388     		ldrh	r3, [r4, #6]
 544 00d4 9A42     		cmp	r2, r3
 545 00d6 02D1     		bne	.L29
 546 00d8 0023     		movs	r3, #0
 547 00da A381     		strh	r3, [r4, #12]
 548 00dc 1FE0     		b	.L30
 549              	.L29:
 550 00de 431C     		adds	r3, r0, #1
 551 00e0 A381     		strh	r3, [r4, #12]
 552 00e2 1CE0     		b	.L30
 553              	.LVL67:
 554              	.L26:
 246:e:/LiteOS/LiteOS/targets/Cloud_FM33A0XX/GCC/../../../kernel/base/ipc\los_queue.c ****             usQueuePosion = pstQueueCB->usQueueHead;
 555              		.loc 1 246 0
ARM GAS  C:\Users\WANGBI~1\AppData\Local\Temp\ccac8q5z.s 			page 21


 556 00e4 A389     		ldrh	r3, [r4, #12]
 557 00e6 002B     		cmp	r3, #0
 558 00e8 03D1     		bne	.L31
 559 00ea E388     		ldrh	r3, [r4, #6]
 560 00ec 013B     		subs	r3, r3, #1
 561 00ee A381     		strh	r3, [r4, #12]
 562 00f0 01E0     		b	.L32
 563              	.L31:
 564 00f2 013B     		subs	r3, r3, #1
 565 00f4 A381     		strh	r3, [r4, #12]
 566              	.L32:
 247:e:/LiteOS/LiteOS/targets/Cloud_FM33A0XX/GCC/../../../kernel/base/ipc\los_queue.c ****             break;
 567              		.loc 1 247 0
 568 00f6 A089     		ldrh	r0, [r4, #12]
 569              	.LVL68:
 570 00f8 11E0     		b	.L30
 571              	.LVL69:
 572              	.L28:
 251:e:/LiteOS/LiteOS/targets/Cloud_FM33A0XX/GCC/../../../kernel/base/ipc\los_queue.c ****             (pstQueueCB->usQueueTail + 1 == pstQueueCB->usQueueLen) ? (pstQueueCB->usQueueTail = 0)
 573              		.loc 1 251 0
 574 00fa E089     		ldrh	r0, [r4, #14]
 575              	.LVL70:
 252:e:/LiteOS/LiteOS/targets/Cloud_FM33A0XX/GCC/../../../kernel/base/ipc\los_queue.c ****             break;
 576              		.loc 1 252 0
 577 00fc 421C     		adds	r2, r0, #1
 578 00fe E388     		ldrh	r3, [r4, #6]
 579 0100 9A42     		cmp	r2, r3
 580 0102 02D1     		bne	.L33
 581 0104 0023     		movs	r3, #0
 582 0106 E381     		strh	r3, [r4, #14]
 583 0108 09E0     		b	.L30
 584              	.L33:
 585 010a 431C     		adds	r3, r0, #1
 586 010c E381     		strh	r3, [r4, #14]
 587 010e 06E0     		b	.L30
 588              	.LVL71:
 589              	.L46:
 256:e:/LiteOS/LiteOS/targets/Cloud_FM33A0XX/GCC/../../../kernel/base/ipc\los_queue.c ****             return;
 590              		.loc 1 256 0
 591 0110 3748     		ldr	r0, .L47+20
 592 0112 FFF7FEFF 		bl	printf
 593              	.LVL72:
 594 0116 3748     		ldr	r0, .L47+24
 595 0118 FFF7FEFF 		bl	puts
 596              	.LVL73:
 597 011c 30E0     		b	.L34
 598              	.LVL74:
 599              	.L30:
 260:e:/LiteOS/LiteOS/targets/Cloud_FM33A0XX/GCC/../../../kernel/base/ipc\los_queue.c **** 
 600              		.loc 1 260 0
 601 011e 2189     		ldrh	r1, [r4, #8]
 602 0120 4843     		muls	r0, r1
 603              	.LVL75:
 604 0122 2368     		ldr	r3, [r4]
 605 0124 9A46     		mov	r10, r3
 606 0126 8244     		add	r10, r10, r0
 607              	.LVL76:
ARM GAS  C:\Users\WANGBI~1\AppData\Local\Temp\ccac8q5z.s 			page 22


 262:e:/LiteOS/LiteOS/targets/Cloud_FM33A0XX/GCC/../../../kernel/base/ipc\los_queue.c ****     {
 608              		.loc 1 262 0
 609 0128 7B07     		lsls	r3, r7, #29
 610 012a 0DD5     		bpl	.L35
 264:e:/LiteOS/LiteOS/targets/Cloud_FM33A0XX/GCC/../../../kernel/base/ipc\los_queue.c ****         {
 611              		.loc 1 264 0
 612 012c FB07     		lsls	r3, r7, #31
 613 012e 06D4     		bmi	.L36
 266:e:/LiteOS/LiteOS/targets/Cloud_FM33A0XX/GCC/../../../kernel/base/ipc\los_queue.c ****         }
 614              		.loc 1 266 0
 615 0130 5346     		mov	r3, r10
 616 0132 1B68     		ldr	r3, [r3]
 617 0134 0393     		str	r3, [sp, #12]
 618 0136 029B     		ldr	r3, [sp, #8]
 619 0138 039A     		ldr	r2, [sp, #12]
 620 013a 1A60     		str	r2, [r3]
 621 013c 20E0     		b	.L34
 622              	.L36:
 270:e:/LiteOS/LiteOS/targets/Cloud_FM33A0XX/GCC/../../../kernel/base/ipc\los_queue.c ****         }
 623              		.loc 1 270 0
 624 013e 5346     		mov	r3, r10
 625 0140 029A     		ldr	r2, [sp, #8]
 626 0142 1268     		ldr	r2, [r2]
 627 0144 1A60     		str	r2, [r3]
 628 0146 1BE0     		b	.L34
 629              	.L35:
 275:e:/LiteOS/LiteOS/targets/Cloud_FM33A0XX/GCC/../../../kernel/base/ipc\los_queue.c ****         {
 630              		.loc 1 275 0
 631 0148 FB07     		lsls	r3, r7, #31
 632 014a 0DD4     		bmi	.L38
 277:e:/LiteOS/LiteOS/targets/Cloud_FM33A0XX/GCC/../../../kernel/base/ipc\los_queue.c ****             memcpy((VOID *)pBufferAddr, (VOID *)pucQueueNode, uwMsgDataSize);
 633              		.loc 1 277 0
 634 014c 0439     		subs	r1, r1, #4
 635 014e 5144     		add	r1, r1, r10
 636 0150 0422     		movs	r2, #4
 637 0152 05A8     		add	r0, sp, #20
 638 0154 FFF7FEFF 		bl	memcpy
 639              	.LVL77:
 278:e:/LiteOS/LiteOS/targets/Cloud_FM33A0XX/GCC/../../../kernel/base/ipc\los_queue.c ****             *puwBufferSize = uwMsgDataSize;
 640              		.loc 1 278 0
 641 0158 059A     		ldr	r2, [sp, #20]
 642 015a 5146     		mov	r1, r10
 643 015c 0298     		ldr	r0, [sp, #8]
 644 015e FFF7FEFF 		bl	memcpy
 645              	.LVL78:
 279:e:/LiteOS/LiteOS/targets/Cloud_FM33A0XX/GCC/../../../kernel/base/ipc\los_queue.c ****         }
 646              		.loc 1 279 0
 647 0162 059B     		ldr	r3, [sp, #20]
 648 0164 3360     		str	r3, [r6]
 649 0166 0BE0     		b	.L34
 650              	.L38:
 283:e:/LiteOS/LiteOS/targets/Cloud_FM33A0XX/GCC/../../../kernel/base/ipc\los_queue.c ****             memcpy((VOID *)(pucQueueNode + pstQueueCB->usQueueSize - sizeof(UINT32)), puwBufferSize
 651              		.loc 1 283 0
 652 0168 3268     		ldr	r2, [r6]
 653 016a 0299     		ldr	r1, [sp, #8]
 654 016c 5046     		mov	r0, r10
 655 016e FFF7FEFF 		bl	memcpy
ARM GAS  C:\Users\WANGBI~1\AppData\Local\Temp\ccac8q5z.s 			page 23


 656              	.LVL79:
 284:e:/LiteOS/LiteOS/targets/Cloud_FM33A0XX/GCC/../../../kernel/base/ipc\los_queue.c ****         }
 657              		.loc 1 284 0
 658 0172 2089     		ldrh	r0, [r4, #8]
 659 0174 0438     		subs	r0, r0, #4
 660 0176 5044     		add	r0, r0, r10
 661 0178 0422     		movs	r2, #4
 662 017a 3100     		movs	r1, r6
 663 017c FFF7FEFF 		bl	memcpy
 664              	.LVL80:
 665              	.L34:
 666              	.LBE61:
 667              	.LBE60:
 351:e:/LiteOS/LiteOS/targets/Cloud_FM33A0XX/GCC/../../../kernel/base/ipc\los_queue.c ****     }
 352:e:/LiteOS/LiteOS/targets/Cloud_FM33A0XX/GCC/../../../kernel/base/ipc\los_queue.c **** 
 353:e:/LiteOS/LiteOS/targets/Cloud_FM33A0XX/GCC/../../../kernel/base/ipc\los_queue.c ****     osQueueBufferOperate(pstQueueCB, uwOperateType, pBufferAddr, puwBufferSize);
 354:e:/LiteOS/LiteOS/targets/Cloud_FM33A0XX/GCC/../../../kernel/base/ipc\los_queue.c **** 
 355:e:/LiteOS/LiteOS/targets/Cloud_FM33A0XX/GCC/../../../kernel/base/ipc\los_queue.c ****     if (!LOS_ListEmpty(&pstQueueCB->stReadWriteList[!uwReadWrite])) /*lint !e514*/
 668              		.loc 1 355 0
 669 0180 6B42     		rsbs	r3, r5, #0
 670 0182 6B41     		adcs	r3, r3, r5
 671              	.LVL81:
 672 0184 9A1C     		adds	r2, r3, #2
 673 0186 D200     		lsls	r2, r2, #3
 674 0188 A218     		adds	r2, r4, r2
 675 018a 111D     		adds	r1, r2, #4
 676              	.LVL82:
 677              	.LBB62:
 678              	.LBB63:
 679              		.loc 2 215 0
 680 018c 9068     		ldr	r0, [r2, #8]
 681              	.LVL83:
 682              	.LBE63:
 683              	.LBE62:
 684              		.loc 1 355 0
 685 018e 8142     		cmp	r1, r0
 686 0190 0BD0     		beq	.L39
 356:e:/LiteOS/LiteOS/targets/Cloud_FM33A0XX/GCC/../../../kernel/base/ipc\los_queue.c ****     {
 357:e:/LiteOS/LiteOS/targets/Cloud_FM33A0XX/GCC/../../../kernel/base/ipc\los_queue.c ****         pstResumedTask = OS_TCB_FROM_PENDLIST(LOS_DL_LIST_FIRST(&pstQueueCB->stReadWriteList[!uwRea
 687              		.loc 1 357 0
 688 0192 2838     		subs	r0, r0, #40
 689              	.LVL84:
 358:e:/LiteOS/LiteOS/targets/Cloud_FM33A0XX/GCC/../../../kernel/base/ipc\los_queue.c ****         osTaskWake(pstResumedTask, OS_TASK_STATUS_PEND_QUEUE);
 690              		.loc 1 358 0
 691 0194 8021     		movs	r1, #128
 692 0196 8901     		lsls	r1, r1, #6
 693 0198 FFF7FEFF 		bl	osTaskWake
 694              	.LVL85:
 359:e:/LiteOS/LiteOS/targets/Cloud_FM33A0XX/GCC/../../../kernel/base/ipc\los_queue.c ****         LOS_IntRestore(uvIntSave);
 695              		.loc 1 359 0
 696 019c 0198     		ldr	r0, [sp, #4]
 697 019e FFF7FEFF 		bl	LOS_IntRestore
 698              	.LVL86:
 360:e:/LiteOS/LiteOS/targets/Cloud_FM33A0XX/GCC/../../../kernel/base/ipc\los_queue.c ****         LOS_Schedule();
 699              		.loc 1 360 0
 700 01a2 FFF7FEFF 		bl	LOS_Schedule
 701              	.LVL87:
ARM GAS  C:\Users\WANGBI~1\AppData\Local\Temp\ccac8q5z.s 			page 24


 361:e:/LiteOS/LiteOS/targets/Cloud_FM33A0XX/GCC/../../../kernel/base/ipc\los_queue.c ****         return LOS_OK;
 702              		.loc 1 361 0
 703 01a6 0020     		movs	r0, #0
 704 01a8 13E0     		b	.L40
 705              	.L39:
 362:e:/LiteOS/LiteOS/targets/Cloud_FM33A0XX/GCC/../../../kernel/base/ipc\los_queue.c ****     }
 363:e:/LiteOS/LiteOS/targets/Cloud_FM33A0XX/GCC/../../../kernel/base/ipc\los_queue.c ****     else
 364:e:/LiteOS/LiteOS/targets/Cloud_FM33A0XX/GCC/../../../kernel/base/ipc\los_queue.c ****     {
 365:e:/LiteOS/LiteOS/targets/Cloud_FM33A0XX/GCC/../../../kernel/base/ipc\los_queue.c ****         pstQueueCB->usReadWriteableCnt[!uwReadWrite]++; /*lint !e514*/
 706              		.loc 1 365 0
 707 01aa 0833     		adds	r3, r3, #8
 708 01ac 5D00     		lsls	r5, r3, #1
 709 01ae 2B5B     		ldrh	r3, [r5, r4]
 710 01b0 0133     		adds	r3, r3, #1
 711 01b2 2B53     		strh	r3, [r5, r4]
 296:e:/LiteOS/LiteOS/targets/Cloud_FM33A0XX/GCC/../../../kernel/base/ipc\los_queue.c ****     UINT32       uwReadWrite = OS_QUEUE_READ_WRITE_GET(uwOperateType);
 712              		.loc 1 296 0
 713 01b4 0024     		movs	r4, #0
 714              	.LVL88:
 715 01b6 08E0     		b	.L19
 716              	.LVL89:
 717              	.L41:
 304:e:/LiteOS/LiteOS/targets/Cloud_FM33A0XX/GCC/../../../kernel/base/ipc\los_queue.c ****         goto QUEUE_END;
 718              		.loc 1 304 0
 719 01b8 0F4C     		ldr	r4, .L47+28
 720              	.LVL90:
 721 01ba 06E0     		b	.L19
 722              	.LVL91:
 723              	.L42:
 311:e:/LiteOS/LiteOS/targets/Cloud_FM33A0XX/GCC/../../../kernel/base/ipc\los_queue.c ****         goto QUEUE_END;
 724              		.loc 1 311 0
 725 01bc 0F4C     		ldr	r4, .L47+32
 726              	.LVL92:
 727 01be 04E0     		b	.L19
 728              	.LVL93:
 729              	.L43:
 316:e:/LiteOS/LiteOS/targets/Cloud_FM33A0XX/GCC/../../../kernel/base/ipc\los_queue.c ****         goto QUEUE_END;
 730              		.loc 1 316 0
 731 01c0 0F4C     		ldr	r4, .L47+36
 732              	.LVL94:
 733 01c2 02E0     		b	.L19
 734              	.LVL95:
 735              	.L44:
 324:e:/LiteOS/LiteOS/targets/Cloud_FM33A0XX/GCC/../../../kernel/base/ipc\los_queue.c ****             goto QUEUE_END;
 736              		.loc 1 324 0
 737 01c4 0F4C     		ldr	r4, .L47+40
 738              	.LVL96:
 739 01c6 00E0     		b	.L19
 740              	.LVL97:
 741              	.L45:
 330:e:/LiteOS/LiteOS/targets/Cloud_FM33A0XX/GCC/../../../kernel/base/ipc\los_queue.c ****             goto QUEUE_END;
 742              		.loc 1 330 0
 743 01c8 0F4C     		ldr	r4, .L47+44
 744              	.LVL98:
 745              	.L19:
 366:e:/LiteOS/LiteOS/targets/Cloud_FM33A0XX/GCC/../../../kernel/base/ipc\los_queue.c ****     }
 367:e:/LiteOS/LiteOS/targets/Cloud_FM33A0XX/GCC/../../../kernel/base/ipc\los_queue.c **** 
ARM GAS  C:\Users\WANGBI~1\AppData\Local\Temp\ccac8q5z.s 			page 25


 368:e:/LiteOS/LiteOS/targets/Cloud_FM33A0XX/GCC/../../../kernel/base/ipc\los_queue.c **** QUEUE_END:
 369:e:/LiteOS/LiteOS/targets/Cloud_FM33A0XX/GCC/../../../kernel/base/ipc\los_queue.c ****     LOS_IntRestore(uvIntSave);
 746              		.loc 1 369 0
 747 01ca 0198     		ldr	r0, [sp, #4]
 748 01cc FFF7FEFF 		bl	LOS_IntRestore
 749              	.LVL99:
 370:e:/LiteOS/LiteOS/targets/Cloud_FM33A0XX/GCC/../../../kernel/base/ipc\los_queue.c ****     return uwRet;
 750              		.loc 1 370 0
 751 01d0 2000     		movs	r0, r4
 752              	.LVL100:
 753              	.L40:
 371:e:/LiteOS/LiteOS/targets/Cloud_FM33A0XX/GCC/../../../kernel/base/ipc\los_queue.c **** }
 754              		.loc 1 371 0
 755 01d2 06B0     		add	sp, sp, #24
 756              		@ sp needed
 757              	.LVL101:
 758              	.LVL102:
 759 01d4 04BC     		pop	{r2}
 760 01d6 9246     		mov	r10, r2
 761 01d8 F0BD     		pop	{r4, r5, r6, r7, pc}
 762              	.L48:
 763 01da C046     		.align	2
 764              	.L47:
 765 01dc 00000000 		.word	g_pstAllQueue
 766 01e0 1D060002 		.word	33555997
 767 01e4 00000000 		.word	g_usLosTaskLock
 768 01e8 00000000 		.word	g_stLosTask
 769 01ec 07060002 		.word	33555975
 770 01f0 00000000 		.word	.LC8
 771 01f4 08000000 		.word	.LC10
 772 01f8 0A060002 		.word	33555978
 773 01fc 1F060002 		.word	33555999
 774 0200 15060002 		.word	33555989
 775 0204 16060002 		.word	33555990
 776 0208 06060002 		.word	33555974
 777              		.cfi_endproc
 778              	.LFE48:
 780              		.section	.text.LOS_QueueReadCopy,"ax",%progbits
 781              		.align	2
 782              		.global	LOS_QueueReadCopy
 783              		.code	16
 784              		.thumb_func
 786              	LOS_QueueReadCopy:
 787              	.LFB49:
 372:e:/LiteOS/LiteOS/targets/Cloud_FM33A0XX/GCC/../../../kernel/base/ipc\los_queue.c **** 
 373:e:/LiteOS/LiteOS/targets/Cloud_FM33A0XX/GCC/../../../kernel/base/ipc\los_queue.c **** /*****************************************************************************
 374:e:/LiteOS/LiteOS/targets/Cloud_FM33A0XX/GCC/../../../kernel/base/ipc\los_queue.c ****  Function    : LOS_QueueReadCopy
 375:e:/LiteOS/LiteOS/targets/Cloud_FM33A0XX/GCC/../../../kernel/base/ipc\los_queue.c ****  Description : Read queue
 376:e:/LiteOS/LiteOS/targets/Cloud_FM33A0XX/GCC/../../../kernel/base/ipc\los_queue.c ****  Input       : uwQueueID
 377:e:/LiteOS/LiteOS/targets/Cloud_FM33A0XX/GCC/../../../kernel/base/ipc\los_queue.c ****                puwBufferSize
 378:e:/LiteOS/LiteOS/targets/Cloud_FM33A0XX/GCC/../../../kernel/base/ipc\los_queue.c ****                uwTimeOut
 379:e:/LiteOS/LiteOS/targets/Cloud_FM33A0XX/GCC/../../../kernel/base/ipc\los_queue.c ****  Output      : pBufferAddr
 380:e:/LiteOS/LiteOS/targets/Cloud_FM33A0XX/GCC/../../../kernel/base/ipc\los_queue.c ****                puwBufferSize
 381:e:/LiteOS/LiteOS/targets/Cloud_FM33A0XX/GCC/../../../kernel/base/ipc\los_queue.c ****  Return      : LOS_OK on success or error code on failure
 382:e:/LiteOS/LiteOS/targets/Cloud_FM33A0XX/GCC/../../../kernel/base/ipc\los_queue.c ****  *****************************************************************************/
 383:e:/LiteOS/LiteOS/targets/Cloud_FM33A0XX/GCC/../../../kernel/base/ipc\los_queue.c **** LITE_OS_SEC_TEXT UINT32 LOS_QueueReadCopy(UINT32  uwQueueID,
 384:e:/LiteOS/LiteOS/targets/Cloud_FM33A0XX/GCC/../../../kernel/base/ipc\los_queue.c ****                     VOID *  pBufferAddr,
ARM GAS  C:\Users\WANGBI~1\AppData\Local\Temp\ccac8q5z.s 			page 26


 385:e:/LiteOS/LiteOS/targets/Cloud_FM33A0XX/GCC/../../../kernel/base/ipc\los_queue.c ****                     UINT32 * puwBufferSize,
 386:e:/LiteOS/LiteOS/targets/Cloud_FM33A0XX/GCC/../../../kernel/base/ipc\los_queue.c ****                     UINT32  uwTimeOut)
 387:e:/LiteOS/LiteOS/targets/Cloud_FM33A0XX/GCC/../../../kernel/base/ipc\los_queue.c **** {
 788              		.loc 1 387 0
 789              		.cfi_startproc
 790              		@ args = 0, pretend = 0, frame = 0
 791              		@ frame_needed = 0, uses_anonymous_args = 0
 792              	.LVL103:
 793 0000 F0B5     		push	{r4, r5, r6, r7, lr}
 794              	.LCFI6:
 795              		.cfi_def_cfa_offset 20
 796              		.cfi_offset 4, -20
 797              		.cfi_offset 5, -16
 798              		.cfi_offset 6, -12
 799              		.cfi_offset 7, -8
 800              		.cfi_offset 14, -4
 801 0002 83B0     		sub	sp, sp, #12
 802              	.LCFI7:
 803              		.cfi_def_cfa_offset 32
 804 0004 0400     		movs	r4, r0
 805 0006 0D00     		movs	r5, r1
 806 0008 1700     		movs	r7, r2
 807 000a 1E00     		movs	r6, r3
 808              	.LVL104:
 809              	.LBB66:
 810              	.LBB67:
 179:e:/LiteOS/LiteOS/targets/Cloud_FM33A0XX/GCC/../../../kernel/base/ipc\los_queue.c ****     {
 811              		.loc 1 179 0
 812 000c 0928     		cmp	r0, #9
 813 000e 0ED8     		bhi	.L52
 183:e:/LiteOS/LiteOS/targets/Cloud_FM33A0XX/GCC/../../../kernel/base/ipc\los_queue.c ****     {
 814              		.loc 1 183 0
 815 0010 0029     		cmp	r1, #0
 816 0012 0ED0     		beq	.L53
 817 0014 002A     		cmp	r2, #0
 818 0016 0ED0     		beq	.L54
 188:e:/LiteOS/LiteOS/targets/Cloud_FM33A0XX/GCC/../../../kernel/base/ipc\los_queue.c ****     {
 819              		.loc 1 188 0
 820 0018 1368     		ldr	r3, [r2]
 821              	.LVL105:
 822 001a 002B     		cmp	r3, #0
 823 001c 0DD0     		beq	.L55
 193:e:/LiteOS/LiteOS/targets/Cloud_FM33A0XX/GCC/../../../kernel/base/ipc\los_queue.c ****     {
 824              		.loc 1 193 0
 825 001e 002E     		cmp	r6, #0
 826 0020 0DD0     		beq	.L56
 195:e:/LiteOS/LiteOS/targets/Cloud_FM33A0XX/GCC/../../../kernel/base/ipc\los_queue.c ****         {
 827              		.loc 1 195 0
 828 0022 FFF7FEFF 		bl	osIntNumGet
 829              	.LVL106:
 830 0026 0028     		cmp	r0, #0
 831 0028 0AD0     		beq	.L50
 197:e:/LiteOS/LiteOS/targets/Cloud_FM33A0XX/GCC/../../../kernel/base/ipc\los_queue.c ****         }
 832              		.loc 1 197 0
 833 002a 0B48     		ldr	r0, .L57
 834 002c 08E0     		b	.L50
 835              	.LVL107:
ARM GAS  C:\Users\WANGBI~1\AppData\Local\Temp\ccac8q5z.s 			page 27


 836              	.L52:
 181:e:/LiteOS/LiteOS/targets/Cloud_FM33A0XX/GCC/../../../kernel/base/ipc\los_queue.c ****     }
 837              		.loc 1 181 0
 838 002e 0B48     		ldr	r0, .L57+4
 839              	.LVL108:
 840 0030 06E0     		b	.L50
 841              	.LVL109:
 842              	.L53:
 185:e:/LiteOS/LiteOS/targets/Cloud_FM33A0XX/GCC/../../../kernel/base/ipc\los_queue.c ****     }
 843              		.loc 1 185 0
 844 0032 0B48     		ldr	r0, .L57+8
 845              	.LVL110:
 846 0034 04E0     		b	.L50
 847              	.LVL111:
 848              	.L54:
 849 0036 0A48     		ldr	r0, .L57+8
 850              	.LVL112:
 851 0038 02E0     		b	.L50
 852              	.LVL113:
 853              	.L55:
 190:e:/LiteOS/LiteOS/targets/Cloud_FM33A0XX/GCC/../../../kernel/base/ipc\los_queue.c ****     }
 854              		.loc 1 190 0
 855 003a 0A48     		ldr	r0, .L57+12
 856              	.LVL114:
 857 003c 00E0     		b	.L50
 858              	.LVL115:
 859              	.L56:
 200:e:/LiteOS/LiteOS/targets/Cloud_FM33A0XX/GCC/../../../kernel/base/ipc\los_queue.c **** }
 860              		.loc 1 200 0
 861 003e 0020     		movs	r0, #0
 862              	.LVL116:
 863              	.L50:
 864              	.LBE67:
 865              	.LBE66:
 388:e:/LiteOS/LiteOS/targets/Cloud_FM33A0XX/GCC/../../../kernel/base/ipc\los_queue.c ****     UINT32 uwRet;
 389:e:/LiteOS/LiteOS/targets/Cloud_FM33A0XX/GCC/../../../kernel/base/ipc\los_queue.c ****     UINT32 uwOperateType;
 390:e:/LiteOS/LiteOS/targets/Cloud_FM33A0XX/GCC/../../../kernel/base/ipc\los_queue.c **** 
 391:e:/LiteOS/LiteOS/targets/Cloud_FM33A0XX/GCC/../../../kernel/base/ipc\los_queue.c ****     uwRet = osQueueReadParameterCheck(uwQueueID, pBufferAddr, puwBufferSize, uwTimeOut);
 392:e:/LiteOS/LiteOS/targets/Cloud_FM33A0XX/GCC/../../../kernel/base/ipc\los_queue.c ****     if(uwRet != LOS_OK)
 866              		.loc 1 392 0
 867 0040 0028     		cmp	r0, #0
 868 0042 06D1     		bne	.L51
 869              	.LVL117:
 393:e:/LiteOS/LiteOS/targets/Cloud_FM33A0XX/GCC/../../../kernel/base/ipc\los_queue.c ****     {
 394:e:/LiteOS/LiteOS/targets/Cloud_FM33A0XX/GCC/../../../kernel/base/ipc\los_queue.c ****         return uwRet;
 395:e:/LiteOS/LiteOS/targets/Cloud_FM33A0XX/GCC/../../../kernel/base/ipc\los_queue.c ****     }
 396:e:/LiteOS/LiteOS/targets/Cloud_FM33A0XX/GCC/../../../kernel/base/ipc\los_queue.c **** 
 397:e:/LiteOS/LiteOS/targets/Cloud_FM33A0XX/GCC/../../../kernel/base/ipc\los_queue.c ****     uwOperateType = OS_QUEUE_OPERATE_TYPE(OS_QUEUE_READ, OS_QUEUE_HEAD,OS_QUEUE_NOT_POINT);
 398:e:/LiteOS/LiteOS/targets/Cloud_FM33A0XX/GCC/../../../kernel/base/ipc\los_queue.c ****     return osQueueOperate(uwQueueID, uwOperateType, pBufferAddr, puwBufferSize, uwTimeOut);
 870              		.loc 1 398 0
 871 0044 0096     		str	r6, [sp]
 872 0046 3B00     		movs	r3, r7
 873 0048 2A00     		movs	r2, r5
 874 004a 0021     		movs	r1, #0
 875 004c 2000     		movs	r0, r4
 876 004e FFF7FEFF 		bl	osQueueOperate
 877              	.LVL118:
ARM GAS  C:\Users\WANGBI~1\AppData\Local\Temp\ccac8q5z.s 			page 28


 878              	.L51:
 399:e:/LiteOS/LiteOS/targets/Cloud_FM33A0XX/GCC/../../../kernel/base/ipc\los_queue.c **** }
 879              		.loc 1 399 0
 880 0052 03B0     		add	sp, sp, #12
 881              		@ sp needed
 882              	.LVL119:
 883              	.LVL120:
 884              	.LVL121:
 885              	.LVL122:
 886 0054 F0BD     		pop	{r4, r5, r6, r7, pc}
 887              	.L58:
 888 0056 C046     		.align	2
 889              	.L57:
 890 0058 18060002 		.word	33555992
 891 005c 0E060002 		.word	33555982
 892 0060 0F060002 		.word	33555983
 893 0064 10060002 		.word	33555984
 894              		.cfi_endproc
 895              	.LFE49:
 897              		.section	.text.LOS_QueueWriteHeadCopy,"ax",%progbits
 898              		.align	2
 899              		.global	LOS_QueueWriteHeadCopy
 900              		.code	16
 901              		.thumb_func
 903              	LOS_QueueWriteHeadCopy:
 904              	.LFB50:
 400:e:/LiteOS/LiteOS/targets/Cloud_FM33A0XX/GCC/../../../kernel/base/ipc\los_queue.c **** 
 401:e:/LiteOS/LiteOS/targets/Cloud_FM33A0XX/GCC/../../../kernel/base/ipc\los_queue.c **** /*****************************************************************************
 402:e:/LiteOS/LiteOS/targets/Cloud_FM33A0XX/GCC/../../../kernel/base/ipc\los_queue.c ****  Function    : LOS_QueueWriteHeadCopy
 403:e:/LiteOS/LiteOS/targets/Cloud_FM33A0XX/GCC/../../../kernel/base/ipc\los_queue.c ****  Description : Write queue head
 404:e:/LiteOS/LiteOS/targets/Cloud_FM33A0XX/GCC/../../../kernel/base/ipc\los_queue.c ****  Input       : uwQueueID
 405:e:/LiteOS/LiteOS/targets/Cloud_FM33A0XX/GCC/../../../kernel/base/ipc\los_queue.c ****                pBufferAddr
 406:e:/LiteOS/LiteOS/targets/Cloud_FM33A0XX/GCC/../../../kernel/base/ipc\los_queue.c ****                uwBufferSize
 407:e:/LiteOS/LiteOS/targets/Cloud_FM33A0XX/GCC/../../../kernel/base/ipc\los_queue.c ****                uwTimeOut
 408:e:/LiteOS/LiteOS/targets/Cloud_FM33A0XX/GCC/../../../kernel/base/ipc\los_queue.c ****  Output      : None
 409:e:/LiteOS/LiteOS/targets/Cloud_FM33A0XX/GCC/../../../kernel/base/ipc\los_queue.c ****  Return      : LOS_OK on success or error code on failure
 410:e:/LiteOS/LiteOS/targets/Cloud_FM33A0XX/GCC/../../../kernel/base/ipc\los_queue.c ****  *****************************************************************************/
 411:e:/LiteOS/LiteOS/targets/Cloud_FM33A0XX/GCC/../../../kernel/base/ipc\los_queue.c **** LITE_OS_SEC_TEXT UINT32 LOS_QueueWriteHeadCopy(UINT32 uwQueueID,
 412:e:/LiteOS/LiteOS/targets/Cloud_FM33A0XX/GCC/../../../kernel/base/ipc\los_queue.c ****                                      VOID * pBufferAddr,
 413:e:/LiteOS/LiteOS/targets/Cloud_FM33A0XX/GCC/../../../kernel/base/ipc\los_queue.c ****                                      UINT32 uwBufferSize,
 414:e:/LiteOS/LiteOS/targets/Cloud_FM33A0XX/GCC/../../../kernel/base/ipc\los_queue.c ****                                      UINT32 uwTimeOut )
 415:e:/LiteOS/LiteOS/targets/Cloud_FM33A0XX/GCC/../../../kernel/base/ipc\los_queue.c **** {
 905              		.loc 1 415 0
 906              		.cfi_startproc
 907              		@ args = 0, pretend = 0, frame = 8
 908              		@ frame_needed = 0, uses_anonymous_args = 0
 909              	.LVL123:
 910 0000 70B5     		push	{r4, r5, r6, lr}
 911              	.LCFI8:
 912              		.cfi_def_cfa_offset 16
 913              		.cfi_offset 4, -16
 914              		.cfi_offset 5, -12
 915              		.cfi_offset 6, -8
 916              		.cfi_offset 14, -4
 917 0002 84B0     		sub	sp, sp, #16
 918              	.LCFI9:
 919              		.cfi_def_cfa_offset 32
ARM GAS  C:\Users\WANGBI~1\AppData\Local\Temp\ccac8q5z.s 			page 29


 920 0004 0400     		movs	r4, r0
 921 0006 0D00     		movs	r5, r1
 922 0008 0392     		str	r2, [sp, #12]
 923 000a 1E00     		movs	r6, r3
 924              	.LVL124:
 925              	.LBB68:
 926              	.LBB69:
 206:e:/LiteOS/LiteOS/targets/Cloud_FM33A0XX/GCC/../../../kernel/base/ipc\los_queue.c ****     {
 927              		.loc 1 206 0
 928 000c 0928     		cmp	r0, #9
 929 000e 0BD8     		bhi	.L62
 211:e:/LiteOS/LiteOS/targets/Cloud_FM33A0XX/GCC/../../../kernel/base/ipc\los_queue.c ****     {
 930              		.loc 1 211 0
 931 0010 0029     		cmp	r1, #0
 932 0012 0BD0     		beq	.L63
 216:e:/LiteOS/LiteOS/targets/Cloud_FM33A0XX/GCC/../../../kernel/base/ipc\los_queue.c ****     {
 933              		.loc 1 216 0
 934 0014 002A     		cmp	r2, #0
 935 0016 0BD0     		beq	.L64
 221:e:/LiteOS/LiteOS/targets/Cloud_FM33A0XX/GCC/../../../kernel/base/ipc\los_queue.c ****     {
 936              		.loc 1 221 0
 937 0018 002E     		cmp	r6, #0
 938 001a 0BD0     		beq	.L65
 223:e:/LiteOS/LiteOS/targets/Cloud_FM33A0XX/GCC/../../../kernel/base/ipc\los_queue.c ****         {
 939              		.loc 1 223 0
 940 001c FFF7FEFF 		bl	osIntNumGet
 941              	.LVL125:
 942 0020 0028     		cmp	r0, #0
 943 0022 08D0     		beq	.L60
 225:e:/LiteOS/LiteOS/targets/Cloud_FM33A0XX/GCC/../../../kernel/base/ipc\los_queue.c ****         }
 944              		.loc 1 225 0
 945 0024 0948     		ldr	r0, .L66
 946 0026 06E0     		b	.L60
 947              	.LVL126:
 948              	.L62:
 208:e:/LiteOS/LiteOS/targets/Cloud_FM33A0XX/GCC/../../../kernel/base/ipc\los_queue.c ****     }
 949              		.loc 1 208 0
 950 0028 0948     		ldr	r0, .L66+4
 951              	.LVL127:
 952 002a 04E0     		b	.L60
 953              	.LVL128:
 954              	.L63:
 213:e:/LiteOS/LiteOS/targets/Cloud_FM33A0XX/GCC/../../../kernel/base/ipc\los_queue.c ****     }
 955              		.loc 1 213 0
 956 002c 0948     		ldr	r0, .L66+8
 957              	.LVL129:
 958 002e 02E0     		b	.L60
 959              	.LVL130:
 960              	.L64:
 218:e:/LiteOS/LiteOS/targets/Cloud_FM33A0XX/GCC/../../../kernel/base/ipc\los_queue.c ****     }
 961              		.loc 1 218 0
 962 0030 0948     		ldr	r0, .L66+12
 963              	.LVL131:
 964 0032 00E0     		b	.L60
 965              	.LVL132:
 966              	.L65:
 228:e:/LiteOS/LiteOS/targets/Cloud_FM33A0XX/GCC/../../../kernel/base/ipc\los_queue.c **** }
ARM GAS  C:\Users\WANGBI~1\AppData\Local\Temp\ccac8q5z.s 			page 30


 967              		.loc 1 228 0
 968 0034 0020     		movs	r0, #0
 969              	.LVL133:
 970              	.L60:
 971              	.LBE69:
 972              	.LBE68:
 416:e:/LiteOS/LiteOS/targets/Cloud_FM33A0XX/GCC/../../../kernel/base/ipc\los_queue.c ****     UINT32 uwRet;
 417:e:/LiteOS/LiteOS/targets/Cloud_FM33A0XX/GCC/../../../kernel/base/ipc\los_queue.c ****     UINT32 uwOperateType;
 418:e:/LiteOS/LiteOS/targets/Cloud_FM33A0XX/GCC/../../../kernel/base/ipc\los_queue.c **** 
 419:e:/LiteOS/LiteOS/targets/Cloud_FM33A0XX/GCC/../../../kernel/base/ipc\los_queue.c ****     uwRet = osQueueWriteParameterCheck(uwQueueID, pBufferAddr, &uwBufferSize, uwTimeOut);
 420:e:/LiteOS/LiteOS/targets/Cloud_FM33A0XX/GCC/../../../kernel/base/ipc\los_queue.c ****     if(uwRet != LOS_OK)
 973              		.loc 1 420 0
 974 0036 0028     		cmp	r0, #0
 975 0038 06D1     		bne	.L61
 976              	.LVL134:
 421:e:/LiteOS/LiteOS/targets/Cloud_FM33A0XX/GCC/../../../kernel/base/ipc\los_queue.c ****     {
 422:e:/LiteOS/LiteOS/targets/Cloud_FM33A0XX/GCC/../../../kernel/base/ipc\los_queue.c ****         return uwRet;
 423:e:/LiteOS/LiteOS/targets/Cloud_FM33A0XX/GCC/../../../kernel/base/ipc\los_queue.c ****     }
 424:e:/LiteOS/LiteOS/targets/Cloud_FM33A0XX/GCC/../../../kernel/base/ipc\los_queue.c **** 
 425:e:/LiteOS/LiteOS/targets/Cloud_FM33A0XX/GCC/../../../kernel/base/ipc\los_queue.c ****     uwOperateType = OS_QUEUE_OPERATE_TYPE(OS_QUEUE_WRITE, OS_QUEUE_HEAD,OS_QUEUE_NOT_POINT);
 426:e:/LiteOS/LiteOS/targets/Cloud_FM33A0XX/GCC/../../../kernel/base/ipc\los_queue.c ****     return osQueueOperate(uwQueueID, uwOperateType, pBufferAddr, &uwBufferSize, uwTimeOut);
 977              		.loc 1 426 0
 978 003a 0096     		str	r6, [sp]
 979 003c 03AB     		add	r3, sp, #12
 980              	.LVL135:
 981 003e 2A00     		movs	r2, r5
 982 0040 0121     		movs	r1, #1
 983 0042 2000     		movs	r0, r4
 984 0044 FFF7FEFF 		bl	osQueueOperate
 985              	.LVL136:
 986              	.L61:
 427:e:/LiteOS/LiteOS/targets/Cloud_FM33A0XX/GCC/../../../kernel/base/ipc\los_queue.c **** }
 987              		.loc 1 427 0
 988 0048 04B0     		add	sp, sp, #16
 989              		@ sp needed
 990              	.LVL137:
 991              	.LVL138:
 992              	.LVL139:
 993 004a 70BD     		pop	{r4, r5, r6, pc}
 994              	.L67:
 995              		.align	2
 996              	.L66:
 997 004c 09060002 		.word	33555977
 998 0050 0E060002 		.word	33555982
 999 0054 12060002 		.word	33555986
 1000 0058 13060002 		.word	33555987
 1001              		.cfi_endproc
 1002              	.LFE50:
 1004              		.section	.text.LOS_QueueWriteCopy,"ax",%progbits
 1005              		.align	2
 1006              		.global	LOS_QueueWriteCopy
 1007              		.code	16
 1008              		.thumb_func
 1010              	LOS_QueueWriteCopy:
 1011              	.LFB51:
 428:e:/LiteOS/LiteOS/targets/Cloud_FM33A0XX/GCC/../../../kernel/base/ipc\los_queue.c **** 
 429:e:/LiteOS/LiteOS/targets/Cloud_FM33A0XX/GCC/../../../kernel/base/ipc\los_queue.c **** /*****************************************************************************
ARM GAS  C:\Users\WANGBI~1\AppData\Local\Temp\ccac8q5z.s 			page 31


 430:e:/LiteOS/LiteOS/targets/Cloud_FM33A0XX/GCC/../../../kernel/base/ipc\los_queue.c ****  Function    : LOS_QueueWriteCopy
 431:e:/LiteOS/LiteOS/targets/Cloud_FM33A0XX/GCC/../../../kernel/base/ipc\los_queue.c ****  Description : Write queue tail
 432:e:/LiteOS/LiteOS/targets/Cloud_FM33A0XX/GCC/../../../kernel/base/ipc\los_queue.c ****  Input       : uwQueueID
 433:e:/LiteOS/LiteOS/targets/Cloud_FM33A0XX/GCC/../../../kernel/base/ipc\los_queue.c ****                pBufferAddr
 434:e:/LiteOS/LiteOS/targets/Cloud_FM33A0XX/GCC/../../../kernel/base/ipc\los_queue.c ****                uwBufferSize
 435:e:/LiteOS/LiteOS/targets/Cloud_FM33A0XX/GCC/../../../kernel/base/ipc\los_queue.c ****                uwTimeOut
 436:e:/LiteOS/LiteOS/targets/Cloud_FM33A0XX/GCC/../../../kernel/base/ipc\los_queue.c ****  Output      : None
 437:e:/LiteOS/LiteOS/targets/Cloud_FM33A0XX/GCC/../../../kernel/base/ipc\los_queue.c ****  Return      : LOS_OK on success or error code on failure
 438:e:/LiteOS/LiteOS/targets/Cloud_FM33A0XX/GCC/../../../kernel/base/ipc\los_queue.c ****  *****************************************************************************/
 439:e:/LiteOS/LiteOS/targets/Cloud_FM33A0XX/GCC/../../../kernel/base/ipc\los_queue.c **** LITE_OS_SEC_TEXT UINT32 LOS_QueueWriteCopy( UINT32 uwQueueID,
 440:e:/LiteOS/LiteOS/targets/Cloud_FM33A0XX/GCC/../../../kernel/base/ipc\los_queue.c ****                                      VOID * pBufferAddr,
 441:e:/LiteOS/LiteOS/targets/Cloud_FM33A0XX/GCC/../../../kernel/base/ipc\los_queue.c ****                                      UINT32 uwBufferSize,
 442:e:/LiteOS/LiteOS/targets/Cloud_FM33A0XX/GCC/../../../kernel/base/ipc\los_queue.c ****                                      UINT32 uwTimeOut )
 443:e:/LiteOS/LiteOS/targets/Cloud_FM33A0XX/GCC/../../../kernel/base/ipc\los_queue.c **** {
 1012              		.loc 1 443 0
 1013              		.cfi_startproc
 1014              		@ args = 0, pretend = 0, frame = 8
 1015              		@ frame_needed = 0, uses_anonymous_args = 0
 1016              	.LVL140:
 1017 0000 70B5     		push	{r4, r5, r6, lr}
 1018              	.LCFI10:
 1019              		.cfi_def_cfa_offset 16
 1020              		.cfi_offset 4, -16
 1021              		.cfi_offset 5, -12
 1022              		.cfi_offset 6, -8
 1023              		.cfi_offset 14, -4
 1024 0002 84B0     		sub	sp, sp, #16
 1025              	.LCFI11:
 1026              		.cfi_def_cfa_offset 32
 1027 0004 0400     		movs	r4, r0
 1028 0006 0D00     		movs	r5, r1
 1029 0008 0392     		str	r2, [sp, #12]
 1030 000a 1E00     		movs	r6, r3
 1031              	.LVL141:
 1032              	.LBB70:
 1033              	.LBB71:
 206:e:/LiteOS/LiteOS/targets/Cloud_FM33A0XX/GCC/../../../kernel/base/ipc\los_queue.c ****     {
 1034              		.loc 1 206 0
 1035 000c 0928     		cmp	r0, #9
 1036 000e 0BD8     		bhi	.L71
 211:e:/LiteOS/LiteOS/targets/Cloud_FM33A0XX/GCC/../../../kernel/base/ipc\los_queue.c ****     {
 1037              		.loc 1 211 0
 1038 0010 0029     		cmp	r1, #0
 1039 0012 0BD0     		beq	.L72
 216:e:/LiteOS/LiteOS/targets/Cloud_FM33A0XX/GCC/../../../kernel/base/ipc\los_queue.c ****     {
 1040              		.loc 1 216 0
 1041 0014 002A     		cmp	r2, #0
 1042 0016 0BD0     		beq	.L73
 221:e:/LiteOS/LiteOS/targets/Cloud_FM33A0XX/GCC/../../../kernel/base/ipc\los_queue.c ****     {
 1043              		.loc 1 221 0
 1044 0018 002E     		cmp	r6, #0
 1045 001a 0BD0     		beq	.L74
 223:e:/LiteOS/LiteOS/targets/Cloud_FM33A0XX/GCC/../../../kernel/base/ipc\los_queue.c ****         {
 1046              		.loc 1 223 0
 1047 001c FFF7FEFF 		bl	osIntNumGet
 1048              	.LVL142:
 1049 0020 0028     		cmp	r0, #0
ARM GAS  C:\Users\WANGBI~1\AppData\Local\Temp\ccac8q5z.s 			page 32


 1050 0022 08D0     		beq	.L69
 225:e:/LiteOS/LiteOS/targets/Cloud_FM33A0XX/GCC/../../../kernel/base/ipc\los_queue.c ****         }
 1051              		.loc 1 225 0
 1052 0024 0948     		ldr	r0, .L75
 1053 0026 06E0     		b	.L69
 1054              	.LVL143:
 1055              	.L71:
 208:e:/LiteOS/LiteOS/targets/Cloud_FM33A0XX/GCC/../../../kernel/base/ipc\los_queue.c ****     }
 1056              		.loc 1 208 0
 1057 0028 0948     		ldr	r0, .L75+4
 1058              	.LVL144:
 1059 002a 04E0     		b	.L69
 1060              	.LVL145:
 1061              	.L72:
 213:e:/LiteOS/LiteOS/targets/Cloud_FM33A0XX/GCC/../../../kernel/base/ipc\los_queue.c ****     }
 1062              		.loc 1 213 0
 1063 002c 0948     		ldr	r0, .L75+8
 1064              	.LVL146:
 1065 002e 02E0     		b	.L69
 1066              	.LVL147:
 1067              	.L73:
 218:e:/LiteOS/LiteOS/targets/Cloud_FM33A0XX/GCC/../../../kernel/base/ipc\los_queue.c ****     }
 1068              		.loc 1 218 0
 1069 0030 0948     		ldr	r0, .L75+12
 1070              	.LVL148:
 1071 0032 00E0     		b	.L69
 1072              	.LVL149:
 1073              	.L74:
 228:e:/LiteOS/LiteOS/targets/Cloud_FM33A0XX/GCC/../../../kernel/base/ipc\los_queue.c **** }
 1074              		.loc 1 228 0
 1075 0034 0020     		movs	r0, #0
 1076              	.LVL150:
 1077              	.L69:
 1078              	.LBE71:
 1079              	.LBE70:
 444:e:/LiteOS/LiteOS/targets/Cloud_FM33A0XX/GCC/../../../kernel/base/ipc\los_queue.c ****     UINT32 uwRet;
 445:e:/LiteOS/LiteOS/targets/Cloud_FM33A0XX/GCC/../../../kernel/base/ipc\los_queue.c ****     UINT32 uwOperateType;
 446:e:/LiteOS/LiteOS/targets/Cloud_FM33A0XX/GCC/../../../kernel/base/ipc\los_queue.c **** 
 447:e:/LiteOS/LiteOS/targets/Cloud_FM33A0XX/GCC/../../../kernel/base/ipc\los_queue.c ****     uwRet = osQueueWriteParameterCheck(uwQueueID, pBufferAddr, &uwBufferSize, uwTimeOut);
 448:e:/LiteOS/LiteOS/targets/Cloud_FM33A0XX/GCC/../../../kernel/base/ipc\los_queue.c ****     if(uwRet != LOS_OK)
 1080              		.loc 1 448 0
 1081 0036 0028     		cmp	r0, #0
 1082 0038 06D1     		bne	.L70
 1083              	.LVL151:
 449:e:/LiteOS/LiteOS/targets/Cloud_FM33A0XX/GCC/../../../kernel/base/ipc\los_queue.c ****     {
 450:e:/LiteOS/LiteOS/targets/Cloud_FM33A0XX/GCC/../../../kernel/base/ipc\los_queue.c ****         return uwRet;
 451:e:/LiteOS/LiteOS/targets/Cloud_FM33A0XX/GCC/../../../kernel/base/ipc\los_queue.c ****     }
 452:e:/LiteOS/LiteOS/targets/Cloud_FM33A0XX/GCC/../../../kernel/base/ipc\los_queue.c **** 
 453:e:/LiteOS/LiteOS/targets/Cloud_FM33A0XX/GCC/../../../kernel/base/ipc\los_queue.c ****     uwOperateType = OS_QUEUE_OPERATE_TYPE(OS_QUEUE_WRITE, OS_QUEUE_TAIL, OS_QUEUE_NOT_POINT);
 454:e:/LiteOS/LiteOS/targets/Cloud_FM33A0XX/GCC/../../../kernel/base/ipc\los_queue.c ****     return osQueueOperate(uwQueueID, uwOperateType, pBufferAddr, &uwBufferSize, uwTimeOut);
 1084              		.loc 1 454 0
 1085 003a 0096     		str	r6, [sp]
 1086 003c 03AB     		add	r3, sp, #12
 1087              	.LVL152:
 1088 003e 2A00     		movs	r2, r5
 1089 0040 0321     		movs	r1, #3
 1090 0042 2000     		movs	r0, r4
ARM GAS  C:\Users\WANGBI~1\AppData\Local\Temp\ccac8q5z.s 			page 33


 1091 0044 FFF7FEFF 		bl	osQueueOperate
 1092              	.LVL153:
 1093              	.L70:
 455:e:/LiteOS/LiteOS/targets/Cloud_FM33A0XX/GCC/../../../kernel/base/ipc\los_queue.c **** }
 1094              		.loc 1 455 0
 1095 0048 04B0     		add	sp, sp, #16
 1096              		@ sp needed
 1097              	.LVL154:
 1098              	.LVL155:
 1099              	.LVL156:
 1100 004a 70BD     		pop	{r4, r5, r6, pc}
 1101              	.L76:
 1102              		.align	2
 1103              	.L75:
 1104 004c 09060002 		.word	33555977
 1105 0050 0E060002 		.word	33555982
 1106 0054 12060002 		.word	33555986
 1107 0058 13060002 		.word	33555987
 1108              		.cfi_endproc
 1109              	.LFE51:
 1111              		.section	.text.LOS_QueueRead,"ax",%progbits
 1112              		.align	2
 1113              		.global	LOS_QueueRead
 1114              		.code	16
 1115              		.thumb_func
 1117              	LOS_QueueRead:
 1118              	.LFB52:
 456:e:/LiteOS/LiteOS/targets/Cloud_FM33A0XX/GCC/../../../kernel/base/ipc\los_queue.c **** 
 457:e:/LiteOS/LiteOS/targets/Cloud_FM33A0XX/GCC/../../../kernel/base/ipc\los_queue.c **** /*****************************************************************************
 458:e:/LiteOS/LiteOS/targets/Cloud_FM33A0XX/GCC/../../../kernel/base/ipc\los_queue.c ****  Function    : LOS_QueueRead
 459:e:/LiteOS/LiteOS/targets/Cloud_FM33A0XX/GCC/../../../kernel/base/ipc\los_queue.c ****  Description : read queue
 460:e:/LiteOS/LiteOS/targets/Cloud_FM33A0XX/GCC/../../../kernel/base/ipc\los_queue.c ****  Input       : uwQueueID
 461:e:/LiteOS/LiteOS/targets/Cloud_FM33A0XX/GCC/../../../kernel/base/ipc\los_queue.c ****                uwBufferSize
 462:e:/LiteOS/LiteOS/targets/Cloud_FM33A0XX/GCC/../../../kernel/base/ipc\los_queue.c ****                uwTimeOut
 463:e:/LiteOS/LiteOS/targets/Cloud_FM33A0XX/GCC/../../../kernel/base/ipc\los_queue.c ****  Output      : pBufferAddr
 464:e:/LiteOS/LiteOS/targets/Cloud_FM33A0XX/GCC/../../../kernel/base/ipc\los_queue.c ****  Return      : LOS_OK on success or error code on failure
 465:e:/LiteOS/LiteOS/targets/Cloud_FM33A0XX/GCC/../../../kernel/base/ipc\los_queue.c ****  *****************************************************************************/
 466:e:/LiteOS/LiteOS/targets/Cloud_FM33A0XX/GCC/../../../kernel/base/ipc\los_queue.c **** LITE_OS_SEC_TEXT UINT32 LOS_QueueRead(UINT32  uwQueueID, VOID *pBufferAddr, UINT32 uwBufferSize, UI
 467:e:/LiteOS/LiteOS/targets/Cloud_FM33A0XX/GCC/../../../kernel/base/ipc\los_queue.c **** {
 1119              		.loc 1 467 0
 1120              		.cfi_startproc
 1121              		@ args = 0, pretend = 0, frame = 8
 1122              		@ frame_needed = 0, uses_anonymous_args = 0
 1123              	.LVL157:
 1124 0000 70B5     		push	{r4, r5, r6, lr}
 1125              	.LCFI12:
 1126              		.cfi_def_cfa_offset 16
 1127              		.cfi_offset 4, -16
 1128              		.cfi_offset 5, -12
 1129              		.cfi_offset 6, -8
 1130              		.cfi_offset 14, -4
 1131 0002 84B0     		sub	sp, sp, #16
 1132              	.LCFI13:
 1133              		.cfi_def_cfa_offset 32
 1134 0004 0400     		movs	r4, r0
 1135 0006 0D00     		movs	r5, r1
 1136 0008 0392     		str	r2, [sp, #12]
ARM GAS  C:\Users\WANGBI~1\AppData\Local\Temp\ccac8q5z.s 			page 34


 1137 000a 1E00     		movs	r6, r3
 1138              	.LVL158:
 1139              	.LBB72:
 1140              	.LBB73:
 179:e:/LiteOS/LiteOS/targets/Cloud_FM33A0XX/GCC/../../../kernel/base/ipc\los_queue.c ****     {
 1141              		.loc 1 179 0
 1142 000c 0928     		cmp	r0, #9
 1143 000e 0BD8     		bhi	.L80
 183:e:/LiteOS/LiteOS/targets/Cloud_FM33A0XX/GCC/../../../kernel/base/ipc\los_queue.c ****     {
 1144              		.loc 1 183 0
 1145 0010 0029     		cmp	r1, #0
 1146 0012 0BD0     		beq	.L81
 188:e:/LiteOS/LiteOS/targets/Cloud_FM33A0XX/GCC/../../../kernel/base/ipc\los_queue.c ****     {
 1147              		.loc 1 188 0
 1148 0014 002A     		cmp	r2, #0
 1149 0016 0BD0     		beq	.L82
 193:e:/LiteOS/LiteOS/targets/Cloud_FM33A0XX/GCC/../../../kernel/base/ipc\los_queue.c ****     {
 1150              		.loc 1 193 0
 1151 0018 002E     		cmp	r6, #0
 1152 001a 0BD0     		beq	.L83
 195:e:/LiteOS/LiteOS/targets/Cloud_FM33A0XX/GCC/../../../kernel/base/ipc\los_queue.c ****         {
 1153              		.loc 1 195 0
 1154 001c FFF7FEFF 		bl	osIntNumGet
 1155              	.LVL159:
 1156 0020 0028     		cmp	r0, #0
 1157 0022 08D0     		beq	.L78
 197:e:/LiteOS/LiteOS/targets/Cloud_FM33A0XX/GCC/../../../kernel/base/ipc\los_queue.c ****         }
 1158              		.loc 1 197 0
 1159 0024 0948     		ldr	r0, .L84
 1160 0026 06E0     		b	.L78
 1161              	.LVL160:
 1162              	.L80:
 181:e:/LiteOS/LiteOS/targets/Cloud_FM33A0XX/GCC/../../../kernel/base/ipc\los_queue.c ****     }
 1163              		.loc 1 181 0
 1164 0028 0948     		ldr	r0, .L84+4
 1165              	.LVL161:
 1166 002a 04E0     		b	.L78
 1167              	.LVL162:
 1168              	.L81:
 185:e:/LiteOS/LiteOS/targets/Cloud_FM33A0XX/GCC/../../../kernel/base/ipc\los_queue.c ****     }
 1169              		.loc 1 185 0
 1170 002c 0948     		ldr	r0, .L84+8
 1171              	.LVL163:
 1172 002e 02E0     		b	.L78
 1173              	.LVL164:
 1174              	.L82:
 190:e:/LiteOS/LiteOS/targets/Cloud_FM33A0XX/GCC/../../../kernel/base/ipc\los_queue.c ****     }
 1175              		.loc 1 190 0
 1176 0030 0948     		ldr	r0, .L84+12
 1177              	.LVL165:
 1178 0032 00E0     		b	.L78
 1179              	.LVL166:
 1180              	.L83:
 200:e:/LiteOS/LiteOS/targets/Cloud_FM33A0XX/GCC/../../../kernel/base/ipc\los_queue.c **** }
 1181              		.loc 1 200 0
 1182 0034 0020     		movs	r0, #0
 1183              	.LVL167:
ARM GAS  C:\Users\WANGBI~1\AppData\Local\Temp\ccac8q5z.s 			page 35


 1184              	.L78:
 1185              	.LBE73:
 1186              	.LBE72:
 468:e:/LiteOS/LiteOS/targets/Cloud_FM33A0XX/GCC/../../../kernel/base/ipc\los_queue.c ****     UINT32 uwRet;
 469:e:/LiteOS/LiteOS/targets/Cloud_FM33A0XX/GCC/../../../kernel/base/ipc\los_queue.c ****     UINT32 uwOperateType;
 470:e:/LiteOS/LiteOS/targets/Cloud_FM33A0XX/GCC/../../../kernel/base/ipc\los_queue.c **** 
 471:e:/LiteOS/LiteOS/targets/Cloud_FM33A0XX/GCC/../../../kernel/base/ipc\los_queue.c ****     uwRet = osQueueReadParameterCheck(uwQueueID, pBufferAddr, &uwBufferSize, uwTimeOut);
 472:e:/LiteOS/LiteOS/targets/Cloud_FM33A0XX/GCC/../../../kernel/base/ipc\los_queue.c ****     if(uwRet != LOS_OK)
 1187              		.loc 1 472 0
 1188 0036 0028     		cmp	r0, #0
 1189 0038 06D1     		bne	.L79
 1190              	.LVL168:
 473:e:/LiteOS/LiteOS/targets/Cloud_FM33A0XX/GCC/../../../kernel/base/ipc\los_queue.c ****     {
 474:e:/LiteOS/LiteOS/targets/Cloud_FM33A0XX/GCC/../../../kernel/base/ipc\los_queue.c ****         return uwRet;
 475:e:/LiteOS/LiteOS/targets/Cloud_FM33A0XX/GCC/../../../kernel/base/ipc\los_queue.c ****     }
 476:e:/LiteOS/LiteOS/targets/Cloud_FM33A0XX/GCC/../../../kernel/base/ipc\los_queue.c **** 
 477:e:/LiteOS/LiteOS/targets/Cloud_FM33A0XX/GCC/../../../kernel/base/ipc\los_queue.c ****     uwOperateType = OS_QUEUE_OPERATE_TYPE(OS_QUEUE_READ, OS_QUEUE_HEAD, OS_QUEUE_POINT);
 478:e:/LiteOS/LiteOS/targets/Cloud_FM33A0XX/GCC/../../../kernel/base/ipc\los_queue.c ****     return osQueueOperate(uwQueueID, uwOperateType, pBufferAddr, &uwBufferSize, uwTimeOut);
 1191              		.loc 1 478 0
 1192 003a 0096     		str	r6, [sp]
 1193 003c 03AB     		add	r3, sp, #12
 1194              	.LVL169:
 1195 003e 2A00     		movs	r2, r5
 1196 0040 0421     		movs	r1, #4
 1197 0042 2000     		movs	r0, r4
 1198 0044 FFF7FEFF 		bl	osQueueOperate
 1199              	.LVL170:
 1200              	.L79:
 479:e:/LiteOS/LiteOS/targets/Cloud_FM33A0XX/GCC/../../../kernel/base/ipc\los_queue.c **** }
 1201              		.loc 1 479 0
 1202 0048 04B0     		add	sp, sp, #16
 1203              		@ sp needed
 1204              	.LVL171:
 1205              	.LVL172:
 1206              	.LVL173:
 1207 004a 70BD     		pop	{r4, r5, r6, pc}
 1208              	.L85:
 1209              		.align	2
 1210              	.L84:
 1211 004c 18060002 		.word	33555992
 1212 0050 0E060002 		.word	33555982
 1213 0054 0F060002 		.word	33555983
 1214 0058 10060002 		.word	33555984
 1215              		.cfi_endproc
 1216              	.LFE52:
 1218              		.section	.text.LOS_QueueWrite,"ax",%progbits
 1219              		.align	2
 1220              		.global	LOS_QueueWrite
 1221              		.code	16
 1222              		.thumb_func
 1224              	LOS_QueueWrite:
 1225              	.LFB53:
 480:e:/LiteOS/LiteOS/targets/Cloud_FM33A0XX/GCC/../../../kernel/base/ipc\los_queue.c **** 
 481:e:/LiteOS/LiteOS/targets/Cloud_FM33A0XX/GCC/../../../kernel/base/ipc\los_queue.c **** /*****************************************************************************
 482:e:/LiteOS/LiteOS/targets/Cloud_FM33A0XX/GCC/../../../kernel/base/ipc\los_queue.c ****  Function    : LOS_QueueWrite
 483:e:/LiteOS/LiteOS/targets/Cloud_FM33A0XX/GCC/../../../kernel/base/ipc\los_queue.c ****  Description : Write queue tail
 484:e:/LiteOS/LiteOS/targets/Cloud_FM33A0XX/GCC/../../../kernel/base/ipc\los_queue.c ****  Input       : uwQueueID
ARM GAS  C:\Users\WANGBI~1\AppData\Local\Temp\ccac8q5z.s 			page 36


 485:e:/LiteOS/LiteOS/targets/Cloud_FM33A0XX/GCC/../../../kernel/base/ipc\los_queue.c ****                pBufferAddr
 486:e:/LiteOS/LiteOS/targets/Cloud_FM33A0XX/GCC/../../../kernel/base/ipc\los_queue.c ****                uwBufferSize
 487:e:/LiteOS/LiteOS/targets/Cloud_FM33A0XX/GCC/../../../kernel/base/ipc\los_queue.c ****                uwTimeOut
 488:e:/LiteOS/LiteOS/targets/Cloud_FM33A0XX/GCC/../../../kernel/base/ipc\los_queue.c ****  Output      : None
 489:e:/LiteOS/LiteOS/targets/Cloud_FM33A0XX/GCC/../../../kernel/base/ipc\los_queue.c ****  Return      : LOS_OK on success or error code on failure
 490:e:/LiteOS/LiteOS/targets/Cloud_FM33A0XX/GCC/../../../kernel/base/ipc\los_queue.c ****  *****************************************************************************/
 491:e:/LiteOS/LiteOS/targets/Cloud_FM33A0XX/GCC/../../../kernel/base/ipc\los_queue.c **** LITE_OS_SEC_TEXT UINT32 LOS_QueueWrite(UINT32 uwQueueID, VOID *pBufferAddr, UINT32 uwBufferSize, UI
 492:e:/LiteOS/LiteOS/targets/Cloud_FM33A0XX/GCC/../../../kernel/base/ipc\los_queue.c **** {
 1226              		.loc 1 492 0
 1227              		.cfi_startproc
 1228              		@ args = 0, pretend = 0, frame = 8
 1229              		@ frame_needed = 0, uses_anonymous_args = 0
 1230              	.LVL174:
 1231 0000 30B5     		push	{r4, r5, lr}
 1232              	.LCFI14:
 1233              		.cfi_def_cfa_offset 12
 1234              		.cfi_offset 4, -12
 1235              		.cfi_offset 5, -8
 1236              		.cfi_offset 14, -4
 1237 0002 85B0     		sub	sp, sp, #20
 1238              	.LCFI15:
 1239              		.cfi_def_cfa_offset 32
 1240 0004 0400     		movs	r4, r0
 1241 0006 0391     		str	r1, [sp, #12]
 1242 0008 1D00     		movs	r5, r3
 493:e:/LiteOS/LiteOS/targets/Cloud_FM33A0XX/GCC/../../../kernel/base/ipc\los_queue.c ****     UINT32 uwRet;
 494:e:/LiteOS/LiteOS/targets/Cloud_FM33A0XX/GCC/../../../kernel/base/ipc\los_queue.c ****     UINT32 uwOperateType;
 495:e:/LiteOS/LiteOS/targets/Cloud_FM33A0XX/GCC/../../../kernel/base/ipc\los_queue.c **** 
 496:e:/LiteOS/LiteOS/targets/Cloud_FM33A0XX/GCC/../../../kernel/base/ipc\los_queue.c ****     uwBufferSize = sizeof(UINT32*);
 1243              		.loc 1 496 0
 1244 000a 0423     		movs	r3, #4
 1245              	.LVL175:
 1246 000c 0293     		str	r3, [sp, #8]
 1247              	.LVL176:
 1248              	.LBB74:
 1249              	.LBB75:
 206:e:/LiteOS/LiteOS/targets/Cloud_FM33A0XX/GCC/../../../kernel/base/ipc\los_queue.c ****     {
 1250              		.loc 1 206 0
 1251 000e 0928     		cmp	r0, #9
 1252 0010 09D8     		bhi	.L89
 211:e:/LiteOS/LiteOS/targets/Cloud_FM33A0XX/GCC/../../../kernel/base/ipc\los_queue.c ****     {
 1253              		.loc 1 211 0
 1254 0012 0029     		cmp	r1, #0
 1255 0014 09D0     		beq	.L90
 221:e:/LiteOS/LiteOS/targets/Cloud_FM33A0XX/GCC/../../../kernel/base/ipc\los_queue.c ****     {
 1256              		.loc 1 221 0
 1257 0016 002D     		cmp	r5, #0
 1258 0018 09D0     		beq	.L91
 223:e:/LiteOS/LiteOS/targets/Cloud_FM33A0XX/GCC/../../../kernel/base/ipc\los_queue.c ****         {
 1259              		.loc 1 223 0
 1260 001a FFF7FEFF 		bl	osIntNumGet
 1261              	.LVL177:
 1262 001e 0028     		cmp	r0, #0
 1263 0020 06D0     		beq	.L87
 225:e:/LiteOS/LiteOS/targets/Cloud_FM33A0XX/GCC/../../../kernel/base/ipc\los_queue.c ****         }
 1264              		.loc 1 225 0
 1265 0022 0948     		ldr	r0, .L92
ARM GAS  C:\Users\WANGBI~1\AppData\Local\Temp\ccac8q5z.s 			page 37


 1266 0024 04E0     		b	.L87
 1267              	.LVL178:
 1268              	.L89:
 208:e:/LiteOS/LiteOS/targets/Cloud_FM33A0XX/GCC/../../../kernel/base/ipc\los_queue.c ****     }
 1269              		.loc 1 208 0
 1270 0026 0948     		ldr	r0, .L92+4
 1271              	.LVL179:
 1272 0028 02E0     		b	.L87
 1273              	.LVL180:
 1274              	.L90:
 213:e:/LiteOS/LiteOS/targets/Cloud_FM33A0XX/GCC/../../../kernel/base/ipc\los_queue.c ****     }
 1275              		.loc 1 213 0
 1276 002a 0948     		ldr	r0, .L92+8
 1277              	.LVL181:
 1278 002c 00E0     		b	.L87
 1279              	.LVL182:
 1280              	.L91:
 228:e:/LiteOS/LiteOS/targets/Cloud_FM33A0XX/GCC/../../../kernel/base/ipc\los_queue.c **** }
 1281              		.loc 1 228 0
 1282 002e 0020     		movs	r0, #0
 1283              	.LVL183:
 1284              	.L87:
 1285              	.LBE75:
 1286              	.LBE74:
 497:e:/LiteOS/LiteOS/targets/Cloud_FM33A0XX/GCC/../../../kernel/base/ipc\los_queue.c **** 
 498:e:/LiteOS/LiteOS/targets/Cloud_FM33A0XX/GCC/../../../kernel/base/ipc\los_queue.c ****     uwRet = osQueueWriteParameterCheck(uwQueueID, pBufferAddr, &uwBufferSize, uwTimeOut);
 499:e:/LiteOS/LiteOS/targets/Cloud_FM33A0XX/GCC/../../../kernel/base/ipc\los_queue.c ****     if(uwRet != LOS_OK)
 1287              		.loc 1 499 0
 1288 0030 0028     		cmp	r0, #0
 1289 0032 06D1     		bne	.L88
 1290              	.LVL184:
 500:e:/LiteOS/LiteOS/targets/Cloud_FM33A0XX/GCC/../../../kernel/base/ipc\los_queue.c ****     {
 501:e:/LiteOS/LiteOS/targets/Cloud_FM33A0XX/GCC/../../../kernel/base/ipc\los_queue.c ****         return uwRet;
 502:e:/LiteOS/LiteOS/targets/Cloud_FM33A0XX/GCC/../../../kernel/base/ipc\los_queue.c ****     }
 503:e:/LiteOS/LiteOS/targets/Cloud_FM33A0XX/GCC/../../../kernel/base/ipc\los_queue.c **** 
 504:e:/LiteOS/LiteOS/targets/Cloud_FM33A0XX/GCC/../../../kernel/base/ipc\los_queue.c ****     uwOperateType = OS_QUEUE_OPERATE_TYPE(OS_QUEUE_WRITE, OS_QUEUE_TAIL, OS_QUEUE_POINT);
 505:e:/LiteOS/LiteOS/targets/Cloud_FM33A0XX/GCC/../../../kernel/base/ipc\los_queue.c ****     return osQueueOperate(uwQueueID, uwOperateType, &pBufferAddr, &uwBufferSize, uwTimeOut);
 1291              		.loc 1 505 0
 1292 0034 0095     		str	r5, [sp]
 1293 0036 02AB     		add	r3, sp, #8
 1294 0038 03AA     		add	r2, sp, #12
 1295              	.LVL185:
 1296 003a 0721     		movs	r1, #7
 1297 003c 2000     		movs	r0, r4
 1298 003e FFF7FEFF 		bl	osQueueOperate
 1299              	.LVL186:
 1300              	.L88:
 506:e:/LiteOS/LiteOS/targets/Cloud_FM33A0XX/GCC/../../../kernel/base/ipc\los_queue.c **** }
 1301              		.loc 1 506 0
 1302 0042 05B0     		add	sp, sp, #20
 1303              		@ sp needed
 1304              	.LVL187:
 1305              	.LVL188:
 1306 0044 30BD     		pop	{r4, r5, pc}
 1307              	.L93:
 1308 0046 C046     		.align	2
 1309              	.L92:
ARM GAS  C:\Users\WANGBI~1\AppData\Local\Temp\ccac8q5z.s 			page 38


 1310 0048 09060002 		.word	33555977
 1311 004c 0E060002 		.word	33555982
 1312 0050 12060002 		.word	33555986
 1313              		.cfi_endproc
 1314              	.LFE53:
 1316              		.section	.text.LOS_QueueWriteHead,"ax",%progbits
 1317              		.align	2
 1318              		.global	LOS_QueueWriteHead
 1319              		.code	16
 1320              		.thumb_func
 1322              	LOS_QueueWriteHead:
 1323              	.LFB54:
 507:e:/LiteOS/LiteOS/targets/Cloud_FM33A0XX/GCC/../../../kernel/base/ipc\los_queue.c **** 
 508:e:/LiteOS/LiteOS/targets/Cloud_FM33A0XX/GCC/../../../kernel/base/ipc\los_queue.c **** /*****************************************************************************
 509:e:/LiteOS/LiteOS/targets/Cloud_FM33A0XX/GCC/../../../kernel/base/ipc\los_queue.c ****  Function    : LOS_QueueWriteHead
 510:e:/LiteOS/LiteOS/targets/Cloud_FM33A0XX/GCC/../../../kernel/base/ipc\los_queue.c ****  Description : write queue head
 511:e:/LiteOS/LiteOS/targets/Cloud_FM33A0XX/GCC/../../../kernel/base/ipc\los_queue.c ****  Input       : uwQueueID
 512:e:/LiteOS/LiteOS/targets/Cloud_FM33A0XX/GCC/../../../kernel/base/ipc\los_queue.c ****                pBufferAddr
 513:e:/LiteOS/LiteOS/targets/Cloud_FM33A0XX/GCC/../../../kernel/base/ipc\los_queue.c ****                uwBufferSize
 514:e:/LiteOS/LiteOS/targets/Cloud_FM33A0XX/GCC/../../../kernel/base/ipc\los_queue.c ****                uwTimeOut
 515:e:/LiteOS/LiteOS/targets/Cloud_FM33A0XX/GCC/../../../kernel/base/ipc\los_queue.c ****  Output      : None
 516:e:/LiteOS/LiteOS/targets/Cloud_FM33A0XX/GCC/../../../kernel/base/ipc\los_queue.c ****  Return      : LOS_OK on success or error code on failure
 517:e:/LiteOS/LiteOS/targets/Cloud_FM33A0XX/GCC/../../../kernel/base/ipc\los_queue.c ****  *****************************************************************************/
 518:e:/LiteOS/LiteOS/targets/Cloud_FM33A0XX/GCC/../../../kernel/base/ipc\los_queue.c **** LITE_OS_SEC_TEXT UINT32 LOS_QueueWriteHead( UINT32 uwQueueID,
 519:e:/LiteOS/LiteOS/targets/Cloud_FM33A0XX/GCC/../../../kernel/base/ipc\los_queue.c ****                                      VOID * pBufferAddr,
 520:e:/LiteOS/LiteOS/targets/Cloud_FM33A0XX/GCC/../../../kernel/base/ipc\los_queue.c ****                                      UINT32 uwBufferSize,
 521:e:/LiteOS/LiteOS/targets/Cloud_FM33A0XX/GCC/../../../kernel/base/ipc\los_queue.c ****                                      UINT32 uwTimeOut )
 522:e:/LiteOS/LiteOS/targets/Cloud_FM33A0XX/GCC/../../../kernel/base/ipc\los_queue.c **** {
 1324              		.loc 1 522 0
 1325              		.cfi_startproc
 1326              		@ args = 0, pretend = 0, frame = 8
 1327              		@ frame_needed = 0, uses_anonymous_args = 0
 1328              	.LVL189:
 1329 0000 00B5     		push	{lr}
 1330              	.LCFI16:
 1331              		.cfi_def_cfa_offset 4
 1332              		.cfi_offset 14, -4
 1333 0002 83B0     		sub	sp, sp, #12
 1334              	.LCFI17:
 1335              		.cfi_def_cfa_offset 16
 1336 0004 0191     		str	r1, [sp, #4]
 523:e:/LiteOS/LiteOS/targets/Cloud_FM33A0XX/GCC/../../../kernel/base/ipc\los_queue.c ****     if(pBufferAddr == NULL)
 1337              		.loc 1 523 0
 1338 0006 0029     		cmp	r1, #0
 1339 0008 04D0     		beq	.L96
 1340              	.LVL190:
 524:e:/LiteOS/LiteOS/targets/Cloud_FM33A0XX/GCC/../../../kernel/base/ipc\los_queue.c ****     {
 525:e:/LiteOS/LiteOS/targets/Cloud_FM33A0XX/GCC/../../../kernel/base/ipc\los_queue.c ****         return LOS_ERRNO_QUEUE_WRITE_PTR_NULL;
 526:e:/LiteOS/LiteOS/targets/Cloud_FM33A0XX/GCC/../../../kernel/base/ipc\los_queue.c ****     }
 527:e:/LiteOS/LiteOS/targets/Cloud_FM33A0XX/GCC/../../../kernel/base/ipc\los_queue.c ****     uwBufferSize = sizeof(UINT32*);
 528:e:/LiteOS/LiteOS/targets/Cloud_FM33A0XX/GCC/../../../kernel/base/ipc\los_queue.c ****     return LOS_QueueWriteHeadCopy(uwQueueID, &pBufferAddr, uwBufferSize, uwTimeOut);
 1341              		.loc 1 528 0
 1342 000a 0422     		movs	r2, #4
 1343 000c 01A9     		add	r1, sp, #4
 1344              	.LVL191:
 1345 000e FFF7FEFF 		bl	LOS_QueueWriteHeadCopy
 1346              	.LVL192:
ARM GAS  C:\Users\WANGBI~1\AppData\Local\Temp\ccac8q5z.s 			page 39


 1347 0012 00E0     		b	.L95
 1348              	.LVL193:
 1349              	.L96:
 525:e:/LiteOS/LiteOS/targets/Cloud_FM33A0XX/GCC/../../../kernel/base/ipc\los_queue.c ****     }
 1350              		.loc 1 525 0
 1351 0014 0148     		ldr	r0, .L97
 1352              	.LVL194:
 1353              	.L95:
 529:e:/LiteOS/LiteOS/targets/Cloud_FM33A0XX/GCC/../../../kernel/base/ipc\los_queue.c **** }
 1354              		.loc 1 529 0
 1355 0016 03B0     		add	sp, sp, #12
 1356              		@ sp needed
 1357 0018 00BD     		pop	{pc}
 1358              	.L98:
 1359 001a C046     		.align	2
 1360              	.L97:
 1361 001c 12060002 		.word	33555986
 1362              		.cfi_endproc
 1363              	.LFE54:
 1365              		.section	.text.osQueueMailAlloc,"ax",%progbits
 1366              		.align	2
 1367              		.global	osQueueMailAlloc
 1368              		.code	16
 1369              		.thumb_func
 1371              	osQueueMailAlloc:
 1372              	.LFB55:
 530:e:/LiteOS/LiteOS/targets/Cloud_FM33A0XX/GCC/../../../kernel/base/ipc\los_queue.c **** 
 531:e:/LiteOS/LiteOS/targets/Cloud_FM33A0XX/GCC/../../../kernel/base/ipc\los_queue.c **** /*****************************************************************************
 532:e:/LiteOS/LiteOS/targets/Cloud_FM33A0XX/GCC/../../../kernel/base/ipc\los_queue.c ****  Function    : osQueueMailAlloc
 533:e:/LiteOS/LiteOS/targets/Cloud_FM33A0XX/GCC/../../../kernel/base/ipc\los_queue.c ****  Description : Mail allocate memory
 534:e:/LiteOS/LiteOS/targets/Cloud_FM33A0XX/GCC/../../../kernel/base/ipc\los_queue.c ****  Input       : uwQueueID   --- QueueID
 535:e:/LiteOS/LiteOS/targets/Cloud_FM33A0XX/GCC/../../../kernel/base/ipc\los_queue.c ****              : pMailPool   --- MailPool
 536:e:/LiteOS/LiteOS/targets/Cloud_FM33A0XX/GCC/../../../kernel/base/ipc\los_queue.c ****              : uwTimeOut   --- TimeOut
 537:e:/LiteOS/LiteOS/targets/Cloud_FM33A0XX/GCC/../../../kernel/base/ipc\los_queue.c ****  Output      : None
 538:e:/LiteOS/LiteOS/targets/Cloud_FM33A0XX/GCC/../../../kernel/base/ipc\los_queue.c ****  Return      : pointer if success otherwise NULL
 539:e:/LiteOS/LiteOS/targets/Cloud_FM33A0XX/GCC/../../../kernel/base/ipc\los_queue.c ****  *****************************************************************************/
 540:e:/LiteOS/LiteOS/targets/Cloud_FM33A0XX/GCC/../../../kernel/base/ipc\los_queue.c **** LITE_OS_SEC_TEXT VOID *osQueueMailAlloc(UINT32  uwQueueID, VOID* pMailPool, UINT32 uwTimeOut)
 541:e:/LiteOS/LiteOS/targets/Cloud_FM33A0XX/GCC/../../../kernel/base/ipc\los_queue.c **** {
 1373              		.loc 1 541 0
 1374              		.cfi_startproc
 1375              		@ args = 0, pretend = 0, frame = 0
 1376              		@ frame_needed = 0, uses_anonymous_args = 0
 1377              	.LVL195:
 1378 0000 F0B5     		push	{r4, r5, r6, r7, lr}
 1379              	.LCFI18:
 1380              		.cfi_def_cfa_offset 20
 1381              		.cfi_offset 4, -20
 1382              		.cfi_offset 5, -16
 1383              		.cfi_offset 6, -12
 1384              		.cfi_offset 7, -8
 1385              		.cfi_offset 14, -4
 1386 0002 4746     		mov	r7, r8
 1387 0004 80B4     		push	{r7}
 1388              	.LCFI19:
 1389              		.cfi_def_cfa_offset 24
 1390              		.cfi_offset 8, -24
 1391 0006 0400     		movs	r4, r0
ARM GAS  C:\Users\WANGBI~1\AppData\Local\Temp\ccac8q5z.s 			page 40


 1392 0008 0D00     		movs	r5, r1
 1393 000a 1700     		movs	r7, r2
 1394              	.LVL196:
 542:e:/LiteOS/LiteOS/targets/Cloud_FM33A0XX/GCC/../../../kernel/base/ipc\los_queue.c ****     VOID *pMem = (VOID *)NULL;
 543:e:/LiteOS/LiteOS/targets/Cloud_FM33A0XX/GCC/../../../kernel/base/ipc\los_queue.c ****     UINTPTR uvIntSave;
 544:e:/LiteOS/LiteOS/targets/Cloud_FM33A0XX/GCC/../../../kernel/base/ipc\los_queue.c ****     QUEUE_CB_S *pstQueueCB = (QUEUE_CB_S *)NULL;
 545:e:/LiteOS/LiteOS/targets/Cloud_FM33A0XX/GCC/../../../kernel/base/ipc\los_queue.c ****     LOS_TASK_CB *pstRunTsk = (LOS_TASK_CB *)NULL;
 546:e:/LiteOS/LiteOS/targets/Cloud_FM33A0XX/GCC/../../../kernel/base/ipc\los_queue.c **** 
 547:e:/LiteOS/LiteOS/targets/Cloud_FM33A0XX/GCC/../../../kernel/base/ipc\los_queue.c ****     if (uwQueueID >= LOSCFG_BASE_IPC_QUEUE_LIMIT)
 1395              		.loc 1 547 0
 1396 000c 0928     		cmp	r0, #9
 1397 000e 40D8     		bhi	.L104
 548:e:/LiteOS/LiteOS/targets/Cloud_FM33A0XX/GCC/../../../kernel/base/ipc\los_queue.c ****     {
 549:e:/LiteOS/LiteOS/targets/Cloud_FM33A0XX/GCC/../../../kernel/base/ipc\los_queue.c ****         return NULL;
 550:e:/LiteOS/LiteOS/targets/Cloud_FM33A0XX/GCC/../../../kernel/base/ipc\los_queue.c ****     }
 551:e:/LiteOS/LiteOS/targets/Cloud_FM33A0XX/GCC/../../../kernel/base/ipc\los_queue.c **** 
 552:e:/LiteOS/LiteOS/targets/Cloud_FM33A0XX/GCC/../../../kernel/base/ipc\los_queue.c ****     if (pMailPool == NULL)
 1398              		.loc 1 552 0
 1399 0010 0029     		cmp	r1, #0
 1400 0012 40D0     		beq	.L105
 553:e:/LiteOS/LiteOS/targets/Cloud_FM33A0XX/GCC/../../../kernel/base/ipc\los_queue.c ****     {
 554:e:/LiteOS/LiteOS/targets/Cloud_FM33A0XX/GCC/../../../kernel/base/ipc\los_queue.c ****         return NULL;
 555:e:/LiteOS/LiteOS/targets/Cloud_FM33A0XX/GCC/../../../kernel/base/ipc\los_queue.c ****     }
 556:e:/LiteOS/LiteOS/targets/Cloud_FM33A0XX/GCC/../../../kernel/base/ipc\los_queue.c **** 
 557:e:/LiteOS/LiteOS/targets/Cloud_FM33A0XX/GCC/../../../kernel/base/ipc\los_queue.c ****     if (LOS_NO_WAIT != uwTimeOut)
 1401              		.loc 1 557 0
 1402 0014 002A     		cmp	r2, #0
 1403 0016 03D0     		beq	.L101
 558:e:/LiteOS/LiteOS/targets/Cloud_FM33A0XX/GCC/../../../kernel/base/ipc\los_queue.c ****     {
 559:e:/LiteOS/LiteOS/targets/Cloud_FM33A0XX/GCC/../../../kernel/base/ipc\los_queue.c ****         if (OS_INT_ACTIVE)
 1404              		.loc 1 559 0
 1405 0018 FFF7FEFF 		bl	osIntNumGet
 1406              	.LVL197:
 1407 001c 0028     		cmp	r0, #0
 1408 001e 3CD1     		bne	.L106
 1409              	.L101:
 560:e:/LiteOS/LiteOS/targets/Cloud_FM33A0XX/GCC/../../../kernel/base/ipc\los_queue.c ****         {
 561:e:/LiteOS/LiteOS/targets/Cloud_FM33A0XX/GCC/../../../kernel/base/ipc\los_queue.c ****             return NULL;
 562:e:/LiteOS/LiteOS/targets/Cloud_FM33A0XX/GCC/../../../kernel/base/ipc\los_queue.c ****         }
 563:e:/LiteOS/LiteOS/targets/Cloud_FM33A0XX/GCC/../../../kernel/base/ipc\los_queue.c ****     }
 564:e:/LiteOS/LiteOS/targets/Cloud_FM33A0XX/GCC/../../../kernel/base/ipc\los_queue.c **** 
 565:e:/LiteOS/LiteOS/targets/Cloud_FM33A0XX/GCC/../../../kernel/base/ipc\los_queue.c ****     uvIntSave = LOS_IntLock();
 1410              		.loc 1 565 0
 1411 0020 FFF7FEFF 		bl	LOS_IntLock
 1412              	.LVL198:
 1413 0024 0600     		movs	r6, r0
 1414              	.LVL199:
 566:e:/LiteOS/LiteOS/targets/Cloud_FM33A0XX/GCC/../../../kernel/base/ipc\los_queue.c ****     pstQueueCB = GET_QUEUE_HANDLE(uwQueueID);
 1415              		.loc 1 566 0
 1416 0026 1F4B     		ldr	r3, .L108
 1417 0028 1B68     		ldr	r3, [r3]
 1418 002a 2C20     		movs	r0, #44
 1419              	.LVL200:
 1420 002c 6043     		muls	r0, r4
 1421 002e 1C18     		adds	r4, r3, r0
 1422              	.LVL201:
 567:e:/LiteOS/LiteOS/targets/Cloud_FM33A0XX/GCC/../../../kernel/base/ipc\los_queue.c ****     if (OS_QUEUE_UNUSED == pstQueueCB->usQueueState)
ARM GAS  C:\Users\WANGBI~1\AppData\Local\Temp\ccac8q5z.s 			page 41


 1423              		.loc 1 567 0
 1424 0030 A388     		ldrh	r3, [r4, #4]
 1425 0032 002B     		cmp	r3, #0
 1426 0034 27D0     		beq	.L107
 568:e:/LiteOS/LiteOS/targets/Cloud_FM33A0XX/GCC/../../../kernel/base/ipc\los_queue.c ****     {
 569:e:/LiteOS/LiteOS/targets/Cloud_FM33A0XX/GCC/../../../kernel/base/ipc\los_queue.c ****         goto END;
 570:e:/LiteOS/LiteOS/targets/Cloud_FM33A0XX/GCC/../../../kernel/base/ipc\los_queue.c ****     }
 571:e:/LiteOS/LiteOS/targets/Cloud_FM33A0XX/GCC/../../../kernel/base/ipc\los_queue.c **** 
 572:e:/LiteOS/LiteOS/targets/Cloud_FM33A0XX/GCC/../../../kernel/base/ipc\los_queue.c ****     pMem = LOS_MemboxAlloc(pMailPool);
 1427              		.loc 1 572 0
 1428 0036 2800     		movs	r0, r5
 1429 0038 FFF7FEFF 		bl	LOS_MemboxAlloc
 1430              	.LVL202:
 1431 003c 051E     		subs	r5, r0, #0
 1432              	.LVL203:
 573:e:/LiteOS/LiteOS/targets/Cloud_FM33A0XX/GCC/../../../kernel/base/ipc\los_queue.c ****     if (NULL == pMem)
 1433              		.loc 1 573 0
 1434 003e 23D1     		bne	.L102
 574:e:/LiteOS/LiteOS/targets/Cloud_FM33A0XX/GCC/../../../kernel/base/ipc\los_queue.c ****     {
 575:e:/LiteOS/LiteOS/targets/Cloud_FM33A0XX/GCC/../../../kernel/base/ipc\los_queue.c ****         if (uwTimeOut == LOS_NO_WAIT)
 1435              		.loc 1 575 0
 1436 0040 002F     		cmp	r7, #0
 1437 0042 21D0     		beq	.L102
 576:e:/LiteOS/LiteOS/targets/Cloud_FM33A0XX/GCC/../../../kernel/base/ipc\los_queue.c ****         {
 577:e:/LiteOS/LiteOS/targets/Cloud_FM33A0XX/GCC/../../../kernel/base/ipc\los_queue.c ****             goto END;
 578:e:/LiteOS/LiteOS/targets/Cloud_FM33A0XX/GCC/../../../kernel/base/ipc\los_queue.c ****         }
 579:e:/LiteOS/LiteOS/targets/Cloud_FM33A0XX/GCC/../../../kernel/base/ipc\los_queue.c **** 
 580:e:/LiteOS/LiteOS/targets/Cloud_FM33A0XX/GCC/../../../kernel/base/ipc\los_queue.c ****         pstRunTsk = (LOS_TASK_CB *)g_stLosTask.pstRunTask;
 1438              		.loc 1 580 0
 1439 0044 184B     		ldr	r3, .L108+4
 1440 0046 1B68     		ldr	r3, [r3]
 1441 0048 9846     		mov	r8, r3
 1442              	.LVL204:
 581:e:/LiteOS/LiteOS/targets/Cloud_FM33A0XX/GCC/../../../kernel/base/ipc\los_queue.c ****         osTaskWait(&pstQueueCB->stMemList, OS_TASK_STATUS_PEND_QUEUE, uwTimeOut);
 1443              		.loc 1 581 0
 1444 004a 2000     		movs	r0, r4
 1445              	.LVL205:
 1446 004c 2430     		adds	r0, r0, #36
 1447 004e 3A00     		movs	r2, r7
 1448 0050 8021     		movs	r1, #128
 1449 0052 8901     		lsls	r1, r1, #6
 1450 0054 FFF7FEFF 		bl	osTaskWait
 1451              	.LVL206:
 582:e:/LiteOS/LiteOS/targets/Cloud_FM33A0XX/GCC/../../../kernel/base/ipc\los_queue.c ****         LOS_IntRestore(uvIntSave);
 1452              		.loc 1 582 0
 1453 0058 3000     		movs	r0, r6
 1454 005a FFF7FEFF 		bl	LOS_IntRestore
 1455              	.LVL207:
 583:e:/LiteOS/LiteOS/targets/Cloud_FM33A0XX/GCC/../../../kernel/base/ipc\los_queue.c ****         LOS_Schedule();
 1456              		.loc 1 583 0
 1457 005e FFF7FEFF 		bl	LOS_Schedule
 1458              	.LVL208:
 584:e:/LiteOS/LiteOS/targets/Cloud_FM33A0XX/GCC/../../../kernel/base/ipc\los_queue.c **** 
 585:e:/LiteOS/LiteOS/targets/Cloud_FM33A0XX/GCC/../../../kernel/base/ipc\los_queue.c ****         uvIntSave = LOS_IntLock();
 1459              		.loc 1 585 0
 1460 0062 FFF7FEFF 		bl	LOS_IntLock
 1461              	.LVL209:
ARM GAS  C:\Users\WANGBI~1\AppData\Local\Temp\ccac8q5z.s 			page 42


 1462 0066 0600     		movs	r6, r0
 1463              	.LVL210:
 586:e:/LiteOS/LiteOS/targets/Cloud_FM33A0XX/GCC/../../../kernel/base/ipc\los_queue.c ****         if (pstRunTsk->usTaskStatus & OS_TASK_STATUS_TIMEOUT)
 1464              		.loc 1 586 0
 1465 0068 4346     		mov	r3, r8
 1466 006a 9B88     		ldrh	r3, [r3, #4]
 1467 006c 5A06     		lsls	r2, r3, #25
 1468 006e 04D5     		bpl	.L103
 587:e:/LiteOS/LiteOS/targets/Cloud_FM33A0XX/GCC/../../../kernel/base/ipc\los_queue.c ****         {
 588:e:/LiteOS/LiteOS/targets/Cloud_FM33A0XX/GCC/../../../kernel/base/ipc\los_queue.c ****             pstRunTsk->usTaskStatus &= (~OS_TASK_STATUS_TIMEOUT);
 1469              		.loc 1 588 0
 1470 0070 4022     		movs	r2, #64
 1471 0072 9343     		bics	r3, r2
 1472 0074 4246     		mov	r2, r8
 1473 0076 9380     		strh	r3, [r2, #4]
 589:e:/LiteOS/LiteOS/targets/Cloud_FM33A0XX/GCC/../../../kernel/base/ipc\los_queue.c ****             goto END;
 1474              		.loc 1 589 0
 1475 0078 06E0     		b	.L102
 1476              	.L103:
 590:e:/LiteOS/LiteOS/targets/Cloud_FM33A0XX/GCC/../../../kernel/base/ipc\los_queue.c ****         }
 591:e:/LiteOS/LiteOS/targets/Cloud_FM33A0XX/GCC/../../../kernel/base/ipc\los_queue.c ****         else
 592:e:/LiteOS/LiteOS/targets/Cloud_FM33A0XX/GCC/../../../kernel/base/ipc\los_queue.c ****         {
 593:e:/LiteOS/LiteOS/targets/Cloud_FM33A0XX/GCC/../../../kernel/base/ipc\los_queue.c ****             /* When enters the current branch, means the current task already got a available membo
 594:e:/LiteOS/LiteOS/targets/Cloud_FM33A0XX/GCC/../../../kernel/base/ipc\los_queue.c ****              * so the pstRunTsk->puwMsg can not be NULL.
 595:e:/LiteOS/LiteOS/targets/Cloud_FM33A0XX/GCC/../../../kernel/base/ipc\los_queue.c ****              */
 596:e:/LiteOS/LiteOS/targets/Cloud_FM33A0XX/GCC/../../../kernel/base/ipc\los_queue.c ****             pMem = pstRunTsk->puwMsg;
 1477              		.loc 1 596 0
 1478 007a 4346     		mov	r3, r8
 1479 007c 1D6D     		ldr	r5, [r3, #80]
 1480              	.LVL211:
 597:e:/LiteOS/LiteOS/targets/Cloud_FM33A0XX/GCC/../../../kernel/base/ipc\los_queue.c ****             pstRunTsk->puwMsg = NULL;
 1481              		.loc 1 597 0
 1482 007e 0023     		movs	r3, #0
 1483 0080 4246     		mov	r2, r8
 1484 0082 1365     		str	r3, [r2, #80]
 1485 0084 00E0     		b	.L102
 1486              	.LVL212:
 1487              	.L107:
 542:e:/LiteOS/LiteOS/targets/Cloud_FM33A0XX/GCC/../../../kernel/base/ipc\los_queue.c ****     UINTPTR uvIntSave;
 1488              		.loc 1 542 0
 1489 0086 0025     		movs	r5, #0
 1490              	.LVL213:
 1491              	.L102:
 598:e:/LiteOS/LiteOS/targets/Cloud_FM33A0XX/GCC/../../../kernel/base/ipc\los_queue.c ****         }
 599:e:/LiteOS/LiteOS/targets/Cloud_FM33A0XX/GCC/../../../kernel/base/ipc\los_queue.c ****     }
 600:e:/LiteOS/LiteOS/targets/Cloud_FM33A0XX/GCC/../../../kernel/base/ipc\los_queue.c **** 
 601:e:/LiteOS/LiteOS/targets/Cloud_FM33A0XX/GCC/../../../kernel/base/ipc\los_queue.c **** END:
 602:e:/LiteOS/LiteOS/targets/Cloud_FM33A0XX/GCC/../../../kernel/base/ipc\los_queue.c ****     LOS_IntRestore(uvIntSave);
 1492              		.loc 1 602 0
 1493 0088 3000     		movs	r0, r6
 1494 008a FFF7FEFF 		bl	LOS_IntRestore
 1495              	.LVL214:
 603:e:/LiteOS/LiteOS/targets/Cloud_FM33A0XX/GCC/../../../kernel/base/ipc\los_queue.c ****     return pMem;
 1496              		.loc 1 603 0
 1497 008e 2800     		movs	r0, r5
 1498 0090 04E0     		b	.L100
 1499              	.LVL215:
ARM GAS  C:\Users\WANGBI~1\AppData\Local\Temp\ccac8q5z.s 			page 43


 1500              	.L104:
 549:e:/LiteOS/LiteOS/targets/Cloud_FM33A0XX/GCC/../../../kernel/base/ipc\los_queue.c ****     }
 1501              		.loc 1 549 0
 1502 0092 0020     		movs	r0, #0
 1503              	.LVL216:
 1504 0094 02E0     		b	.L100
 1505              	.LVL217:
 1506              	.L105:
 554:e:/LiteOS/LiteOS/targets/Cloud_FM33A0XX/GCC/../../../kernel/base/ipc\los_queue.c ****     }
 1507              		.loc 1 554 0
 1508 0096 0020     		movs	r0, #0
 1509              	.LVL218:
 1510 0098 00E0     		b	.L100
 1511              	.LVL219:
 1512              	.L106:
 561:e:/LiteOS/LiteOS/targets/Cloud_FM33A0XX/GCC/../../../kernel/base/ipc\los_queue.c ****         }
 1513              		.loc 1 561 0
 1514 009a 0020     		movs	r0, #0
 1515              	.LVL220:
 1516              	.L100:
 604:e:/LiteOS/LiteOS/targets/Cloud_FM33A0XX/GCC/../../../kernel/base/ipc\los_queue.c **** }
 1517              		.loc 1 604 0
 1518              		@ sp needed
 1519              	.LVL221:
 1520 009c 04BC     		pop	{r2}
 1521 009e 9046     		mov	r8, r2
 1522 00a0 F0BD     		pop	{r4, r5, r6, r7, pc}
 1523              	.L109:
 1524 00a2 C046     		.align	2
 1525              	.L108:
 1526 00a4 00000000 		.word	g_pstAllQueue
 1527 00a8 00000000 		.word	g_stLosTask
 1528              		.cfi_endproc
 1529              	.LFE55:
 1531              		.section	.text.osQueueMailFree,"ax",%progbits
 1532              		.align	2
 1533              		.global	osQueueMailFree
 1534              		.code	16
 1535              		.thumb_func
 1537              	osQueueMailFree:
 1538              	.LFB56:
 605:e:/LiteOS/LiteOS/targets/Cloud_FM33A0XX/GCC/../../../kernel/base/ipc\los_queue.c **** 
 606:e:/LiteOS/LiteOS/targets/Cloud_FM33A0XX/GCC/../../../kernel/base/ipc\los_queue.c **** /*****************************************************************************
 607:e:/LiteOS/LiteOS/targets/Cloud_FM33A0XX/GCC/../../../kernel/base/ipc\los_queue.c ****  Function    : osQueueMailFree
 608:e:/LiteOS/LiteOS/targets/Cloud_FM33A0XX/GCC/../../../kernel/base/ipc\los_queue.c ****  Description : Mail free memory
 609:e:/LiteOS/LiteOS/targets/Cloud_FM33A0XX/GCC/../../../kernel/base/ipc\los_queue.c ****  Input       : uwQueueID   --- QueueID
 610:e:/LiteOS/LiteOS/targets/Cloud_FM33A0XX/GCC/../../../kernel/base/ipc\los_queue.c ****              : pMailPool   --- MailPool
 611:e:/LiteOS/LiteOS/targets/Cloud_FM33A0XX/GCC/../../../kernel/base/ipc\los_queue.c ****  Output      : None
 612:e:/LiteOS/LiteOS/targets/Cloud_FM33A0XX/GCC/../../../kernel/base/ipc\los_queue.c ****  Return      : LOS_OK on success or error code on failure
 613:e:/LiteOS/LiteOS/targets/Cloud_FM33A0XX/GCC/../../../kernel/base/ipc\los_queue.c ****  *****************************************************************************/
 614:e:/LiteOS/LiteOS/targets/Cloud_FM33A0XX/GCC/../../../kernel/base/ipc\los_queue.c **** LITE_OS_SEC_TEXT UINT32 osQueueMailFree(UINT32  uwQueueID, VOID* pMailPool, VOID* pMailMem)
 615:e:/LiteOS/LiteOS/targets/Cloud_FM33A0XX/GCC/../../../kernel/base/ipc\los_queue.c **** {
 1539              		.loc 1 615 0
 1540              		.cfi_startproc
 1541              		@ args = 0, pretend = 0, frame = 0
 1542              		@ frame_needed = 0, uses_anonymous_args = 0
 1543              	.LVL222:
ARM GAS  C:\Users\WANGBI~1\AppData\Local\Temp\ccac8q5z.s 			page 44


 1544 0000 F8B5     		push	{r3, r4, r5, r6, r7, lr}
 1545              	.LCFI20:
 1546              		.cfi_def_cfa_offset 24
 1547              		.cfi_offset 3, -24
 1548              		.cfi_offset 4, -20
 1549              		.cfi_offset 5, -16
 1550              		.cfi_offset 6, -12
 1551              		.cfi_offset 7, -8
 1552              		.cfi_offset 14, -4
 1553 0002 0500     		movs	r5, r0
 1554 0004 0E00     		movs	r6, r1
 1555 0006 1400     		movs	r4, r2
 1556              	.LVL223:
 616:e:/LiteOS/LiteOS/targets/Cloud_FM33A0XX/GCC/../../../kernel/base/ipc\los_queue.c ****     VOID *pMem = (VOID *)NULL;
 617:e:/LiteOS/LiteOS/targets/Cloud_FM33A0XX/GCC/../../../kernel/base/ipc\los_queue.c ****     UINTPTR uvIntSave;
 618:e:/LiteOS/LiteOS/targets/Cloud_FM33A0XX/GCC/../../../kernel/base/ipc\los_queue.c ****     QUEUE_CB_S *pstQueueCB = (QUEUE_CB_S *)NULL;
 619:e:/LiteOS/LiteOS/targets/Cloud_FM33A0XX/GCC/../../../kernel/base/ipc\los_queue.c ****     LOS_TASK_CB *pstResumedTask = (LOS_TASK_CB *)NULL;
 620:e:/LiteOS/LiteOS/targets/Cloud_FM33A0XX/GCC/../../../kernel/base/ipc\los_queue.c **** 
 621:e:/LiteOS/LiteOS/targets/Cloud_FM33A0XX/GCC/../../../kernel/base/ipc\los_queue.c ****     if (uwQueueID >= LOSCFG_BASE_IPC_QUEUE_LIMIT)
 1557              		.loc 1 621 0
 1558 0008 0928     		cmp	r0, #9
 1559 000a 35D8     		bhi	.L115
 622:e:/LiteOS/LiteOS/targets/Cloud_FM33A0XX/GCC/../../../kernel/base/ipc\los_queue.c ****     {
 623:e:/LiteOS/LiteOS/targets/Cloud_FM33A0XX/GCC/../../../kernel/base/ipc\los_queue.c ****         return LOS_ERRNO_QUEUE_MAIL_HANDLE_INVALID;
 624:e:/LiteOS/LiteOS/targets/Cloud_FM33A0XX/GCC/../../../kernel/base/ipc\los_queue.c ****     }
 625:e:/LiteOS/LiteOS/targets/Cloud_FM33A0XX/GCC/../../../kernel/base/ipc\los_queue.c **** 
 626:e:/LiteOS/LiteOS/targets/Cloud_FM33A0XX/GCC/../../../kernel/base/ipc\los_queue.c ****     if (pMailPool == NULL)
 1560              		.loc 1 626 0
 1561 000c 0029     		cmp	r1, #0
 1562 000e 35D0     		beq	.L116
 627:e:/LiteOS/LiteOS/targets/Cloud_FM33A0XX/GCC/../../../kernel/base/ipc\los_queue.c ****     {
 628:e:/LiteOS/LiteOS/targets/Cloud_FM33A0XX/GCC/../../../kernel/base/ipc\los_queue.c ****         return LOS_ERRNO_QUEUE_MAIL_PTR_INVALID;
 629:e:/LiteOS/LiteOS/targets/Cloud_FM33A0XX/GCC/../../../kernel/base/ipc\los_queue.c ****     }
 630:e:/LiteOS/LiteOS/targets/Cloud_FM33A0XX/GCC/../../../kernel/base/ipc\los_queue.c **** 
 631:e:/LiteOS/LiteOS/targets/Cloud_FM33A0XX/GCC/../../../kernel/base/ipc\los_queue.c ****     uvIntSave = LOS_IntLock();
 1563              		.loc 1 631 0
 1564 0010 FFF7FEFF 		bl	LOS_IntLock
 1565              	.LVL224:
 1566 0014 0700     		movs	r7, r0
 1567              	.LVL225:
 632:e:/LiteOS/LiteOS/targets/Cloud_FM33A0XX/GCC/../../../kernel/base/ipc\los_queue.c **** 
 633:e:/LiteOS/LiteOS/targets/Cloud_FM33A0XX/GCC/../../../kernel/base/ipc\los_queue.c ****     if (LOS_MemboxFree(pMailPool, pMailMem))
 1568              		.loc 1 633 0
 1569 0016 2100     		movs	r1, r4
 1570 0018 3000     		movs	r0, r6
 1571              	.LVL226:
 1572 001a FFF7FEFF 		bl	LOS_MemboxFree
 1573              	.LVL227:
 1574 001e 041E     		subs	r4, r0, #0
 1575              	.LVL228:
 1576 0020 04D0     		beq	.L112
 634:e:/LiteOS/LiteOS/targets/Cloud_FM33A0XX/GCC/../../../kernel/base/ipc\los_queue.c ****     {
 635:e:/LiteOS/LiteOS/targets/Cloud_FM33A0XX/GCC/../../../kernel/base/ipc\los_queue.c ****         LOS_IntRestore(uvIntSave);
 1577              		.loc 1 635 0
 1578 0022 3800     		movs	r0, r7
 1579 0024 FFF7FEFF 		bl	LOS_IntRestore
 1580              	.LVL229:
ARM GAS  C:\Users\WANGBI~1\AppData\Local\Temp\ccac8q5z.s 			page 45


 636:e:/LiteOS/LiteOS/targets/Cloud_FM33A0XX/GCC/../../../kernel/base/ipc\los_queue.c ****         return LOS_ERRNO_QUEUE_MAIL_FREE_ERROR;
 1581              		.loc 1 636 0
 1582 0028 164C     		ldr	r4, .L117
 1583 002a 28E0     		b	.L111
 1584              	.L112:
 637:e:/LiteOS/LiteOS/targets/Cloud_FM33A0XX/GCC/../../../kernel/base/ipc\los_queue.c ****     }
 638:e:/LiteOS/LiteOS/targets/Cloud_FM33A0XX/GCC/../../../kernel/base/ipc\los_queue.c **** 
 639:e:/LiteOS/LiteOS/targets/Cloud_FM33A0XX/GCC/../../../kernel/base/ipc\los_queue.c ****     pstQueueCB = GET_QUEUE_HANDLE(uwQueueID);
 1585              		.loc 1 639 0
 1586 002c 164B     		ldr	r3, .L117+4
 1587 002e 1A68     		ldr	r2, [r3]
 1588 0030 2C23     		movs	r3, #44
 1589 0032 5D43     		muls	r5, r3
 1590              	.LVL230:
 1591 0034 5519     		adds	r5, r2, r5
 1592              	.LVL231:
 640:e:/LiteOS/LiteOS/targets/Cloud_FM33A0XX/GCC/../../../kernel/base/ipc\los_queue.c ****     if (OS_QUEUE_UNUSED == pstQueueCB->usQueueState)
 1593              		.loc 1 640 0
 1594 0036 AB88     		ldrh	r3, [r5, #4]
 1595 0038 002B     		cmp	r3, #0
 1596 003a 04D1     		bne	.L113
 641:e:/LiteOS/LiteOS/targets/Cloud_FM33A0XX/GCC/../../../kernel/base/ipc\los_queue.c ****     {
 642:e:/LiteOS/LiteOS/targets/Cloud_FM33A0XX/GCC/../../../kernel/base/ipc\los_queue.c ****         LOS_IntRestore(uvIntSave);
 1597              		.loc 1 642 0
 1598 003c 3800     		movs	r0, r7
 1599 003e FFF7FEFF 		bl	LOS_IntRestore
 1600              	.LVL232:
 643:e:/LiteOS/LiteOS/targets/Cloud_FM33A0XX/GCC/../../../kernel/base/ipc\los_queue.c ****         return LOS_ERRNO_QUEUE_NOT_CREATE;
 1601              		.loc 1 643 0
 1602 0042 124C     		ldr	r4, .L117+8
 1603 0044 1BE0     		b	.L111
 1604              	.L113:
 644:e:/LiteOS/LiteOS/targets/Cloud_FM33A0XX/GCC/../../../kernel/base/ipc\los_queue.c ****     }
 645:e:/LiteOS/LiteOS/targets/Cloud_FM33A0XX/GCC/../../../kernel/base/ipc\los_queue.c **** 
 646:e:/LiteOS/LiteOS/targets/Cloud_FM33A0XX/GCC/../../../kernel/base/ipc\los_queue.c ****     if (!LOS_ListEmpty(&pstQueueCB->stMemList))
 1605              		.loc 1 646 0
 1606 0046 2B00     		movs	r3, r5
 1607 0048 2433     		adds	r3, r3, #36
 1608              	.LVL233:
 1609              	.LBB76:
 1610              	.LBB77:
 1611              		.loc 2 215 0
 1612 004a A86A     		ldr	r0, [r5, #40]
 1613              	.LVL234:
 1614              	.LBE77:
 1615              	.LBE76:
 1616              		.loc 1 646 0
 1617 004c 8342     		cmp	r3, r0
 1618 004e 0FD0     		beq	.L114
 647:e:/LiteOS/LiteOS/targets/Cloud_FM33A0XX/GCC/../../../kernel/base/ipc\los_queue.c ****     {
 648:e:/LiteOS/LiteOS/targets/Cloud_FM33A0XX/GCC/../../../kernel/base/ipc\los_queue.c ****         pstResumedTask = OS_TCB_FROM_PENDLIST(LOS_DL_LIST_FIRST(&pstQueueCB->stMemList)); /*lint !e
 1619              		.loc 1 648 0
 1620 0050 2838     		subs	r0, r0, #40
 1621 0052 0500     		movs	r5, r0
 1622              	.LVL235:
 649:e:/LiteOS/LiteOS/targets/Cloud_FM33A0XX/GCC/../../../kernel/base/ipc\los_queue.c ****         osTaskWake(pstResumedTask, OS_TASK_STATUS_PEND_QUEUE);
 1623              		.loc 1 649 0
ARM GAS  C:\Users\WANGBI~1\AppData\Local\Temp\ccac8q5z.s 			page 46


 1624 0054 8021     		movs	r1, #128
 1625 0056 8901     		lsls	r1, r1, #6
 1626 0058 FFF7FEFF 		bl	osTaskWake
 1627              	.LVL236:
 650:e:/LiteOS/LiteOS/targets/Cloud_FM33A0XX/GCC/../../../kernel/base/ipc\los_queue.c ****         pMem = LOS_MemboxAlloc(pMailPool);
 1628              		.loc 1 650 0
 1629 005c 3000     		movs	r0, r6
 1630 005e FFF7FEFF 		bl	LOS_MemboxAlloc
 1631              	.LVL237:
 651:e:/LiteOS/LiteOS/targets/Cloud_FM33A0XX/GCC/../../../kernel/base/ipc\los_queue.c ****         /* At the state of LOS_IntLock, the allocation can not be failed after releasing succefully
 652:e:/LiteOS/LiteOS/targets/Cloud_FM33A0XX/GCC/../../../kernel/base/ipc\los_queue.c **** 
 653:e:/LiteOS/LiteOS/targets/Cloud_FM33A0XX/GCC/../../../kernel/base/ipc\los_queue.c ****         pstResumedTask->puwMsg = pMem;
 1632              		.loc 1 653 0
 1633 0062 2865     		str	r0, [r5, #80]
 654:e:/LiteOS/LiteOS/targets/Cloud_FM33A0XX/GCC/../../../kernel/base/ipc\los_queue.c ****         LOS_IntRestore(uvIntSave);
 1634              		.loc 1 654 0
 1635 0064 3800     		movs	r0, r7
 1636              	.LVL238:
 1637 0066 FFF7FEFF 		bl	LOS_IntRestore
 1638              	.LVL239:
 655:e:/LiteOS/LiteOS/targets/Cloud_FM33A0XX/GCC/../../../kernel/base/ipc\los_queue.c ****         LOS_Schedule();
 1639              		.loc 1 655 0
 1640 006a FFF7FEFF 		bl	LOS_Schedule
 1641              	.LVL240:
 1642 006e 06E0     		b	.L111
 1643              	.LVL241:
 1644              	.L114:
 656:e:/LiteOS/LiteOS/targets/Cloud_FM33A0XX/GCC/../../../kernel/base/ipc\los_queue.c ****     }
 657:e:/LiteOS/LiteOS/targets/Cloud_FM33A0XX/GCC/../../../kernel/base/ipc\los_queue.c ****     else
 658:e:/LiteOS/LiteOS/targets/Cloud_FM33A0XX/GCC/../../../kernel/base/ipc\los_queue.c ****     {
 659:e:/LiteOS/LiteOS/targets/Cloud_FM33A0XX/GCC/../../../kernel/base/ipc\los_queue.c ****         LOS_IntRestore(uvIntSave);
 1645              		.loc 1 659 0
 1646 0070 3800     		movs	r0, r7
 1647 0072 FFF7FEFF 		bl	LOS_IntRestore
 1648              	.LVL242:
 1649 0076 02E0     		b	.L111
 1650              	.LVL243:
 1651              	.L115:
 623:e:/LiteOS/LiteOS/targets/Cloud_FM33A0XX/GCC/../../../kernel/base/ipc\los_queue.c ****     }
 1652              		.loc 1 623 0
 1653 0078 054C     		ldr	r4, .L117+12
 1654 007a 00E0     		b	.L111
 1655              	.L116:
 628:e:/LiteOS/LiteOS/targets/Cloud_FM33A0XX/GCC/../../../kernel/base/ipc\los_queue.c ****     }
 1656              		.loc 1 628 0
 1657 007c 054C     		ldr	r4, .L117+16
 1658              	.LVL244:
 1659              	.L111:
 660:e:/LiteOS/LiteOS/targets/Cloud_FM33A0XX/GCC/../../../kernel/base/ipc\los_queue.c ****     }
 661:e:/LiteOS/LiteOS/targets/Cloud_FM33A0XX/GCC/../../../kernel/base/ipc\los_queue.c ****     return LOS_OK;
 662:e:/LiteOS/LiteOS/targets/Cloud_FM33A0XX/GCC/../../../kernel/base/ipc\los_queue.c **** }
 1660              		.loc 1 662 0
 1661 007e 2000     		movs	r0, r4
 1662              		@ sp needed
 1663              	.LVL245:
 1664 0080 F8BD     		pop	{r3, r4, r5, r6, r7, pc}
 1665              	.L118:
ARM GAS  C:\Users\WANGBI~1\AppData\Local\Temp\ccac8q5z.s 			page 47


 1666 0082 C046     		.align	2
 1667              	.L117:
 1668 0084 1B060002 		.word	33555995
 1669 0088 00000000 		.word	g_pstAllQueue
 1670 008c 0A060002 		.word	33555978
 1671 0090 19060002 		.word	33555993
 1672 0094 1A060002 		.word	33555994
 1673              		.cfi_endproc
 1674              	.LFE56:
 1676              		.section	.text.LOS_QueueDelete,"ax",%progbits
 1677              		.align	2
 1678              		.global	LOS_QueueDelete
 1679              		.code	16
 1680              		.thumb_func
 1682              	LOS_QueueDelete:
 1683              	.LFB57:
 663:e:/LiteOS/LiteOS/targets/Cloud_FM33A0XX/GCC/../../../kernel/base/ipc\los_queue.c **** 
 664:e:/LiteOS/LiteOS/targets/Cloud_FM33A0XX/GCC/../../../kernel/base/ipc\los_queue.c **** /*****************************************************************************
 665:e:/LiteOS/LiteOS/targets/Cloud_FM33A0XX/GCC/../../../kernel/base/ipc\los_queue.c ****  Function    : LOS_QueueDelete
 666:e:/LiteOS/LiteOS/targets/Cloud_FM33A0XX/GCC/../../../kernel/base/ipc\los_queue.c ****  Description : Delete a queue
 667:e:/LiteOS/LiteOS/targets/Cloud_FM33A0XX/GCC/../../../kernel/base/ipc\los_queue.c ****  Input       : puwQueueID   --- QueueID
 668:e:/LiteOS/LiteOS/targets/Cloud_FM33A0XX/GCC/../../../kernel/base/ipc\los_queue.c ****  Output      : None
 669:e:/LiteOS/LiteOS/targets/Cloud_FM33A0XX/GCC/../../../kernel/base/ipc\los_queue.c ****  Return      : LOS_OK on success or error code on failure
 670:e:/LiteOS/LiteOS/targets/Cloud_FM33A0XX/GCC/../../../kernel/base/ipc\los_queue.c ****  *****************************************************************************/
 671:e:/LiteOS/LiteOS/targets/Cloud_FM33A0XX/GCC/../../../kernel/base/ipc\los_queue.c **** LITE_OS_SEC_TEXT_INIT UINT32 LOS_QueueDelete(UINT32 uwQueueID)
 672:e:/LiteOS/LiteOS/targets/Cloud_FM33A0XX/GCC/../../../kernel/base/ipc\los_queue.c **** {
 1684              		.loc 1 672 0
 1685              		.cfi_startproc
 1686              		@ args = 0, pretend = 0, frame = 0
 1687              		@ frame_needed = 0, uses_anonymous_args = 0
 1688              	.LVL246:
 1689 0000 70B5     		push	{r4, r5, r6, lr}
 1690              	.LCFI21:
 1691              		.cfi_def_cfa_offset 16
 1692              		.cfi_offset 4, -16
 1693              		.cfi_offset 5, -12
 1694              		.cfi_offset 6, -8
 1695              		.cfi_offset 14, -4
 1696 0002 0400     		movs	r4, r0
 1697              	.LVL247:
 673:e:/LiteOS/LiteOS/targets/Cloud_FM33A0XX/GCC/../../../kernel/base/ipc\los_queue.c ****     QUEUE_CB_S *pstQueueCB;
 674:e:/LiteOS/LiteOS/targets/Cloud_FM33A0XX/GCC/../../../kernel/base/ipc\los_queue.c ****     UINT8 *pucQueue = NULL;
 675:e:/LiteOS/LiteOS/targets/Cloud_FM33A0XX/GCC/../../../kernel/base/ipc\los_queue.c ****     UINTPTR  uvIntSave;
 676:e:/LiteOS/LiteOS/targets/Cloud_FM33A0XX/GCC/../../../kernel/base/ipc\los_queue.c ****     UINT32 uwRet;
 677:e:/LiteOS/LiteOS/targets/Cloud_FM33A0XX/GCC/../../../kernel/base/ipc\los_queue.c **** 
 678:e:/LiteOS/LiteOS/targets/Cloud_FM33A0XX/GCC/../../../kernel/base/ipc\los_queue.c ****     if (uwQueueID >= LOSCFG_BASE_IPC_QUEUE_LIMIT)
 1698              		.loc 1 678 0
 1699 0004 0928     		cmp	r0, #9
 1700 0006 3CD8     		bhi	.L122
 679:e:/LiteOS/LiteOS/targets/Cloud_FM33A0XX/GCC/../../../kernel/base/ipc\los_queue.c ****     {
 680:e:/LiteOS/LiteOS/targets/Cloud_FM33A0XX/GCC/../../../kernel/base/ipc\los_queue.c ****         return LOS_ERRNO_QUEUE_NOT_FOUND;
 681:e:/LiteOS/LiteOS/targets/Cloud_FM33A0XX/GCC/../../../kernel/base/ipc\los_queue.c ****     }
 682:e:/LiteOS/LiteOS/targets/Cloud_FM33A0XX/GCC/../../../kernel/base/ipc\los_queue.c **** 
 683:e:/LiteOS/LiteOS/targets/Cloud_FM33A0XX/GCC/../../../kernel/base/ipc\los_queue.c ****     uvIntSave = LOS_IntLock();
 1701              		.loc 1 683 0
 1702 0008 FFF7FEFF 		bl	LOS_IntLock
 1703              	.LVL248:
ARM GAS  C:\Users\WANGBI~1\AppData\Local\Temp\ccac8q5z.s 			page 48


 684:e:/LiteOS/LiteOS/targets/Cloud_FM33A0XX/GCC/../../../kernel/base/ipc\los_queue.c ****     pstQueueCB = (QUEUE_CB_S *)GET_QUEUE_HANDLE(uwQueueID);
 1704              		.loc 1 684 0
 1705 000c 1E4B     		ldr	r3, .L128
 1706 000e 1A68     		ldr	r2, [r3]
 1707 0010 2C23     		movs	r3, #44
 1708 0012 5C43     		muls	r4, r3
 1709              	.LVL249:
 1710 0014 1419     		adds	r4, r2, r4
 1711              	.LVL250:
 685:e:/LiteOS/LiteOS/targets/Cloud_FM33A0XX/GCC/../../../kernel/base/ipc\los_queue.c ****     if (OS_QUEUE_UNUSED == pstQueueCB->usQueueState)
 1712              		.loc 1 685 0
 1713 0016 A388     		ldrh	r3, [r4, #4]
 1714 0018 002B     		cmp	r3, #0
 1715 001a 25D0     		beq	.L123
 686:e:/LiteOS/LiteOS/targets/Cloud_FM33A0XX/GCC/../../../kernel/base/ipc\los_queue.c ****     {
 687:e:/LiteOS/LiteOS/targets/Cloud_FM33A0XX/GCC/../../../kernel/base/ipc\los_queue.c ****         uwRet = LOS_ERRNO_QUEUE_NOT_CREATE;
 688:e:/LiteOS/LiteOS/targets/Cloud_FM33A0XX/GCC/../../../kernel/base/ipc\los_queue.c ****         goto QUEUE_END;
 689:e:/LiteOS/LiteOS/targets/Cloud_FM33A0XX/GCC/../../../kernel/base/ipc\los_queue.c ****     }
 690:e:/LiteOS/LiteOS/targets/Cloud_FM33A0XX/GCC/../../../kernel/base/ipc\los_queue.c **** 
 691:e:/LiteOS/LiteOS/targets/Cloud_FM33A0XX/GCC/../../../kernel/base/ipc\los_queue.c ****     if (!LOS_ListEmpty(&pstQueueCB->stReadWriteList[OS_QUEUE_READ]))
 1716              		.loc 1 691 0
 1717 001c 2300     		movs	r3, r4
 1718 001e 1433     		adds	r3, r3, #20
 1719 0020 A269     		ldr	r2, [r4, #24]
 1720 0022 9342     		cmp	r3, r2
 1721 0024 22D1     		bne	.L124
 692:e:/LiteOS/LiteOS/targets/Cloud_FM33A0XX/GCC/../../../kernel/base/ipc\los_queue.c ****     {
 693:e:/LiteOS/LiteOS/targets/Cloud_FM33A0XX/GCC/../../../kernel/base/ipc\los_queue.c ****         uwRet = LOS_ERRNO_QUEUE_IN_TSKUSE;
 694:e:/LiteOS/LiteOS/targets/Cloud_FM33A0XX/GCC/../../../kernel/base/ipc\los_queue.c ****         goto QUEUE_END;
 695:e:/LiteOS/LiteOS/targets/Cloud_FM33A0XX/GCC/../../../kernel/base/ipc\los_queue.c ****     }
 696:e:/LiteOS/LiteOS/targets/Cloud_FM33A0XX/GCC/../../../kernel/base/ipc\los_queue.c **** 
 697:e:/LiteOS/LiteOS/targets/Cloud_FM33A0XX/GCC/../../../kernel/base/ipc\los_queue.c ****     if (!LOS_ListEmpty(&pstQueueCB->stReadWriteList[OS_QUEUE_WRITE]))
 1722              		.loc 1 697 0
 1723 0026 0833     		adds	r3, r3, #8
 1724              	.LVL251:
 1725 0028 226A     		ldr	r2, [r4, #32]
 1726 002a 9342     		cmp	r3, r2
 1727 002c 20D1     		bne	.L125
 698:e:/LiteOS/LiteOS/targets/Cloud_FM33A0XX/GCC/../../../kernel/base/ipc\los_queue.c ****     {
 699:e:/LiteOS/LiteOS/targets/Cloud_FM33A0XX/GCC/../../../kernel/base/ipc\los_queue.c ****         uwRet = LOS_ERRNO_QUEUE_IN_TSKUSE;
 700:e:/LiteOS/LiteOS/targets/Cloud_FM33A0XX/GCC/../../../kernel/base/ipc\los_queue.c ****         goto QUEUE_END;
 701:e:/LiteOS/LiteOS/targets/Cloud_FM33A0XX/GCC/../../../kernel/base/ipc\los_queue.c ****     }
 702:e:/LiteOS/LiteOS/targets/Cloud_FM33A0XX/GCC/../../../kernel/base/ipc\los_queue.c **** 
 703:e:/LiteOS/LiteOS/targets/Cloud_FM33A0XX/GCC/../../../kernel/base/ipc\los_queue.c ****     if (!LOS_ListEmpty(&pstQueueCB->stMemList))
 1728              		.loc 1 703 0
 1729 002e 2200     		movs	r2, r4
 1730 0030 2432     		adds	r2, r2, #36
 1731 0032 A16A     		ldr	r1, [r4, #40]
 1732 0034 8A42     		cmp	r2, r1
 1733 0036 1DD1     		bne	.L126
 704:e:/LiteOS/LiteOS/targets/Cloud_FM33A0XX/GCC/../../../kernel/base/ipc\los_queue.c ****     {
 705:e:/LiteOS/LiteOS/targets/Cloud_FM33A0XX/GCC/../../../kernel/base/ipc\los_queue.c ****         uwRet = LOS_ERRNO_QUEUE_IN_TSKUSE;
 706:e:/LiteOS/LiteOS/targets/Cloud_FM33A0XX/GCC/../../../kernel/base/ipc\los_queue.c ****         goto QUEUE_END;
 707:e:/LiteOS/LiteOS/targets/Cloud_FM33A0XX/GCC/../../../kernel/base/ipc\los_queue.c ****     }
 708:e:/LiteOS/LiteOS/targets/Cloud_FM33A0XX/GCC/../../../kernel/base/ipc\los_queue.c **** 
 709:e:/LiteOS/LiteOS/targets/Cloud_FM33A0XX/GCC/../../../kernel/base/ipc\los_queue.c ****     if ((pstQueueCB->usReadWriteableCnt[OS_QUEUE_WRITE] + pstQueueCB->usReadWriteableCnt[OS_QUEUE_R
 1734              		.loc 1 709 0
ARM GAS  C:\Users\WANGBI~1\AppData\Local\Temp\ccac8q5z.s 			page 49


 1735 0038 618A     		ldrh	r1, [r4, #18]
 1736 003a 228A     		ldrh	r2, [r4, #16]
 1737 003c 8A18     		adds	r2, r1, r2
 1738 003e E188     		ldrh	r1, [r4, #6]
 1739 0040 8A42     		cmp	r2, r1
 1740 0042 19D1     		bne	.L127
 710:e:/LiteOS/LiteOS/targets/Cloud_FM33A0XX/GCC/../../../kernel/base/ipc\los_queue.c ****     {
 711:e:/LiteOS/LiteOS/targets/Cloud_FM33A0XX/GCC/../../../kernel/base/ipc\los_queue.c ****         uwRet = LOS_ERRNO_QUEUE_IN_TSKWRITE;
 712:e:/LiteOS/LiteOS/targets/Cloud_FM33A0XX/GCC/../../../kernel/base/ipc\los_queue.c ****         goto QUEUE_END;
 713:e:/LiteOS/LiteOS/targets/Cloud_FM33A0XX/GCC/../../../kernel/base/ipc\los_queue.c ****     }
 714:e:/LiteOS/LiteOS/targets/Cloud_FM33A0XX/GCC/../../../kernel/base/ipc\los_queue.c **** 
 715:e:/LiteOS/LiteOS/targets/Cloud_FM33A0XX/GCC/../../../kernel/base/ipc\los_queue.c ****     pucQueue = pstQueueCB->pucQueue;
 1741              		.loc 1 715 0
 1742 0044 2568     		ldr	r5, [r4]
 1743              	.LVL252:
 716:e:/LiteOS/LiteOS/targets/Cloud_FM33A0XX/GCC/../../../kernel/base/ipc\los_queue.c ****     pstQueueCB->pucQueue = (UINT8 *)NULL;
 1744              		.loc 1 716 0
 1745 0046 0022     		movs	r2, #0
 1746 0048 2260     		str	r2, [r4]
 717:e:/LiteOS/LiteOS/targets/Cloud_FM33A0XX/GCC/../../../kernel/base/ipc\los_queue.c ****     pstQueueCB->usQueueState = OS_QUEUE_UNUSED;
 1747              		.loc 1 717 0
 1748 004a A280     		strh	r2, [r4, #4]
 1749              	.LVL253:
 1750              	.LBB78:
 1751              	.LBB79:
 131:e:\liteos\liteos\kernel\include\los_list.h ****     pstNode->pstPrev = pstList;
 1752              		.loc 2 131 0
 1753 004c 0F4A     		ldr	r2, .L128+4
 1754 004e 5168     		ldr	r1, [r2, #4]
 1755 0050 2162     		str	r1, [r4, #32]
 132:e:\liteos\liteos\kernel\include\los_list.h ****     pstList->pstNext->pstPrev = pstNode;
 1756              		.loc 2 132 0
 1757 0052 E261     		str	r2, [r4, #28]
 133:e:\liteos\liteos\kernel\include\los_list.h ****     pstList->pstNext = pstNode;
 1758              		.loc 2 133 0
 1759 0054 0B60     		str	r3, [r1]
 134:e:\liteos\liteos\kernel\include\los_list.h **** }
 1760              		.loc 2 134 0
 1761 0056 5360     		str	r3, [r2, #4]
 1762              	.LVL254:
 1763              	.LBE79:
 1764              	.LBE78:
 718:e:/LiteOS/LiteOS/targets/Cloud_FM33A0XX/GCC/../../../kernel/base/ipc\los_queue.c ****     LOS_ListAdd(&g_stFreeQueueList, &pstQueueCB->stReadWriteList[OS_QUEUE_WRITE]);
 719:e:/LiteOS/LiteOS/targets/Cloud_FM33A0XX/GCC/../../../kernel/base/ipc\los_queue.c ****     LOS_IntRestore(uvIntSave);
 1765              		.loc 1 719 0
 1766 0058 FFF7FEFF 		bl	LOS_IntRestore
 1767              	.LVL255:
 720:e:/LiteOS/LiteOS/targets/Cloud_FM33A0XX/GCC/../../../kernel/base/ipc\los_queue.c **** 
 721:e:/LiteOS/LiteOS/targets/Cloud_FM33A0XX/GCC/../../../kernel/base/ipc\los_queue.c ****     uwRet = LOS_MemFree(m_aucSysMem0, (VOID *)pucQueue);
 1768              		.loc 1 721 0
 1769 005c 0C4B     		ldr	r3, .L128+8
 1770 005e 1868     		ldr	r0, [r3]
 1771 0060 2900     		movs	r1, r5
 1772 0062 FFF7FEFF 		bl	LOS_MemFree
 1773              	.LVL256:
 722:e:/LiteOS/LiteOS/targets/Cloud_FM33A0XX/GCC/../../../kernel/base/ipc\los_queue.c ****     return uwRet;
 1774              		.loc 1 722 0
ARM GAS  C:\Users\WANGBI~1\AppData\Local\Temp\ccac8q5z.s 			page 50


 1775 0066 0DE0     		b	.L120
 1776              	.LVL257:
 1777              	.L123:
 687:e:/LiteOS/LiteOS/targets/Cloud_FM33A0XX/GCC/../../../kernel/base/ipc\los_queue.c ****         goto QUEUE_END;
 1778              		.loc 1 687 0
 1779 0068 0A4C     		ldr	r4, .L128+12
 1780              	.LVL258:
 1781 006a 06E0     		b	.L121
 1782              	.LVL259:
 1783              	.L124:
 693:e:/LiteOS/LiteOS/targets/Cloud_FM33A0XX/GCC/../../../kernel/base/ipc\los_queue.c ****         goto QUEUE_END;
 1784              		.loc 1 693 0
 1785 006c 0A4C     		ldr	r4, .L128+16
 1786              	.LVL260:
 1787 006e 04E0     		b	.L121
 1788              	.LVL261:
 1789              	.L125:
 699:e:/LiteOS/LiteOS/targets/Cloud_FM33A0XX/GCC/../../../kernel/base/ipc\los_queue.c ****         goto QUEUE_END;
 1790              		.loc 1 699 0
 1791 0070 094C     		ldr	r4, .L128+16
 1792              	.LVL262:
 1793 0072 02E0     		b	.L121
 1794              	.LVL263:
 1795              	.L126:
 705:e:/LiteOS/LiteOS/targets/Cloud_FM33A0XX/GCC/../../../kernel/base/ipc\los_queue.c ****         goto QUEUE_END;
 1796              		.loc 1 705 0
 1797 0074 084C     		ldr	r4, .L128+16
 1798              	.LVL264:
 1799 0076 00E0     		b	.L121
 1800              	.LVL265:
 1801              	.L127:
 711:e:/LiteOS/LiteOS/targets/Cloud_FM33A0XX/GCC/../../../kernel/base/ipc\los_queue.c ****         goto QUEUE_END;
 1802              		.loc 1 711 0
 1803 0078 084C     		ldr	r4, .L128+20
 1804              	.LVL266:
 1805              	.L121:
 723:e:/LiteOS/LiteOS/targets/Cloud_FM33A0XX/GCC/../../../kernel/base/ipc\los_queue.c **** 
 724:e:/LiteOS/LiteOS/targets/Cloud_FM33A0XX/GCC/../../../kernel/base/ipc\los_queue.c **** QUEUE_END:
 725:e:/LiteOS/LiteOS/targets/Cloud_FM33A0XX/GCC/../../../kernel/base/ipc\los_queue.c ****     LOS_IntRestore(uvIntSave);
 1806              		.loc 1 725 0
 1807 007a FFF7FEFF 		bl	LOS_IntRestore
 1808              	.LVL267:
 726:e:/LiteOS/LiteOS/targets/Cloud_FM33A0XX/GCC/../../../kernel/base/ipc\los_queue.c ****     return uwRet;
 1809              		.loc 1 726 0
 1810 007e 2000     		movs	r0, r4
 1811 0080 00E0     		b	.L120
 1812              	.LVL268:
 1813              	.L122:
 680:e:/LiteOS/LiteOS/targets/Cloud_FM33A0XX/GCC/../../../kernel/base/ipc\los_queue.c ****     }
 1814              		.loc 1 680 0
 1815 0082 0748     		ldr	r0, .L128+24
 1816              	.LVL269:
 1817              	.L120:
 727:e:/LiteOS/LiteOS/targets/Cloud_FM33A0XX/GCC/../../../kernel/base/ipc\los_queue.c **** }
 1818              		.loc 1 727 0
 1819              		@ sp needed
 1820 0084 70BD     		pop	{r4, r5, r6, pc}
ARM GAS  C:\Users\WANGBI~1\AppData\Local\Temp\ccac8q5z.s 			page 51


 1821              	.L129:
 1822 0086 C046     		.align	2
 1823              	.L128:
 1824 0088 00000000 		.word	g_pstAllQueue
 1825 008c 00000000 		.word	g_stFreeQueueList
 1826 0090 00000000 		.word	m_aucSysMem0
 1827 0094 0A060002 		.word	33555978
 1828 0098 08060002 		.word	33555976
 1829 009c 0B060002 		.word	33555979
 1830 00a0 05060002 		.word	33555973
 1831              		.cfi_endproc
 1832              	.LFE57:
 1834              		.section	.text.LOS_QueueInfoGet,"ax",%progbits
 1835              		.align	2
 1836              		.global	LOS_QueueInfoGet
 1837              		.code	16
 1838              		.thumb_func
 1840              	LOS_QueueInfoGet:
 1841              	.LFB58:
 728:e:/LiteOS/LiteOS/targets/Cloud_FM33A0XX/GCC/../../../kernel/base/ipc\los_queue.c **** 
 729:e:/LiteOS/LiteOS/targets/Cloud_FM33A0XX/GCC/../../../kernel/base/ipc\los_queue.c **** /*****************************************************************************
 730:e:/LiteOS/LiteOS/targets/Cloud_FM33A0XX/GCC/../../../kernel/base/ipc\los_queue.c ****  Function    : LOS_QueueInfoGet
 731:e:/LiteOS/LiteOS/targets/Cloud_FM33A0XX/GCC/../../../kernel/base/ipc\los_queue.c ****  Description : Get queue infomation
 732:e:/LiteOS/LiteOS/targets/Cloud_FM33A0XX/GCC/../../../kernel/base/ipc\los_queue.c ****  Input       : puwQueueID   --- QueueID
 733:e:/LiteOS/LiteOS/targets/Cloud_FM33A0XX/GCC/../../../kernel/base/ipc\los_queue.c ****  Output      : pstQueueInfo
 734:e:/LiteOS/LiteOS/targets/Cloud_FM33A0XX/GCC/../../../kernel/base/ipc\los_queue.c ****  Return      : LOS_OK on success or error code on failure
 735:e:/LiteOS/LiteOS/targets/Cloud_FM33A0XX/GCC/../../../kernel/base/ipc\los_queue.c ****  *****************************************************************************/
 736:e:/LiteOS/LiteOS/targets/Cloud_FM33A0XX/GCC/../../../kernel/base/ipc\los_queue.c **** LITE_OS_SEC_TEXT_MINOR UINT32 LOS_QueueInfoGet(UINT32 uwQueueID, QUEUE_INFO_S *pstQueueInfo)
 737:e:/LiteOS/LiteOS/targets/Cloud_FM33A0XX/GCC/../../../kernel/base/ipc\los_queue.c **** {
 1842              		.loc 1 737 0
 1843              		.cfi_startproc
 1844              		@ args = 0, pretend = 0, frame = 0
 1845              		@ frame_needed = 0, uses_anonymous_args = 0
 1846              	.LVL270:
 1847 0000 70B5     		push	{r4, r5, r6, lr}
 1848              	.LCFI22:
 1849              		.cfi_def_cfa_offset 16
 1850              		.cfi_offset 4, -16
 1851              		.cfi_offset 5, -12
 1852              		.cfi_offset 6, -8
 1853              		.cfi_offset 14, -4
 1854 0002 0500     		movs	r5, r0
 1855 0004 0C1E     		subs	r4, r1, #0
 1856              	.LVL271:
 738:e:/LiteOS/LiteOS/targets/Cloud_FM33A0XX/GCC/../../../kernel/base/ipc\los_queue.c ****     UINTPTR uvIntSave;
 739:e:/LiteOS/LiteOS/targets/Cloud_FM33A0XX/GCC/../../../kernel/base/ipc\los_queue.c ****     UINT32 uwRet = LOS_OK;
 740:e:/LiteOS/LiteOS/targets/Cloud_FM33A0XX/GCC/../../../kernel/base/ipc\los_queue.c ****     QUEUE_CB_S *pstQueueCB;
 741:e:/LiteOS/LiteOS/targets/Cloud_FM33A0XX/GCC/../../../kernel/base/ipc\los_queue.c ****     LOS_TASK_CB *pstTskCB;
 742:e:/LiteOS/LiteOS/targets/Cloud_FM33A0XX/GCC/../../../kernel/base/ipc\los_queue.c **** 
 743:e:/LiteOS/LiteOS/targets/Cloud_FM33A0XX/GCC/../../../kernel/base/ipc\los_queue.c ****     if (NULL == pstQueueInfo)
 1857              		.loc 1 743 0
 1858 0006 57D0     		beq	.L139
 744:e:/LiteOS/LiteOS/targets/Cloud_FM33A0XX/GCC/../../../kernel/base/ipc\los_queue.c ****     {
 745:e:/LiteOS/LiteOS/targets/Cloud_FM33A0XX/GCC/../../../kernel/base/ipc\los_queue.c ****         return LOS_ERRNO_QUEUE_PTR_NULL;
 746:e:/LiteOS/LiteOS/targets/Cloud_FM33A0XX/GCC/../../../kernel/base/ipc\los_queue.c ****     }
 747:e:/LiteOS/LiteOS/targets/Cloud_FM33A0XX/GCC/../../../kernel/base/ipc\los_queue.c **** 
 748:e:/LiteOS/LiteOS/targets/Cloud_FM33A0XX/GCC/../../../kernel/base/ipc\los_queue.c ****     if (uwQueueID >= LOSCFG_BASE_IPC_QUEUE_LIMIT)
ARM GAS  C:\Users\WANGBI~1\AppData\Local\Temp\ccac8q5z.s 			page 52


 1859              		.loc 1 748 0
 1860 0008 0928     		cmp	r0, #9
 1861 000a 57D8     		bhi	.L140
 749:e:/LiteOS/LiteOS/targets/Cloud_FM33A0XX/GCC/../../../kernel/base/ipc\los_queue.c ****     {
 750:e:/LiteOS/LiteOS/targets/Cloud_FM33A0XX/GCC/../../../kernel/base/ipc\los_queue.c ****         return LOS_ERRNO_QUEUE_INVALID;
 751:e:/LiteOS/LiteOS/targets/Cloud_FM33A0XX/GCC/../../../kernel/base/ipc\los_queue.c ****     }
 752:e:/LiteOS/LiteOS/targets/Cloud_FM33A0XX/GCC/../../../kernel/base/ipc\los_queue.c **** 
 753:e:/LiteOS/LiteOS/targets/Cloud_FM33A0XX/GCC/../../../kernel/base/ipc\los_queue.c ****     (VOID)memset((VOID *)pstQueueInfo, 0, sizeof(QUEUE_INFO_S));
 1862              		.loc 1 753 0
 1863 000c 1C22     		movs	r2, #28
 1864 000e 0021     		movs	r1, #0
 1865              	.LVL272:
 1866 0010 2000     		movs	r0, r4
 1867              	.LVL273:
 1868 0012 FFF7FEFF 		bl	memset
 1869              	.LVL274:
 754:e:/LiteOS/LiteOS/targets/Cloud_FM33A0XX/GCC/../../../kernel/base/ipc\los_queue.c ****     uvIntSave = LOS_IntLock();
 1870              		.loc 1 754 0
 1871 0016 FFF7FEFF 		bl	LOS_IntLock
 1872              	.LVL275:
 755:e:/LiteOS/LiteOS/targets/Cloud_FM33A0XX/GCC/../../../kernel/base/ipc\los_queue.c **** 
 756:e:/LiteOS/LiteOS/targets/Cloud_FM33A0XX/GCC/../../../kernel/base/ipc\los_queue.c ****     pstQueueCB = (QUEUE_CB_S *)GET_QUEUE_HANDLE(uwQueueID);
 1873              		.loc 1 756 0
 1874 001a 294B     		ldr	r3, .L142
 1875 001c 1B68     		ldr	r3, [r3]
 1876 001e 2C21     		movs	r1, #44
 1877 0020 6943     		muls	r1, r5
 1878 0022 5918     		adds	r1, r3, r1
 1879              	.LVL276:
 757:e:/LiteOS/LiteOS/targets/Cloud_FM33A0XX/GCC/../../../kernel/base/ipc\los_queue.c **** 
 758:e:/LiteOS/LiteOS/targets/Cloud_FM33A0XX/GCC/../../../kernel/base/ipc\los_queue.c ****     if (OS_QUEUE_UNUSED == pstQueueCB->usQueueState)
 1880              		.loc 1 758 0
 1881 0024 8B88     		ldrh	r3, [r1, #4]
 1882 0026 002B     		cmp	r3, #0
 1883 0028 41D0     		beq	.L141
 759:e:/LiteOS/LiteOS/targets/Cloud_FM33A0XX/GCC/../../../kernel/base/ipc\los_queue.c ****     {
 760:e:/LiteOS/LiteOS/targets/Cloud_FM33A0XX/GCC/../../../kernel/base/ipc\los_queue.c ****         uwRet = LOS_ERRNO_QUEUE_NOT_CREATE;
 761:e:/LiteOS/LiteOS/targets/Cloud_FM33A0XX/GCC/../../../kernel/base/ipc\los_queue.c ****         goto QUEUE_END;
 762:e:/LiteOS/LiteOS/targets/Cloud_FM33A0XX/GCC/../../../kernel/base/ipc\los_queue.c ****     }
 763:e:/LiteOS/LiteOS/targets/Cloud_FM33A0XX/GCC/../../../kernel/base/ipc\los_queue.c **** 
 764:e:/LiteOS/LiteOS/targets/Cloud_FM33A0XX/GCC/../../../kernel/base/ipc\los_queue.c ****     pstQueueInfo->uwQueueID = uwQueueID;
 1884              		.loc 1 764 0
 1885 002a 2560     		str	r5, [r4]
 765:e:/LiteOS/LiteOS/targets/Cloud_FM33A0XX/GCC/../../../kernel/base/ipc\los_queue.c ****     pstQueueInfo->usQueueLen = pstQueueCB->usQueueLen;
 1886              		.loc 1 765 0
 1887 002c CB88     		ldrh	r3, [r1, #6]
 1888 002e A380     		strh	r3, [r4, #4]
 766:e:/LiteOS/LiteOS/targets/Cloud_FM33A0XX/GCC/../../../kernel/base/ipc\los_queue.c ****     pstQueueInfo->usQueueSize = pstQueueCB->usQueueSize;
 1889              		.loc 1 766 0
 1890 0030 0B89     		ldrh	r3, [r1, #8]
 1891 0032 E380     		strh	r3, [r4, #6]
 767:e:/LiteOS/LiteOS/targets/Cloud_FM33A0XX/GCC/../../../kernel/base/ipc\los_queue.c ****     pstQueueInfo->usQueueHead = pstQueueCB->usQueueHead;
 1892              		.loc 1 767 0
 1893 0034 8B89     		ldrh	r3, [r1, #12]
 1894 0036 2381     		strh	r3, [r4, #8]
 768:e:/LiteOS/LiteOS/targets/Cloud_FM33A0XX/GCC/../../../kernel/base/ipc\los_queue.c ****     pstQueueInfo->usQueueTail = pstQueueCB->usQueueTail;
 1895              		.loc 1 768 0
ARM GAS  C:\Users\WANGBI~1\AppData\Local\Temp\ccac8q5z.s 			page 53


 1896 0038 CB89     		ldrh	r3, [r1, #14]
 1897 003a 6381     		strh	r3, [r4, #10]
 769:e:/LiteOS/LiteOS/targets/Cloud_FM33A0XX/GCC/../../../kernel/base/ipc\los_queue.c ****     pstQueueInfo->usReadableCnt = pstQueueCB->usReadWriteableCnt[OS_QUEUE_READ];
 1898              		.loc 1 769 0
 1899 003c 0B8A     		ldrh	r3, [r1, #16]
 1900 003e E381     		strh	r3, [r4, #14]
 770:e:/LiteOS/LiteOS/targets/Cloud_FM33A0XX/GCC/../../../kernel/base/ipc\los_queue.c ****     pstQueueInfo->usWritableCnt = pstQueueCB->usReadWriteableCnt[OS_QUEUE_WRITE];
 1901              		.loc 1 770 0
 1902 0040 4B8A     		ldrh	r3, [r1, #18]
 1903 0042 A381     		strh	r3, [r4, #12]
 771:e:/LiteOS/LiteOS/targets/Cloud_FM33A0XX/GCC/../../../kernel/base/ipc\los_queue.c **** 
 772:e:/LiteOS/LiteOS/targets/Cloud_FM33A0XX/GCC/../../../kernel/base/ipc\los_queue.c ****     LOS_DL_LIST_FOR_EACH_ENTRY(pstTskCB, &pstQueueCB->stReadWriteList[OS_QUEUE_READ], LOS_TASK_CB, 
 1904              		.loc 1 772 0
 1905 0044 8B69     		ldr	r3, [r1, #24]
 1906 0046 283B     		subs	r3, r3, #40
 1907              	.LVL277:
 1908 0048 07E0     		b	.L133
 1909              	.LVL278:
 1910              	.L134:
 773:e:/LiteOS/LiteOS/targets/Cloud_FM33A0XX/GCC/../../../kernel/base/ipc\los_queue.c ****     {
 774:e:/LiteOS/LiteOS/targets/Cloud_FM33A0XX/GCC/../../../kernel/base/ipc\los_queue.c ****         pstQueueInfo->uwWaitReadTask |= (1 << pstTskCB->uwTaskID);
 1911              		.loc 1 774 0 discriminator 3
 1912 004a 0122     		movs	r2, #1
 1913 004c 1D69     		ldr	r5, [r3, #16]
 1914 004e AA40     		lsls	r2, r2, r5
 1915 0050 2569     		ldr	r5, [r4, #16]
 1916 0052 2A43     		orrs	r2, r5
 1917 0054 2261     		str	r2, [r4, #16]
 772:e:/LiteOS/LiteOS/targets/Cloud_FM33A0XX/GCC/../../../kernel/base/ipc\los_queue.c ****     {
 1918              		.loc 1 772 0 discriminator 3
 1919 0056 DB6A     		ldr	r3, [r3, #44]
 1920              	.LVL279:
 1921 0058 283B     		subs	r3, r3, #40
 1922              	.LVL280:
 1923              	.L133:
 772:e:/LiteOS/LiteOS/targets/Cloud_FM33A0XX/GCC/../../../kernel/base/ipc\los_queue.c ****     {
 1924              		.loc 1 772 0 is_stmt 0 discriminator 1
 1925 005a 1A00     		movs	r2, r3
 1926 005c 2832     		adds	r2, r2, #40
 1927 005e 0D00     		movs	r5, r1
 1928 0060 1435     		adds	r5, r5, #20
 1929 0062 AA42     		cmp	r2, r5
 1930 0064 F1D1     		bne	.L134
 775:e:/LiteOS/LiteOS/targets/Cloud_FM33A0XX/GCC/../../../kernel/base/ipc\los_queue.c ****     }
 776:e:/LiteOS/LiteOS/targets/Cloud_FM33A0XX/GCC/../../../kernel/base/ipc\los_queue.c **** 
 777:e:/LiteOS/LiteOS/targets/Cloud_FM33A0XX/GCC/../../../kernel/base/ipc\los_queue.c ****     LOS_DL_LIST_FOR_EACH_ENTRY(pstTskCB, &pstQueueCB->stReadWriteList[OS_QUEUE_WRITE], LOS_TASK_CB,
 1931              		.loc 1 777 0 is_stmt 1
 1932 0066 0B6A     		ldr	r3, [r1, #32]
 1933              	.LVL281:
 1934 0068 283B     		subs	r3, r3, #40
 1935              	.LVL282:
 1936 006a 07E0     		b	.L135
 1937              	.L136:
 778:e:/LiteOS/LiteOS/targets/Cloud_FM33A0XX/GCC/../../../kernel/base/ipc\los_queue.c ****     {
 779:e:/LiteOS/LiteOS/targets/Cloud_FM33A0XX/GCC/../../../kernel/base/ipc\los_queue.c ****         pstQueueInfo->uwWaitWriteTask |= (1 << pstTskCB->uwTaskID);
 1938              		.loc 1 779 0 discriminator 3
 1939 006c 0122     		movs	r2, #1
ARM GAS  C:\Users\WANGBI~1\AppData\Local\Temp\ccac8q5z.s 			page 54


 1940 006e 1D69     		ldr	r5, [r3, #16]
 1941 0070 AA40     		lsls	r2, r2, r5
 1942 0072 6569     		ldr	r5, [r4, #20]
 1943 0074 2A43     		orrs	r2, r5
 1944 0076 6261     		str	r2, [r4, #20]
 777:e:/LiteOS/LiteOS/targets/Cloud_FM33A0XX/GCC/../../../kernel/base/ipc\los_queue.c ****     {
 1945              		.loc 1 777 0 discriminator 3
 1946 0078 DB6A     		ldr	r3, [r3, #44]
 1947              	.LVL283:
 1948 007a 283B     		subs	r3, r3, #40
 1949              	.LVL284:
 1950              	.L135:
 777:e:/LiteOS/LiteOS/targets/Cloud_FM33A0XX/GCC/../../../kernel/base/ipc\los_queue.c ****     {
 1951              		.loc 1 777 0 is_stmt 0 discriminator 1
 1952 007c 1A00     		movs	r2, r3
 1953 007e 2832     		adds	r2, r2, #40
 1954 0080 0D00     		movs	r5, r1
 1955 0082 1C35     		adds	r5, r5, #28
 1956 0084 AA42     		cmp	r2, r5
 1957 0086 F1D1     		bne	.L136
 780:e:/LiteOS/LiteOS/targets/Cloud_FM33A0XX/GCC/../../../kernel/base/ipc\los_queue.c ****     }
 781:e:/LiteOS/LiteOS/targets/Cloud_FM33A0XX/GCC/../../../kernel/base/ipc\los_queue.c **** 
 782:e:/LiteOS/LiteOS/targets/Cloud_FM33A0XX/GCC/../../../kernel/base/ipc\los_queue.c ****     LOS_DL_LIST_FOR_EACH_ENTRY(pstTskCB, &pstQueueCB->stMemList, LOS_TASK_CB, stPendList) /*lint !e
 1958              		.loc 1 782 0 is_stmt 1
 1959 0088 8B6A     		ldr	r3, [r1, #40]
 1960              	.LVL285:
 1961 008a 283B     		subs	r3, r3, #40
 1962              	.LVL286:
 1963 008c 07E0     		b	.L137
 1964              	.L138:
 783:e:/LiteOS/LiteOS/targets/Cloud_FM33A0XX/GCC/../../../kernel/base/ipc\los_queue.c ****     {
 784:e:/LiteOS/LiteOS/targets/Cloud_FM33A0XX/GCC/../../../kernel/base/ipc\los_queue.c ****         pstQueueInfo->uwWaitMemTask |= (1 << pstTskCB->uwTaskID);
 1965              		.loc 1 784 0 discriminator 3
 1966 008e 0122     		movs	r2, #1
 1967 0090 1D69     		ldr	r5, [r3, #16]
 1968 0092 AA40     		lsls	r2, r2, r5
 1969 0094 A569     		ldr	r5, [r4, #24]
 1970 0096 2A43     		orrs	r2, r5
 1971 0098 A261     		str	r2, [r4, #24]
 782:e:/LiteOS/LiteOS/targets/Cloud_FM33A0XX/GCC/../../../kernel/base/ipc\los_queue.c ****     {
 1972              		.loc 1 782 0 discriminator 3
 1973 009a DB6A     		ldr	r3, [r3, #44]
 1974              	.LVL287:
 1975 009c 283B     		subs	r3, r3, #40
 1976              	.LVL288:
 1977              	.L137:
 782:e:/LiteOS/LiteOS/targets/Cloud_FM33A0XX/GCC/../../../kernel/base/ipc\los_queue.c ****     {
 1978              		.loc 1 782 0 is_stmt 0 discriminator 1
 1979 009e 1A00     		movs	r2, r3
 1980 00a0 2832     		adds	r2, r2, #40
 1981 00a2 0D00     		movs	r5, r1
 1982 00a4 2435     		adds	r5, r5, #36
 1983 00a6 AA42     		cmp	r2, r5
 1984 00a8 F1D1     		bne	.L138
 739:e:/LiteOS/LiteOS/targets/Cloud_FM33A0XX/GCC/../../../kernel/base/ipc\los_queue.c ****     QUEUE_CB_S *pstQueueCB;
 1985              		.loc 1 739 0 is_stmt 1
 1986 00aa 0024     		movs	r4, #0
ARM GAS  C:\Users\WANGBI~1\AppData\Local\Temp\ccac8q5z.s 			page 55


 1987              	.LVL289:
 1988 00ac 00E0     		b	.L132
 1989              	.LVL290:
 1990              	.L141:
 760:e:/LiteOS/LiteOS/targets/Cloud_FM33A0XX/GCC/../../../kernel/base/ipc\los_queue.c ****         goto QUEUE_END;
 1991              		.loc 1 760 0
 1992 00ae 054C     		ldr	r4, .L142+4
 1993              	.LVL291:
 1994              	.L132:
 785:e:/LiteOS/LiteOS/targets/Cloud_FM33A0XX/GCC/../../../kernel/base/ipc\los_queue.c ****     }
 786:e:/LiteOS/LiteOS/targets/Cloud_FM33A0XX/GCC/../../../kernel/base/ipc\los_queue.c **** 
 787:e:/LiteOS/LiteOS/targets/Cloud_FM33A0XX/GCC/../../../kernel/base/ipc\los_queue.c **** QUEUE_END:
 788:e:/LiteOS/LiteOS/targets/Cloud_FM33A0XX/GCC/../../../kernel/base/ipc\los_queue.c ****     LOS_IntRestore(uvIntSave);
 1995              		.loc 1 788 0
 1996 00b0 FFF7FEFF 		bl	LOS_IntRestore
 1997              	.LVL292:
 789:e:/LiteOS/LiteOS/targets/Cloud_FM33A0XX/GCC/../../../kernel/base/ipc\los_queue.c ****     return uwRet;
 1998              		.loc 1 789 0
 1999 00b4 2000     		movs	r0, r4
 2000 00b6 02E0     		b	.L131
 2001              	.LVL293:
 2002              	.L139:
 745:e:/LiteOS/LiteOS/targets/Cloud_FM33A0XX/GCC/../../../kernel/base/ipc\los_queue.c ****     }
 2003              		.loc 1 745 0
 2004 00b8 0348     		ldr	r0, .L142+8
 2005              	.LVL294:
 2006 00ba 00E0     		b	.L131
 2007              	.LVL295:
 2008              	.L140:
 750:e:/LiteOS/LiteOS/targets/Cloud_FM33A0XX/GCC/../../../kernel/base/ipc\los_queue.c ****     }
 2009              		.loc 1 750 0
 2010 00bc 0348     		ldr	r0, .L142+12
 2011              	.LVL296:
 2012              	.L131:
 790:e:/LiteOS/LiteOS/targets/Cloud_FM33A0XX/GCC/../../../kernel/base/ipc\los_queue.c **** }
 2013              		.loc 1 790 0
 2014              		@ sp needed
 2015 00be 70BD     		pop	{r4, r5, r6, pc}
 2016              	.L143:
 2017              		.align	2
 2018              	.L142:
 2019 00c0 00000000 		.word	g_pstAllQueue
 2020 00c4 0A060002 		.word	33555978
 2021 00c8 17060002 		.word	33555991
 2022 00cc 0E060002 		.word	33555982
 2023              		.cfi_endproc
 2024              	.LFE58:
 2026              		.comm	g_stFreeQueueList,8,4
 2027              		.comm	g_pstAllQueue,4,4
 2028              		.section	.rodata.str1.4,"aMS",%progbits,1
 2029              		.align	2
 2030              	.LC8:
 2031 0000 5B455252 		.ascii	"[ERR] \000"
 2031      5D2000
 2032 0007 00       		.space	1
 2033              	.LC10:
 2034 0008 696E7661 		.ascii	"invalid queue operate type!\000"
ARM GAS  C:\Users\WANGBI~1\AppData\Local\Temp\ccac8q5z.s 			page 56


 2034      6C696420 
 2034      71756575 
 2034      65206F70 
 2034      65726174 
 2035              		.text
 2036              	.Letext0:
 2037              		.file 3 "e:\\liteos\\liteos\\kernel\\include\\los_typedef.h"
 2038              		.file 4 "e:\\liteos\\liteos\\kernel\\include\\los_queue.h"
 2039              		.file 5 "e:\\liteos\\liteos\\kernel\\include\\los_err.h"
 2040              		.file 6 "e:\\liteos\\liteos\\kernel\\base\\include\\los_queue.ph"
 2041              		.file 7 "e:\\liteos\\liteos\\kernel\\include\\los_event.h"
 2042              		.file 8 "e:\\liteos\\liteos\\kernel\\include\\los_task.h"
 2043              		.file 9 "e:\\liteos\\liteos\\kernel\\base\\include\\los_task.ph"
 2044              		.file 10 "e:\\liteos\\liteos\\kernel\\include\\los_config.h"
 2045              		.file 11 "e:\\liteos\\liteos\\kernel\\include\\los_memory.h"
 2046              		.file 12 "e:\\liteos\\liteos\\arch\\arm\\arm-m\\include\\los_hwi.h"
 2047              		.file 13 "d:\\gnu tools arm embedded\\5.4 2016q3\\arm-none-eabi\\include\\stdio.h"
 2048              		.file 14 "e:\\liteos\\liteos\\arch\\arm\\arm-m\\include\\los_hw.h"
 2049              		.file 15 "e:\\liteos\\liteos\\kernel\\include\\los_membox.h"
 2050              		.file 16 "<built-in>"
ARM GAS  C:\Users\WANGBI~1\AppData\Local\Temp\ccac8q5z.s 			page 57

