ARM GAS  C:\Users\WANGBI~1\AppData\Local\Temp\cc4cJIrJ.s 			page 1


   1              		.syntax unified
   2              		.cpu cortex-m0plus
   3              		.fpu softvfp
   4              		.eabi_attribute 20, 1
   5              		.eabi_attribute 21, 1
   6              		.eabi_attribute 23, 3
   7              		.eabi_attribute 24, 1
   8              		.eabi_attribute 25, 1
   9              		.eabi_attribute 26, 1
  10              		.eabi_attribute 30, 1
  11              		.eabi_attribute 34, 0
  12              		.eabi_attribute 18, 4
  13              		.thumb
  14              		.syntax unified
  15              		.file	"los_uart.c"
  16              		.text
  17              	.Ltext0:
  18              		.cfi_sections	.debug_frame
  19              		.section	.text.UART_ISR,"ax",%progbits
  20              		.align	2
  21              		.global	UART_ISR
  22              		.code	16
  23              		.thumb_func
  25              	UART_ISR:
  26              	.LFB43:
  27              		.file 1 "e:/LiteOS/LiteOS/targets/Cloud_FM33A0XX/GCC/../../../targets/Cloud_FM33A0XX/UserCode/los_
   1:e:/LiteOS/LiteOS/targets/Cloud_FM33A0XX/GCC/../../../targets/Cloud_FM33A0XX/UserCode\los_uart.c **** 
   2:e:/LiteOS/LiteOS/targets/Cloud_FM33A0XX/GCC/../../../targets/Cloud_FM33A0XX/UserCode\los_uart.c **** #include "define_all.h"  
   3:e:/LiteOS/LiteOS/targets/Cloud_FM33A0XX/GCC/../../../targets/Cloud_FM33A0XX/UserCode\los_uart.c **** #include "los_uart.h"
   4:e:/LiteOS/LiteOS/targets/Cloud_FM33A0XX/GCC/../../../targets/Cloud_FM33A0XX/UserCode\los_uart.c **** #include "los_mux.h"
   5:e:/LiteOS/LiteOS/targets/Cloud_FM33A0XX/GCC/../../../targets/Cloud_FM33A0XX/UserCode\los_uart.c **** #include <string.h> 
   6:e:/LiteOS/LiteOS/targets/Cloud_FM33A0XX/GCC/../../../targets/Cloud_FM33A0XX/UserCode\los_uart.c **** #include "ring.h"
   7:e:/LiteOS/LiteOS/targets/Cloud_FM33A0XX/GCC/../../../targets/Cloud_FM33A0XX/UserCode\los_uart.c **** 
   8:e:/LiteOS/LiteOS/targets/Cloud_FM33A0XX/GCC/../../../targets/Cloud_FM33A0XX/UserCode\los_uart.c **** #define CN_UART_SYNCTIMEOUT 1000
   9:e:/LiteOS/LiteOS/targets/Cloud_FM33A0XX/GCC/../../../targets/Cloud_FM33A0XX/UserCode\los_uart.c **** #define CN_AF30XX_COM_NUM  6
  10:e:/LiteOS/LiteOS/targets/Cloud_FM33A0XX/GCC/../../../targets/Cloud_FM33A0XX/UserCode\los_uart.c **** void *UARTHandle[CN_AF30XX_COM_NUM]={UART0,UART1,UART2,UART3,UART4,UART5};
  11:e:/LiteOS/LiteOS/targets/Cloud_FM33A0XX/GCC/../../../targets/Cloud_FM33A0XX/UserCode\los_uart.c **** typedef struct
  12:e:/LiteOS/LiteOS/targets/Cloud_FM33A0XX/GCC/../../../targets/Cloud_FM33A0XX/UserCode\los_uart.c **** {
  13:e:/LiteOS/LiteOS/targets/Cloud_FM33A0XX/GCC/../../../targets/Cloud_FM33A0XX/UserCode\los_uart.c **** 	void *UARTHandle;
  14:e:/LiteOS/LiteOS/targets/Cloud_FM33A0XX/GCC/../../../targets/Cloud_FM33A0XX/UserCode\los_uart.c **** 	tagRingBuf  tx;
  15:e:/LiteOS/LiteOS/targets/Cloud_FM33A0XX/GCC/../../../targets/Cloud_FM33A0XX/UserCode\los_uart.c **** 	tagRingBuf  rx;
  16:e:/LiteOS/LiteOS/targets/Cloud_FM33A0XX/GCC/../../../targets/Cloud_FM33A0XX/UserCode\los_uart.c **** 	UINT32 rmutex;   //used for the uart read sync
  17:e:/LiteOS/LiteOS/targets/Cloud_FM33A0XX/GCC/../../../targets/Cloud_FM33A0XX/UserCode\los_uart.c **** 	UINT32 wmutex;   //used for the uart write sync
  18:e:/LiteOS/LiteOS/targets/Cloud_FM33A0XX/GCC/../../../targets/Cloud_FM33A0XX/UserCode\los_uart.c **** }tagUARTCB;
  19:e:/LiteOS/LiteOS/targets/Cloud_FM33A0XX/GCC/../../../targets/Cloud_FM33A0XX/UserCode\los_uart.c **** tagUARTCB   gUARTCB[CN_AF30XX_COM_NUM];
  20:e:/LiteOS/LiteOS/targets/Cloud_FM33A0XX/GCC/../../../targets/Cloud_FM33A0XX/UserCode\los_uart.c **** 
  21:e:/LiteOS/LiteOS/targets/Cloud_FM33A0XX/GCC/../../../targets/Cloud_FM33A0XX/UserCode\los_uart.c **** //GENERAL DEAL HERE
  22:e:/LiteOS/LiteOS/targets/Cloud_FM33A0XX/GCC/../../../targets/Cloud_FM33A0XX/UserCode\los_uart.c **** void UART_ISR(int id)
  23:e:/LiteOS/LiteOS/targets/Cloud_FM33A0XX/GCC/../../../targets/Cloud_FM33A0XX/UserCode\los_uart.c **** {
  28              		.loc 1 23 0
  29              		.cfi_startproc
  30              		@ args = 0, pretend = 0, frame = 8
  31              		@ frame_needed = 0, uses_anonymous_args = 0
  32              	.LVL0:
  33 0000 30B5     		push	{r4, r5, lr}
  34              	.LCFI0:
  35              		.cfi_def_cfa_offset 12
ARM GAS  C:\Users\WANGBI~1\AppData\Local\Temp\cc4cJIrJ.s 			page 2


  36              		.cfi_offset 4, -12
  37              		.cfi_offset 5, -8
  38              		.cfi_offset 14, -4
  39 0002 83B0     		sub	sp, sp, #12
  40              	.LCFI1:
  41              		.cfi_def_cfa_offset 24
  42 0004 0400     		movs	r4, r0
  24:e:/LiteOS/LiteOS/targets/Cloud_FM33A0XX/GCC/../../../targets/Cloud_FM33A0XX/UserCode\los_uart.c **** 	unsigned char tmp08;
  25:e:/LiteOS/LiteOS/targets/Cloud_FM33A0XX/GCC/../../../targets/Cloud_FM33A0XX/UserCode\los_uart.c **** 	tagUARTCB *cb;
  26:e:/LiteOS/LiteOS/targets/Cloud_FM33A0XX/GCC/../../../targets/Cloud_FM33A0XX/UserCode\los_uart.c **** 	UARTx_Type *uart;
  27:e:/LiteOS/LiteOS/targets/Cloud_FM33A0XX/GCC/../../../targets/Cloud_FM33A0XX/UserCode\los_uart.c **** 	if(id >=CN_AF30XX_COM_NUM)
  43              		.loc 1 27 0
  44 0006 0528     		cmp	r0, #5
  45 0008 40DC     		bgt	.L1
  46              	.LVL1:
  28:e:/LiteOS/LiteOS/targets/Cloud_FM33A0XX/GCC/../../../targets/Cloud_FM33A0XX/UserCode\los_uart.c **** 	{
  29:e:/LiteOS/LiteOS/targets/Cloud_FM33A0XX/GCC/../../../targets/Cloud_FM33A0XX/UserCode\los_uart.c **** 		return;
  30:e:/LiteOS/LiteOS/targets/Cloud_FM33A0XX/GCC/../../../targets/Cloud_FM33A0XX/UserCode\los_uart.c **** 	}
  31:e:/LiteOS/LiteOS/targets/Cloud_FM33A0XX/GCC/../../../targets/Cloud_FM33A0XX/UserCode\los_uart.c **** 	cb = &gUARTCB[id];
  32:e:/LiteOS/LiteOS/targets/Cloud_FM33A0XX/GCC/../../../targets/Cloud_FM33A0XX/UserCode\los_uart.c **** 	uart = cb->UARTHandle;
  47              		.loc 1 32 0
  48 000a 2C23     		movs	r3, #44
  49 000c 4343     		muls	r3, r0
  50 000e 204A     		ldr	r2, .L7
  51 0010 9D58     		ldr	r5, [r3, r2]
  52              	.LVL2:
  33:e:/LiteOS/LiteOS/targets/Cloud_FM33A0XX/GCC/../../../targets/Cloud_FM33A0XX/UserCode\los_uart.c **** 	if(NULL == uart)
  53              		.loc 1 33 0
  54 0012 002D     		cmp	r5, #0
  55 0014 3AD0     		beq	.L1
  34:e:/LiteOS/LiteOS/targets/Cloud_FM33A0XX/GCC/../../../targets/Cloud_FM33A0XX/UserCode\los_uart.c **** 	{
  35:e:/LiteOS/LiteOS/targets/Cloud_FM33A0XX/GCC/../../../targets/Cloud_FM33A0XX/UserCode\los_uart.c **** 		return;  //NOT YET REGISTERED
  36:e:/LiteOS/LiteOS/targets/Cloud_FM33A0XX/GCC/../../../targets/Cloud_FM33A0XX/UserCode\los_uart.c **** 	}
  37:e:/LiteOS/LiteOS/targets/Cloud_FM33A0XX/GCC/../../../targets/Cloud_FM33A0XX/UserCode\los_uart.c **** 	//接收中断
  38:e:/LiteOS/LiteOS/targets/Cloud_FM33A0XX/GCC/../../../targets/Cloud_FM33A0XX/UserCode\los_uart.c **** 	if((ENABLE == UART_UARTIE_RxTxIE_GetableEx(uart, RxInt))
  56              		.loc 1 38 0
  57 0016 0021     		movs	r1, #0
  58 0018 2800     		movs	r0, r5
  59              	.LVL3:
  60 001a FFF7FEFF 		bl	UART_UARTIE_RxTxIE_GetableEx
  61              	.LVL4:
  62 001e 0128     		cmp	r0, #1
  63 0020 14D1     		bne	.L3
  39:e:/LiteOS/LiteOS/targets/Cloud_FM33A0XX/GCC/../../../targets/Cloud_FM33A0XX/UserCode\los_uart.c **** 		&&(SET == UART_UARTIF_RxTxIF_ChkEx(uart, RxInt)))
  64              		.loc 1 39 0
  65 0022 0021     		movs	r1, #0
  66 0024 2800     		movs	r0, r5
  67 0026 FFF7FEFF 		bl	UART_UARTIF_RxTxIF_ChkEx
  68              	.LVL5:
  69 002a 0128     		cmp	r0, #1
  70 002c 0ED1     		bne	.L3
  40:e:/LiteOS/LiteOS/targets/Cloud_FM33A0XX/GCC/../../../targets/Cloud_FM33A0XX/UserCode\los_uart.c **** 	{
  41:e:/LiteOS/LiteOS/targets/Cloud_FM33A0XX/GCC/../../../targets/Cloud_FM33A0XX/UserCode\los_uart.c **** 		tmp08 = UARTx_RXREG_Read(uart);//读寄存器就会清中断
  71              		.loc 1 41 0
  72 002e 2800     		movs	r0, r5
  73 0030 FFF7FEFF 		bl	UARTx_RXREG_Read
  74              	.LVL6:
ARM GAS  C:\Users\WANGBI~1\AppData\Local\Temp\cc4cJIrJ.s 			page 3


  75 0034 6B46     		mov	r3, sp
  76 0036 D91D     		adds	r1, r3, #7
  77 0038 0870     		strb	r0, [r1]
  42:e:/LiteOS/LiteOS/targets/Cloud_FM33A0XX/GCC/../../../targets/Cloud_FM33A0XX/UserCode\los_uart.c **** 		RingWrite(&cb->rx,(char *)&tmp08,1); //将数据写进缓冲区
  78              		.loc 1 42 0
  79 003a 2C20     		movs	r0, #44
  80 003c 6043     		muls	r0, r4
  81 003e 1030     		adds	r0, r0, #16
  82 0040 134B     		ldr	r3, .L7
  83 0042 C018     		adds	r0, r0, r3
  84 0044 0430     		adds	r0, r0, #4
  85 0046 0122     		movs	r2, #1
  86 0048 FFF7FEFF 		bl	RingWrite
  87              	.LVL7:
  88              	.L3:
  43:e:/LiteOS/LiteOS/targets/Cloud_FM33A0XX/GCC/../../../targets/Cloud_FM33A0XX/UserCode\los_uart.c **** 	}
  44:e:/LiteOS/LiteOS/targets/Cloud_FM33A0XX/GCC/../../../targets/Cloud_FM33A0XX/UserCode\los_uart.c **** 	//发送中断
  45:e:/LiteOS/LiteOS/targets/Cloud_FM33A0XX/GCC/../../../targets/Cloud_FM33A0XX/UserCode\los_uart.c **** 	if((ENABLE == UART_UARTIE_RxTxIE_GetableEx(uart, TxInt))
  89              		.loc 1 45 0
  90 004c 0121     		movs	r1, #1
  91 004e 2800     		movs	r0, r5
  92 0050 FFF7FEFF 		bl	UART_UARTIE_RxTxIE_GetableEx
  93              	.LVL8:
  94 0054 0128     		cmp	r0, #1
  95 0056 19D1     		bne	.L1
  46:e:/LiteOS/LiteOS/targets/Cloud_FM33A0XX/GCC/../../../targets/Cloud_FM33A0XX/UserCode\los_uart.c **** 		&&(SET == UART_UARTIF_RxTxIF_ChkEx(uart, TxInt)))
  96              		.loc 1 46 0
  97 0058 0121     		movs	r1, #1
  98 005a 2800     		movs	r0, r5
  99 005c FFF7FEFF 		bl	UART_UARTIF_RxTxIF_ChkEx
 100              	.LVL9:
 101 0060 0128     		cmp	r0, #1
 102 0062 13D1     		bne	.L1
  47:e:/LiteOS/LiteOS/targets/Cloud_FM33A0XX/GCC/../../../targets/Cloud_FM33A0XX/UserCode\los_uart.c **** 	{
  48:e:/LiteOS/LiteOS/targets/Cloud_FM33A0XX/GCC/../../../targets/Cloud_FM33A0XX/UserCode\los_uart.c **** 		if(RingRead(&cb->tx,(char *)&tmp08,1) > 0)
 103              		.loc 1 48 0
 104 0064 2B30     		adds	r0, r0, #43
 105 0066 4443     		muls	r4, r0
 106              	.LVL10:
 107 0068 094B     		ldr	r3, .L7
 108 006a E418     		adds	r4, r4, r3
 109 006c 201D     		adds	r0, r4, #4
 110 006e 0122     		movs	r2, #1
 111 0070 6B46     		mov	r3, sp
 112 0072 D91D     		adds	r1, r3, #7
 113 0074 FFF7FEFF 		bl	RingRead
 114              	.LVL11:
 115 0078 0028     		cmp	r0, #0
 116 007a 04DD     		ble	.L5
  49:e:/LiteOS/LiteOS/targets/Cloud_FM33A0XX/GCC/../../../targets/Cloud_FM33A0XX/UserCode\los_uart.c **** 		{
  50:e:/LiteOS/LiteOS/targets/Cloud_FM33A0XX/GCC/../../../targets/Cloud_FM33A0XX/UserCode\los_uart.c **** 			UARTx_TXREG_Write(uart, tmp08); //取缓冲区数据进行发送
 117              		.loc 1 50 0
 118 007c 6B46     		mov	r3, sp
 119 007e D979     		ldrb	r1, [r3, #7]
 120 0080 2800     		movs	r0, r5
 121 0082 FFF7FEFF 		bl	UARTx_TXREG_Write
 122              	.LVL12:
ARM GAS  C:\Users\WANGBI~1\AppData\Local\Temp\cc4cJIrJ.s 			page 4


 123              	.L5:
  51:e:/LiteOS/LiteOS/targets/Cloud_FM33A0XX/GCC/../../../targets/Cloud_FM33A0XX/UserCode\los_uart.c **** 		}
  52:e:/LiteOS/LiteOS/targets/Cloud_FM33A0XX/GCC/../../../targets/Cloud_FM33A0XX/UserCode\los_uart.c **** 		UART_UARTIF_RxTxIF_ClrEx(uart);	//清中断
 124              		.loc 1 52 0
 125 0086 2800     		movs	r0, r5
 126 0088 FFF7FEFF 		bl	UART_UARTIF_RxTxIF_ClrEx
 127              	.LVL13:
 128              	.L1:
  53:e:/LiteOS/LiteOS/targets/Cloud_FM33A0XX/GCC/../../../targets/Cloud_FM33A0XX/UserCode\los_uart.c **** 	}
  54:e:/LiteOS/LiteOS/targets/Cloud_FM33A0XX/GCC/../../../targets/Cloud_FM33A0XX/UserCode\los_uart.c **** }
 129              		.loc 1 54 0
 130 008c 03B0     		add	sp, sp, #12
 131              		@ sp needed
 132 008e 30BD     		pop	{r4, r5, pc}
 133              	.L8:
 134              		.align	2
 135              	.L7:
 136 0090 00000000 		.word	gUARTCB
 137              		.cfi_endproc
 138              	.LFE43:
 140              		.section	.text.UART0_IRQHandler,"ax",%progbits
 141              		.align	2
 142              		.global	UART0_IRQHandler
 143              		.code	16
 144              		.thumb_func
 146              	UART0_IRQHandler:
 147              	.LFB44:
  55:e:/LiteOS/LiteOS/targets/Cloud_FM33A0XX/GCC/../../../targets/Cloud_FM33A0XX/UserCode\los_uart.c **** 
  56:e:/LiteOS/LiteOS/targets/Cloud_FM33A0XX/GCC/../../../targets/Cloud_FM33A0XX/UserCode\los_uart.c **** 
  57:e:/LiteOS/LiteOS/targets/Cloud_FM33A0XX/GCC/../../../targets/Cloud_FM33A0XX/UserCode\los_uart.c **** void UART0_IRQHandler(void)
  58:e:/LiteOS/LiteOS/targets/Cloud_FM33A0XX/GCC/../../../targets/Cloud_FM33A0XX/UserCode\los_uart.c **** {
 148              		.loc 1 58 0
 149              		.cfi_startproc
 150              		@ args = 0, pretend = 0, frame = 0
 151              		@ frame_needed = 0, uses_anonymous_args = 0
 152 0000 10B5     		push	{r4, lr}
 153              	.LCFI2:
 154              		.cfi_def_cfa_offset 8
 155              		.cfi_offset 4, -8
 156              		.cfi_offset 14, -4
  59:e:/LiteOS/LiteOS/targets/Cloud_FM33A0XX/GCC/../../../targets/Cloud_FM33A0XX/UserCode\los_uart.c **** 	UART_ISR(0);
 157              		.loc 1 59 0
 158 0002 0020     		movs	r0, #0
 159 0004 FFF7FEFF 		bl	UART_ISR
 160              	.LVL14:
  60:e:/LiteOS/LiteOS/targets/Cloud_FM33A0XX/GCC/../../../targets/Cloud_FM33A0XX/UserCode\los_uart.c **** 
  61:e:/LiteOS/LiteOS/targets/Cloud_FM33A0XX/GCC/../../../targets/Cloud_FM33A0XX/UserCode\los_uart.c **** }
 161              		.loc 1 61 0
 162              		@ sp needed
 163 0008 10BD     		pop	{r4, pc}
 164              		.cfi_endproc
 165              	.LFE44:
 167 000a C046     		.section	.text.UART1_IRQHandler,"ax",%progbits
 168              		.align	2
 169              		.global	UART1_IRQHandler
 170              		.code	16
 171              		.thumb_func
ARM GAS  C:\Users\WANGBI~1\AppData\Local\Temp\cc4cJIrJ.s 			page 5


 173              	UART1_IRQHandler:
 174              	.LFB45:
  62:e:/LiteOS/LiteOS/targets/Cloud_FM33A0XX/GCC/../../../targets/Cloud_FM33A0XX/UserCode\los_uart.c **** 	
  63:e:/LiteOS/LiteOS/targets/Cloud_FM33A0XX/GCC/../../../targets/Cloud_FM33A0XX/UserCode\los_uart.c **** void UART1_IRQHandler(void)
  64:e:/LiteOS/LiteOS/targets/Cloud_FM33A0XX/GCC/../../../targets/Cloud_FM33A0XX/UserCode\los_uart.c **** {
 175              		.loc 1 64 0
 176              		.cfi_startproc
 177              		@ args = 0, pretend = 0, frame = 0
 178              		@ frame_needed = 0, uses_anonymous_args = 0
 179 0000 10B5     		push	{r4, lr}
 180              	.LCFI3:
 181              		.cfi_def_cfa_offset 8
 182              		.cfi_offset 4, -8
 183              		.cfi_offset 14, -4
  65:e:/LiteOS/LiteOS/targets/Cloud_FM33A0XX/GCC/../../../targets/Cloud_FM33A0XX/UserCode\los_uart.c **** 	UART_ISR(1);
 184              		.loc 1 65 0
 185 0002 0120     		movs	r0, #1
 186 0004 FFF7FEFF 		bl	UART_ISR
 187              	.LVL15:
  66:e:/LiteOS/LiteOS/targets/Cloud_FM33A0XX/GCC/../../../targets/Cloud_FM33A0XX/UserCode\los_uart.c **** }
 188              		.loc 1 66 0
 189              		@ sp needed
 190 0008 10BD     		pop	{r4, pc}
 191              		.cfi_endproc
 192              	.LFE45:
 194 000a C046     		.section	.text.UART2_IRQHandler,"ax",%progbits
 195              		.align	2
 196              		.global	UART2_IRQHandler
 197              		.code	16
 198              		.thumb_func
 200              	UART2_IRQHandler:
 201              	.LFB46:
  67:e:/LiteOS/LiteOS/targets/Cloud_FM33A0XX/GCC/../../../targets/Cloud_FM33A0XX/UserCode\los_uart.c **** 
  68:e:/LiteOS/LiteOS/targets/Cloud_FM33A0XX/GCC/../../../targets/Cloud_FM33A0XX/UserCode\los_uart.c **** void UART2_IRQHandler(void)
  69:e:/LiteOS/LiteOS/targets/Cloud_FM33A0XX/GCC/../../../targets/Cloud_FM33A0XX/UserCode\los_uart.c **** {
 202              		.loc 1 69 0
 203              		.cfi_startproc
 204              		@ args = 0, pretend = 0, frame = 0
 205              		@ frame_needed = 0, uses_anonymous_args = 0
 206 0000 10B5     		push	{r4, lr}
 207              	.LCFI4:
 208              		.cfi_def_cfa_offset 8
 209              		.cfi_offset 4, -8
 210              		.cfi_offset 14, -4
  70:e:/LiteOS/LiteOS/targets/Cloud_FM33A0XX/GCC/../../../targets/Cloud_FM33A0XX/UserCode\los_uart.c **** 	UART_ISR(2);
 211              		.loc 1 70 0
 212 0002 0220     		movs	r0, #2
 213 0004 FFF7FEFF 		bl	UART_ISR
 214              	.LVL16:
  71:e:/LiteOS/LiteOS/targets/Cloud_FM33A0XX/GCC/../../../targets/Cloud_FM33A0XX/UserCode\los_uart.c **** }
 215              		.loc 1 71 0
 216              		@ sp needed
 217 0008 10BD     		pop	{r4, pc}
 218              		.cfi_endproc
 219              	.LFE46:
 221 000a C046     		.section	.text.UART3_IRQHandler,"ax",%progbits
 222              		.align	2
ARM GAS  C:\Users\WANGBI~1\AppData\Local\Temp\cc4cJIrJ.s 			page 6


 223              		.global	UART3_IRQHandler
 224              		.code	16
 225              		.thumb_func
 227              	UART3_IRQHandler:
 228              	.LFB47:
  72:e:/LiteOS/LiteOS/targets/Cloud_FM33A0XX/GCC/../../../targets/Cloud_FM33A0XX/UserCode\los_uart.c **** 
  73:e:/LiteOS/LiteOS/targets/Cloud_FM33A0XX/GCC/../../../targets/Cloud_FM33A0XX/UserCode\los_uart.c **** void UART3_IRQHandler(void)
  74:e:/LiteOS/LiteOS/targets/Cloud_FM33A0XX/GCC/../../../targets/Cloud_FM33A0XX/UserCode\los_uart.c **** {
 229              		.loc 1 74 0
 230              		.cfi_startproc
 231              		@ args = 0, pretend = 0, frame = 0
 232              		@ frame_needed = 0, uses_anonymous_args = 0
 233 0000 10B5     		push	{r4, lr}
 234              	.LCFI5:
 235              		.cfi_def_cfa_offset 8
 236              		.cfi_offset 4, -8
 237              		.cfi_offset 14, -4
  75:e:/LiteOS/LiteOS/targets/Cloud_FM33A0XX/GCC/../../../targets/Cloud_FM33A0XX/UserCode\los_uart.c **** 	UART_ISR(3);
 238              		.loc 1 75 0
 239 0002 0320     		movs	r0, #3
 240 0004 FFF7FEFF 		bl	UART_ISR
 241              	.LVL17:
  76:e:/LiteOS/LiteOS/targets/Cloud_FM33A0XX/GCC/../../../targets/Cloud_FM33A0XX/UserCode\los_uart.c **** }
 242              		.loc 1 76 0
 243              		@ sp needed
 244 0008 10BD     		pop	{r4, pc}
 245              		.cfi_endproc
 246              	.LFE47:
 248 000a C046     		.section	.text.UART4_IRQHandler,"ax",%progbits
 249              		.align	2
 250              		.global	UART4_IRQHandler
 251              		.code	16
 252              		.thumb_func
 254              	UART4_IRQHandler:
 255              	.LFB48:
  77:e:/LiteOS/LiteOS/targets/Cloud_FM33A0XX/GCC/../../../targets/Cloud_FM33A0XX/UserCode\los_uart.c **** 
  78:e:/LiteOS/LiteOS/targets/Cloud_FM33A0XX/GCC/../../../targets/Cloud_FM33A0XX/UserCode\los_uart.c **** void UART4_IRQHandler(void)
  79:e:/LiteOS/LiteOS/targets/Cloud_FM33A0XX/GCC/../../../targets/Cloud_FM33A0XX/UserCode\los_uart.c **** {
 256              		.loc 1 79 0
 257              		.cfi_startproc
 258              		@ args = 0, pretend = 0, frame = 0
 259              		@ frame_needed = 0, uses_anonymous_args = 0
 260 0000 10B5     		push	{r4, lr}
 261              	.LCFI6:
 262              		.cfi_def_cfa_offset 8
 263              		.cfi_offset 4, -8
 264              		.cfi_offset 14, -4
  80:e:/LiteOS/LiteOS/targets/Cloud_FM33A0XX/GCC/../../../targets/Cloud_FM33A0XX/UserCode\los_uart.c **** 	UART_ISR(4);
 265              		.loc 1 80 0
 266 0002 0420     		movs	r0, #4
 267 0004 FFF7FEFF 		bl	UART_ISR
 268              	.LVL18:
  81:e:/LiteOS/LiteOS/targets/Cloud_FM33A0XX/GCC/../../../targets/Cloud_FM33A0XX/UserCode\los_uart.c **** }
 269              		.loc 1 81 0
 270              		@ sp needed
 271 0008 10BD     		pop	{r4, pc}
 272              		.cfi_endproc
ARM GAS  C:\Users\WANGBI~1\AppData\Local\Temp\cc4cJIrJ.s 			page 7


 273              	.LFE48:
 275 000a C046     		.section	.text.UART5_IRQHandler,"ax",%progbits
 276              		.align	2
 277              		.global	UART5_IRQHandler
 278              		.code	16
 279              		.thumb_func
 281              	UART5_IRQHandler:
 282              	.LFB49:
  82:e:/LiteOS/LiteOS/targets/Cloud_FM33A0XX/GCC/../../../targets/Cloud_FM33A0XX/UserCode\los_uart.c **** 
  83:e:/LiteOS/LiteOS/targets/Cloud_FM33A0XX/GCC/../../../targets/Cloud_FM33A0XX/UserCode\los_uart.c **** void UART5_IRQHandler(void)
  84:e:/LiteOS/LiteOS/targets/Cloud_FM33A0XX/GCC/../../../targets/Cloud_FM33A0XX/UserCode\los_uart.c **** {
 283              		.loc 1 84 0
 284              		.cfi_startproc
 285              		@ args = 0, pretend = 0, frame = 0
 286              		@ frame_needed = 0, uses_anonymous_args = 0
 287 0000 10B5     		push	{r4, lr}
 288              	.LCFI7:
 289              		.cfi_def_cfa_offset 8
 290              		.cfi_offset 4, -8
 291              		.cfi_offset 14, -4
  85:e:/LiteOS/LiteOS/targets/Cloud_FM33A0XX/GCC/../../../targets/Cloud_FM33A0XX/UserCode\los_uart.c **** 	UART_ISR(5);
 292              		.loc 1 85 0
 293 0002 0520     		movs	r0, #5
 294 0004 FFF7FEFF 		bl	UART_ISR
 295              	.LVL19:
  86:e:/LiteOS/LiteOS/targets/Cloud_FM33A0XX/GCC/../../../targets/Cloud_FM33A0XX/UserCode\los_uart.c **** }
 296              		.loc 1 86 0
 297              		@ sp needed
 298 0008 10BD     		pop	{r4, pc}
 299              		.cfi_endproc
 300              	.LFE49:
 302 000a C046     		.section	.text.Uartx_Init,"ax",%progbits
 303              		.align	2
 304              		.global	Uartx_Init
 305              		.code	16
 306              		.thumb_func
 308              	Uartx_Init:
 309              	.LFB50:
  87:e:/LiteOS/LiteOS/targets/Cloud_FM33A0XX/GCC/../../../targets/Cloud_FM33A0XX/UserCode\los_uart.c **** 
  88:e:/LiteOS/LiteOS/targets/Cloud_FM33A0XX/GCC/../../../targets/Cloud_FM33A0XX/UserCode\los_uart.c **** 
  89:e:/LiteOS/LiteOS/targets/Cloud_FM33A0XX/GCC/../../../targets/Cloud_FM33A0XX/UserCode\los_uart.c **** void Uartx_Init(UARTx_Type* UARTx)
  90:e:/LiteOS/LiteOS/targets/Cloud_FM33A0XX/GCC/../../../targets/Cloud_FM33A0XX/UserCode\los_uart.c **** {
 310              		.loc 1 90 0
 311              		.cfi_startproc
 312              		@ args = 0, pretend = 0, frame = 32
 313              		@ frame_needed = 0, uses_anonymous_args = 0
 314              	.LVL20:
 315 0000 70B5     		push	{r4, r5, r6, lr}
 316              	.LCFI8:
 317              		.cfi_def_cfa_offset 16
 318              		.cfi_offset 4, -16
 319              		.cfi_offset 5, -12
 320              		.cfi_offset 6, -8
 321              		.cfi_offset 14, -4
 322 0002 88B0     		sub	sp, sp, #32
 323              	.LCFI9:
 324              		.cfi_def_cfa_offset 48
ARM GAS  C:\Users\WANGBI~1\AppData\Local\Temp\cc4cJIrJ.s 			page 8


 325 0004 0400     		movs	r4, r0
  91:e:/LiteOS/LiteOS/targets/Cloud_FM33A0XX/GCC/../../../targets/Cloud_FM33A0XX/UserCode\los_uart.c **** 	UART_SInitTypeDef UART_para;
  92:e:/LiteOS/LiteOS/targets/Cloud_FM33A0XX/GCC/../../../targets/Cloud_FM33A0XX/UserCode\los_uart.c **** 	RCC_ClocksType RCC_Clocks;
  93:e:/LiteOS/LiteOS/targets/Cloud_FM33A0XX/GCC/../../../targets/Cloud_FM33A0XX/UserCode\los_uart.c **** 	volatile uint08 tmp08;
  94:e:/LiteOS/LiteOS/targets/Cloud_FM33A0XX/GCC/../../../targets/Cloud_FM33A0XX/UserCode\los_uart.c **** 	
  95:e:/LiteOS/LiteOS/targets/Cloud_FM33A0XX/GCC/../../../targets/Cloud_FM33A0XX/UserCode\los_uart.c **** 	RCC_PERCLK_SetableEx(UARTCOMCLK, ENABLE);	//UART0~5?????????
 326              		.loc 1 95 0
 327 0006 0121     		movs	r1, #1
 328 0008 6E48     		ldr	r0, .L24
 329              	.LVL21:
 330 000a FFF7FEFF 		bl	RCC_PERCLK_SetableEx
 331              	.LVL22:
  96:e:/LiteOS/LiteOS/targets/Cloud_FM33A0XX/GCC/../../../targets/Cloud_FM33A0XX/UserCode\los_uart.c **** 	
  97:e:/LiteOS/LiteOS/targets/Cloud_FM33A0XX/GCC/../../../targets/Cloud_FM33A0XX/UserCode\los_uart.c **** 	tmp08 = ((uint32_t)UARTx - UART0_BASE)>>5;	//??uart	
 332              		.loc 1 97 0
 333 000e 6E4B     		ldr	r3, .L24+4
 334 0010 E318     		adds	r3, r4, r3
 335 0012 5B09     		lsrs	r3, r3, #5
 336 0014 DBB2     		uxtb	r3, r3
 337 0016 6A46     		mov	r2, sp
 338 0018 D370     		strb	r3, [r2, #3]
  98:e:/LiteOS/LiteOS/targets/Cloud_FM33A0XX/GCC/../../../targets/Cloud_FM33A0XX/UserCode\los_uart.c **** 	switch(tmp08)
 339              		.loc 1 98 0
 340 001a D378     		ldrb	r3, [r2, #3]
 341 001c DBB2     		uxtb	r3, r3
 342 001e 052B     		cmp	r3, #5
 343 0020 00D9     		bls	.LCB244
 344 0022 BCE0     		b	.L16	@long jump
 345              	.LCB244:
 346 0024 9B00     		lsls	r3, r3, #2
 347 0026 694A     		ldr	r2, .L24+8
 348 0028 D358     		ldr	r3, [r2, r3]
 349 002a 9F46     		mov	pc, r3
 350              		.section	.rodata.Uartx_Init,"a",%progbits
 351              		.align	2
 352              	.L18:
 353 0000 2C000000 		.word	.L17
 354 0004 6A000000 		.word	.L19
 355 0008 A8000000 		.word	.L20
 356 000c E6000000 		.word	.L21
 357 0010 24010000 		.word	.L22
 358 0014 62010000 		.word	.L23
 359              		.section	.text.Uartx_Init
 360              	.L17:
  99:e:/LiteOS/LiteOS/targets/Cloud_FM33A0XX/GCC/../../../targets/Cloud_FM33A0XX/UserCode\los_uart.c **** 	{
 100:e:/LiteOS/LiteOS/targets/Cloud_FM33A0XX/GCC/../../../targets/Cloud_FM33A0XX/UserCode\los_uart.c **** 		case 0:
 101:e:/LiteOS/LiteOS/targets/Cloud_FM33A0XX/GCC/../../../targets/Cloud_FM33A0XX/UserCode\los_uart.c **** 			RCC_PERCLK_SetableEx(UART0CLK, ENABLE);	//UARTx????
 361              		.loc 1 101 0
 362 002c 0121     		movs	r1, #1
 363 002e 6848     		ldr	r0, .L24+12
 364 0030 FFF7FEFF 		bl	RCC_PERCLK_SetableEx
 365              	.LVL23:
 102:e:/LiteOS/LiteOS/targets/Cloud_FM33A0XX/GCC/../../../targets/Cloud_FM33A0XX/UserCode\los_uart.c **** 			//	UART0 IO ??
 103:e:/LiteOS/LiteOS/targets/Cloud_FM33A0XX/GCC/../../../targets/Cloud_FM33A0XX/UserCode\los_uart.c **** 			AltFunIO(GPIOF, GPIO_Pin_3, 0);		//PF3 UART0 RX
 366              		.loc 1 103 0
 367 0034 674D     		ldr	r5, .L24+16
 368 0036 0022     		movs	r2, #0
ARM GAS  C:\Users\WANGBI~1\AppData\Local\Temp\cc4cJIrJ.s 			page 9


 369 0038 0821     		movs	r1, #8
 370 003a 2800     		movs	r0, r5
 371 003c FFF7FEFF 		bl	AltFunIO
 372              	.LVL24:
 104:e:/LiteOS/LiteOS/targets/Cloud_FM33A0XX/GCC/../../../targets/Cloud_FM33A0XX/UserCode\los_uart.c **** 			AltFunIO(GPIOF, GPIO_Pin_4, 0);		//PF4 UART0 TX
 373              		.loc 1 104 0
 374 0040 0022     		movs	r2, #0
 375 0042 1021     		movs	r1, #16
 376 0044 2800     		movs	r0, r5
 377 0046 FFF7FEFF 		bl	AltFunIO
 378              	.LVL25:
 379              	.LBB38:
 380              	.LBB39:
 381              		.file 2 "e:\\liteos\\liteos\\targets\\cloud_fm33a0xx\\device\\include\\core_cm0plus.h"
   1:e:\liteos\liteos\targets\cloud_fm33a0xx\device\include\core_cm0plus.h **** /**************************************************************************//**
   2:e:\liteos\liteos\targets\cloud_fm33a0xx\device\include\core_cm0plus.h ****  * @file     core_cm0plus.h
   3:e:\liteos\liteos\targets\cloud_fm33a0xx\device\include\core_cm0plus.h ****  * @brief    CMSIS Cortex-M0+ Core Peripheral Access Layer Header File
   4:e:\liteos\liteos\targets\cloud_fm33a0xx\device\include\core_cm0plus.h ****  * @version  V5.00
   5:e:\liteos\liteos\targets\cloud_fm33a0xx\device\include\core_cm0plus.h ****  * @date     29. April 2016
   6:e:\liteos\liteos\targets\cloud_fm33a0xx\device\include\core_cm0plus.h ****  ******************************************************************************/
   7:e:\liteos\liteos\targets\cloud_fm33a0xx\device\include\core_cm0plus.h **** /*
   8:e:\liteos\liteos\targets\cloud_fm33a0xx\device\include\core_cm0plus.h ****  * Copyright (c) 2009-2016 ARM Limited. All rights reserved.
   9:e:\liteos\liteos\targets\cloud_fm33a0xx\device\include\core_cm0plus.h ****  *
  10:e:\liteos\liteos\targets\cloud_fm33a0xx\device\include\core_cm0plus.h ****  * SPDX-License-Identifier: Apache-2.0
  11:e:\liteos\liteos\targets\cloud_fm33a0xx\device\include\core_cm0plus.h ****  *
  12:e:\liteos\liteos\targets\cloud_fm33a0xx\device\include\core_cm0plus.h ****  * Licensed under the Apache License, Version 2.0 (the License); you may
  13:e:\liteos\liteos\targets\cloud_fm33a0xx\device\include\core_cm0plus.h ****  * not use this file except in compliance with the License.
  14:e:\liteos\liteos\targets\cloud_fm33a0xx\device\include\core_cm0plus.h ****  * You may obtain a copy of the License at
  15:e:\liteos\liteos\targets\cloud_fm33a0xx\device\include\core_cm0plus.h ****  *
  16:e:\liteos\liteos\targets\cloud_fm33a0xx\device\include\core_cm0plus.h ****  * http://www.apache.org/licenses/LICENSE-2.0
  17:e:\liteos\liteos\targets\cloud_fm33a0xx\device\include\core_cm0plus.h ****  *
  18:e:\liteos\liteos\targets\cloud_fm33a0xx\device\include\core_cm0plus.h ****  * Unless required by applicable law or agreed to in writing, software
  19:e:\liteos\liteos\targets\cloud_fm33a0xx\device\include\core_cm0plus.h ****  * distributed under the License is distributed on an AS IS BASIS, WITHOUT
  20:e:\liteos\liteos\targets\cloud_fm33a0xx\device\include\core_cm0plus.h ****  * WARRANTIES OR CONDITIONS OF ANY KIND, either express or implied.
  21:e:\liteos\liteos\targets\cloud_fm33a0xx\device\include\core_cm0plus.h ****  * See the License for the specific language governing permissions and
  22:e:\liteos\liteos\targets\cloud_fm33a0xx\device\include\core_cm0plus.h ****  * limitations under the License.
  23:e:\liteos\liteos\targets\cloud_fm33a0xx\device\include\core_cm0plus.h ****  */
  24:e:\liteos\liteos\targets\cloud_fm33a0xx\device\include\core_cm0plus.h **** 
  25:e:\liteos\liteos\targets\cloud_fm33a0xx\device\include\core_cm0plus.h **** #if   defined ( __ICCARM__ )
  26:e:\liteos\liteos\targets\cloud_fm33a0xx\device\include\core_cm0plus.h ****  #pragma system_include         /* treat file as system include file for MISRA check */
  27:e:\liteos\liteos\targets\cloud_fm33a0xx\device\include\core_cm0plus.h **** #elif defined (__ARMCC_VERSION) && (__ARMCC_VERSION >= 6010050)
  28:e:\liteos\liteos\targets\cloud_fm33a0xx\device\include\core_cm0plus.h ****   #pragma clang system_header   /* treat file as system include file */
  29:e:\liteos\liteos\targets\cloud_fm33a0xx\device\include\core_cm0plus.h **** #endif
  30:e:\liteos\liteos\targets\cloud_fm33a0xx\device\include\core_cm0plus.h **** 
  31:e:\liteos\liteos\targets\cloud_fm33a0xx\device\include\core_cm0plus.h **** #ifndef __CORE_CM0PLUS_H_GENERIC
  32:e:\liteos\liteos\targets\cloud_fm33a0xx\device\include\core_cm0plus.h **** #define __CORE_CM0PLUS_H_GENERIC
  33:e:\liteos\liteos\targets\cloud_fm33a0xx\device\include\core_cm0plus.h **** 
  34:e:\liteos\liteos\targets\cloud_fm33a0xx\device\include\core_cm0plus.h **** #include <stdint.h>
  35:e:\liteos\liteos\targets\cloud_fm33a0xx\device\include\core_cm0plus.h **** 
  36:e:\liteos\liteos\targets\cloud_fm33a0xx\device\include\core_cm0plus.h **** #ifdef __cplusplus
  37:e:\liteos\liteos\targets\cloud_fm33a0xx\device\include\core_cm0plus.h ****  extern "C" {
  38:e:\liteos\liteos\targets\cloud_fm33a0xx\device\include\core_cm0plus.h **** #endif
  39:e:\liteos\liteos\targets\cloud_fm33a0xx\device\include\core_cm0plus.h **** 
  40:e:\liteos\liteos\targets\cloud_fm33a0xx\device\include\core_cm0plus.h **** /**
  41:e:\liteos\liteos\targets\cloud_fm33a0xx\device\include\core_cm0plus.h ****   \page CMSIS_MISRA_Exceptions  MISRA-C:2004 Compliance Exceptions
  42:e:\liteos\liteos\targets\cloud_fm33a0xx\device\include\core_cm0plus.h ****   CMSIS violates the following MISRA-C:2004 rules:
  43:e:\liteos\liteos\targets\cloud_fm33a0xx\device\include\core_cm0plus.h **** 
ARM GAS  C:\Users\WANGBI~1\AppData\Local\Temp\cc4cJIrJ.s 			page 10


  44:e:\liteos\liteos\targets\cloud_fm33a0xx\device\include\core_cm0plus.h ****    \li Required Rule 8.5, object/function definition in header file.<br>
  45:e:\liteos\liteos\targets\cloud_fm33a0xx\device\include\core_cm0plus.h ****      Function definitions in header files are used to allow 'inlining'.
  46:e:\liteos\liteos\targets\cloud_fm33a0xx\device\include\core_cm0plus.h **** 
  47:e:\liteos\liteos\targets\cloud_fm33a0xx\device\include\core_cm0plus.h ****    \li Required Rule 18.4, declaration of union type or object of union type: '{...}'.<br>
  48:e:\liteos\liteos\targets\cloud_fm33a0xx\device\include\core_cm0plus.h ****      Unions are used for effective representation of core registers.
  49:e:\liteos\liteos\targets\cloud_fm33a0xx\device\include\core_cm0plus.h **** 
  50:e:\liteos\liteos\targets\cloud_fm33a0xx\device\include\core_cm0plus.h ****    \li Advisory Rule 19.7, Function-like macro defined.<br>
  51:e:\liteos\liteos\targets\cloud_fm33a0xx\device\include\core_cm0plus.h ****      Function-like macros are used to allow more efficient code.
  52:e:\liteos\liteos\targets\cloud_fm33a0xx\device\include\core_cm0plus.h ****  */
  53:e:\liteos\liteos\targets\cloud_fm33a0xx\device\include\core_cm0plus.h **** 
  54:e:\liteos\liteos\targets\cloud_fm33a0xx\device\include\core_cm0plus.h **** 
  55:e:\liteos\liteos\targets\cloud_fm33a0xx\device\include\core_cm0plus.h **** /*******************************************************************************
  56:e:\liteos\liteos\targets\cloud_fm33a0xx\device\include\core_cm0plus.h ****  *                 CMSIS definitions
  57:e:\liteos\liteos\targets\cloud_fm33a0xx\device\include\core_cm0plus.h ****  ******************************************************************************/
  58:e:\liteos\liteos\targets\cloud_fm33a0xx\device\include\core_cm0plus.h **** /**
  59:e:\liteos\liteos\targets\cloud_fm33a0xx\device\include\core_cm0plus.h ****   \ingroup Cortex-M0+
  60:e:\liteos\liteos\targets\cloud_fm33a0xx\device\include\core_cm0plus.h ****   @{
  61:e:\liteos\liteos\targets\cloud_fm33a0xx\device\include\core_cm0plus.h ****  */
  62:e:\liteos\liteos\targets\cloud_fm33a0xx\device\include\core_cm0plus.h **** 
  63:e:\liteos\liteos\targets\cloud_fm33a0xx\device\include\core_cm0plus.h **** /*  CMSIS CM0+ definitions */
  64:e:\liteos\liteos\targets\cloud_fm33a0xx\device\include\core_cm0plus.h **** #define __CM0PLUS_CMSIS_VERSION_MAIN ( 5U)                                      /*!< [31:16] CMSIS 
  65:e:\liteos\liteos\targets\cloud_fm33a0xx\device\include\core_cm0plus.h **** #define __CM0PLUS_CMSIS_VERSION_SUB  ( 0U)                                      /*!< [15:0]  CMSIS 
  66:e:\liteos\liteos\targets\cloud_fm33a0xx\device\include\core_cm0plus.h **** #define __CM0PLUS_CMSIS_VERSION      ((__CM0PLUS_CMSIS_VERSION_MAIN << 16U) | \
  67:e:\liteos\liteos\targets\cloud_fm33a0xx\device\include\core_cm0plus.h ****                                        __CM0PLUS_CMSIS_VERSION_SUB           )  /*!< CMSIS HAL vers
  68:e:\liteos\liteos\targets\cloud_fm33a0xx\device\include\core_cm0plus.h **** 
  69:e:\liteos\liteos\targets\cloud_fm33a0xx\device\include\core_cm0plus.h **** #define __CORTEX_M                   (0U)                                       /*!< Cortex-M Core 
  70:e:\liteos\liteos\targets\cloud_fm33a0xx\device\include\core_cm0plus.h **** 
  71:e:\liteos\liteos\targets\cloud_fm33a0xx\device\include\core_cm0plus.h **** /* Common defines in core_*.h files
  72:e:\liteos\liteos\targets\cloud_fm33a0xx\device\include\core_cm0plus.h ****   - #define __ASM               Compiler keyword for asm
  73:e:\liteos\liteos\targets\cloud_fm33a0xx\device\include\core_cm0plus.h ****   - #define __INLINE            Compiler keyword for inline
  74:e:\liteos\liteos\targets\cloud_fm33a0xx\device\include\core_cm0plus.h ****   - #define __STATIC_INLINE     Compiler keyword for static inline
  75:e:\liteos\liteos\targets\cloud_fm33a0xx\device\include\core_cm0plus.h ****   - #define __NO_RETURN         function that never returns
  76:e:\liteos\liteos\targets\cloud_fm33a0xx\device\include\core_cm0plus.h ****   - #define __USED              function or variable that is not optimized away
  77:e:\liteos\liteos\targets\cloud_fm33a0xx\device\include\core_cm0plus.h ****   - #define __WEAK              weak function or variable
  78:e:\liteos\liteos\targets\cloud_fm33a0xx\device\include\core_cm0plus.h ****   - #define __UNALIGNED_UINT32  pointer to unaligned uint32_t variable
  79:e:\liteos\liteos\targets\cloud_fm33a0xx\device\include\core_cm0plus.h ****  */
  80:e:\liteos\liteos\targets\cloud_fm33a0xx\device\include\core_cm0plus.h **** #if   defined ( __CC_ARM )                                            /* ARM Compiler 4/5 */
  81:e:\liteos\liteos\targets\cloud_fm33a0xx\device\include\core_cm0plus.h ****   #define __ASM                     __asm
  82:e:\liteos\liteos\targets\cloud_fm33a0xx\device\include\core_cm0plus.h ****   #define __INLINE                  __inline
  83:e:\liteos\liteos\targets\cloud_fm33a0xx\device\include\core_cm0plus.h ****   #define __STATIC_INLINE           static __inline
  84:e:\liteos\liteos\targets\cloud_fm33a0xx\device\include\core_cm0plus.h ****   #define __NO_RETURN               __declspec(noreturn)
  85:e:\liteos\liteos\targets\cloud_fm33a0xx\device\include\core_cm0plus.h ****   #define __USED                    __attribute__((used))
  86:e:\liteos\liteos\targets\cloud_fm33a0xx\device\include\core_cm0plus.h ****   #define __WEAK                    __attribute__((weak))
  87:e:\liteos\liteos\targets\cloud_fm33a0xx\device\include\core_cm0plus.h ****   #define __UNALIGNED_UINT32(x)     (*((__packed uint32_t *)(x)))
  88:e:\liteos\liteos\targets\cloud_fm33a0xx\device\include\core_cm0plus.h **** 
  89:e:\liteos\liteos\targets\cloud_fm33a0xx\device\include\core_cm0plus.h **** #elif defined (__ARMCC_VERSION) && (__ARMCC_VERSION >= 6010050)       /* ARM Compiler 6 */
  90:e:\liteos\liteos\targets\cloud_fm33a0xx\device\include\core_cm0plus.h ****   #define __ASM                     __asm
  91:e:\liteos\liteos\targets\cloud_fm33a0xx\device\include\core_cm0plus.h ****   #define __INLINE                  __inline
  92:e:\liteos\liteos\targets\cloud_fm33a0xx\device\include\core_cm0plus.h ****   #define __STATIC_INLINE           static __inline
  93:e:\liteos\liteos\targets\cloud_fm33a0xx\device\include\core_cm0plus.h ****   #define __NO_RETURN               __attribute__((noreturn))
  94:e:\liteos\liteos\targets\cloud_fm33a0xx\device\include\core_cm0plus.h ****   #define __USED                    __attribute__((used))
  95:e:\liteos\liteos\targets\cloud_fm33a0xx\device\include\core_cm0plus.h ****   #define __WEAK                    __attribute__((weak))
  96:e:\liteos\liteos\targets\cloud_fm33a0xx\device\include\core_cm0plus.h ****   #pragma clang diagnostic push
  97:e:\liteos\liteos\targets\cloud_fm33a0xx\device\include\core_cm0plus.h ****   #pragma clang diagnostic ignored "-Wpacked"
  98:e:\liteos\liteos\targets\cloud_fm33a0xx\device\include\core_cm0plus.h ****   struct __attribute__((packed)) T_UINT32 { uint32_t v; };
  99:e:\liteos\liteos\targets\cloud_fm33a0xx\device\include\core_cm0plus.h ****   #pragma clang diagnostic pop
 100:e:\liteos\liteos\targets\cloud_fm33a0xx\device\include\core_cm0plus.h ****   #define __UNALIGNED_UINT32(x)     (((struct T_UINT32 *)(x))->v)
ARM GAS  C:\Users\WANGBI~1\AppData\Local\Temp\cc4cJIrJ.s 			page 11


 101:e:\liteos\liteos\targets\cloud_fm33a0xx\device\include\core_cm0plus.h **** 
 102:e:\liteos\liteos\targets\cloud_fm33a0xx\device\include\core_cm0plus.h **** #elif defined ( __GNUC__ )                                            /* GNU Compiler */
 103:e:\liteos\liteos\targets\cloud_fm33a0xx\device\include\core_cm0plus.h ****   #define __ASM                     __asm
 104:e:\liteos\liteos\targets\cloud_fm33a0xx\device\include\core_cm0plus.h ****   #define __INLINE                  inline
 105:e:\liteos\liteos\targets\cloud_fm33a0xx\device\include\core_cm0plus.h ****   #define __STATIC_INLINE           static inline
 106:e:\liteos\liteos\targets\cloud_fm33a0xx\device\include\core_cm0plus.h ****   #define __NO_RETURN               __attribute__((noreturn))
 107:e:\liteos\liteos\targets\cloud_fm33a0xx\device\include\core_cm0plus.h ****   #define __USED                    __attribute__((used))
 108:e:\liteos\liteos\targets\cloud_fm33a0xx\device\include\core_cm0plus.h ****   #define __WEAK                    __attribute__((weak))
 109:e:\liteos\liteos\targets\cloud_fm33a0xx\device\include\core_cm0plus.h ****   struct __attribute__((packed)) T_UINT32 { uint32_t v; };
 110:e:\liteos\liteos\targets\cloud_fm33a0xx\device\include\core_cm0plus.h ****   #define __UNALIGNED_UINT32(x)     (((struct T_UINT32 *)(x))->v)
 111:e:\liteos\liteos\targets\cloud_fm33a0xx\device\include\core_cm0plus.h **** 
 112:e:\liteos\liteos\targets\cloud_fm33a0xx\device\include\core_cm0plus.h **** #elif defined ( __ICCARM__ )                                          /* IAR Compiler */
 113:e:\liteos\liteos\targets\cloud_fm33a0xx\device\include\core_cm0plus.h ****   #define __ASM                     __asm
 114:e:\liteos\liteos\targets\cloud_fm33a0xx\device\include\core_cm0plus.h ****   #define __INLINE                  inline
 115:e:\liteos\liteos\targets\cloud_fm33a0xx\device\include\core_cm0plus.h ****   #define __STATIC_INLINE           static inline
 116:e:\liteos\liteos\targets\cloud_fm33a0xx\device\include\core_cm0plus.h ****   #define __NO_RETURN               __noreturn
 117:e:\liteos\liteos\targets\cloud_fm33a0xx\device\include\core_cm0plus.h ****   #define __USED
 118:e:\liteos\liteos\targets\cloud_fm33a0xx\device\include\core_cm0plus.h ****   #define __WEAK                    __weak
 119:e:\liteos\liteos\targets\cloud_fm33a0xx\device\include\core_cm0plus.h ****   struct __packed T_UINT32 { uint32_t v; };
 120:e:\liteos\liteos\targets\cloud_fm33a0xx\device\include\core_cm0plus.h ****   #define __UNALIGNED_UINT32(x)     (((struct T_UINT32 *)(x))->v)
 121:e:\liteos\liteos\targets\cloud_fm33a0xx\device\include\core_cm0plus.h **** 
 122:e:\liteos\liteos\targets\cloud_fm33a0xx\device\include\core_cm0plus.h **** #elif defined ( __TI_ARM__ )                                          /* TI ARM Compiler */
 123:e:\liteos\liteos\targets\cloud_fm33a0xx\device\include\core_cm0plus.h ****   #define __ASM                     __asm
 124:e:\liteos\liteos\targets\cloud_fm33a0xx\device\include\core_cm0plus.h ****   #define __INLINE                  inline
 125:e:\liteos\liteos\targets\cloud_fm33a0xx\device\include\core_cm0plus.h ****   #define __STATIC_INLINE           static inline
 126:e:\liteos\liteos\targets\cloud_fm33a0xx\device\include\core_cm0plus.h ****   #define __NO_RETURN               __attribute__((noreturn))
 127:e:\liteos\liteos\targets\cloud_fm33a0xx\device\include\core_cm0plus.h ****   #define __USED                    __attribute__((used))
 128:e:\liteos\liteos\targets\cloud_fm33a0xx\device\include\core_cm0plus.h ****   #define __WEAK                    __attribute__((weak))
 129:e:\liteos\liteos\targets\cloud_fm33a0xx\device\include\core_cm0plus.h ****   struct __attribute__((packed)) T_UINT32 { uint32_t v; };
 130:e:\liteos\liteos\targets\cloud_fm33a0xx\device\include\core_cm0plus.h ****   #define __UNALIGNED_UINT32(x)     (((struct T_UINT32 *)(x))->v)
 131:e:\liteos\liteos\targets\cloud_fm33a0xx\device\include\core_cm0plus.h **** 
 132:e:\liteos\liteos\targets\cloud_fm33a0xx\device\include\core_cm0plus.h **** #elif defined ( __TASKING__ )                                         /* TASKING Compiler */
 133:e:\liteos\liteos\targets\cloud_fm33a0xx\device\include\core_cm0plus.h ****   #define __ASM                     __asm
 134:e:\liteos\liteos\targets\cloud_fm33a0xx\device\include\core_cm0plus.h ****   #define __INLINE                  inline
 135:e:\liteos\liteos\targets\cloud_fm33a0xx\device\include\core_cm0plus.h ****   #define __STATIC_INLINE           static inline
 136:e:\liteos\liteos\targets\cloud_fm33a0xx\device\include\core_cm0plus.h ****   #define __NO_RETURN               __attribute__((noreturn))
 137:e:\liteos\liteos\targets\cloud_fm33a0xx\device\include\core_cm0plus.h ****   #define __USED                    __attribute__((used))
 138:e:\liteos\liteos\targets\cloud_fm33a0xx\device\include\core_cm0plus.h ****   #define __WEAK                    __attribute__((weak))
 139:e:\liteos\liteos\targets\cloud_fm33a0xx\device\include\core_cm0plus.h ****   struct __packed__ T_UINT32 { uint32_t v; };
 140:e:\liteos\liteos\targets\cloud_fm33a0xx\device\include\core_cm0plus.h ****   #define __UNALIGNED_UINT32(x)     (((struct T_UINT32 *)(x))->v)
 141:e:\liteos\liteos\targets\cloud_fm33a0xx\device\include\core_cm0plus.h **** 
 142:e:\liteos\liteos\targets\cloud_fm33a0xx\device\include\core_cm0plus.h **** #elif defined ( __CSMC__ )                                            /* COSMIC Compiler */
 143:e:\liteos\liteos\targets\cloud_fm33a0xx\device\include\core_cm0plus.h ****   #define __packed
 144:e:\liteos\liteos\targets\cloud_fm33a0xx\device\include\core_cm0plus.h ****   #define __ASM                     _asm
 145:e:\liteos\liteos\targets\cloud_fm33a0xx\device\include\core_cm0plus.h ****   #define __INLINE                  inline
 146:e:\liteos\liteos\targets\cloud_fm33a0xx\device\include\core_cm0plus.h ****   #define __STATIC_INLINE           static inline
 147:e:\liteos\liteos\targets\cloud_fm33a0xx\device\include\core_cm0plus.h ****   #define __NO_RETURN
 148:e:\liteos\liteos\targets\cloud_fm33a0xx\device\include\core_cm0plus.h ****   #define __USED
 149:e:\liteos\liteos\targets\cloud_fm33a0xx\device\include\core_cm0plus.h ****   #define __WEAK
 150:e:\liteos\liteos\targets\cloud_fm33a0xx\device\include\core_cm0plus.h ****   #define __UNALIGNED_UINT32(x)     (*x)
 151:e:\liteos\liteos\targets\cloud_fm33a0xx\device\include\core_cm0plus.h **** 
 152:e:\liteos\liteos\targets\cloud_fm33a0xx\device\include\core_cm0plus.h **** #else
 153:e:\liteos\liteos\targets\cloud_fm33a0xx\device\include\core_cm0plus.h ****   #error Unknown compiler
 154:e:\liteos\liteos\targets\cloud_fm33a0xx\device\include\core_cm0plus.h **** #endif
 155:e:\liteos\liteos\targets\cloud_fm33a0xx\device\include\core_cm0plus.h **** 
 156:e:\liteos\liteos\targets\cloud_fm33a0xx\device\include\core_cm0plus.h **** /** __FPU_USED indicates whether an FPU is used or not.
 157:e:\liteos\liteos\targets\cloud_fm33a0xx\device\include\core_cm0plus.h ****     This core does not support an FPU at all
ARM GAS  C:\Users\WANGBI~1\AppData\Local\Temp\cc4cJIrJ.s 			page 12


 158:e:\liteos\liteos\targets\cloud_fm33a0xx\device\include\core_cm0plus.h **** */
 159:e:\liteos\liteos\targets\cloud_fm33a0xx\device\include\core_cm0plus.h **** #define __FPU_USED       0U
 160:e:\liteos\liteos\targets\cloud_fm33a0xx\device\include\core_cm0plus.h **** 
 161:e:\liteos\liteos\targets\cloud_fm33a0xx\device\include\core_cm0plus.h **** #if defined ( __CC_ARM )
 162:e:\liteos\liteos\targets\cloud_fm33a0xx\device\include\core_cm0plus.h ****   #if defined __TARGET_FPU_VFP
 163:e:\liteos\liteos\targets\cloud_fm33a0xx\device\include\core_cm0plus.h ****     #error "Compiler generates FPU instructions for a device without an FPU (check __FPU_PRESENT)"
 164:e:\liteos\liteos\targets\cloud_fm33a0xx\device\include\core_cm0plus.h ****   #endif
 165:e:\liteos\liteos\targets\cloud_fm33a0xx\device\include\core_cm0plus.h **** 
 166:e:\liteos\liteos\targets\cloud_fm33a0xx\device\include\core_cm0plus.h **** #elif defined (__ARMCC_VERSION) && (__ARMCC_VERSION >= 6010050)
 167:e:\liteos\liteos\targets\cloud_fm33a0xx\device\include\core_cm0plus.h ****   #if defined __ARM_PCS_VFP
 168:e:\liteos\liteos\targets\cloud_fm33a0xx\device\include\core_cm0plus.h ****     #error "Compiler generates FPU instructions for a device without an FPU (check __FPU_PRESENT)"
 169:e:\liteos\liteos\targets\cloud_fm33a0xx\device\include\core_cm0plus.h ****   #endif
 170:e:\liteos\liteos\targets\cloud_fm33a0xx\device\include\core_cm0plus.h **** 
 171:e:\liteos\liteos\targets\cloud_fm33a0xx\device\include\core_cm0plus.h **** #elif defined ( __GNUC__ )
 172:e:\liteos\liteos\targets\cloud_fm33a0xx\device\include\core_cm0plus.h ****   #if defined (__VFP_FP__) && !defined(__SOFTFP__)
 173:e:\liteos\liteos\targets\cloud_fm33a0xx\device\include\core_cm0plus.h ****     #error "Compiler generates FPU instructions for a device without an FPU (check __FPU_PRESENT)"
 174:e:\liteos\liteos\targets\cloud_fm33a0xx\device\include\core_cm0plus.h ****   #endif
 175:e:\liteos\liteos\targets\cloud_fm33a0xx\device\include\core_cm0plus.h **** 
 176:e:\liteos\liteos\targets\cloud_fm33a0xx\device\include\core_cm0plus.h **** #elif defined ( __ICCARM__ )
 177:e:\liteos\liteos\targets\cloud_fm33a0xx\device\include\core_cm0plus.h ****   #if defined __ARMVFP__
 178:e:\liteos\liteos\targets\cloud_fm33a0xx\device\include\core_cm0plus.h ****     #error "Compiler generates FPU instructions for a device without an FPU (check __FPU_PRESENT)"
 179:e:\liteos\liteos\targets\cloud_fm33a0xx\device\include\core_cm0plus.h ****   #endif
 180:e:\liteos\liteos\targets\cloud_fm33a0xx\device\include\core_cm0plus.h **** 
 181:e:\liteos\liteos\targets\cloud_fm33a0xx\device\include\core_cm0plus.h **** #elif defined ( __TI_ARM__ )
 182:e:\liteos\liteos\targets\cloud_fm33a0xx\device\include\core_cm0plus.h ****   #if defined __TI_VFP_SUPPORT__
 183:e:\liteos\liteos\targets\cloud_fm33a0xx\device\include\core_cm0plus.h ****     #error "Compiler generates FPU instructions for a device without an FPU (check __FPU_PRESENT)"
 184:e:\liteos\liteos\targets\cloud_fm33a0xx\device\include\core_cm0plus.h ****   #endif
 185:e:\liteos\liteos\targets\cloud_fm33a0xx\device\include\core_cm0plus.h **** 
 186:e:\liteos\liteos\targets\cloud_fm33a0xx\device\include\core_cm0plus.h **** #elif defined ( __TASKING__ )
 187:e:\liteos\liteos\targets\cloud_fm33a0xx\device\include\core_cm0plus.h ****   #if defined __FPU_VFP__
 188:e:\liteos\liteos\targets\cloud_fm33a0xx\device\include\core_cm0plus.h ****     #error "Compiler generates FPU instructions for a device without an FPU (check __FPU_PRESENT)"
 189:e:\liteos\liteos\targets\cloud_fm33a0xx\device\include\core_cm0plus.h ****   #endif
 190:e:\liteos\liteos\targets\cloud_fm33a0xx\device\include\core_cm0plus.h **** 
 191:e:\liteos\liteos\targets\cloud_fm33a0xx\device\include\core_cm0plus.h **** #elif defined ( __CSMC__ )
 192:e:\liteos\liteos\targets\cloud_fm33a0xx\device\include\core_cm0plus.h ****   #if ( __CSMC__ & 0x400U)
 193:e:\liteos\liteos\targets\cloud_fm33a0xx\device\include\core_cm0plus.h ****     #error "Compiler generates FPU instructions for a device without an FPU (check __FPU_PRESENT)"
 194:e:\liteos\liteos\targets\cloud_fm33a0xx\device\include\core_cm0plus.h ****   #endif
 195:e:\liteos\liteos\targets\cloud_fm33a0xx\device\include\core_cm0plus.h **** 
 196:e:\liteos\liteos\targets\cloud_fm33a0xx\device\include\core_cm0plus.h **** #endif
 197:e:\liteos\liteos\targets\cloud_fm33a0xx\device\include\core_cm0plus.h **** 
 198:e:\liteos\liteos\targets\cloud_fm33a0xx\device\include\core_cm0plus.h **** #include "core_cminstr.h"                /* Core Instruction Access */
 199:e:\liteos\liteos\targets\cloud_fm33a0xx\device\include\core_cm0plus.h **** #include "core_cmfunc.h"                 /* Core Function Access */
 200:e:\liteos\liteos\targets\cloud_fm33a0xx\device\include\core_cm0plus.h **** 
 201:e:\liteos\liteos\targets\cloud_fm33a0xx\device\include\core_cm0plus.h **** #ifdef __cplusplus
 202:e:\liteos\liteos\targets\cloud_fm33a0xx\device\include\core_cm0plus.h **** }
 203:e:\liteos\liteos\targets\cloud_fm33a0xx\device\include\core_cm0plus.h **** #endif
 204:e:\liteos\liteos\targets\cloud_fm33a0xx\device\include\core_cm0plus.h **** 
 205:e:\liteos\liteos\targets\cloud_fm33a0xx\device\include\core_cm0plus.h **** #endif /* __CORE_CM0PLUS_H_GENERIC */
 206:e:\liteos\liteos\targets\cloud_fm33a0xx\device\include\core_cm0plus.h **** 
 207:e:\liteos\liteos\targets\cloud_fm33a0xx\device\include\core_cm0plus.h **** #ifndef __CMSIS_GENERIC
 208:e:\liteos\liteos\targets\cloud_fm33a0xx\device\include\core_cm0plus.h **** 
 209:e:\liteos\liteos\targets\cloud_fm33a0xx\device\include\core_cm0plus.h **** #ifndef __CORE_CM0PLUS_H_DEPENDANT
 210:e:\liteos\liteos\targets\cloud_fm33a0xx\device\include\core_cm0plus.h **** #define __CORE_CM0PLUS_H_DEPENDANT
 211:e:\liteos\liteos\targets\cloud_fm33a0xx\device\include\core_cm0plus.h **** 
 212:e:\liteos\liteos\targets\cloud_fm33a0xx\device\include\core_cm0plus.h **** #ifdef __cplusplus
 213:e:\liteos\liteos\targets\cloud_fm33a0xx\device\include\core_cm0plus.h ****  extern "C" {
 214:e:\liteos\liteos\targets\cloud_fm33a0xx\device\include\core_cm0plus.h **** #endif
ARM GAS  C:\Users\WANGBI~1\AppData\Local\Temp\cc4cJIrJ.s 			page 13


 215:e:\liteos\liteos\targets\cloud_fm33a0xx\device\include\core_cm0plus.h **** 
 216:e:\liteos\liteos\targets\cloud_fm33a0xx\device\include\core_cm0plus.h **** /* check device defines and use defaults */
 217:e:\liteos\liteos\targets\cloud_fm33a0xx\device\include\core_cm0plus.h **** #if defined __CHECK_DEVICE_DEFINES
 218:e:\liteos\liteos\targets\cloud_fm33a0xx\device\include\core_cm0plus.h ****   #ifndef __CM0PLUS_REV
 219:e:\liteos\liteos\targets\cloud_fm33a0xx\device\include\core_cm0plus.h ****     #define __CM0PLUS_REV             0x0000U
 220:e:\liteos\liteos\targets\cloud_fm33a0xx\device\include\core_cm0plus.h ****     #warning "__CM0PLUS_REV not defined in device header file; using default!"
 221:e:\liteos\liteos\targets\cloud_fm33a0xx\device\include\core_cm0plus.h ****   #endif
 222:e:\liteos\liteos\targets\cloud_fm33a0xx\device\include\core_cm0plus.h **** 
 223:e:\liteos\liteos\targets\cloud_fm33a0xx\device\include\core_cm0plus.h ****   #ifndef __MPU_PRESENT
 224:e:\liteos\liteos\targets\cloud_fm33a0xx\device\include\core_cm0plus.h ****     #define __MPU_PRESENT             0U
 225:e:\liteos\liteos\targets\cloud_fm33a0xx\device\include\core_cm0plus.h ****     #warning "__MPU_PRESENT not defined in device header file; using default!"
 226:e:\liteos\liteos\targets\cloud_fm33a0xx\device\include\core_cm0plus.h ****   #endif
 227:e:\liteos\liteos\targets\cloud_fm33a0xx\device\include\core_cm0plus.h **** 
 228:e:\liteos\liteos\targets\cloud_fm33a0xx\device\include\core_cm0plus.h ****   #ifndef __VTOR_PRESENT
 229:e:\liteos\liteos\targets\cloud_fm33a0xx\device\include\core_cm0plus.h ****     #define __VTOR_PRESENT            0U
 230:e:\liteos\liteos\targets\cloud_fm33a0xx\device\include\core_cm0plus.h ****     #warning "__VTOR_PRESENT not defined in device header file; using default!"
 231:e:\liteos\liteos\targets\cloud_fm33a0xx\device\include\core_cm0plus.h ****   #endif
 232:e:\liteos\liteos\targets\cloud_fm33a0xx\device\include\core_cm0plus.h **** 
 233:e:\liteos\liteos\targets\cloud_fm33a0xx\device\include\core_cm0plus.h ****   #ifndef __NVIC_PRIO_BITS
 234:e:\liteos\liteos\targets\cloud_fm33a0xx\device\include\core_cm0plus.h ****     #define __NVIC_PRIO_BITS          2U
 235:e:\liteos\liteos\targets\cloud_fm33a0xx\device\include\core_cm0plus.h ****     #warning "__NVIC_PRIO_BITS not defined in device header file; using default!"
 236:e:\liteos\liteos\targets\cloud_fm33a0xx\device\include\core_cm0plus.h ****   #endif
 237:e:\liteos\liteos\targets\cloud_fm33a0xx\device\include\core_cm0plus.h **** 
 238:e:\liteos\liteos\targets\cloud_fm33a0xx\device\include\core_cm0plus.h ****   #ifndef __Vendor_SysTickConfig
 239:e:\liteos\liteos\targets\cloud_fm33a0xx\device\include\core_cm0plus.h ****     #define __Vendor_SysTickConfig    0U
 240:e:\liteos\liteos\targets\cloud_fm33a0xx\device\include\core_cm0plus.h ****     #warning "__Vendor_SysTickConfig not defined in device header file; using default!"
 241:e:\liteos\liteos\targets\cloud_fm33a0xx\device\include\core_cm0plus.h ****   #endif
 242:e:\liteos\liteos\targets\cloud_fm33a0xx\device\include\core_cm0plus.h **** #endif
 243:e:\liteos\liteos\targets\cloud_fm33a0xx\device\include\core_cm0plus.h **** 
 244:e:\liteos\liteos\targets\cloud_fm33a0xx\device\include\core_cm0plus.h **** /* IO definitions (access restrictions to peripheral registers) */
 245:e:\liteos\liteos\targets\cloud_fm33a0xx\device\include\core_cm0plus.h **** /**
 246:e:\liteos\liteos\targets\cloud_fm33a0xx\device\include\core_cm0plus.h ****     \defgroup CMSIS_glob_defs CMSIS Global Defines
 247:e:\liteos\liteos\targets\cloud_fm33a0xx\device\include\core_cm0plus.h **** 
 248:e:\liteos\liteos\targets\cloud_fm33a0xx\device\include\core_cm0plus.h ****     <strong>IO Type Qualifiers</strong> are used
 249:e:\liteos\liteos\targets\cloud_fm33a0xx\device\include\core_cm0plus.h ****     \li to specify the access to peripheral variables.
 250:e:\liteos\liteos\targets\cloud_fm33a0xx\device\include\core_cm0plus.h ****     \li for automatic generation of peripheral register debug information.
 251:e:\liteos\liteos\targets\cloud_fm33a0xx\device\include\core_cm0plus.h **** */
 252:e:\liteos\liteos\targets\cloud_fm33a0xx\device\include\core_cm0plus.h **** #ifdef __cplusplus
 253:e:\liteos\liteos\targets\cloud_fm33a0xx\device\include\core_cm0plus.h ****   #define   __I     volatile             /*!< Defines 'read only' permissions */
 254:e:\liteos\liteos\targets\cloud_fm33a0xx\device\include\core_cm0plus.h **** #else
 255:e:\liteos\liteos\targets\cloud_fm33a0xx\device\include\core_cm0plus.h ****   #define   __I     volatile const       /*!< Defines 'read only' permissions */
 256:e:\liteos\liteos\targets\cloud_fm33a0xx\device\include\core_cm0plus.h **** #endif
 257:e:\liteos\liteos\targets\cloud_fm33a0xx\device\include\core_cm0plus.h **** #define     __O     volatile             /*!< Defines 'write only' permissions */
 258:e:\liteos\liteos\targets\cloud_fm33a0xx\device\include\core_cm0plus.h **** #define     __IO    volatile             /*!< Defines 'read / write' permissions */
 259:e:\liteos\liteos\targets\cloud_fm33a0xx\device\include\core_cm0plus.h **** 
 260:e:\liteos\liteos\targets\cloud_fm33a0xx\device\include\core_cm0plus.h **** /* following defines should be used for structure members */
 261:e:\liteos\liteos\targets\cloud_fm33a0xx\device\include\core_cm0plus.h **** #define     __IM     volatile const      /*! Defines 'read only' structure member permissions */
 262:e:\liteos\liteos\targets\cloud_fm33a0xx\device\include\core_cm0plus.h **** #define     __OM     volatile            /*! Defines 'write only' structure member permissions */
 263:e:\liteos\liteos\targets\cloud_fm33a0xx\device\include\core_cm0plus.h **** #define     __IOM    volatile            /*! Defines 'read / write' structure member permissions */
 264:e:\liteos\liteos\targets\cloud_fm33a0xx\device\include\core_cm0plus.h **** 
 265:e:\liteos\liteos\targets\cloud_fm33a0xx\device\include\core_cm0plus.h **** /*@} end of group Cortex-M0+ */
 266:e:\liteos\liteos\targets\cloud_fm33a0xx\device\include\core_cm0plus.h **** 
 267:e:\liteos\liteos\targets\cloud_fm33a0xx\device\include\core_cm0plus.h **** 
 268:e:\liteos\liteos\targets\cloud_fm33a0xx\device\include\core_cm0plus.h **** 
 269:e:\liteos\liteos\targets\cloud_fm33a0xx\device\include\core_cm0plus.h **** /*******************************************************************************
 270:e:\liteos\liteos\targets\cloud_fm33a0xx\device\include\core_cm0plus.h ****  *                 Register Abstraction
 271:e:\liteos\liteos\targets\cloud_fm33a0xx\device\include\core_cm0plus.h ****   Core Register contain:
ARM GAS  C:\Users\WANGBI~1\AppData\Local\Temp\cc4cJIrJ.s 			page 14


 272:e:\liteos\liteos\targets\cloud_fm33a0xx\device\include\core_cm0plus.h ****   - Core Register
 273:e:\liteos\liteos\targets\cloud_fm33a0xx\device\include\core_cm0plus.h ****   - Core NVIC Register
 274:e:\liteos\liteos\targets\cloud_fm33a0xx\device\include\core_cm0plus.h ****   - Core SCB Register
 275:e:\liteos\liteos\targets\cloud_fm33a0xx\device\include\core_cm0plus.h ****   - Core SysTick Register
 276:e:\liteos\liteos\targets\cloud_fm33a0xx\device\include\core_cm0plus.h ****   - Core MPU Register
 277:e:\liteos\liteos\targets\cloud_fm33a0xx\device\include\core_cm0plus.h ****  ******************************************************************************/
 278:e:\liteos\liteos\targets\cloud_fm33a0xx\device\include\core_cm0plus.h **** /**
 279:e:\liteos\liteos\targets\cloud_fm33a0xx\device\include\core_cm0plus.h ****   \defgroup CMSIS_core_register Defines and Type Definitions
 280:e:\liteos\liteos\targets\cloud_fm33a0xx\device\include\core_cm0plus.h ****   \brief Type definitions and defines for Cortex-M processor based devices.
 281:e:\liteos\liteos\targets\cloud_fm33a0xx\device\include\core_cm0plus.h **** */
 282:e:\liteos\liteos\targets\cloud_fm33a0xx\device\include\core_cm0plus.h **** 
 283:e:\liteos\liteos\targets\cloud_fm33a0xx\device\include\core_cm0plus.h **** /**
 284:e:\liteos\liteos\targets\cloud_fm33a0xx\device\include\core_cm0plus.h ****   \ingroup    CMSIS_core_register
 285:e:\liteos\liteos\targets\cloud_fm33a0xx\device\include\core_cm0plus.h ****   \defgroup   CMSIS_CORE  Status and Control Registers
 286:e:\liteos\liteos\targets\cloud_fm33a0xx\device\include\core_cm0plus.h ****   \brief      Core Register type definitions.
 287:e:\liteos\liteos\targets\cloud_fm33a0xx\device\include\core_cm0plus.h ****   @{
 288:e:\liteos\liteos\targets\cloud_fm33a0xx\device\include\core_cm0plus.h ****  */
 289:e:\liteos\liteos\targets\cloud_fm33a0xx\device\include\core_cm0plus.h **** 
 290:e:\liteos\liteos\targets\cloud_fm33a0xx\device\include\core_cm0plus.h **** /**
 291:e:\liteos\liteos\targets\cloud_fm33a0xx\device\include\core_cm0plus.h ****   \brief  Union type to access the Application Program Status Register (APSR).
 292:e:\liteos\liteos\targets\cloud_fm33a0xx\device\include\core_cm0plus.h ****  */
 293:e:\liteos\liteos\targets\cloud_fm33a0xx\device\include\core_cm0plus.h **** typedef union
 294:e:\liteos\liteos\targets\cloud_fm33a0xx\device\include\core_cm0plus.h **** {
 295:e:\liteos\liteos\targets\cloud_fm33a0xx\device\include\core_cm0plus.h ****   struct
 296:e:\liteos\liteos\targets\cloud_fm33a0xx\device\include\core_cm0plus.h ****   {
 297:e:\liteos\liteos\targets\cloud_fm33a0xx\device\include\core_cm0plus.h ****     uint32_t _reserved0:28;              /*!< bit:  0..27  Reserved */
 298:e:\liteos\liteos\targets\cloud_fm33a0xx\device\include\core_cm0plus.h ****     uint32_t V:1;                        /*!< bit:     28  Overflow condition code flag */
 299:e:\liteos\liteos\targets\cloud_fm33a0xx\device\include\core_cm0plus.h ****     uint32_t C:1;                        /*!< bit:     29  Carry condition code flag */
 300:e:\liteos\liteos\targets\cloud_fm33a0xx\device\include\core_cm0plus.h ****     uint32_t Z:1;                        /*!< bit:     30  Zero condition code flag */
 301:e:\liteos\liteos\targets\cloud_fm33a0xx\device\include\core_cm0plus.h ****     uint32_t N:1;                        /*!< bit:     31  Negative condition code flag */
 302:e:\liteos\liteos\targets\cloud_fm33a0xx\device\include\core_cm0plus.h ****   } b;                                   /*!< Structure used for bit  access */
 303:e:\liteos\liteos\targets\cloud_fm33a0xx\device\include\core_cm0plus.h ****   uint32_t w;                            /*!< Type      used for word access */
 304:e:\liteos\liteos\targets\cloud_fm33a0xx\device\include\core_cm0plus.h **** } APSR_Type;
 305:e:\liteos\liteos\targets\cloud_fm33a0xx\device\include\core_cm0plus.h **** 
 306:e:\liteos\liteos\targets\cloud_fm33a0xx\device\include\core_cm0plus.h **** /* APSR Register Definitions */
 307:e:\liteos\liteos\targets\cloud_fm33a0xx\device\include\core_cm0plus.h **** #define APSR_N_Pos                         31U                                            /*!< APSR
 308:e:\liteos\liteos\targets\cloud_fm33a0xx\device\include\core_cm0plus.h **** #define APSR_N_Msk                         (1UL << APSR_N_Pos)                            /*!< APSR
 309:e:\liteos\liteos\targets\cloud_fm33a0xx\device\include\core_cm0plus.h **** 
 310:e:\liteos\liteos\targets\cloud_fm33a0xx\device\include\core_cm0plus.h **** #define APSR_Z_Pos                         30U                                            /*!< APSR
 311:e:\liteos\liteos\targets\cloud_fm33a0xx\device\include\core_cm0plus.h **** #define APSR_Z_Msk                         (1UL << APSR_Z_Pos)                            /*!< APSR
 312:e:\liteos\liteos\targets\cloud_fm33a0xx\device\include\core_cm0plus.h **** 
 313:e:\liteos\liteos\targets\cloud_fm33a0xx\device\include\core_cm0plus.h **** #define APSR_C_Pos                         29U                                            /*!< APSR
 314:e:\liteos\liteos\targets\cloud_fm33a0xx\device\include\core_cm0plus.h **** #define APSR_C_Msk                         (1UL << APSR_C_Pos)                            /*!< APSR
 315:e:\liteos\liteos\targets\cloud_fm33a0xx\device\include\core_cm0plus.h **** 
 316:e:\liteos\liteos\targets\cloud_fm33a0xx\device\include\core_cm0plus.h **** #define APSR_V_Pos                         28U                                            /*!< APSR
 317:e:\liteos\liteos\targets\cloud_fm33a0xx\device\include\core_cm0plus.h **** #define APSR_V_Msk                         (1UL << APSR_V_Pos)                            /*!< APSR
 318:e:\liteos\liteos\targets\cloud_fm33a0xx\device\include\core_cm0plus.h **** 
 319:e:\liteos\liteos\targets\cloud_fm33a0xx\device\include\core_cm0plus.h **** 
 320:e:\liteos\liteos\targets\cloud_fm33a0xx\device\include\core_cm0plus.h **** /**
 321:e:\liteos\liteos\targets\cloud_fm33a0xx\device\include\core_cm0plus.h ****   \brief  Union type to access the Interrupt Program Status Register (IPSR).
 322:e:\liteos\liteos\targets\cloud_fm33a0xx\device\include\core_cm0plus.h ****  */
 323:e:\liteos\liteos\targets\cloud_fm33a0xx\device\include\core_cm0plus.h **** typedef union
 324:e:\liteos\liteos\targets\cloud_fm33a0xx\device\include\core_cm0plus.h **** {
 325:e:\liteos\liteos\targets\cloud_fm33a0xx\device\include\core_cm0plus.h ****   struct
 326:e:\liteos\liteos\targets\cloud_fm33a0xx\device\include\core_cm0plus.h ****   {
 327:e:\liteos\liteos\targets\cloud_fm33a0xx\device\include\core_cm0plus.h ****     uint32_t ISR:9;                      /*!< bit:  0.. 8  Exception number */
 328:e:\liteos\liteos\targets\cloud_fm33a0xx\device\include\core_cm0plus.h ****     uint32_t _reserved0:23;              /*!< bit:  9..31  Reserved */
ARM GAS  C:\Users\WANGBI~1\AppData\Local\Temp\cc4cJIrJ.s 			page 15


 329:e:\liteos\liteos\targets\cloud_fm33a0xx\device\include\core_cm0plus.h ****   } b;                                   /*!< Structure used for bit  access */
 330:e:\liteos\liteos\targets\cloud_fm33a0xx\device\include\core_cm0plus.h ****   uint32_t w;                            /*!< Type      used for word access */
 331:e:\liteos\liteos\targets\cloud_fm33a0xx\device\include\core_cm0plus.h **** } IPSR_Type;
 332:e:\liteos\liteos\targets\cloud_fm33a0xx\device\include\core_cm0plus.h **** 
 333:e:\liteos\liteos\targets\cloud_fm33a0xx\device\include\core_cm0plus.h **** /* IPSR Register Definitions */
 334:e:\liteos\liteos\targets\cloud_fm33a0xx\device\include\core_cm0plus.h **** #define IPSR_ISR_Pos                        0U                                            /*!< IPSR
 335:e:\liteos\liteos\targets\cloud_fm33a0xx\device\include\core_cm0plus.h **** #define IPSR_ISR_Msk                       (0x1FFUL /*<< IPSR_ISR_Pos*/)                  /*!< IPSR
 336:e:\liteos\liteos\targets\cloud_fm33a0xx\device\include\core_cm0plus.h **** 
 337:e:\liteos\liteos\targets\cloud_fm33a0xx\device\include\core_cm0plus.h **** 
 338:e:\liteos\liteos\targets\cloud_fm33a0xx\device\include\core_cm0plus.h **** /**
 339:e:\liteos\liteos\targets\cloud_fm33a0xx\device\include\core_cm0plus.h ****   \brief  Union type to access the Special-Purpose Program Status Registers (xPSR).
 340:e:\liteos\liteos\targets\cloud_fm33a0xx\device\include\core_cm0plus.h ****  */
 341:e:\liteos\liteos\targets\cloud_fm33a0xx\device\include\core_cm0plus.h **** typedef union
 342:e:\liteos\liteos\targets\cloud_fm33a0xx\device\include\core_cm0plus.h **** {
 343:e:\liteos\liteos\targets\cloud_fm33a0xx\device\include\core_cm0plus.h ****   struct
 344:e:\liteos\liteos\targets\cloud_fm33a0xx\device\include\core_cm0plus.h ****   {
 345:e:\liteos\liteos\targets\cloud_fm33a0xx\device\include\core_cm0plus.h ****     uint32_t ISR:9;                      /*!< bit:  0.. 8  Exception number */
 346:e:\liteos\liteos\targets\cloud_fm33a0xx\device\include\core_cm0plus.h ****     uint32_t _reserved0:15;              /*!< bit:  9..23  Reserved */
 347:e:\liteos\liteos\targets\cloud_fm33a0xx\device\include\core_cm0plus.h ****     uint32_t T:1;                        /*!< bit:     24  Thumb bit        (read 0) */
 348:e:\liteos\liteos\targets\cloud_fm33a0xx\device\include\core_cm0plus.h ****     uint32_t _reserved1:3;               /*!< bit: 25..27  Reserved */
 349:e:\liteos\liteos\targets\cloud_fm33a0xx\device\include\core_cm0plus.h ****     uint32_t V:1;                        /*!< bit:     28  Overflow condition code flag */
 350:e:\liteos\liteos\targets\cloud_fm33a0xx\device\include\core_cm0plus.h ****     uint32_t C:1;                        /*!< bit:     29  Carry condition code flag */
 351:e:\liteos\liteos\targets\cloud_fm33a0xx\device\include\core_cm0plus.h ****     uint32_t Z:1;                        /*!< bit:     30  Zero condition code flag */
 352:e:\liteos\liteos\targets\cloud_fm33a0xx\device\include\core_cm0plus.h ****     uint32_t N:1;                        /*!< bit:     31  Negative condition code flag */
 353:e:\liteos\liteos\targets\cloud_fm33a0xx\device\include\core_cm0plus.h ****   } b;                                   /*!< Structure used for bit  access */
 354:e:\liteos\liteos\targets\cloud_fm33a0xx\device\include\core_cm0plus.h ****   uint32_t w;                            /*!< Type      used for word access */
 355:e:\liteos\liteos\targets\cloud_fm33a0xx\device\include\core_cm0plus.h **** } xPSR_Type;
 356:e:\liteos\liteos\targets\cloud_fm33a0xx\device\include\core_cm0plus.h **** 
 357:e:\liteos\liteos\targets\cloud_fm33a0xx\device\include\core_cm0plus.h **** /* xPSR Register Definitions */
 358:e:\liteos\liteos\targets\cloud_fm33a0xx\device\include\core_cm0plus.h **** #define xPSR_N_Pos                         31U                                            /*!< xPSR
 359:e:\liteos\liteos\targets\cloud_fm33a0xx\device\include\core_cm0plus.h **** #define xPSR_N_Msk                         (1UL << xPSR_N_Pos)                            /*!< xPSR
 360:e:\liteos\liteos\targets\cloud_fm33a0xx\device\include\core_cm0plus.h **** 
 361:e:\liteos\liteos\targets\cloud_fm33a0xx\device\include\core_cm0plus.h **** #define xPSR_Z_Pos                         30U                                            /*!< xPSR
 362:e:\liteos\liteos\targets\cloud_fm33a0xx\device\include\core_cm0plus.h **** #define xPSR_Z_Msk                         (1UL << xPSR_Z_Pos)                            /*!< xPSR
 363:e:\liteos\liteos\targets\cloud_fm33a0xx\device\include\core_cm0plus.h **** 
 364:e:\liteos\liteos\targets\cloud_fm33a0xx\device\include\core_cm0plus.h **** #define xPSR_C_Pos                         29U                                            /*!< xPSR
 365:e:\liteos\liteos\targets\cloud_fm33a0xx\device\include\core_cm0plus.h **** #define xPSR_C_Msk                         (1UL << xPSR_C_Pos)                            /*!< xPSR
 366:e:\liteos\liteos\targets\cloud_fm33a0xx\device\include\core_cm0plus.h **** 
 367:e:\liteos\liteos\targets\cloud_fm33a0xx\device\include\core_cm0plus.h **** #define xPSR_V_Pos                         28U                                            /*!< xPSR
 368:e:\liteos\liteos\targets\cloud_fm33a0xx\device\include\core_cm0plus.h **** #define xPSR_V_Msk                         (1UL << xPSR_V_Pos)                            /*!< xPSR
 369:e:\liteos\liteos\targets\cloud_fm33a0xx\device\include\core_cm0plus.h **** 
 370:e:\liteos\liteos\targets\cloud_fm33a0xx\device\include\core_cm0plus.h **** #define xPSR_T_Pos                         24U                                            /*!< xPSR
 371:e:\liteos\liteos\targets\cloud_fm33a0xx\device\include\core_cm0plus.h **** #define xPSR_T_Msk                         (1UL << xPSR_T_Pos)                            /*!< xPSR
 372:e:\liteos\liteos\targets\cloud_fm33a0xx\device\include\core_cm0plus.h **** 
 373:e:\liteos\liteos\targets\cloud_fm33a0xx\device\include\core_cm0plus.h **** #define xPSR_ISR_Pos                        0U                                            /*!< xPSR
 374:e:\liteos\liteos\targets\cloud_fm33a0xx\device\include\core_cm0plus.h **** #define xPSR_ISR_Msk                       (0x1FFUL /*<< xPSR_ISR_Pos*/)                  /*!< xPSR
 375:e:\liteos\liteos\targets\cloud_fm33a0xx\device\include\core_cm0plus.h **** 
 376:e:\liteos\liteos\targets\cloud_fm33a0xx\device\include\core_cm0plus.h **** 
 377:e:\liteos\liteos\targets\cloud_fm33a0xx\device\include\core_cm0plus.h **** /**
 378:e:\liteos\liteos\targets\cloud_fm33a0xx\device\include\core_cm0plus.h ****   \brief  Union type to access the Control Registers (CONTROL).
 379:e:\liteos\liteos\targets\cloud_fm33a0xx\device\include\core_cm0plus.h ****  */
 380:e:\liteos\liteos\targets\cloud_fm33a0xx\device\include\core_cm0plus.h **** typedef union
 381:e:\liteos\liteos\targets\cloud_fm33a0xx\device\include\core_cm0plus.h **** {
 382:e:\liteos\liteos\targets\cloud_fm33a0xx\device\include\core_cm0plus.h ****   struct
 383:e:\liteos\liteos\targets\cloud_fm33a0xx\device\include\core_cm0plus.h ****   {
 384:e:\liteos\liteos\targets\cloud_fm33a0xx\device\include\core_cm0plus.h ****     uint32_t nPRIV:1;                    /*!< bit:      0  Execution privilege in Thread mode */
 385:e:\liteos\liteos\targets\cloud_fm33a0xx\device\include\core_cm0plus.h ****     uint32_t SPSEL:1;                    /*!< bit:      1  Stack to be used */
ARM GAS  C:\Users\WANGBI~1\AppData\Local\Temp\cc4cJIrJ.s 			page 16


 386:e:\liteos\liteos\targets\cloud_fm33a0xx\device\include\core_cm0plus.h ****     uint32_t _reserved1:30;              /*!< bit:  2..31  Reserved */
 387:e:\liteos\liteos\targets\cloud_fm33a0xx\device\include\core_cm0plus.h ****   } b;                                   /*!< Structure used for bit  access */
 388:e:\liteos\liteos\targets\cloud_fm33a0xx\device\include\core_cm0plus.h ****   uint32_t w;                            /*!< Type      used for word access */
 389:e:\liteos\liteos\targets\cloud_fm33a0xx\device\include\core_cm0plus.h **** } CONTROL_Type;
 390:e:\liteos\liteos\targets\cloud_fm33a0xx\device\include\core_cm0plus.h **** 
 391:e:\liteos\liteos\targets\cloud_fm33a0xx\device\include\core_cm0plus.h **** /* CONTROL Register Definitions */
 392:e:\liteos\liteos\targets\cloud_fm33a0xx\device\include\core_cm0plus.h **** #define CONTROL_SPSEL_Pos                   1U                                            /*!< CONT
 393:e:\liteos\liteos\targets\cloud_fm33a0xx\device\include\core_cm0plus.h **** #define CONTROL_SPSEL_Msk                  (1UL << CONTROL_SPSEL_Pos)                     /*!< CONT
 394:e:\liteos\liteos\targets\cloud_fm33a0xx\device\include\core_cm0plus.h **** 
 395:e:\liteos\liteos\targets\cloud_fm33a0xx\device\include\core_cm0plus.h **** #define CONTROL_nPRIV_Pos                   0U                                            /*!< CONT
 396:e:\liteos\liteos\targets\cloud_fm33a0xx\device\include\core_cm0plus.h **** #define CONTROL_nPRIV_Msk                  (1UL /*<< CONTROL_nPRIV_Pos*/)                 /*!< CONT
 397:e:\liteos\liteos\targets\cloud_fm33a0xx\device\include\core_cm0plus.h **** 
 398:e:\liteos\liteos\targets\cloud_fm33a0xx\device\include\core_cm0plus.h **** /*@} end of group CMSIS_CORE */
 399:e:\liteos\liteos\targets\cloud_fm33a0xx\device\include\core_cm0plus.h **** 
 400:e:\liteos\liteos\targets\cloud_fm33a0xx\device\include\core_cm0plus.h **** 
 401:e:\liteos\liteos\targets\cloud_fm33a0xx\device\include\core_cm0plus.h **** /**
 402:e:\liteos\liteos\targets\cloud_fm33a0xx\device\include\core_cm0plus.h ****   \ingroup    CMSIS_core_register
 403:e:\liteos\liteos\targets\cloud_fm33a0xx\device\include\core_cm0plus.h ****   \defgroup   CMSIS_NVIC  Nested Vectored Interrupt Controller (NVIC)
 404:e:\liteos\liteos\targets\cloud_fm33a0xx\device\include\core_cm0plus.h ****   \brief      Type definitions for the NVIC Registers
 405:e:\liteos\liteos\targets\cloud_fm33a0xx\device\include\core_cm0plus.h ****   @{
 406:e:\liteos\liteos\targets\cloud_fm33a0xx\device\include\core_cm0plus.h ****  */
 407:e:\liteos\liteos\targets\cloud_fm33a0xx\device\include\core_cm0plus.h **** 
 408:e:\liteos\liteos\targets\cloud_fm33a0xx\device\include\core_cm0plus.h **** /**
 409:e:\liteos\liteos\targets\cloud_fm33a0xx\device\include\core_cm0plus.h ****   \brief  Structure type to access the Nested Vectored Interrupt Controller (NVIC).
 410:e:\liteos\liteos\targets\cloud_fm33a0xx\device\include\core_cm0plus.h ****  */
 411:e:\liteos\liteos\targets\cloud_fm33a0xx\device\include\core_cm0plus.h **** typedef struct
 412:e:\liteos\liteos\targets\cloud_fm33a0xx\device\include\core_cm0plus.h **** {
 413:e:\liteos\liteos\targets\cloud_fm33a0xx\device\include\core_cm0plus.h ****   __IOM uint32_t ISER[1U];               /*!< Offset: 0x000 (R/W)  Interrupt Set Enable Register */
 414:e:\liteos\liteos\targets\cloud_fm33a0xx\device\include\core_cm0plus.h ****         uint32_t RESERVED0[31U];
 415:e:\liteos\liteos\targets\cloud_fm33a0xx\device\include\core_cm0plus.h ****   __IOM uint32_t ICER[1U];               /*!< Offset: 0x080 (R/W)  Interrupt Clear Enable Register 
 416:e:\liteos\liteos\targets\cloud_fm33a0xx\device\include\core_cm0plus.h ****         uint32_t RSERVED1[31U];
 417:e:\liteos\liteos\targets\cloud_fm33a0xx\device\include\core_cm0plus.h ****   __IOM uint32_t ISPR[1U];               /*!< Offset: 0x100 (R/W)  Interrupt Set Pending Register *
 418:e:\liteos\liteos\targets\cloud_fm33a0xx\device\include\core_cm0plus.h ****         uint32_t RESERVED2[31U];
 419:e:\liteos\liteos\targets\cloud_fm33a0xx\device\include\core_cm0plus.h ****   __IOM uint32_t ICPR[1U];               /*!< Offset: 0x180 (R/W)  Interrupt Clear Pending Register
 420:e:\liteos\liteos\targets\cloud_fm33a0xx\device\include\core_cm0plus.h ****         uint32_t RESERVED3[31U];
 421:e:\liteos\liteos\targets\cloud_fm33a0xx\device\include\core_cm0plus.h ****         uint32_t RESERVED4[64U];
 422:e:\liteos\liteos\targets\cloud_fm33a0xx\device\include\core_cm0plus.h ****   __IOM uint32_t IP[8U];                 /*!< Offset: 0x300 (R/W)  Interrupt Priority Register */
 423:e:\liteos\liteos\targets\cloud_fm33a0xx\device\include\core_cm0plus.h **** }  NVIC_Type;
 424:e:\liteos\liteos\targets\cloud_fm33a0xx\device\include\core_cm0plus.h **** 
 425:e:\liteos\liteos\targets\cloud_fm33a0xx\device\include\core_cm0plus.h **** /*@} end of group CMSIS_NVIC */
 426:e:\liteos\liteos\targets\cloud_fm33a0xx\device\include\core_cm0plus.h **** 
 427:e:\liteos\liteos\targets\cloud_fm33a0xx\device\include\core_cm0plus.h **** 
 428:e:\liteos\liteos\targets\cloud_fm33a0xx\device\include\core_cm0plus.h **** /**
 429:e:\liteos\liteos\targets\cloud_fm33a0xx\device\include\core_cm0plus.h ****   \ingroup  CMSIS_core_register
 430:e:\liteos\liteos\targets\cloud_fm33a0xx\device\include\core_cm0plus.h ****   \defgroup CMSIS_SCB     System Control Block (SCB)
 431:e:\liteos\liteos\targets\cloud_fm33a0xx\device\include\core_cm0plus.h ****   \brief    Type definitions for the System Control Block Registers
 432:e:\liteos\liteos\targets\cloud_fm33a0xx\device\include\core_cm0plus.h ****   @{
 433:e:\liteos\liteos\targets\cloud_fm33a0xx\device\include\core_cm0plus.h ****  */
 434:e:\liteos\liteos\targets\cloud_fm33a0xx\device\include\core_cm0plus.h **** 
 435:e:\liteos\liteos\targets\cloud_fm33a0xx\device\include\core_cm0plus.h **** /**
 436:e:\liteos\liteos\targets\cloud_fm33a0xx\device\include\core_cm0plus.h ****   \brief  Structure type to access the System Control Block (SCB).
 437:e:\liteos\liteos\targets\cloud_fm33a0xx\device\include\core_cm0plus.h ****  */
 438:e:\liteos\liteos\targets\cloud_fm33a0xx\device\include\core_cm0plus.h **** typedef struct
 439:e:\liteos\liteos\targets\cloud_fm33a0xx\device\include\core_cm0plus.h **** {
 440:e:\liteos\liteos\targets\cloud_fm33a0xx\device\include\core_cm0plus.h ****   __IM  uint32_t CPUID;                  /*!< Offset: 0x000 (R/ )  CPUID Base Register */
 441:e:\liteos\liteos\targets\cloud_fm33a0xx\device\include\core_cm0plus.h ****   __IOM uint32_t ICSR;                   /*!< Offset: 0x004 (R/W)  Interrupt Control and State Regi
 442:e:\liteos\liteos\targets\cloud_fm33a0xx\device\include\core_cm0plus.h **** #if defined (__VTOR_PRESENT) && (__VTOR_PRESENT == 1U)
ARM GAS  C:\Users\WANGBI~1\AppData\Local\Temp\cc4cJIrJ.s 			page 17


 443:e:\liteos\liteos\targets\cloud_fm33a0xx\device\include\core_cm0plus.h ****   __IOM uint32_t VTOR;                   /*!< Offset: 0x008 (R/W)  Vector Table Offset Register */
 444:e:\liteos\liteos\targets\cloud_fm33a0xx\device\include\core_cm0plus.h **** #else
 445:e:\liteos\liteos\targets\cloud_fm33a0xx\device\include\core_cm0plus.h ****         uint32_t RESERVED0;
 446:e:\liteos\liteos\targets\cloud_fm33a0xx\device\include\core_cm0plus.h **** #endif
 447:e:\liteos\liteos\targets\cloud_fm33a0xx\device\include\core_cm0plus.h ****   __IOM uint32_t AIRCR;                  /*!< Offset: 0x00C (R/W)  Application Interrupt and Reset 
 448:e:\liteos\liteos\targets\cloud_fm33a0xx\device\include\core_cm0plus.h ****   __IOM uint32_t SCR;                    /*!< Offset: 0x010 (R/W)  System Control Register */
 449:e:\liteos\liteos\targets\cloud_fm33a0xx\device\include\core_cm0plus.h ****   __IOM uint32_t CCR;                    /*!< Offset: 0x014 (R/W)  Configuration Control Register *
 450:e:\liteos\liteos\targets\cloud_fm33a0xx\device\include\core_cm0plus.h ****         uint32_t RESERVED1;
 451:e:\liteos\liteos\targets\cloud_fm33a0xx\device\include\core_cm0plus.h ****   __IOM uint32_t SHP[2U];                /*!< Offset: 0x01C (R/W)  System Handlers Priority Registe
 452:e:\liteos\liteos\targets\cloud_fm33a0xx\device\include\core_cm0plus.h ****   __IOM uint32_t SHCSR;                  /*!< Offset: 0x024 (R/W)  System Handler Control and State
 453:e:\liteos\liteos\targets\cloud_fm33a0xx\device\include\core_cm0plus.h **** } SCB_Type;
 454:e:\liteos\liteos\targets\cloud_fm33a0xx\device\include\core_cm0plus.h **** 
 455:e:\liteos\liteos\targets\cloud_fm33a0xx\device\include\core_cm0plus.h **** /* SCB CPUID Register Definitions */
 456:e:\liteos\liteos\targets\cloud_fm33a0xx\device\include\core_cm0plus.h **** #define SCB_CPUID_IMPLEMENTER_Pos          24U                                            /*!< SCB 
 457:e:\liteos\liteos\targets\cloud_fm33a0xx\device\include\core_cm0plus.h **** #define SCB_CPUID_IMPLEMENTER_Msk          (0xFFUL << SCB_CPUID_IMPLEMENTER_Pos)          /*!< SCB 
 458:e:\liteos\liteos\targets\cloud_fm33a0xx\device\include\core_cm0plus.h **** 
 459:e:\liteos\liteos\targets\cloud_fm33a0xx\device\include\core_cm0plus.h **** #define SCB_CPUID_VARIANT_Pos              20U                                            /*!< SCB 
 460:e:\liteos\liteos\targets\cloud_fm33a0xx\device\include\core_cm0plus.h **** #define SCB_CPUID_VARIANT_Msk              (0xFUL << SCB_CPUID_VARIANT_Pos)               /*!< SCB 
 461:e:\liteos\liteos\targets\cloud_fm33a0xx\device\include\core_cm0plus.h **** 
 462:e:\liteos\liteos\targets\cloud_fm33a0xx\device\include\core_cm0plus.h **** #define SCB_CPUID_ARCHITECTURE_Pos         16U                                            /*!< SCB 
 463:e:\liteos\liteos\targets\cloud_fm33a0xx\device\include\core_cm0plus.h **** #define SCB_CPUID_ARCHITECTURE_Msk         (0xFUL << SCB_CPUID_ARCHITECTURE_Pos)          /*!< SCB 
 464:e:\liteos\liteos\targets\cloud_fm33a0xx\device\include\core_cm0plus.h **** 
 465:e:\liteos\liteos\targets\cloud_fm33a0xx\device\include\core_cm0plus.h **** #define SCB_CPUID_PARTNO_Pos                4U                                            /*!< SCB 
 466:e:\liteos\liteos\targets\cloud_fm33a0xx\device\include\core_cm0plus.h **** #define SCB_CPUID_PARTNO_Msk               (0xFFFUL << SCB_CPUID_PARTNO_Pos)              /*!< SCB 
 467:e:\liteos\liteos\targets\cloud_fm33a0xx\device\include\core_cm0plus.h **** 
 468:e:\liteos\liteos\targets\cloud_fm33a0xx\device\include\core_cm0plus.h **** #define SCB_CPUID_REVISION_Pos              0U                                            /*!< SCB 
 469:e:\liteos\liteos\targets\cloud_fm33a0xx\device\include\core_cm0plus.h **** #define SCB_CPUID_REVISION_Msk             (0xFUL /*<< SCB_CPUID_REVISION_Pos*/)          /*!< SCB 
 470:e:\liteos\liteos\targets\cloud_fm33a0xx\device\include\core_cm0plus.h **** 
 471:e:\liteos\liteos\targets\cloud_fm33a0xx\device\include\core_cm0plus.h **** /* SCB Interrupt Control State Register Definitions */
 472:e:\liteos\liteos\targets\cloud_fm33a0xx\device\include\core_cm0plus.h **** #define SCB_ICSR_NMIPENDSET_Pos            31U                                            /*!< SCB 
 473:e:\liteos\liteos\targets\cloud_fm33a0xx\device\include\core_cm0plus.h **** #define SCB_ICSR_NMIPENDSET_Msk            (1UL << SCB_ICSR_NMIPENDSET_Pos)               /*!< SCB 
 474:e:\liteos\liteos\targets\cloud_fm33a0xx\device\include\core_cm0plus.h **** 
 475:e:\liteos\liteos\targets\cloud_fm33a0xx\device\include\core_cm0plus.h **** #define SCB_ICSR_PENDSVSET_Pos             28U                                            /*!< SCB 
 476:e:\liteos\liteos\targets\cloud_fm33a0xx\device\include\core_cm0plus.h **** #define SCB_ICSR_PENDSVSET_Msk             (1UL << SCB_ICSR_PENDSVSET_Pos)                /*!< SCB 
 477:e:\liteos\liteos\targets\cloud_fm33a0xx\device\include\core_cm0plus.h **** 
 478:e:\liteos\liteos\targets\cloud_fm33a0xx\device\include\core_cm0plus.h **** #define SCB_ICSR_PENDSVCLR_Pos             27U                                            /*!< SCB 
 479:e:\liteos\liteos\targets\cloud_fm33a0xx\device\include\core_cm0plus.h **** #define SCB_ICSR_PENDSVCLR_Msk             (1UL << SCB_ICSR_PENDSVCLR_Pos)                /*!< SCB 
 480:e:\liteos\liteos\targets\cloud_fm33a0xx\device\include\core_cm0plus.h **** 
 481:e:\liteos\liteos\targets\cloud_fm33a0xx\device\include\core_cm0plus.h **** #define SCB_ICSR_PENDSTSET_Pos             26U                                            /*!< SCB 
 482:e:\liteos\liteos\targets\cloud_fm33a0xx\device\include\core_cm0plus.h **** #define SCB_ICSR_PENDSTSET_Msk             (1UL << SCB_ICSR_PENDSTSET_Pos)                /*!< SCB 
 483:e:\liteos\liteos\targets\cloud_fm33a0xx\device\include\core_cm0plus.h **** 
 484:e:\liteos\liteos\targets\cloud_fm33a0xx\device\include\core_cm0plus.h **** #define SCB_ICSR_PENDSTCLR_Pos             25U                                            /*!< SCB 
 485:e:\liteos\liteos\targets\cloud_fm33a0xx\device\include\core_cm0plus.h **** #define SCB_ICSR_PENDSTCLR_Msk             (1UL << SCB_ICSR_PENDSTCLR_Pos)                /*!< SCB 
 486:e:\liteos\liteos\targets\cloud_fm33a0xx\device\include\core_cm0plus.h **** 
 487:e:\liteos\liteos\targets\cloud_fm33a0xx\device\include\core_cm0plus.h **** #define SCB_ICSR_ISRPREEMPT_Pos            23U                                            /*!< SCB 
 488:e:\liteos\liteos\targets\cloud_fm33a0xx\device\include\core_cm0plus.h **** #define SCB_ICSR_ISRPREEMPT_Msk            (1UL << SCB_ICSR_ISRPREEMPT_Pos)               /*!< SCB 
 489:e:\liteos\liteos\targets\cloud_fm33a0xx\device\include\core_cm0plus.h **** 
 490:e:\liteos\liteos\targets\cloud_fm33a0xx\device\include\core_cm0plus.h **** #define SCB_ICSR_ISRPENDING_Pos            22U                                            /*!< SCB 
 491:e:\liteos\liteos\targets\cloud_fm33a0xx\device\include\core_cm0plus.h **** #define SCB_ICSR_ISRPENDING_Msk            (1UL << SCB_ICSR_ISRPENDING_Pos)               /*!< SCB 
 492:e:\liteos\liteos\targets\cloud_fm33a0xx\device\include\core_cm0plus.h **** 
 493:e:\liteos\liteos\targets\cloud_fm33a0xx\device\include\core_cm0plus.h **** #define SCB_ICSR_VECTPENDING_Pos           12U                                            /*!< SCB 
 494:e:\liteos\liteos\targets\cloud_fm33a0xx\device\include\core_cm0plus.h **** #define SCB_ICSR_VECTPENDING_Msk           (0x1FFUL << SCB_ICSR_VECTPENDING_Pos)          /*!< SCB 
 495:e:\liteos\liteos\targets\cloud_fm33a0xx\device\include\core_cm0plus.h **** 
 496:e:\liteos\liteos\targets\cloud_fm33a0xx\device\include\core_cm0plus.h **** #define SCB_ICSR_VECTACTIVE_Pos             0U                                            /*!< SCB 
 497:e:\liteos\liteos\targets\cloud_fm33a0xx\device\include\core_cm0plus.h **** #define SCB_ICSR_VECTACTIVE_Msk            (0x1FFUL /*<< SCB_ICSR_VECTACTIVE_Pos*/)       /*!< SCB 
 498:e:\liteos\liteos\targets\cloud_fm33a0xx\device\include\core_cm0plus.h **** 
 499:e:\liteos\liteos\targets\cloud_fm33a0xx\device\include\core_cm0plus.h **** #if defined (__VTOR_PRESENT) && (__VTOR_PRESENT == 1U)
ARM GAS  C:\Users\WANGBI~1\AppData\Local\Temp\cc4cJIrJ.s 			page 18


 500:e:\liteos\liteos\targets\cloud_fm33a0xx\device\include\core_cm0plus.h **** /* SCB Interrupt Control State Register Definitions */
 501:e:\liteos\liteos\targets\cloud_fm33a0xx\device\include\core_cm0plus.h **** #define SCB_VTOR_TBLOFF_Pos                 8U                                            /*!< SCB 
 502:e:\liteos\liteos\targets\cloud_fm33a0xx\device\include\core_cm0plus.h **** #define SCB_VTOR_TBLOFF_Msk                (0xFFFFFFUL << SCB_VTOR_TBLOFF_Pos)            /*!< SCB 
 503:e:\liteos\liteos\targets\cloud_fm33a0xx\device\include\core_cm0plus.h **** #endif
 504:e:\liteos\liteos\targets\cloud_fm33a0xx\device\include\core_cm0plus.h **** 
 505:e:\liteos\liteos\targets\cloud_fm33a0xx\device\include\core_cm0plus.h **** /* SCB Application Interrupt and Reset Control Register Definitions */
 506:e:\liteos\liteos\targets\cloud_fm33a0xx\device\include\core_cm0plus.h **** #define SCB_AIRCR_VECTKEY_Pos              16U                                            /*!< SCB 
 507:e:\liteos\liteos\targets\cloud_fm33a0xx\device\include\core_cm0plus.h **** #define SCB_AIRCR_VECTKEY_Msk              (0xFFFFUL << SCB_AIRCR_VECTKEY_Pos)            /*!< SCB 
 508:e:\liteos\liteos\targets\cloud_fm33a0xx\device\include\core_cm0plus.h **** 
 509:e:\liteos\liteos\targets\cloud_fm33a0xx\device\include\core_cm0plus.h **** #define SCB_AIRCR_VECTKEYSTAT_Pos          16U                                            /*!< SCB 
 510:e:\liteos\liteos\targets\cloud_fm33a0xx\device\include\core_cm0plus.h **** #define SCB_AIRCR_VECTKEYSTAT_Msk          (0xFFFFUL << SCB_AIRCR_VECTKEYSTAT_Pos)        /*!< SCB 
 511:e:\liteos\liteos\targets\cloud_fm33a0xx\device\include\core_cm0plus.h **** 
 512:e:\liteos\liteos\targets\cloud_fm33a0xx\device\include\core_cm0plus.h **** #define SCB_AIRCR_ENDIANESS_Pos            15U                                            /*!< SCB 
 513:e:\liteos\liteos\targets\cloud_fm33a0xx\device\include\core_cm0plus.h **** #define SCB_AIRCR_ENDIANESS_Msk            (1UL << SCB_AIRCR_ENDIANESS_Pos)               /*!< SCB 
 514:e:\liteos\liteos\targets\cloud_fm33a0xx\device\include\core_cm0plus.h **** 
 515:e:\liteos\liteos\targets\cloud_fm33a0xx\device\include\core_cm0plus.h **** #define SCB_AIRCR_SYSRESETREQ_Pos           2U                                            /*!< SCB 
 516:e:\liteos\liteos\targets\cloud_fm33a0xx\device\include\core_cm0plus.h **** #define SCB_AIRCR_SYSRESETREQ_Msk          (1UL << SCB_AIRCR_SYSRESETREQ_Pos)             /*!< SCB 
 517:e:\liteos\liteos\targets\cloud_fm33a0xx\device\include\core_cm0plus.h **** 
 518:e:\liteos\liteos\targets\cloud_fm33a0xx\device\include\core_cm0plus.h **** #define SCB_AIRCR_VECTCLRACTIVE_Pos         1U                                            /*!< SCB 
 519:e:\liteos\liteos\targets\cloud_fm33a0xx\device\include\core_cm0plus.h **** #define SCB_AIRCR_VECTCLRACTIVE_Msk        (1UL << SCB_AIRCR_VECTCLRACTIVE_Pos)           /*!< SCB 
 520:e:\liteos\liteos\targets\cloud_fm33a0xx\device\include\core_cm0plus.h **** 
 521:e:\liteos\liteos\targets\cloud_fm33a0xx\device\include\core_cm0plus.h **** /* SCB System Control Register Definitions */
 522:e:\liteos\liteos\targets\cloud_fm33a0xx\device\include\core_cm0plus.h **** #define SCB_SCR_SEVONPEND_Pos               4U                                            /*!< SCB 
 523:e:\liteos\liteos\targets\cloud_fm33a0xx\device\include\core_cm0plus.h **** #define SCB_SCR_SEVONPEND_Msk              (1UL << SCB_SCR_SEVONPEND_Pos)                 /*!< SCB 
 524:e:\liteos\liteos\targets\cloud_fm33a0xx\device\include\core_cm0plus.h **** 
 525:e:\liteos\liteos\targets\cloud_fm33a0xx\device\include\core_cm0plus.h **** #define SCB_SCR_SLEEPDEEP_Pos               2U                                            /*!< SCB 
 526:e:\liteos\liteos\targets\cloud_fm33a0xx\device\include\core_cm0plus.h **** #define SCB_SCR_SLEEPDEEP_Msk              (1UL << SCB_SCR_SLEEPDEEP_Pos)                 /*!< SCB 
 527:e:\liteos\liteos\targets\cloud_fm33a0xx\device\include\core_cm0plus.h **** 
 528:e:\liteos\liteos\targets\cloud_fm33a0xx\device\include\core_cm0plus.h **** #define SCB_SCR_SLEEPONEXIT_Pos             1U                                            /*!< SCB 
 529:e:\liteos\liteos\targets\cloud_fm33a0xx\device\include\core_cm0plus.h **** #define SCB_SCR_SLEEPONEXIT_Msk            (1UL << SCB_SCR_SLEEPONEXIT_Pos)               /*!< SCB 
 530:e:\liteos\liteos\targets\cloud_fm33a0xx\device\include\core_cm0plus.h **** 
 531:e:\liteos\liteos\targets\cloud_fm33a0xx\device\include\core_cm0plus.h **** /* SCB Configuration Control Register Definitions */
 532:e:\liteos\liteos\targets\cloud_fm33a0xx\device\include\core_cm0plus.h **** #define SCB_CCR_STKALIGN_Pos                9U                                            /*!< SCB 
 533:e:\liteos\liteos\targets\cloud_fm33a0xx\device\include\core_cm0plus.h **** #define SCB_CCR_STKALIGN_Msk               (1UL << SCB_CCR_STKALIGN_Pos)                  /*!< SCB 
 534:e:\liteos\liteos\targets\cloud_fm33a0xx\device\include\core_cm0plus.h **** 
 535:e:\liteos\liteos\targets\cloud_fm33a0xx\device\include\core_cm0plus.h **** #define SCB_CCR_UNALIGN_TRP_Pos             3U                                            /*!< SCB 
 536:e:\liteos\liteos\targets\cloud_fm33a0xx\device\include\core_cm0plus.h **** #define SCB_CCR_UNALIGN_TRP_Msk            (1UL << SCB_CCR_UNALIGN_TRP_Pos)               /*!< SCB 
 537:e:\liteos\liteos\targets\cloud_fm33a0xx\device\include\core_cm0plus.h **** 
 538:e:\liteos\liteos\targets\cloud_fm33a0xx\device\include\core_cm0plus.h **** /* SCB System Handler Control and State Register Definitions */
 539:e:\liteos\liteos\targets\cloud_fm33a0xx\device\include\core_cm0plus.h **** #define SCB_SHCSR_SVCALLPENDED_Pos         15U                                            /*!< SCB 
 540:e:\liteos\liteos\targets\cloud_fm33a0xx\device\include\core_cm0plus.h **** #define SCB_SHCSR_SVCALLPENDED_Msk         (1UL << SCB_SHCSR_SVCALLPENDED_Pos)            /*!< SCB 
 541:e:\liteos\liteos\targets\cloud_fm33a0xx\device\include\core_cm0plus.h **** 
 542:e:\liteos\liteos\targets\cloud_fm33a0xx\device\include\core_cm0plus.h **** /*@} end of group CMSIS_SCB */
 543:e:\liteos\liteos\targets\cloud_fm33a0xx\device\include\core_cm0plus.h **** 
 544:e:\liteos\liteos\targets\cloud_fm33a0xx\device\include\core_cm0plus.h **** 
 545:e:\liteos\liteos\targets\cloud_fm33a0xx\device\include\core_cm0plus.h **** /**
 546:e:\liteos\liteos\targets\cloud_fm33a0xx\device\include\core_cm0plus.h ****   \ingroup  CMSIS_core_register
 547:e:\liteos\liteos\targets\cloud_fm33a0xx\device\include\core_cm0plus.h ****   \defgroup CMSIS_SysTick     System Tick Timer (SysTick)
 548:e:\liteos\liteos\targets\cloud_fm33a0xx\device\include\core_cm0plus.h ****   \brief    Type definitions for the System Timer Registers.
 549:e:\liteos\liteos\targets\cloud_fm33a0xx\device\include\core_cm0plus.h ****   @{
 550:e:\liteos\liteos\targets\cloud_fm33a0xx\device\include\core_cm0plus.h ****  */
 551:e:\liteos\liteos\targets\cloud_fm33a0xx\device\include\core_cm0plus.h **** 
 552:e:\liteos\liteos\targets\cloud_fm33a0xx\device\include\core_cm0plus.h **** /**
 553:e:\liteos\liteos\targets\cloud_fm33a0xx\device\include\core_cm0plus.h ****   \brief  Structure type to access the System Timer (SysTick).
 554:e:\liteos\liteos\targets\cloud_fm33a0xx\device\include\core_cm0plus.h ****  */
 555:e:\liteos\liteos\targets\cloud_fm33a0xx\device\include\core_cm0plus.h **** typedef struct
 556:e:\liteos\liteos\targets\cloud_fm33a0xx\device\include\core_cm0plus.h **** {
ARM GAS  C:\Users\WANGBI~1\AppData\Local\Temp\cc4cJIrJ.s 			page 19


 557:e:\liteos\liteos\targets\cloud_fm33a0xx\device\include\core_cm0plus.h ****   __IOM uint32_t CTRL;                   /*!< Offset: 0x000 (R/W)  SysTick Control and Status Regis
 558:e:\liteos\liteos\targets\cloud_fm33a0xx\device\include\core_cm0plus.h ****   __IOM uint32_t LOAD;                   /*!< Offset: 0x004 (R/W)  SysTick Reload Value Register */
 559:e:\liteos\liteos\targets\cloud_fm33a0xx\device\include\core_cm0plus.h ****   __IOM uint32_t VAL;                    /*!< Offset: 0x008 (R/W)  SysTick Current Value Register *
 560:e:\liteos\liteos\targets\cloud_fm33a0xx\device\include\core_cm0plus.h ****   __IM  uint32_t CALIB;                  /*!< Offset: 0x00C (R/ )  SysTick Calibration Register */
 561:e:\liteos\liteos\targets\cloud_fm33a0xx\device\include\core_cm0plus.h **** } SysTick_Type;
 562:e:\liteos\liteos\targets\cloud_fm33a0xx\device\include\core_cm0plus.h **** 
 563:e:\liteos\liteos\targets\cloud_fm33a0xx\device\include\core_cm0plus.h **** /* SysTick Control / Status Register Definitions */
 564:e:\liteos\liteos\targets\cloud_fm33a0xx\device\include\core_cm0plus.h **** #define SysTick_CTRL_COUNTFLAG_Pos         16U                                            /*!< SysT
 565:e:\liteos\liteos\targets\cloud_fm33a0xx\device\include\core_cm0plus.h **** #define SysTick_CTRL_COUNTFLAG_Msk         (1UL << SysTick_CTRL_COUNTFLAG_Pos)            /*!< SysT
 566:e:\liteos\liteos\targets\cloud_fm33a0xx\device\include\core_cm0plus.h **** 
 567:e:\liteos\liteos\targets\cloud_fm33a0xx\device\include\core_cm0plus.h **** #define SysTick_CTRL_CLKSOURCE_Pos          2U                                            /*!< SysT
 568:e:\liteos\liteos\targets\cloud_fm33a0xx\device\include\core_cm0plus.h **** #define SysTick_CTRL_CLKSOURCE_Msk         (1UL << SysTick_CTRL_CLKSOURCE_Pos)            /*!< SysT
 569:e:\liteos\liteos\targets\cloud_fm33a0xx\device\include\core_cm0plus.h **** 
 570:e:\liteos\liteos\targets\cloud_fm33a0xx\device\include\core_cm0plus.h **** #define SysTick_CTRL_TICKINT_Pos            1U                                            /*!< SysT
 571:e:\liteos\liteos\targets\cloud_fm33a0xx\device\include\core_cm0plus.h **** #define SysTick_CTRL_TICKINT_Msk           (1UL << SysTick_CTRL_TICKINT_Pos)              /*!< SysT
 572:e:\liteos\liteos\targets\cloud_fm33a0xx\device\include\core_cm0plus.h **** 
 573:e:\liteos\liteos\targets\cloud_fm33a0xx\device\include\core_cm0plus.h **** #define SysTick_CTRL_ENABLE_Pos             0U                                            /*!< SysT
 574:e:\liteos\liteos\targets\cloud_fm33a0xx\device\include\core_cm0plus.h **** #define SysTick_CTRL_ENABLE_Msk            (1UL /*<< SysTick_CTRL_ENABLE_Pos*/)           /*!< SysT
 575:e:\liteos\liteos\targets\cloud_fm33a0xx\device\include\core_cm0plus.h **** 
 576:e:\liteos\liteos\targets\cloud_fm33a0xx\device\include\core_cm0plus.h **** /* SysTick Reload Register Definitions */
 577:e:\liteos\liteos\targets\cloud_fm33a0xx\device\include\core_cm0plus.h **** #define SysTick_LOAD_RELOAD_Pos             0U                                            /*!< SysT
 578:e:\liteos\liteos\targets\cloud_fm33a0xx\device\include\core_cm0plus.h **** #define SysTick_LOAD_RELOAD_Msk            (0xFFFFFFUL /*<< SysTick_LOAD_RELOAD_Pos*/)    /*!< SysT
 579:e:\liteos\liteos\targets\cloud_fm33a0xx\device\include\core_cm0plus.h **** 
 580:e:\liteos\liteos\targets\cloud_fm33a0xx\device\include\core_cm0plus.h **** /* SysTick Current Register Definitions */
 581:e:\liteos\liteos\targets\cloud_fm33a0xx\device\include\core_cm0plus.h **** #define SysTick_VAL_CURRENT_Pos             0U                                            /*!< SysT
 582:e:\liteos\liteos\targets\cloud_fm33a0xx\device\include\core_cm0plus.h **** #define SysTick_VAL_CURRENT_Msk            (0xFFFFFFUL /*<< SysTick_VAL_CURRENT_Pos*/)    /*!< SysT
 583:e:\liteos\liteos\targets\cloud_fm33a0xx\device\include\core_cm0plus.h **** 
 584:e:\liteos\liteos\targets\cloud_fm33a0xx\device\include\core_cm0plus.h **** /* SysTick Calibration Register Definitions */
 585:e:\liteos\liteos\targets\cloud_fm33a0xx\device\include\core_cm0plus.h **** #define SysTick_CALIB_NOREF_Pos            31U                                            /*!< SysT
 586:e:\liteos\liteos\targets\cloud_fm33a0xx\device\include\core_cm0plus.h **** #define SysTick_CALIB_NOREF_Msk            (1UL << SysTick_CALIB_NOREF_Pos)               /*!< SysT
 587:e:\liteos\liteos\targets\cloud_fm33a0xx\device\include\core_cm0plus.h **** 
 588:e:\liteos\liteos\targets\cloud_fm33a0xx\device\include\core_cm0plus.h **** #define SysTick_CALIB_SKEW_Pos             30U                                            /*!< SysT
 589:e:\liteos\liteos\targets\cloud_fm33a0xx\device\include\core_cm0plus.h **** #define SysTick_CALIB_SKEW_Msk             (1UL << SysTick_CALIB_SKEW_Pos)                /*!< SysT
 590:e:\liteos\liteos\targets\cloud_fm33a0xx\device\include\core_cm0plus.h **** 
 591:e:\liteos\liteos\targets\cloud_fm33a0xx\device\include\core_cm0plus.h **** #define SysTick_CALIB_TENMS_Pos             0U                                            /*!< SysT
 592:e:\liteos\liteos\targets\cloud_fm33a0xx\device\include\core_cm0plus.h **** #define SysTick_CALIB_TENMS_Msk            (0xFFFFFFUL /*<< SysTick_CALIB_TENMS_Pos*/)    /*!< SysT
 593:e:\liteos\liteos\targets\cloud_fm33a0xx\device\include\core_cm0plus.h **** 
 594:e:\liteos\liteos\targets\cloud_fm33a0xx\device\include\core_cm0plus.h **** /*@} end of group CMSIS_SysTick */
 595:e:\liteos\liteos\targets\cloud_fm33a0xx\device\include\core_cm0plus.h **** 
 596:e:\liteos\liteos\targets\cloud_fm33a0xx\device\include\core_cm0plus.h **** #if defined (__MPU_PRESENT) && (__MPU_PRESENT == 1U)
 597:e:\liteos\liteos\targets\cloud_fm33a0xx\device\include\core_cm0plus.h **** /**
 598:e:\liteos\liteos\targets\cloud_fm33a0xx\device\include\core_cm0plus.h ****   \ingroup  CMSIS_core_register
 599:e:\liteos\liteos\targets\cloud_fm33a0xx\device\include\core_cm0plus.h ****   \defgroup CMSIS_MPU     Memory Protection Unit (MPU)
 600:e:\liteos\liteos\targets\cloud_fm33a0xx\device\include\core_cm0plus.h ****   \brief    Type definitions for the Memory Protection Unit (MPU)
 601:e:\liteos\liteos\targets\cloud_fm33a0xx\device\include\core_cm0plus.h ****   @{
 602:e:\liteos\liteos\targets\cloud_fm33a0xx\device\include\core_cm0plus.h ****  */
 603:e:\liteos\liteos\targets\cloud_fm33a0xx\device\include\core_cm0plus.h **** 
 604:e:\liteos\liteos\targets\cloud_fm33a0xx\device\include\core_cm0plus.h **** /**
 605:e:\liteos\liteos\targets\cloud_fm33a0xx\device\include\core_cm0plus.h ****   \brief  Structure type to access the Memory Protection Unit (MPU).
 606:e:\liteos\liteos\targets\cloud_fm33a0xx\device\include\core_cm0plus.h ****  */
 607:e:\liteos\liteos\targets\cloud_fm33a0xx\device\include\core_cm0plus.h **** typedef struct
 608:e:\liteos\liteos\targets\cloud_fm33a0xx\device\include\core_cm0plus.h **** {
 609:e:\liteos\liteos\targets\cloud_fm33a0xx\device\include\core_cm0plus.h ****   __IM  uint32_t TYPE;                   /*!< Offset: 0x000 (R/ )  MPU Type Register */
 610:e:\liteos\liteos\targets\cloud_fm33a0xx\device\include\core_cm0plus.h ****   __IOM uint32_t CTRL;                   /*!< Offset: 0x004 (R/W)  MPU Control Register */
 611:e:\liteos\liteos\targets\cloud_fm33a0xx\device\include\core_cm0plus.h ****   __IOM uint32_t RNR;                    /*!< Offset: 0x008 (R/W)  MPU Region RNRber Register */
 612:e:\liteos\liteos\targets\cloud_fm33a0xx\device\include\core_cm0plus.h ****   __IOM uint32_t RBAR;                   /*!< Offset: 0x00C (R/W)  MPU Region Base Address Register
 613:e:\liteos\liteos\targets\cloud_fm33a0xx\device\include\core_cm0plus.h ****   __IOM uint32_t RASR;                   /*!< Offset: 0x010 (R/W)  MPU Region Attribute and Size Re
ARM GAS  C:\Users\WANGBI~1\AppData\Local\Temp\cc4cJIrJ.s 			page 20


 614:e:\liteos\liteos\targets\cloud_fm33a0xx\device\include\core_cm0plus.h **** } MPU_Type;
 615:e:\liteos\liteos\targets\cloud_fm33a0xx\device\include\core_cm0plus.h **** 
 616:e:\liteos\liteos\targets\cloud_fm33a0xx\device\include\core_cm0plus.h **** /* MPU Type Register Definitions */
 617:e:\liteos\liteos\targets\cloud_fm33a0xx\device\include\core_cm0plus.h **** #define MPU_TYPE_IREGION_Pos               16U                                            /*!< MPU 
 618:e:\liteos\liteos\targets\cloud_fm33a0xx\device\include\core_cm0plus.h **** #define MPU_TYPE_IREGION_Msk               (0xFFUL << MPU_TYPE_IREGION_Pos)               /*!< MPU 
 619:e:\liteos\liteos\targets\cloud_fm33a0xx\device\include\core_cm0plus.h **** 
 620:e:\liteos\liteos\targets\cloud_fm33a0xx\device\include\core_cm0plus.h **** #define MPU_TYPE_DREGION_Pos                8U                                            /*!< MPU 
 621:e:\liteos\liteos\targets\cloud_fm33a0xx\device\include\core_cm0plus.h **** #define MPU_TYPE_DREGION_Msk               (0xFFUL << MPU_TYPE_DREGION_Pos)               /*!< MPU 
 622:e:\liteos\liteos\targets\cloud_fm33a0xx\device\include\core_cm0plus.h **** 
 623:e:\liteos\liteos\targets\cloud_fm33a0xx\device\include\core_cm0plus.h **** #define MPU_TYPE_SEPARATE_Pos               0U                                            /*!< MPU 
 624:e:\liteos\liteos\targets\cloud_fm33a0xx\device\include\core_cm0plus.h **** #define MPU_TYPE_SEPARATE_Msk              (1UL /*<< MPU_TYPE_SEPARATE_Pos*/)             /*!< MPU 
 625:e:\liteos\liteos\targets\cloud_fm33a0xx\device\include\core_cm0plus.h **** 
 626:e:\liteos\liteos\targets\cloud_fm33a0xx\device\include\core_cm0plus.h **** /* MPU Control Register Definitions */
 627:e:\liteos\liteos\targets\cloud_fm33a0xx\device\include\core_cm0plus.h **** #define MPU_CTRL_PRIVDEFENA_Pos             2U                                            /*!< MPU 
 628:e:\liteos\liteos\targets\cloud_fm33a0xx\device\include\core_cm0plus.h **** #define MPU_CTRL_PRIVDEFENA_Msk            (1UL << MPU_CTRL_PRIVDEFENA_Pos)               /*!< MPU 
 629:e:\liteos\liteos\targets\cloud_fm33a0xx\device\include\core_cm0plus.h **** 
 630:e:\liteos\liteos\targets\cloud_fm33a0xx\device\include\core_cm0plus.h **** #define MPU_CTRL_HFNMIENA_Pos               1U                                            /*!< MPU 
 631:e:\liteos\liteos\targets\cloud_fm33a0xx\device\include\core_cm0plus.h **** #define MPU_CTRL_HFNMIENA_Msk              (1UL << MPU_CTRL_HFNMIENA_Pos)                 /*!< MPU 
 632:e:\liteos\liteos\targets\cloud_fm33a0xx\device\include\core_cm0plus.h **** 
 633:e:\liteos\liteos\targets\cloud_fm33a0xx\device\include\core_cm0plus.h **** #define MPU_CTRL_ENABLE_Pos                 0U                                            /*!< MPU 
 634:e:\liteos\liteos\targets\cloud_fm33a0xx\device\include\core_cm0plus.h **** #define MPU_CTRL_ENABLE_Msk                (1UL /*<< MPU_CTRL_ENABLE_Pos*/)               /*!< MPU 
 635:e:\liteos\liteos\targets\cloud_fm33a0xx\device\include\core_cm0plus.h **** 
 636:e:\liteos\liteos\targets\cloud_fm33a0xx\device\include\core_cm0plus.h **** /* MPU Region Number Register Definitions */
 637:e:\liteos\liteos\targets\cloud_fm33a0xx\device\include\core_cm0plus.h **** #define MPU_RNR_REGION_Pos                  0U                                            /*!< MPU 
 638:e:\liteos\liteos\targets\cloud_fm33a0xx\device\include\core_cm0plus.h **** #define MPU_RNR_REGION_Msk                 (0xFFUL /*<< MPU_RNR_REGION_Pos*/)             /*!< MPU 
 639:e:\liteos\liteos\targets\cloud_fm33a0xx\device\include\core_cm0plus.h **** 
 640:e:\liteos\liteos\targets\cloud_fm33a0xx\device\include\core_cm0plus.h **** /* MPU Region Base Address Register Definitions */
 641:e:\liteos\liteos\targets\cloud_fm33a0xx\device\include\core_cm0plus.h **** #define MPU_RBAR_ADDR_Pos                   8U                                            /*!< MPU 
 642:e:\liteos\liteos\targets\cloud_fm33a0xx\device\include\core_cm0plus.h **** #define MPU_RBAR_ADDR_Msk                  (0xFFFFFFUL << MPU_RBAR_ADDR_Pos)              /*!< MPU 
 643:e:\liteos\liteos\targets\cloud_fm33a0xx\device\include\core_cm0plus.h **** 
 644:e:\liteos\liteos\targets\cloud_fm33a0xx\device\include\core_cm0plus.h **** #define MPU_RBAR_VALID_Pos                  4U                                            /*!< MPU 
 645:e:\liteos\liteos\targets\cloud_fm33a0xx\device\include\core_cm0plus.h **** #define MPU_RBAR_VALID_Msk                 (1UL << MPU_RBAR_VALID_Pos)                    /*!< MPU 
 646:e:\liteos\liteos\targets\cloud_fm33a0xx\device\include\core_cm0plus.h **** 
 647:e:\liteos\liteos\targets\cloud_fm33a0xx\device\include\core_cm0plus.h **** #define MPU_RBAR_REGION_Pos                 0U                                            /*!< MPU 
 648:e:\liteos\liteos\targets\cloud_fm33a0xx\device\include\core_cm0plus.h **** #define MPU_RBAR_REGION_Msk                (0xFUL /*<< MPU_RBAR_REGION_Pos*/)             /*!< MPU 
 649:e:\liteos\liteos\targets\cloud_fm33a0xx\device\include\core_cm0plus.h **** 
 650:e:\liteos\liteos\targets\cloud_fm33a0xx\device\include\core_cm0plus.h **** /* MPU Region Attribute and Size Register Definitions */
 651:e:\liteos\liteos\targets\cloud_fm33a0xx\device\include\core_cm0plus.h **** #define MPU_RASR_ATTRS_Pos                 16U                                            /*!< MPU 
 652:e:\liteos\liteos\targets\cloud_fm33a0xx\device\include\core_cm0plus.h **** #define MPU_RASR_ATTRS_Msk                 (0xFFFFUL << MPU_RASR_ATTRS_Pos)               /*!< MPU 
 653:e:\liteos\liteos\targets\cloud_fm33a0xx\device\include\core_cm0plus.h **** 
 654:e:\liteos\liteos\targets\cloud_fm33a0xx\device\include\core_cm0plus.h **** #define MPU_RASR_XN_Pos                    28U                                            /*!< MPU 
 655:e:\liteos\liteos\targets\cloud_fm33a0xx\device\include\core_cm0plus.h **** #define MPU_RASR_XN_Msk                    (1UL << MPU_RASR_XN_Pos)                       /*!< MPU 
 656:e:\liteos\liteos\targets\cloud_fm33a0xx\device\include\core_cm0plus.h **** 
 657:e:\liteos\liteos\targets\cloud_fm33a0xx\device\include\core_cm0plus.h **** #define MPU_RASR_AP_Pos                    24U                                            /*!< MPU 
 658:e:\liteos\liteos\targets\cloud_fm33a0xx\device\include\core_cm0plus.h **** #define MPU_RASR_AP_Msk                    (0x7UL << MPU_RASR_AP_Pos)                     /*!< MPU 
 659:e:\liteos\liteos\targets\cloud_fm33a0xx\device\include\core_cm0plus.h **** 
 660:e:\liteos\liteos\targets\cloud_fm33a0xx\device\include\core_cm0plus.h **** #define MPU_RASR_TEX_Pos                   19U                                            /*!< MPU 
 661:e:\liteos\liteos\targets\cloud_fm33a0xx\device\include\core_cm0plus.h **** #define MPU_RASR_TEX_Msk                   (0x7UL << MPU_RASR_TEX_Pos)                    /*!< MPU 
 662:e:\liteos\liteos\targets\cloud_fm33a0xx\device\include\core_cm0plus.h **** 
 663:e:\liteos\liteos\targets\cloud_fm33a0xx\device\include\core_cm0plus.h **** #define MPU_RASR_S_Pos                     18U                                            /*!< MPU 
 664:e:\liteos\liteos\targets\cloud_fm33a0xx\device\include\core_cm0plus.h **** #define MPU_RASR_S_Msk                     (1UL << MPU_RASR_S_Pos)                        /*!< MPU 
 665:e:\liteos\liteos\targets\cloud_fm33a0xx\device\include\core_cm0plus.h **** 
 666:e:\liteos\liteos\targets\cloud_fm33a0xx\device\include\core_cm0plus.h **** #define MPU_RASR_C_Pos                     17U                                            /*!< MPU 
 667:e:\liteos\liteos\targets\cloud_fm33a0xx\device\include\core_cm0plus.h **** #define MPU_RASR_C_Msk                     (1UL << MPU_RASR_C_Pos)                        /*!< MPU 
 668:e:\liteos\liteos\targets\cloud_fm33a0xx\device\include\core_cm0plus.h **** 
 669:e:\liteos\liteos\targets\cloud_fm33a0xx\device\include\core_cm0plus.h **** #define MPU_RASR_B_Pos                     16U                                            /*!< MPU 
 670:e:\liteos\liteos\targets\cloud_fm33a0xx\device\include\core_cm0plus.h **** #define MPU_RASR_B_Msk                     (1UL << MPU_RASR_B_Pos)                        /*!< MPU 
ARM GAS  C:\Users\WANGBI~1\AppData\Local\Temp\cc4cJIrJ.s 			page 21


 671:e:\liteos\liteos\targets\cloud_fm33a0xx\device\include\core_cm0plus.h **** 
 672:e:\liteos\liteos\targets\cloud_fm33a0xx\device\include\core_cm0plus.h **** #define MPU_RASR_SRD_Pos                    8U                                            /*!< MPU 
 673:e:\liteos\liteos\targets\cloud_fm33a0xx\device\include\core_cm0plus.h **** #define MPU_RASR_SRD_Msk                   (0xFFUL << MPU_RASR_SRD_Pos)                   /*!< MPU 
 674:e:\liteos\liteos\targets\cloud_fm33a0xx\device\include\core_cm0plus.h **** 
 675:e:\liteos\liteos\targets\cloud_fm33a0xx\device\include\core_cm0plus.h **** #define MPU_RASR_SIZE_Pos                   1U                                            /*!< MPU 
 676:e:\liteos\liteos\targets\cloud_fm33a0xx\device\include\core_cm0plus.h **** #define MPU_RASR_SIZE_Msk                  (0x1FUL << MPU_RASR_SIZE_Pos)                  /*!< MPU 
 677:e:\liteos\liteos\targets\cloud_fm33a0xx\device\include\core_cm0plus.h **** 
 678:e:\liteos\liteos\targets\cloud_fm33a0xx\device\include\core_cm0plus.h **** #define MPU_RASR_ENABLE_Pos                 0U                                            /*!< MPU 
 679:e:\liteos\liteos\targets\cloud_fm33a0xx\device\include\core_cm0plus.h **** #define MPU_RASR_ENABLE_Msk                (1UL /*<< MPU_RASR_ENABLE_Pos*/)               /*!< MPU 
 680:e:\liteos\liteos\targets\cloud_fm33a0xx\device\include\core_cm0plus.h **** 
 681:e:\liteos\liteos\targets\cloud_fm33a0xx\device\include\core_cm0plus.h **** /*@} end of group CMSIS_MPU */
 682:e:\liteos\liteos\targets\cloud_fm33a0xx\device\include\core_cm0plus.h **** #endif
 683:e:\liteos\liteos\targets\cloud_fm33a0xx\device\include\core_cm0plus.h **** 
 684:e:\liteos\liteos\targets\cloud_fm33a0xx\device\include\core_cm0plus.h **** 
 685:e:\liteos\liteos\targets\cloud_fm33a0xx\device\include\core_cm0plus.h **** /**
 686:e:\liteos\liteos\targets\cloud_fm33a0xx\device\include\core_cm0plus.h ****   \ingroup  CMSIS_core_register
 687:e:\liteos\liteos\targets\cloud_fm33a0xx\device\include\core_cm0plus.h ****   \defgroup CMSIS_CoreDebug       Core Debug Registers (CoreDebug)
 688:e:\liteos\liteos\targets\cloud_fm33a0xx\device\include\core_cm0plus.h ****   \brief    Cortex-M0+ Core Debug Registers (DCB registers, SHCSR, and DFSR) are only accessible ov
 689:e:\liteos\liteos\targets\cloud_fm33a0xx\device\include\core_cm0plus.h ****             Therefore they are not covered by the Cortex-M0+ header file.
 690:e:\liteos\liteos\targets\cloud_fm33a0xx\device\include\core_cm0plus.h ****   @{
 691:e:\liteos\liteos\targets\cloud_fm33a0xx\device\include\core_cm0plus.h ****  */
 692:e:\liteos\liteos\targets\cloud_fm33a0xx\device\include\core_cm0plus.h **** /*@} end of group CMSIS_CoreDebug */
 693:e:\liteos\liteos\targets\cloud_fm33a0xx\device\include\core_cm0plus.h **** 
 694:e:\liteos\liteos\targets\cloud_fm33a0xx\device\include\core_cm0plus.h **** 
 695:e:\liteos\liteos\targets\cloud_fm33a0xx\device\include\core_cm0plus.h **** /**
 696:e:\liteos\liteos\targets\cloud_fm33a0xx\device\include\core_cm0plus.h ****   \ingroup    CMSIS_core_register
 697:e:\liteos\liteos\targets\cloud_fm33a0xx\device\include\core_cm0plus.h ****   \defgroup   CMSIS_core_bitfield     Core register bit field macros
 698:e:\liteos\liteos\targets\cloud_fm33a0xx\device\include\core_cm0plus.h ****   \brief      Macros for use with bit field definitions (xxx_Pos, xxx_Msk).
 699:e:\liteos\liteos\targets\cloud_fm33a0xx\device\include\core_cm0plus.h ****   @{
 700:e:\liteos\liteos\targets\cloud_fm33a0xx\device\include\core_cm0plus.h ****  */
 701:e:\liteos\liteos\targets\cloud_fm33a0xx\device\include\core_cm0plus.h **** 
 702:e:\liteos\liteos\targets\cloud_fm33a0xx\device\include\core_cm0plus.h **** /**
 703:e:\liteos\liteos\targets\cloud_fm33a0xx\device\include\core_cm0plus.h ****   \brief   Mask and shift a bit field value for use in a register bit range.
 704:e:\liteos\liteos\targets\cloud_fm33a0xx\device\include\core_cm0plus.h ****   \param[in] field  Name of the register bit field.
 705:e:\liteos\liteos\targets\cloud_fm33a0xx\device\include\core_cm0plus.h ****   \param[in] value  Value of the bit field. This parameter is interpreted as an uint32_t type.
 706:e:\liteos\liteos\targets\cloud_fm33a0xx\device\include\core_cm0plus.h ****   \return           Masked and shifted value.
 707:e:\liteos\liteos\targets\cloud_fm33a0xx\device\include\core_cm0plus.h **** */
 708:e:\liteos\liteos\targets\cloud_fm33a0xx\device\include\core_cm0plus.h **** #define _VAL2FLD(field, value)    (((uint32_t)(value) << field ## _Pos) & field ## _Msk)
 709:e:\liteos\liteos\targets\cloud_fm33a0xx\device\include\core_cm0plus.h **** 
 710:e:\liteos\liteos\targets\cloud_fm33a0xx\device\include\core_cm0plus.h **** /**
 711:e:\liteos\liteos\targets\cloud_fm33a0xx\device\include\core_cm0plus.h ****   \brief     Mask and shift a register value to extract a bit filed value.
 712:e:\liteos\liteos\targets\cloud_fm33a0xx\device\include\core_cm0plus.h ****   \param[in] field  Name of the register bit field.
 713:e:\liteos\liteos\targets\cloud_fm33a0xx\device\include\core_cm0plus.h ****   \param[in] value  Value of register. This parameter is interpreted as an uint32_t type.
 714:e:\liteos\liteos\targets\cloud_fm33a0xx\device\include\core_cm0plus.h ****   \return           Masked and shifted bit field value.
 715:e:\liteos\liteos\targets\cloud_fm33a0xx\device\include\core_cm0plus.h **** */
 716:e:\liteos\liteos\targets\cloud_fm33a0xx\device\include\core_cm0plus.h **** #define _FLD2VAL(field, value)    (((uint32_t)(value) & field ## _Msk) >> field ## _Pos)
 717:e:\liteos\liteos\targets\cloud_fm33a0xx\device\include\core_cm0plus.h **** 
 718:e:\liteos\liteos\targets\cloud_fm33a0xx\device\include\core_cm0plus.h **** /*@} end of group CMSIS_core_bitfield */
 719:e:\liteos\liteos\targets\cloud_fm33a0xx\device\include\core_cm0plus.h **** 
 720:e:\liteos\liteos\targets\cloud_fm33a0xx\device\include\core_cm0plus.h **** 
 721:e:\liteos\liteos\targets\cloud_fm33a0xx\device\include\core_cm0plus.h **** /**
 722:e:\liteos\liteos\targets\cloud_fm33a0xx\device\include\core_cm0plus.h ****   \ingroup    CMSIS_core_register
 723:e:\liteos\liteos\targets\cloud_fm33a0xx\device\include\core_cm0plus.h ****   \defgroup   CMSIS_core_base     Core Definitions
 724:e:\liteos\liteos\targets\cloud_fm33a0xx\device\include\core_cm0plus.h ****   \brief      Definitions for base addresses, unions, and structures.
 725:e:\liteos\liteos\targets\cloud_fm33a0xx\device\include\core_cm0plus.h ****   @{
 726:e:\liteos\liteos\targets\cloud_fm33a0xx\device\include\core_cm0plus.h ****  */
 727:e:\liteos\liteos\targets\cloud_fm33a0xx\device\include\core_cm0plus.h **** 
ARM GAS  C:\Users\WANGBI~1\AppData\Local\Temp\cc4cJIrJ.s 			page 22


 728:e:\liteos\liteos\targets\cloud_fm33a0xx\device\include\core_cm0plus.h **** /* Memory mapping of Cortex-M0+ Hardware */
 729:e:\liteos\liteos\targets\cloud_fm33a0xx\device\include\core_cm0plus.h **** #define SCS_BASE            (0xE000E000UL)                            /*!< System Control Space Bas
 730:e:\liteos\liteos\targets\cloud_fm33a0xx\device\include\core_cm0plus.h **** #define SysTick_BASE        (SCS_BASE +  0x0010UL)                    /*!< SysTick Base Address */
 731:e:\liteos\liteos\targets\cloud_fm33a0xx\device\include\core_cm0plus.h **** #define NVIC_BASE           (SCS_BASE +  0x0100UL)                    /*!< NVIC Base Address */
 732:e:\liteos\liteos\targets\cloud_fm33a0xx\device\include\core_cm0plus.h **** #define SCB_BASE            (SCS_BASE +  0x0D00UL)                    /*!< System Control Block Bas
 733:e:\liteos\liteos\targets\cloud_fm33a0xx\device\include\core_cm0plus.h **** 
 734:e:\liteos\liteos\targets\cloud_fm33a0xx\device\include\core_cm0plus.h **** #define SCB                 ((SCB_Type       *)     SCB_BASE      )   /*!< SCB configuration struct
 735:e:\liteos\liteos\targets\cloud_fm33a0xx\device\include\core_cm0plus.h **** #define SysTick             ((SysTick_Type   *)     SysTick_BASE  )   /*!< SysTick configuration st
 736:e:\liteos\liteos\targets\cloud_fm33a0xx\device\include\core_cm0plus.h **** #define NVIC                ((NVIC_Type      *)     NVIC_BASE     )   /*!< NVIC configuration struc
 737:e:\liteos\liteos\targets\cloud_fm33a0xx\device\include\core_cm0plus.h **** 
 738:e:\liteos\liteos\targets\cloud_fm33a0xx\device\include\core_cm0plus.h **** #if defined (__MPU_PRESENT) && (__MPU_PRESENT == 1U)
 739:e:\liteos\liteos\targets\cloud_fm33a0xx\device\include\core_cm0plus.h ****   #define MPU_BASE          (SCS_BASE +  0x0D90UL)                    /*!< Memory Protection Unit *
 740:e:\liteos\liteos\targets\cloud_fm33a0xx\device\include\core_cm0plus.h ****   #define MPU               ((MPU_Type       *)     MPU_BASE      )   /*!< Memory Protection Unit *
 741:e:\liteos\liteos\targets\cloud_fm33a0xx\device\include\core_cm0plus.h **** #endif
 742:e:\liteos\liteos\targets\cloud_fm33a0xx\device\include\core_cm0plus.h **** 
 743:e:\liteos\liteos\targets\cloud_fm33a0xx\device\include\core_cm0plus.h **** /*@} */
 744:e:\liteos\liteos\targets\cloud_fm33a0xx\device\include\core_cm0plus.h **** 
 745:e:\liteos\liteos\targets\cloud_fm33a0xx\device\include\core_cm0plus.h **** 
 746:e:\liteos\liteos\targets\cloud_fm33a0xx\device\include\core_cm0plus.h **** 
 747:e:\liteos\liteos\targets\cloud_fm33a0xx\device\include\core_cm0plus.h **** /*******************************************************************************
 748:e:\liteos\liteos\targets\cloud_fm33a0xx\device\include\core_cm0plus.h ****  *                Hardware Abstraction Layer
 749:e:\liteos\liteos\targets\cloud_fm33a0xx\device\include\core_cm0plus.h ****   Core Function Interface contains:
 750:e:\liteos\liteos\targets\cloud_fm33a0xx\device\include\core_cm0plus.h ****   - Core NVIC Functions
 751:e:\liteos\liteos\targets\cloud_fm33a0xx\device\include\core_cm0plus.h ****   - Core SysTick Functions
 752:e:\liteos\liteos\targets\cloud_fm33a0xx\device\include\core_cm0plus.h ****   - Core Register Access Functions
 753:e:\liteos\liteos\targets\cloud_fm33a0xx\device\include\core_cm0plus.h ****  ******************************************************************************/
 754:e:\liteos\liteos\targets\cloud_fm33a0xx\device\include\core_cm0plus.h **** /**
 755:e:\liteos\liteos\targets\cloud_fm33a0xx\device\include\core_cm0plus.h ****   \defgroup CMSIS_Core_FunctionInterface Functions and Instructions Reference
 756:e:\liteos\liteos\targets\cloud_fm33a0xx\device\include\core_cm0plus.h **** */
 757:e:\liteos\liteos\targets\cloud_fm33a0xx\device\include\core_cm0plus.h **** 
 758:e:\liteos\liteos\targets\cloud_fm33a0xx\device\include\core_cm0plus.h **** 
 759:e:\liteos\liteos\targets\cloud_fm33a0xx\device\include\core_cm0plus.h **** 
 760:e:\liteos\liteos\targets\cloud_fm33a0xx\device\include\core_cm0plus.h **** /* ##########################   NVIC functions  #################################### */
 761:e:\liteos\liteos\targets\cloud_fm33a0xx\device\include\core_cm0plus.h **** /**
 762:e:\liteos\liteos\targets\cloud_fm33a0xx\device\include\core_cm0plus.h ****   \ingroup  CMSIS_Core_FunctionInterface
 763:e:\liteos\liteos\targets\cloud_fm33a0xx\device\include\core_cm0plus.h ****   \defgroup CMSIS_Core_NVICFunctions NVIC Functions
 764:e:\liteos\liteos\targets\cloud_fm33a0xx\device\include\core_cm0plus.h ****   \brief    Functions that manage interrupts and exceptions via the NVIC.
 765:e:\liteos\liteos\targets\cloud_fm33a0xx\device\include\core_cm0plus.h ****   @{
 766:e:\liteos\liteos\targets\cloud_fm33a0xx\device\include\core_cm0plus.h ****  */
 767:e:\liteos\liteos\targets\cloud_fm33a0xx\device\include\core_cm0plus.h **** 
 768:e:\liteos\liteos\targets\cloud_fm33a0xx\device\include\core_cm0plus.h **** /* Interrupt Priorities are WORD accessible only under ARMv6M                   */
 769:e:\liteos\liteos\targets\cloud_fm33a0xx\device\include\core_cm0plus.h **** /* The following MACROS handle generation of the register offset and byte masks */
 770:e:\liteos\liteos\targets\cloud_fm33a0xx\device\include\core_cm0plus.h **** #define _BIT_SHIFT(IRQn)         (  ((((uint32_t)(int32_t)(IRQn))         )      &  0x03UL) * 8UL)
 771:e:\liteos\liteos\targets\cloud_fm33a0xx\device\include\core_cm0plus.h **** #define _SHP_IDX(IRQn)           ( (((((uint32_t)(int32_t)(IRQn)) & 0x0FUL)-8UL) >>    2UL)      )
 772:e:\liteos\liteos\targets\cloud_fm33a0xx\device\include\core_cm0plus.h **** #define _IP_IDX(IRQn)            (   (((uint32_t)(int32_t)(IRQn))                >>    2UL)      )
 773:e:\liteos\liteos\targets\cloud_fm33a0xx\device\include\core_cm0plus.h **** 
 774:e:\liteos\liteos\targets\cloud_fm33a0xx\device\include\core_cm0plus.h **** 
 775:e:\liteos\liteos\targets\cloud_fm33a0xx\device\include\core_cm0plus.h **** /**
 776:e:\liteos\liteos\targets\cloud_fm33a0xx\device\include\core_cm0plus.h ****   \brief   Enable Interrupt
 777:e:\liteos\liteos\targets\cloud_fm33a0xx\device\include\core_cm0plus.h ****   \details Enables a device specific interrupt in the NVIC interrupt controller.
 778:e:\liteos\liteos\targets\cloud_fm33a0xx\device\include\core_cm0plus.h ****   \param [in]      IRQn  Device specific interrupt number.
 779:e:\liteos\liteos\targets\cloud_fm33a0xx\device\include\core_cm0plus.h ****   \note    IRQn must not be nagative.
 780:e:\liteos\liteos\targets\cloud_fm33a0xx\device\include\core_cm0plus.h ****  */
 781:e:\liteos\liteos\targets\cloud_fm33a0xx\device\include\core_cm0plus.h **** __STATIC_INLINE void NVIC_EnableIRQ(IRQn_Type IRQn)
 782:e:\liteos\liteos\targets\cloud_fm33a0xx\device\include\core_cm0plus.h **** {
 783:e:\liteos\liteos\targets\cloud_fm33a0xx\device\include\core_cm0plus.h ****   if ((int32_t)(IRQn) >= 0)
 784:e:\liteos\liteos\targets\cloud_fm33a0xx\device\include\core_cm0plus.h ****   {
ARM GAS  C:\Users\WANGBI~1\AppData\Local\Temp\cc4cJIrJ.s 			page 23


 785:e:\liteos\liteos\targets\cloud_fm33a0xx\device\include\core_cm0plus.h ****     NVIC->ISER[0U] = (uint32_t)(1UL << (((uint32_t)(int32_t)IRQn) & 0x1FUL));
 786:e:\liteos\liteos\targets\cloud_fm33a0xx\device\include\core_cm0plus.h ****   }
 787:e:\liteos\liteos\targets\cloud_fm33a0xx\device\include\core_cm0plus.h **** }
 788:e:\liteos\liteos\targets\cloud_fm33a0xx\device\include\core_cm0plus.h **** 
 789:e:\liteos\liteos\targets\cloud_fm33a0xx\device\include\core_cm0plus.h **** 
 790:e:\liteos\liteos\targets\cloud_fm33a0xx\device\include\core_cm0plus.h **** /**
 791:e:\liteos\liteos\targets\cloud_fm33a0xx\device\include\core_cm0plus.h ****   \brief   Disable Interrupt
 792:e:\liteos\liteos\targets\cloud_fm33a0xx\device\include\core_cm0plus.h ****   \details Disables a device specific interrupt in the NVIC interrupt controller.
 793:e:\liteos\liteos\targets\cloud_fm33a0xx\device\include\core_cm0plus.h ****   \param [in]      IRQn  Device specific interrupt number.
 794:e:\liteos\liteos\targets\cloud_fm33a0xx\device\include\core_cm0plus.h ****   \note    IRQn must not be nagative.
 795:e:\liteos\liteos\targets\cloud_fm33a0xx\device\include\core_cm0plus.h ****  */
 796:e:\liteos\liteos\targets\cloud_fm33a0xx\device\include\core_cm0plus.h **** __STATIC_INLINE void NVIC_DisableIRQ(IRQn_Type IRQn)
 797:e:\liteos\liteos\targets\cloud_fm33a0xx\device\include\core_cm0plus.h **** {
 798:e:\liteos\liteos\targets\cloud_fm33a0xx\device\include\core_cm0plus.h ****   if ((int32_t)(IRQn) >= 0)
 799:e:\liteos\liteos\targets\cloud_fm33a0xx\device\include\core_cm0plus.h ****   {
 800:e:\liteos\liteos\targets\cloud_fm33a0xx\device\include\core_cm0plus.h ****     NVIC->ICER[0U] = (uint32_t)(1UL << (((uint32_t)(int32_t)IRQn) & 0x1FUL));
 382              		.loc 2 800 0
 383 004a 634A     		ldr	r2, .L24+20
 384 004c 8021     		movs	r1, #128
 385 004e 8900     		lsls	r1, r1, #2
 386 0050 8023     		movs	r3, #128
 387 0052 D150     		str	r1, [r2, r3]
 388              	.LVL26:
 389              	.LBE39:
 390              	.LBE38:
 391              	.LBB40:
 392              	.LBB41:
 801:e:\liteos\liteos\targets\cloud_fm33a0xx\device\include\core_cm0plus.h ****   }
 802:e:\liteos\liteos\targets\cloud_fm33a0xx\device\include\core_cm0plus.h **** }
 803:e:\liteos\liteos\targets\cloud_fm33a0xx\device\include\core_cm0plus.h **** 
 804:e:\liteos\liteos\targets\cloud_fm33a0xx\device\include\core_cm0plus.h **** 
 805:e:\liteos\liteos\targets\cloud_fm33a0xx\device\include\core_cm0plus.h **** /**
 806:e:\liteos\liteos\targets\cloud_fm33a0xx\device\include\core_cm0plus.h ****   \brief   Get Pending Interrupt
 807:e:\liteos\liteos\targets\cloud_fm33a0xx\device\include\core_cm0plus.h ****   \details Reads the NVIC pending register and returns the pending bit for the specified device spe
 808:e:\liteos\liteos\targets\cloud_fm33a0xx\device\include\core_cm0plus.h ****   \param [in]      IRQn  Device specific interrupt number.
 809:e:\liteos\liteos\targets\cloud_fm33a0xx\device\include\core_cm0plus.h ****   \return             0  Interrupt status is not pending.
 810:e:\liteos\liteos\targets\cloud_fm33a0xx\device\include\core_cm0plus.h ****   \return             1  Interrupt status is pending.
 811:e:\liteos\liteos\targets\cloud_fm33a0xx\device\include\core_cm0plus.h ****   \note    IRQn must not be nagative.
 812:e:\liteos\liteos\targets\cloud_fm33a0xx\device\include\core_cm0plus.h ****  */
 813:e:\liteos\liteos\targets\cloud_fm33a0xx\device\include\core_cm0plus.h **** __STATIC_INLINE uint32_t NVIC_GetPendingIRQ(IRQn_Type IRQn)
 814:e:\liteos\liteos\targets\cloud_fm33a0xx\device\include\core_cm0plus.h **** {
 815:e:\liteos\liteos\targets\cloud_fm33a0xx\device\include\core_cm0plus.h ****   if ((int32_t)(IRQn) >= 0)
 816:e:\liteos\liteos\targets\cloud_fm33a0xx\device\include\core_cm0plus.h ****   {
 817:e:\liteos\liteos\targets\cloud_fm33a0xx\device\include\core_cm0plus.h ****     return((uint32_t)(((NVIC->ISPR[0U] & (1UL << (((uint32_t)(int32_t)IRQn) & 0x1FUL))) != 0UL) ? 1
 818:e:\liteos\liteos\targets\cloud_fm33a0xx\device\include\core_cm0plus.h ****   }
 819:e:\liteos\liteos\targets\cloud_fm33a0xx\device\include\core_cm0plus.h ****   else
 820:e:\liteos\liteos\targets\cloud_fm33a0xx\device\include\core_cm0plus.h ****   {
 821:e:\liteos\liteos\targets\cloud_fm33a0xx\device\include\core_cm0plus.h ****     return(0U);
 822:e:\liteos\liteos\targets\cloud_fm33a0xx\device\include\core_cm0plus.h ****   }
 823:e:\liteos\liteos\targets\cloud_fm33a0xx\device\include\core_cm0plus.h **** }
 824:e:\liteos\liteos\targets\cloud_fm33a0xx\device\include\core_cm0plus.h **** 
 825:e:\liteos\liteos\targets\cloud_fm33a0xx\device\include\core_cm0plus.h **** 
 826:e:\liteos\liteos\targets\cloud_fm33a0xx\device\include\core_cm0plus.h **** /**
 827:e:\liteos\liteos\targets\cloud_fm33a0xx\device\include\core_cm0plus.h ****   \brief   Set Pending Interrupt
 828:e:\liteos\liteos\targets\cloud_fm33a0xx\device\include\core_cm0plus.h ****   \details Sets the pending bit of a device specific interrupt in the NVIC pending register.
 829:e:\liteos\liteos\targets\cloud_fm33a0xx\device\include\core_cm0plus.h ****   \param [in]      IRQn  Device specific interrupt number.
 830:e:\liteos\liteos\targets\cloud_fm33a0xx\device\include\core_cm0plus.h ****   \note    IRQn must not be nagative.
ARM GAS  C:\Users\WANGBI~1\AppData\Local\Temp\cc4cJIrJ.s 			page 24


 831:e:\liteos\liteos\targets\cloud_fm33a0xx\device\include\core_cm0plus.h ****  */
 832:e:\liteos\liteos\targets\cloud_fm33a0xx\device\include\core_cm0plus.h **** __STATIC_INLINE void NVIC_SetPendingIRQ(IRQn_Type IRQn)
 833:e:\liteos\liteos\targets\cloud_fm33a0xx\device\include\core_cm0plus.h **** {
 834:e:\liteos\liteos\targets\cloud_fm33a0xx\device\include\core_cm0plus.h ****   if ((int32_t)(IRQn) >= 0)
 835:e:\liteos\liteos\targets\cloud_fm33a0xx\device\include\core_cm0plus.h ****   {
 836:e:\liteos\liteos\targets\cloud_fm33a0xx\device\include\core_cm0plus.h ****     NVIC->ISPR[0U] = (uint32_t)(1UL << (((uint32_t)(int32_t)IRQn) & 0x1FUL));
 837:e:\liteos\liteos\targets\cloud_fm33a0xx\device\include\core_cm0plus.h ****   }
 838:e:\liteos\liteos\targets\cloud_fm33a0xx\device\include\core_cm0plus.h **** }
 839:e:\liteos\liteos\targets\cloud_fm33a0xx\device\include\core_cm0plus.h **** 
 840:e:\liteos\liteos\targets\cloud_fm33a0xx\device\include\core_cm0plus.h **** 
 841:e:\liteos\liteos\targets\cloud_fm33a0xx\device\include\core_cm0plus.h **** /**
 842:e:\liteos\liteos\targets\cloud_fm33a0xx\device\include\core_cm0plus.h ****   \brief   Clear Pending Interrupt
 843:e:\liteos\liteos\targets\cloud_fm33a0xx\device\include\core_cm0plus.h ****   \details Clears the pending bit of a device specific interrupt in the NVIC pending register.
 844:e:\liteos\liteos\targets\cloud_fm33a0xx\device\include\core_cm0plus.h ****   \param [in]      IRQn  Device specific interrupt number.
 845:e:\liteos\liteos\targets\cloud_fm33a0xx\device\include\core_cm0plus.h ****   \note    IRQn must not be nagative.
 846:e:\liteos\liteos\targets\cloud_fm33a0xx\device\include\core_cm0plus.h ****  */
 847:e:\liteos\liteos\targets\cloud_fm33a0xx\device\include\core_cm0plus.h **** __STATIC_INLINE void NVIC_ClearPendingIRQ(IRQn_Type IRQn)
 848:e:\liteos\liteos\targets\cloud_fm33a0xx\device\include\core_cm0plus.h **** {
 849:e:\liteos\liteos\targets\cloud_fm33a0xx\device\include\core_cm0plus.h ****   if ((int32_t)(IRQn) >= 0)
 850:e:\liteos\liteos\targets\cloud_fm33a0xx\device\include\core_cm0plus.h ****   {
 851:e:\liteos\liteos\targets\cloud_fm33a0xx\device\include\core_cm0plus.h ****     NVIC->ICPR[0U] = (uint32_t)(1UL << (((uint32_t)(int32_t)IRQn) & 0x1FUL));
 852:e:\liteos\liteos\targets\cloud_fm33a0xx\device\include\core_cm0plus.h ****   }
 853:e:\liteos\liteos\targets\cloud_fm33a0xx\device\include\core_cm0plus.h **** }
 854:e:\liteos\liteos\targets\cloud_fm33a0xx\device\include\core_cm0plus.h **** 
 855:e:\liteos\liteos\targets\cloud_fm33a0xx\device\include\core_cm0plus.h **** 
 856:e:\liteos\liteos\targets\cloud_fm33a0xx\device\include\core_cm0plus.h **** /**
 857:e:\liteos\liteos\targets\cloud_fm33a0xx\device\include\core_cm0plus.h ****   \brief   Set Interrupt Priority
 858:e:\liteos\liteos\targets\cloud_fm33a0xx\device\include\core_cm0plus.h ****   \details Sets the priority of a device specific interrupt or a processor exception.
 859:e:\liteos\liteos\targets\cloud_fm33a0xx\device\include\core_cm0plus.h ****            The interrupt number can be positive to specify a device specific interrupt,
 860:e:\liteos\liteos\targets\cloud_fm33a0xx\device\include\core_cm0plus.h ****            or negative to specify a processor exception.
 861:e:\liteos\liteos\targets\cloud_fm33a0xx\device\include\core_cm0plus.h ****   \param [in]      IRQn  Interrupt number.
 862:e:\liteos\liteos\targets\cloud_fm33a0xx\device\include\core_cm0plus.h ****   \param [in]  priority  Priority to set.
 863:e:\liteos\liteos\targets\cloud_fm33a0xx\device\include\core_cm0plus.h ****   \note    The priority cannot be set for every processor exception.
 864:e:\liteos\liteos\targets\cloud_fm33a0xx\device\include\core_cm0plus.h ****  */
 865:e:\liteos\liteos\targets\cloud_fm33a0xx\device\include\core_cm0plus.h **** __STATIC_INLINE void NVIC_SetPriority(IRQn_Type IRQn, uint32_t priority)
 866:e:\liteos\liteos\targets\cloud_fm33a0xx\device\include\core_cm0plus.h **** {
 867:e:\liteos\liteos\targets\cloud_fm33a0xx\device\include\core_cm0plus.h ****   if ((int32_t)(IRQn) >= 0)
 868:e:\liteos\liteos\targets\cloud_fm33a0xx\device\include\core_cm0plus.h ****   {
 869:e:\liteos\liteos\targets\cloud_fm33a0xx\device\include\core_cm0plus.h ****     NVIC->IP[_IP_IDX(IRQn)]  = ((uint32_t)(NVIC->IP[_IP_IDX(IRQn)]  & ~(0xFFUL << _BIT_SHIFT(IRQn))
 393              		.loc 2 869 0
 394 0054 C220     		movs	r0, #194
 395 0056 8000     		lsls	r0, r0, #2
 396 0058 1558     		ldr	r5, [r2, r0]
 397 005a 604B     		ldr	r3, .L24+24
 398 005c 2B40     		ands	r3, r5
 399 005e 8025     		movs	r5, #128
 400 0060 2D02     		lsls	r5, r5, #8
 401 0062 2B43     		orrs	r3, r5
 402 0064 1350     		str	r3, [r2, r0]
 403              	.LVL27:
 404              	.LBE41:
 405              	.LBE40:
 406              	.LBB42:
 407              	.LBB43:
 785:e:\liteos\liteos\targets\cloud_fm33a0xx\device\include\core_cm0plus.h ****   }
 408              		.loc 2 785 0
 409 0066 1160     		str	r1, [r2]
ARM GAS  C:\Users\WANGBI~1\AppData\Local\Temp\cc4cJIrJ.s 			page 25


 410 0068 99E0     		b	.L16
 411              	.LVL28:
 412              	.L19:
 413              	.LBE43:
 414              	.LBE42:
 105:e:/LiteOS/LiteOS/targets/Cloud_FM33A0XX/GCC/../../../targets/Cloud_FM33A0XX/UserCode\los_uart.c **** 		
 106:e:/LiteOS/LiteOS/targets/Cloud_FM33A0XX/GCC/../../../targets/Cloud_FM33A0XX/UserCode\los_uart.c **** 			/*NVIC????*/
 107:e:/LiteOS/LiteOS/targets/Cloud_FM33A0XX/GCC/../../../targets/Cloud_FM33A0XX/UserCode\los_uart.c **** 			NVIC_DisableIRQ(UART0_IRQn);
 108:e:/LiteOS/LiteOS/targets/Cloud_FM33A0XX/GCC/../../../targets/Cloud_FM33A0XX/UserCode\los_uart.c **** 			NVIC_SetPriority(UART0_IRQn,2);//???????
 109:e:/LiteOS/LiteOS/targets/Cloud_FM33A0XX/GCC/../../../targets/Cloud_FM33A0XX/UserCode\los_uart.c **** 			NVIC_EnableIRQ(UART0_IRQn);	
 110:e:/LiteOS/LiteOS/targets/Cloud_FM33A0XX/GCC/../../../targets/Cloud_FM33A0XX/UserCode\los_uart.c **** 			break;
 111:e:/LiteOS/LiteOS/targets/Cloud_FM33A0XX/GCC/../../../targets/Cloud_FM33A0XX/UserCode\los_uart.c **** 		
 112:e:/LiteOS/LiteOS/targets/Cloud_FM33A0XX/GCC/../../../targets/Cloud_FM33A0XX/UserCode\los_uart.c **** 		case 1:
 113:e:/LiteOS/LiteOS/targets/Cloud_FM33A0XX/GCC/../../../targets/Cloud_FM33A0XX/UserCode\los_uart.c **** 			RCC_PERCLK_SetableEx(UART1CLK, ENABLE);	//UARTx????	
 415              		.loc 1 113 0
 416 006a 0121     		movs	r1, #1
 417 006c 5C48     		ldr	r0, .L24+28
 418 006e FFF7FEFF 		bl	RCC_PERCLK_SetableEx
 419              	.LVL29:
 114:e:/LiteOS/LiteOS/targets/Cloud_FM33A0XX/GCC/../../../targets/Cloud_FM33A0XX/UserCode\los_uart.c **** 			//	UART1 IO ??
 115:e:/LiteOS/LiteOS/targets/Cloud_FM33A0XX/GCC/../../../targets/Cloud_FM33A0XX/UserCode\los_uart.c **** 			AltFunIO(GPIOB, GPIO_Pin_0, 0);		//PB0 UART1 RX
 420              		.loc 1 115 0
 421 0072 5C4D     		ldr	r5, .L24+32
 422 0074 0022     		movs	r2, #0
 423 0076 0121     		movs	r1, #1
 424 0078 2800     		movs	r0, r5
 425 007a FFF7FEFF 		bl	AltFunIO
 426              	.LVL30:
 116:e:/LiteOS/LiteOS/targets/Cloud_FM33A0XX/GCC/../../../targets/Cloud_FM33A0XX/UserCode\los_uart.c **** 			AltFunIO(GPIOB, GPIO_Pin_1, 0);		//PB1 UART1 TX
 427              		.loc 1 116 0
 428 007e 0022     		movs	r2, #0
 429 0080 0221     		movs	r1, #2
 430 0082 2800     		movs	r0, r5
 431 0084 FFF7FEFF 		bl	AltFunIO
 432              	.LVL31:
 433              	.LBB44:
 434              	.LBB45:
 800:e:\liteos\liteos\targets\cloud_fm33a0xx\device\include\core_cm0plus.h ****   }
 435              		.loc 2 800 0
 436 0088 534A     		ldr	r2, .L24+20
 437 008a 8021     		movs	r1, #128
 438 008c C900     		lsls	r1, r1, #3
 439 008e 8023     		movs	r3, #128
 440 0090 D150     		str	r1, [r2, r3]
 441              	.LVL32:
 442              	.LBE45:
 443              	.LBE44:
 444              	.LBB46:
 445              	.LBB47:
 446              		.loc 2 869 0
 447 0092 C220     		movs	r0, #194
 448 0094 8000     		lsls	r0, r0, #2
 449 0096 1558     		ldr	r5, [r2, r0]
 450 0098 534B     		ldr	r3, .L24+36
 451 009a 2B40     		ands	r3, r5
 452 009c 8025     		movs	r5, #128
 453 009e 2D04     		lsls	r5, r5, #16
ARM GAS  C:\Users\WANGBI~1\AppData\Local\Temp\cc4cJIrJ.s 			page 26


 454 00a0 2B43     		orrs	r3, r5
 455 00a2 1350     		str	r3, [r2, r0]
 456              	.LVL33:
 457              	.LBE47:
 458              	.LBE46:
 459              	.LBB48:
 460              	.LBB49:
 785:e:\liteos\liteos\targets\cloud_fm33a0xx\device\include\core_cm0plus.h ****   }
 461              		.loc 2 785 0
 462 00a4 1160     		str	r1, [r2]
 463 00a6 7AE0     		b	.L16
 464              	.LVL34:
 465              	.L20:
 466              	.LBE49:
 467              	.LBE48:
 117:e:/LiteOS/LiteOS/targets/Cloud_FM33A0XX/GCC/../../../targets/Cloud_FM33A0XX/UserCode\los_uart.c **** 			
 118:e:/LiteOS/LiteOS/targets/Cloud_FM33A0XX/GCC/../../../targets/Cloud_FM33A0XX/UserCode\los_uart.c **** 			//AltFunIO(GPIOE, GPIO_Pin_3, 0);		//PE3 UART1 RX
 119:e:/LiteOS/LiteOS/targets/Cloud_FM33A0XX/GCC/../../../targets/Cloud_FM33A0XX/UserCode\los_uart.c **** 			//AltFunIO(GPIOE, GPIO_Pin_4, 0);		//PE4 UART1 TX
 120:e:/LiteOS/LiteOS/targets/Cloud_FM33A0XX/GCC/../../../targets/Cloud_FM33A0XX/UserCode\los_uart.c **** 		
 121:e:/LiteOS/LiteOS/targets/Cloud_FM33A0XX/GCC/../../../targets/Cloud_FM33A0XX/UserCode\los_uart.c **** 			/*NVIC????*/
 122:e:/LiteOS/LiteOS/targets/Cloud_FM33A0XX/GCC/../../../targets/Cloud_FM33A0XX/UserCode\los_uart.c **** 			NVIC_DisableIRQ(UART1_IRQn);
 123:e:/LiteOS/LiteOS/targets/Cloud_FM33A0XX/GCC/../../../targets/Cloud_FM33A0XX/UserCode\los_uart.c **** 			NVIC_SetPriority(UART1_IRQn,2);//???????
 124:e:/LiteOS/LiteOS/targets/Cloud_FM33A0XX/GCC/../../../targets/Cloud_FM33A0XX/UserCode\los_uart.c **** 			NVIC_EnableIRQ(UART1_IRQn);	
 125:e:/LiteOS/LiteOS/targets/Cloud_FM33A0XX/GCC/../../../targets/Cloud_FM33A0XX/UserCode\los_uart.c **** 			break;
 126:e:/LiteOS/LiteOS/targets/Cloud_FM33A0XX/GCC/../../../targets/Cloud_FM33A0XX/UserCode\los_uart.c **** 		
 127:e:/LiteOS/LiteOS/targets/Cloud_FM33A0XX/GCC/../../../targets/Cloud_FM33A0XX/UserCode\los_uart.c **** 		case 2:
 128:e:/LiteOS/LiteOS/targets/Cloud_FM33A0XX/GCC/../../../targets/Cloud_FM33A0XX/UserCode\los_uart.c **** 			RCC_PERCLK_SetableEx(UART2CLK, ENABLE);	//UARTx????	
 468              		.loc 1 128 0
 469 00a8 0121     		movs	r1, #1
 470 00aa 5048     		ldr	r0, .L24+40
 471 00ac FFF7FEFF 		bl	RCC_PERCLK_SetableEx
 472              	.LVL35:
 129:e:/LiteOS/LiteOS/targets/Cloud_FM33A0XX/GCC/../../../targets/Cloud_FM33A0XX/UserCode\los_uart.c **** 			//	UART2 IO ??
 130:e:/LiteOS/LiteOS/targets/Cloud_FM33A0XX/GCC/../../../targets/Cloud_FM33A0XX/UserCode\los_uart.c **** 			AltFunIO(GPIOB, GPIO_Pin_2, 0);		//PB2 UART2 RX
 473              		.loc 1 130 0
 474 00b0 4C4D     		ldr	r5, .L24+32
 475 00b2 0022     		movs	r2, #0
 476 00b4 0421     		movs	r1, #4
 477 00b6 2800     		movs	r0, r5
 478 00b8 FFF7FEFF 		bl	AltFunIO
 479              	.LVL36:
 131:e:/LiteOS/LiteOS/targets/Cloud_FM33A0XX/GCC/../../../targets/Cloud_FM33A0XX/UserCode\los_uart.c **** 			AltFunIO(GPIOB, GPIO_Pin_3, 0);		//PB3 UART2 TX	
 480              		.loc 1 131 0
 481 00bc 0022     		movs	r2, #0
 482 00be 0821     		movs	r1, #8
 483 00c0 2800     		movs	r0, r5
 484 00c2 FFF7FEFF 		bl	AltFunIO
 485              	.LVL37:
 486              	.LBB50:
 487              	.LBB51:
 800:e:\liteos\liteos\targets\cloud_fm33a0xx\device\include\core_cm0plus.h ****   }
 488              		.loc 2 800 0
 489 00c6 444A     		ldr	r2, .L24+20
 490 00c8 8021     		movs	r1, #128
 491 00ca 0901     		lsls	r1, r1, #4
 492 00cc 8023     		movs	r3, #128
 493 00ce D150     		str	r1, [r2, r3]
ARM GAS  C:\Users\WANGBI~1\AppData\Local\Temp\cc4cJIrJ.s 			page 27


 494              	.LVL38:
 495              	.LBE51:
 496              	.LBE50:
 497              	.LBB52:
 498              	.LBB53:
 499              		.loc 2 869 0
 500 00d0 C220     		movs	r0, #194
 501 00d2 8000     		lsls	r0, r0, #2
 502 00d4 1358     		ldr	r3, [r2, r0]
 503 00d6 1B02     		lsls	r3, r3, #8
 504 00d8 1B0A     		lsrs	r3, r3, #8
 505 00da 8025     		movs	r5, #128
 506 00dc 2D06     		lsls	r5, r5, #24
 507 00de 2B43     		orrs	r3, r5
 508 00e0 1350     		str	r3, [r2, r0]
 509              	.LVL39:
 510              	.LBE53:
 511              	.LBE52:
 512              	.LBB54:
 513              	.LBB55:
 785:e:\liteos\liteos\targets\cloud_fm33a0xx\device\include\core_cm0plus.h ****   }
 514              		.loc 2 785 0
 515 00e2 1160     		str	r1, [r2]
 516 00e4 5BE0     		b	.L16
 517              	.LVL40:
 518              	.L21:
 519              	.LBE55:
 520              	.LBE54:
 132:e:/LiteOS/LiteOS/targets/Cloud_FM33A0XX/GCC/../../../targets/Cloud_FM33A0XX/UserCode\los_uart.c **** 		
 133:e:/LiteOS/LiteOS/targets/Cloud_FM33A0XX/GCC/../../../targets/Cloud_FM33A0XX/UserCode\los_uart.c **** 			/*NVIC????*/
 134:e:/LiteOS/LiteOS/targets/Cloud_FM33A0XX/GCC/../../../targets/Cloud_FM33A0XX/UserCode\los_uart.c **** 			NVIC_DisableIRQ(UART2_IRQn);
 135:e:/LiteOS/LiteOS/targets/Cloud_FM33A0XX/GCC/../../../targets/Cloud_FM33A0XX/UserCode\los_uart.c **** 			NVIC_SetPriority(UART2_IRQn,2);//???????
 136:e:/LiteOS/LiteOS/targets/Cloud_FM33A0XX/GCC/../../../targets/Cloud_FM33A0XX/UserCode\los_uart.c **** 			NVIC_EnableIRQ(UART2_IRQn);	
 137:e:/LiteOS/LiteOS/targets/Cloud_FM33A0XX/GCC/../../../targets/Cloud_FM33A0XX/UserCode\los_uart.c **** 			break;
 138:e:/LiteOS/LiteOS/targets/Cloud_FM33A0XX/GCC/../../../targets/Cloud_FM33A0XX/UserCode\los_uart.c **** 		
 139:e:/LiteOS/LiteOS/targets/Cloud_FM33A0XX/GCC/../../../targets/Cloud_FM33A0XX/UserCode\los_uart.c **** 		case 3:
 140:e:/LiteOS/LiteOS/targets/Cloud_FM33A0XX/GCC/../../../targets/Cloud_FM33A0XX/UserCode\los_uart.c **** 			RCC_PERCLK_SetableEx(UART3CLK, ENABLE);	//UARTx????	
 521              		.loc 1 140 0
 522 00e6 0121     		movs	r1, #1
 523 00e8 4148     		ldr	r0, .L24+44
 524 00ea FFF7FEFF 		bl	RCC_PERCLK_SetableEx
 525              	.LVL41:
 141:e:/LiteOS/LiteOS/targets/Cloud_FM33A0XX/GCC/../../../targets/Cloud_FM33A0XX/UserCode\los_uart.c **** 			//	UART3 IO ??
 142:e:/LiteOS/LiteOS/targets/Cloud_FM33A0XX/GCC/../../../targets/Cloud_FM33A0XX/UserCode\los_uart.c **** 			AltFunIO(GPIOC, GPIO_Pin_10, 0);	//PC10 UART3 RX
 526              		.loc 1 142 0
 527 00ee 414D     		ldr	r5, .L24+48
 528 00f0 0022     		movs	r2, #0
 529 00f2 8021     		movs	r1, #128
 530 00f4 C900     		lsls	r1, r1, #3
 531 00f6 2800     		movs	r0, r5
 532 00f8 FFF7FEFF 		bl	AltFunIO
 533              	.LVL42:
 143:e:/LiteOS/LiteOS/targets/Cloud_FM33A0XX/GCC/../../../targets/Cloud_FM33A0XX/UserCode\los_uart.c **** 			AltFunIO(GPIOC, GPIO_Pin_11, 0);	//PC11 UART3 TX
 534              		.loc 1 143 0
 535 00fc 0022     		movs	r2, #0
 536 00fe 8021     		movs	r1, #128
 537 0100 0901     		lsls	r1, r1, #4
ARM GAS  C:\Users\WANGBI~1\AppData\Local\Temp\cc4cJIrJ.s 			page 28


 538 0102 2800     		movs	r0, r5
 539 0104 FFF7FEFF 		bl	AltFunIO
 540              	.LVL43:
 541              	.LBB56:
 542              	.LBB57:
 800:e:\liteos\liteos\targets\cloud_fm33a0xx\device\include\core_cm0plus.h ****   }
 543              		.loc 2 800 0
 544 0108 334B     		ldr	r3, .L24+20
 545 010a 8022     		movs	r2, #128
 546 010c 8020     		movs	r0, #128
 547 010e 4001     		lsls	r0, r0, #5
 548 0110 9850     		str	r0, [r3, r2]
 549              	.LVL44:
 550              	.LBE57:
 551              	.LBE56:
 552              	.LBB58:
 553              	.LBB59:
 554              		.loc 2 869 0
 555 0112 C325     		movs	r5, #195
 556 0114 AD00     		lsls	r5, r5, #2
 557 0116 5959     		ldr	r1, [r3, r5]
 558 0118 FF26     		movs	r6, #255
 559 011a B143     		bics	r1, r6
 560 011c 0A43     		orrs	r2, r1
 561 011e 5A51     		str	r2, [r3, r5]
 562              	.LVL45:
 563              	.LBE59:
 564              	.LBE58:
 565              	.LBB60:
 566              	.LBB61:
 785:e:\liteos\liteos\targets\cloud_fm33a0xx\device\include\core_cm0plus.h ****   }
 567              		.loc 2 785 0
 568 0120 1860     		str	r0, [r3]
 569 0122 3CE0     		b	.L16
 570              	.LVL46:
 571              	.L22:
 572              	.LBE61:
 573              	.LBE60:
 144:e:/LiteOS/LiteOS/targets/Cloud_FM33A0XX/GCC/../../../targets/Cloud_FM33A0XX/UserCode\los_uart.c **** 		
 145:e:/LiteOS/LiteOS/targets/Cloud_FM33A0XX/GCC/../../../targets/Cloud_FM33A0XX/UserCode\los_uart.c **** 			/*NVIC????*/
 146:e:/LiteOS/LiteOS/targets/Cloud_FM33A0XX/GCC/../../../targets/Cloud_FM33A0XX/UserCode\los_uart.c **** 			NVIC_DisableIRQ(UART3_IRQn);
 147:e:/LiteOS/LiteOS/targets/Cloud_FM33A0XX/GCC/../../../targets/Cloud_FM33A0XX/UserCode\los_uart.c **** 			NVIC_SetPriority(UART3_IRQn,2);//???????
 148:e:/LiteOS/LiteOS/targets/Cloud_FM33A0XX/GCC/../../../targets/Cloud_FM33A0XX/UserCode\los_uart.c **** 			NVIC_EnableIRQ(UART3_IRQn);	
 149:e:/LiteOS/LiteOS/targets/Cloud_FM33A0XX/GCC/../../../targets/Cloud_FM33A0XX/UserCode\los_uart.c **** 			break;
 150:e:/LiteOS/LiteOS/targets/Cloud_FM33A0XX/GCC/../../../targets/Cloud_FM33A0XX/UserCode\los_uart.c **** 		
 151:e:/LiteOS/LiteOS/targets/Cloud_FM33A0XX/GCC/../../../targets/Cloud_FM33A0XX/UserCode\los_uart.c **** 		case 4:
 152:e:/LiteOS/LiteOS/targets/Cloud_FM33A0XX/GCC/../../../targets/Cloud_FM33A0XX/UserCode\los_uart.c **** 			RCC_PERCLK_SetableEx(UART4CLK, ENABLE);	//UARTx????	
 574              		.loc 1 152 0
 575 0124 0121     		movs	r1, #1
 576 0126 3448     		ldr	r0, .L24+52
 577 0128 FFF7FEFF 		bl	RCC_PERCLK_SetableEx
 578              	.LVL47:
 153:e:/LiteOS/LiteOS/targets/Cloud_FM33A0XX/GCC/../../../targets/Cloud_FM33A0XX/UserCode\los_uart.c **** 			//	UART4 IO ??
 154:e:/LiteOS/LiteOS/targets/Cloud_FM33A0XX/GCC/../../../targets/Cloud_FM33A0XX/UserCode\los_uart.c **** 			AltFunIO(GPIOD, GPIO_Pin_0, 0);		//PD0 UART4 RX
 579              		.loc 1 154 0
 580 012c 334D     		ldr	r5, .L24+56
 581 012e 0022     		movs	r2, #0
ARM GAS  C:\Users\WANGBI~1\AppData\Local\Temp\cc4cJIrJ.s 			page 29


 582 0130 0121     		movs	r1, #1
 583 0132 2800     		movs	r0, r5
 584 0134 FFF7FEFF 		bl	AltFunIO
 585              	.LVL48:
 155:e:/LiteOS/LiteOS/targets/Cloud_FM33A0XX/GCC/../../../targets/Cloud_FM33A0XX/UserCode\los_uart.c **** 			AltFunIO(GPIOD, GPIO_Pin_1, 0);		//PD1 UART4 TX
 586              		.loc 1 155 0
 587 0138 0022     		movs	r2, #0
 588 013a 0221     		movs	r1, #2
 589 013c 2800     		movs	r0, r5
 590 013e FFF7FEFF 		bl	AltFunIO
 591              	.LVL49:
 592              	.LBB62:
 593              	.LBB63:
 800:e:\liteos\liteos\targets\cloud_fm33a0xx\device\include\core_cm0plus.h ****   }
 594              		.loc 2 800 0
 595 0142 254A     		ldr	r2, .L24+20
 596 0144 8021     		movs	r1, #128
 597 0146 8901     		lsls	r1, r1, #6
 598 0148 8023     		movs	r3, #128
 599 014a D150     		str	r1, [r2, r3]
 600              	.LVL50:
 601              	.LBE63:
 602              	.LBE62:
 603              	.LBB64:
 604              	.LBB65:
 605              		.loc 2 869 0
 606 014c C320     		movs	r0, #195
 607 014e 8000     		lsls	r0, r0, #2
 608 0150 1558     		ldr	r5, [r2, r0]
 609 0152 224B     		ldr	r3, .L24+24
 610 0154 2B40     		ands	r3, r5
 611 0156 8025     		movs	r5, #128
 612 0158 2D02     		lsls	r5, r5, #8
 613 015a 2B43     		orrs	r3, r5
 614 015c 1350     		str	r3, [r2, r0]
 615              	.LVL51:
 616              	.LBE65:
 617              	.LBE64:
 618              	.LBB66:
 619              	.LBB67:
 785:e:\liteos\liteos\targets\cloud_fm33a0xx\device\include\core_cm0plus.h ****   }
 620              		.loc 2 785 0
 621 015e 1160     		str	r1, [r2]
 622 0160 1DE0     		b	.L16
 623              	.LVL52:
 624              	.L23:
 625              	.LBE67:
 626              	.LBE66:
 156:e:/LiteOS/LiteOS/targets/Cloud_FM33A0XX/GCC/../../../targets/Cloud_FM33A0XX/UserCode\los_uart.c **** 			//?100?
 157:e:/LiteOS/LiteOS/targets/Cloud_FM33A0XX/GCC/../../../targets/Cloud_FM33A0XX/UserCode\los_uart.c **** 			//AltFunIO(GPIOD, GPIO_Pin_9, 0);		//PD9 UART4 RX
 158:e:/LiteOS/LiteOS/targets/Cloud_FM33A0XX/GCC/../../../targets/Cloud_FM33A0XX/UserCode\los_uart.c **** 			//AltFunIO(GPIOD, GPIO_Pin_10, 0);	//PD10 UART4 TX
 159:e:/LiteOS/LiteOS/targets/Cloud_FM33A0XX/GCC/../../../targets/Cloud_FM33A0XX/UserCode\los_uart.c **** 		
 160:e:/LiteOS/LiteOS/targets/Cloud_FM33A0XX/GCC/../../../targets/Cloud_FM33A0XX/UserCode\los_uart.c **** 			/*NVIC????*/
 161:e:/LiteOS/LiteOS/targets/Cloud_FM33A0XX/GCC/../../../targets/Cloud_FM33A0XX/UserCode\los_uart.c **** 			NVIC_DisableIRQ(UART4_IRQn);
 162:e:/LiteOS/LiteOS/targets/Cloud_FM33A0XX/GCC/../../../targets/Cloud_FM33A0XX/UserCode\los_uart.c **** 			NVIC_SetPriority(UART4_IRQn,2);//???????
 163:e:/LiteOS/LiteOS/targets/Cloud_FM33A0XX/GCC/../../../targets/Cloud_FM33A0XX/UserCode\los_uart.c **** 			NVIC_EnableIRQ(UART4_IRQn);	
 164:e:/LiteOS/LiteOS/targets/Cloud_FM33A0XX/GCC/../../../targets/Cloud_FM33A0XX/UserCode\los_uart.c **** 			break;
ARM GAS  C:\Users\WANGBI~1\AppData\Local\Temp\cc4cJIrJ.s 			page 30


 165:e:/LiteOS/LiteOS/targets/Cloud_FM33A0XX/GCC/../../../targets/Cloud_FM33A0XX/UserCode\los_uart.c **** 		
 166:e:/LiteOS/LiteOS/targets/Cloud_FM33A0XX/GCC/../../../targets/Cloud_FM33A0XX/UserCode\los_uart.c **** 		case 5:
 167:e:/LiteOS/LiteOS/targets/Cloud_FM33A0XX/GCC/../../../targets/Cloud_FM33A0XX/UserCode\los_uart.c **** 			RCC_PERCLK_SetableEx(UART5CLK, ENABLE);	//UARTx????	
 627              		.loc 1 167 0
 628 0162 0121     		movs	r1, #1
 629 0164 2648     		ldr	r0, .L24+60
 630 0166 FFF7FEFF 		bl	RCC_PERCLK_SetableEx
 631              	.LVL53:
 168:e:/LiteOS/LiteOS/targets/Cloud_FM33A0XX/GCC/../../../targets/Cloud_FM33A0XX/UserCode\los_uart.c **** 			//	UART5 IO ??
 169:e:/LiteOS/LiteOS/targets/Cloud_FM33A0XX/GCC/../../../targets/Cloud_FM33A0XX/UserCode\los_uart.c **** 			AltFunIO(GPIOC, GPIO_Pin_4, 0);		//PC4 UART5 RX
 632              		.loc 1 169 0
 633 016a 224D     		ldr	r5, .L24+48
 634 016c 0022     		movs	r2, #0
 635 016e 1021     		movs	r1, #16
 636 0170 2800     		movs	r0, r5
 637 0172 FFF7FEFF 		bl	AltFunIO
 638              	.LVL54:
 170:e:/LiteOS/LiteOS/targets/Cloud_FM33A0XX/GCC/../../../targets/Cloud_FM33A0XX/UserCode\los_uart.c **** 			AltFunIO(GPIOC, GPIO_Pin_5, 0);		//PC5 UART5 TX	
 639              		.loc 1 170 0
 640 0176 0022     		movs	r2, #0
 641 0178 2021     		movs	r1, #32
 642 017a 2800     		movs	r0, r5
 643 017c FFF7FEFF 		bl	AltFunIO
 644              	.LVL55:
 645              	.LBB68:
 646              	.LBB69:
 800:e:\liteos\liteos\targets\cloud_fm33a0xx\device\include\core_cm0plus.h ****   }
 647              		.loc 2 800 0
 648 0180 154A     		ldr	r2, .L24+20
 649 0182 8021     		movs	r1, #128
 650 0184 C901     		lsls	r1, r1, #7
 651 0186 8023     		movs	r3, #128
 652 0188 D150     		str	r1, [r2, r3]
 653              	.LVL56:
 654              	.LBE69:
 655              	.LBE68:
 656              	.LBB70:
 657              	.LBB71:
 658              		.loc 2 869 0
 659 018a C320     		movs	r0, #195
 660 018c 8000     		lsls	r0, r0, #2
 661 018e 1558     		ldr	r5, [r2, r0]
 662 0190 154B     		ldr	r3, .L24+36
 663 0192 2B40     		ands	r3, r5
 664 0194 8025     		movs	r5, #128
 665 0196 2D04     		lsls	r5, r5, #16
 666 0198 2B43     		orrs	r3, r5
 667 019a 1350     		str	r3, [r2, r0]
 668              	.LVL57:
 669              	.LBE71:
 670              	.LBE70:
 671              	.LBB72:
 672              	.LBB73:
 785:e:\liteos\liteos\targets\cloud_fm33a0xx\device\include\core_cm0plus.h ****   }
 673              		.loc 2 785 0
 674 019c 1160     		str	r1, [r2]
 675              	.LVL58:
ARM GAS  C:\Users\WANGBI~1\AppData\Local\Temp\cc4cJIrJ.s 			page 31


 676              	.L16:
 677              	.LBE73:
 678              	.LBE72:
 171:e:/LiteOS/LiteOS/targets/Cloud_FM33A0XX/GCC/../../../targets/Cloud_FM33A0XX/UserCode\los_uart.c **** 		
 172:e:/LiteOS/LiteOS/targets/Cloud_FM33A0XX/GCC/../../../targets/Cloud_FM33A0XX/UserCode\los_uart.c **** 			/*NVIC????*/
 173:e:/LiteOS/LiteOS/targets/Cloud_FM33A0XX/GCC/../../../targets/Cloud_FM33A0XX/UserCode\los_uart.c **** 			NVIC_DisableIRQ(UART5_IRQn);
 174:e:/LiteOS/LiteOS/targets/Cloud_FM33A0XX/GCC/../../../targets/Cloud_FM33A0XX/UserCode\los_uart.c **** 			NVIC_SetPriority(UART5_IRQn,2);//???????
 175:e:/LiteOS/LiteOS/targets/Cloud_FM33A0XX/GCC/../../../targets/Cloud_FM33A0XX/UserCode\los_uart.c **** 			NVIC_EnableIRQ(UART5_IRQn);	
 176:e:/LiteOS/LiteOS/targets/Cloud_FM33A0XX/GCC/../../../targets/Cloud_FM33A0XX/UserCode\los_uart.c **** 			break;
 177:e:/LiteOS/LiteOS/targets/Cloud_FM33A0XX/GCC/../../../targets/Cloud_FM33A0XX/UserCode\los_uart.c **** 		
 178:e:/LiteOS/LiteOS/targets/Cloud_FM33A0XX/GCC/../../../targets/Cloud_FM33A0XX/UserCode\los_uart.c **** 		default:
 179:e:/LiteOS/LiteOS/targets/Cloud_FM33A0XX/GCC/../../../targets/Cloud_FM33A0XX/UserCode\los_uart.c **** 			break;
 180:e:/LiteOS/LiteOS/targets/Cloud_FM33A0XX/GCC/../../../targets/Cloud_FM33A0XX/UserCode\los_uart.c **** 	}
 181:e:/LiteOS/LiteOS/targets/Cloud_FM33A0XX/GCC/../../../targets/Cloud_FM33A0XX/UserCode\los_uart.c **** 
 182:e:/LiteOS/LiteOS/targets/Cloud_FM33A0XX/GCC/../../../targets/Cloud_FM33A0XX/UserCode\los_uart.c **** 	//UART?????
 183:e:/LiteOS/LiteOS/targets/Cloud_FM33A0XX/GCC/../../../targets/Cloud_FM33A0XX/UserCode\los_uart.c **** 	UART_para.BaudRate = 9600;			//???
 679              		.loc 1 183 0
 680 019e 06AD     		add	r5, sp, #24
 681 01a0 9623     		movs	r3, #150
 682 01a2 9B01     		lsls	r3, r3, #6
 683 01a4 0693     		str	r3, [sp, #24]
 184:e:/LiteOS/LiteOS/targets/Cloud_FM33A0XX/GCC/../../../targets/Cloud_FM33A0XX/UserCode\los_uart.c **** 	UART_para.DataBit = Eight8Bit;		//????
 684              		.loc 1 184 0
 685 01a6 0123     		movs	r3, #1
 686 01a8 2B71     		strb	r3, [r5, #4]
 185:e:/LiteOS/LiteOS/targets/Cloud_FM33A0XX/GCC/../../../targets/Cloud_FM33A0XX/UserCode\los_uart.c **** 	UART_para.ParityBit = NONE;			//????
 687              		.loc 1 185 0
 688 01aa 0023     		movs	r3, #0
 689 01ac 6B71     		strb	r3, [r5, #5]
 186:e:/LiteOS/LiteOS/targets/Cloud_FM33A0XX/GCC/../../../targets/Cloud_FM33A0XX/UserCode\los_uart.c **** 	UART_para.StopBit = OneBit;			//???
 690              		.loc 1 186 0
 691 01ae AB71     		strb	r3, [r5, #6]
 187:e:/LiteOS/LiteOS/targets/Cloud_FM33A0XX/GCC/../../../targets/Cloud_FM33A0XX/UserCode\los_uart.c **** 	
 188:e:/LiteOS/LiteOS/targets/Cloud_FM33A0XX/GCC/../../../targets/Cloud_FM33A0XX/UserCode\los_uart.c **** 	RCC_GetClocksFreq(&RCC_Clocks);//??APB????
 692              		.loc 1 188 0
 693 01b0 01A8     		add	r0, sp, #4
 694 01b2 FFF7FEFF 		bl	RCC_GetClocksFreq
 695              	.LVL59:
 189:e:/LiteOS/LiteOS/targets/Cloud_FM33A0XX/GCC/../../../targets/Cloud_FM33A0XX/UserCode\los_uart.c **** 	UART_SInit(UARTx, &UART_para, RCC_Clocks.APBCLK_Frequency);	//???uart
 696              		.loc 1 189 0
 697 01b6 039A     		ldr	r2, [sp, #12]
 698 01b8 2900     		movs	r1, r5
 699 01ba 2000     		movs	r0, r4
 700 01bc FFF7FEFF 		bl	UART_SInit
 701              	.LVL60:
 190:e:/LiteOS/LiteOS/targets/Cloud_FM33A0XX/GCC/../../../targets/Cloud_FM33A0XX/UserCode\los_uart.c **** }
 702              		.loc 1 190 0
 703 01c0 08B0     		add	sp, sp, #32
 704              		@ sp needed
 705              	.LVL61:
 706 01c2 70BD     		pop	{r4, r5, r6, pc}
 707              	.L25:
 708              		.align	2
 709              	.L24:
 710 01c4 0E000003 		.word	50331662
 711 01c8 F4DFFEBF 		.word	-1073815564
 712 01cc 00000000 		.word	.L18
ARM GAS  C:\Users\WANGBI~1\AppData\Local\Temp\cc4cJIrJ.s 			page 32


 713 01d0 08000003 		.word	50331656
 714 01d4 A00C0040 		.word	1073745056
 715 01d8 00E100E0 		.word	-536813312
 716 01dc FF00FFFF 		.word	-65281
 717 01e0 09000003 		.word	50331657
 718 01e4 200C0040 		.word	1073744928
 719 01e8 FFFF00FF 		.word	-16711681
 720 01ec 0A000003 		.word	50331658
 721 01f0 0B000003 		.word	50331659
 722 01f4 400C0040 		.word	1073744960
 723 01f8 0C000003 		.word	50331660
 724 01fc 600C0040 		.word	1073744992
 725 0200 0D000003 		.word	50331661
 726              		.cfi_endproc
 727              	.LFE50:
 729              		.section	.text.los_dev_uart_init,"ax",%progbits
 730              		.align	2
 731              		.global	los_dev_uart_init
 732              		.code	16
 733              		.thumb_func
 735              	los_dev_uart_init:
 736              	.LFB51:
 191:e:/LiteOS/LiteOS/targets/Cloud_FM33A0XX/GCC/../../../targets/Cloud_FM33A0XX/UserCode\los_uart.c **** 
 192:e:/LiteOS/LiteOS/targets/Cloud_FM33A0XX/GCC/../../../targets/Cloud_FM33A0XX/UserCode\los_uart.c **** 
 193:e:/LiteOS/LiteOS/targets/Cloud_FM33A0XX/GCC/../../../targets/Cloud_FM33A0XX/UserCode\los_uart.c **** int los_dev_uart_init(int uartidx, int baudrate, char *buf, int size)
 194:e:/LiteOS/LiteOS/targets/Cloud_FM33A0XX/GCC/../../../targets/Cloud_FM33A0XX/UserCode\los_uart.c **** {
 737              		.loc 1 194 0
 738              		.cfi_startproc
 739              		@ args = 0, pretend = 0, frame = 0
 740              		@ frame_needed = 0, uses_anonymous_args = 0
 741              	.LVL62:
 742 0000 F0B5     		push	{r4, r5, r6, r7, lr}
 743              	.LCFI10:
 744              		.cfi_def_cfa_offset 20
 745              		.cfi_offset 4, -20
 746              		.cfi_offset 5, -16
 747              		.cfi_offset 6, -12
 748              		.cfi_offset 7, -8
 749              		.cfi_offset 14, -4
 750 0002 4F46     		mov	r7, r9
 751 0004 4646     		mov	r6, r8
 752 0006 C0B4     		push	{r6, r7}
 753              	.LCFI11:
 754              		.cfi_def_cfa_offset 28
 755              		.cfi_offset 8, -28
 756              		.cfi_offset 9, -24
 757 0008 83B0     		sub	sp, sp, #12
 758              	.LCFI12:
 759              		.cfi_def_cfa_offset 40
 760 000a 0400     		movs	r4, r0
 761 000c 1600     		movs	r6, r2
 762 000e 1F00     		movs	r7, r3
 763              	.LVL63:
 195:e:/LiteOS/LiteOS/targets/Cloud_FM33A0XX/GCC/../../../targets/Cloud_FM33A0XX/UserCode\los_uart.c ****     int ret = -1;
 196:e:/LiteOS/LiteOS/targets/Cloud_FM33A0XX/GCC/../../../targets/Cloud_FM33A0XX/UserCode\los_uart.c **** 	UARTx_Type* UARTx;
 197:e:/LiteOS/LiteOS/targets/Cloud_FM33A0XX/GCC/../../../targets/Cloud_FM33A0XX/UserCode\los_uart.c **** 	UARTx = UARTHandle[uartidx];
 764              		.loc 1 197 0
ARM GAS  C:\Users\WANGBI~1\AppData\Local\Temp\cc4cJIrJ.s 			page 33


 765 0010 8200     		lsls	r2, r0, #2
 766              	.LVL64:
 767 0012 224B     		ldr	r3, .L28
 768              	.LVL65:
 769 0014 D558     		ldr	r5, [r2, r3]
 770              	.LVL66:
 198:e:/LiteOS/LiteOS/targets/Cloud_FM33A0XX/GCC/../../../targets/Cloud_FM33A0XX/UserCode\los_uart.c **** 	if((uartidx < 0)||(uartidx >= CN_AF30XX_COM_NUM)||(NULL ==buf)||(size == 0))
 771              		.loc 1 198 0
 772 0016 0528     		cmp	r0, #5
 773 0018 38D8     		bhi	.L27
 774              		.loc 1 198 0 is_stmt 0 discriminator 1
 775 001a 002E     		cmp	r6, #0
 776 001c 36D0     		beq	.L27
 777              		.loc 1 198 0 discriminator 2
 778 001e 002F     		cmp	r7, #0
 779 0020 34D0     		beq	.L27
 199:e:/LiteOS/LiteOS/targets/Cloud_FM33A0XX/GCC/../../../targets/Cloud_FM33A0XX/UserCode\los_uart.c **** 	{
 200:e:/LiteOS/LiteOS/targets/Cloud_FM33A0XX/GCC/../../../targets/Cloud_FM33A0XX/UserCode\los_uart.c **** 		return ret;
 201:e:/LiteOS/LiteOS/targets/Cloud_FM33A0XX/GCC/../../../targets/Cloud_FM33A0XX/UserCode\los_uart.c **** 	}
 202:e:/LiteOS/LiteOS/targets/Cloud_FM33A0XX/GCC/../../../targets/Cloud_FM33A0XX/UserCode\los_uart.c **** 	Uartx_Init(UARTx);//???uart??
 780              		.loc 1 202 0 is_stmt 1
 781 0022 2800     		movs	r0, r5
 782              	.LVL67:
 783 0024 FFF7FEFF 		bl	Uartx_Init
 784              	.LVL68:
 203:e:/LiteOS/LiteOS/targets/Cloud_FM33A0XX/GCC/../../../targets/Cloud_FM33A0XX/UserCode\los_uart.c **** 	UARTx_RXSTA_RXEN_Setable(UARTx, ENABLE);		//??????
 785              		.loc 1 203 0
 786 0028 0121     		movs	r1, #1
 787 002a 2800     		movs	r0, r5
 788 002c FFF7FEFF 		bl	UARTx_RXSTA_RXEN_Setable
 789              	.LVL69:
 204:e:/LiteOS/LiteOS/targets/Cloud_FM33A0XX/GCC/../../../targets/Cloud_FM33A0XX/UserCode\los_uart.c **** 	UARTx_TXSTA_TXEN_Setable(UARTx, ENABLE);		//??????
 790              		.loc 1 204 0
 791 0030 0121     		movs	r1, #1
 792 0032 2800     		movs	r0, r5
 793 0034 FFF7FEFF 		bl	UARTx_TXSTA_TXEN_Setable
 794              	.LVL70:
 205:e:/LiteOS/LiteOS/targets/Cloud_FM33A0XX/GCC/../../../targets/Cloud_FM33A0XX/UserCode\los_uart.c **** 	UART_UARTIE_RxTxIE_SetableEx(UARTx, RxInt, ENABLE);//??????
 795              		.loc 1 205 0
 796 0038 0122     		movs	r2, #1
 797 003a 0021     		movs	r1, #0
 798 003c 2800     		movs	r0, r5
 799 003e FFF7FEFF 		bl	UART_UARTIE_RxTxIE_SetableEx
 800              	.LVL71:
 206:e:/LiteOS/LiteOS/targets/Cloud_FM33A0XX/GCC/../../../targets/Cloud_FM33A0XX/UserCode\los_uart.c **** 
 207:e:/LiteOS/LiteOS/targets/Cloud_FM33A0XX/GCC/../../../targets/Cloud_FM33A0XX/UserCode\los_uart.c **** 	RingInit(&gUARTCB[uartidx].rx,buf,size,0,0);
 801              		.loc 1 207 0
 802 0042 2C23     		movs	r3, #44
 803 0044 5C43     		muls	r4, r3
 804              	.LVL72:
 805 0046 2000     		movs	r0, r4
 806 0048 1030     		adds	r0, r0, #16
 807 004a 154B     		ldr	r3, .L28+4
 808 004c 9846     		mov	r8, r3
 809 004e 4044     		add	r0, r0, r8
 810 0050 0430     		adds	r0, r0, #4
 811 0052 0023     		movs	r3, #0
ARM GAS  C:\Users\WANGBI~1\AppData\Local\Temp\cc4cJIrJ.s 			page 34


 812 0054 9946     		mov	r9, r3
 813 0056 0093     		str	r3, [sp]
 814 0058 3A00     		movs	r2, r7
 815 005a 3100     		movs	r1, r6
 816 005c FFF7FEFF 		bl	RingInit
 817              	.LVL73:
 208:e:/LiteOS/LiteOS/targets/Cloud_FM33A0XX/GCC/../../../targets/Cloud_FM33A0XX/UserCode\los_uart.c **** 	RingInit(&gUARTCB[uartidx].tx,NULL,0,0,0);
 818              		.loc 1 208 0
 819 0060 4346     		mov	r3, r8
 820 0062 E018     		adds	r0, r4, r3
 821 0064 0430     		adds	r0, r0, #4
 822 0066 4B46     		mov	r3, r9
 823 0068 0093     		str	r3, [sp]
 824 006a 0022     		movs	r2, #0
 825 006c 0021     		movs	r1, #0
 826 006e FFF7FEFF 		bl	RingInit
 827              	.LVL74:
 209:e:/LiteOS/LiteOS/targets/Cloud_FM33A0XX/GCC/../../../targets/Cloud_FM33A0XX/UserCode\los_uart.c **** 	LOS_MuxCreate(&gUARTCB[uartidx].rmutex);
 828              		.loc 1 209 0
 829 0072 2000     		movs	r0, r4
 830 0074 2030     		adds	r0, r0, #32
 831 0076 4044     		add	r0, r0, r8
 832 0078 0430     		adds	r0, r0, #4
 833 007a FFF7FEFF 		bl	LOS_MuxCreate
 834              	.LVL75:
 210:e:/LiteOS/LiteOS/targets/Cloud_FM33A0XX/GCC/../../../targets/Cloud_FM33A0XX/UserCode\los_uart.c **** 	LOS_MuxCreate(&gUARTCB[uartidx].wmutex);
 835              		.loc 1 210 0
 836 007e 2000     		movs	r0, r4
 837 0080 2830     		adds	r0, r0, #40
 838 0082 4044     		add	r0, r0, r8
 839 0084 FFF7FEFF 		bl	LOS_MuxCreate
 840              	.LVL76:
 211:e:/LiteOS/LiteOS/targets/Cloud_FM33A0XX/GCC/../../../targets/Cloud_FM33A0XX/UserCode\los_uart.c **** 	gUARTCB[uartidx].UARTHandle = UARTx;
 841              		.loc 1 211 0
 842 0088 4346     		mov	r3, r8
 843 008a E550     		str	r5, [r4, r3]
 844              	.L27:
 212:e:/LiteOS/LiteOS/targets/Cloud_FM33A0XX/GCC/../../../targets/Cloud_FM33A0XX/UserCode\los_uart.c ****     return ret;
 213:e:/LiteOS/LiteOS/targets/Cloud_FM33A0XX/GCC/../../../targets/Cloud_FM33A0XX/UserCode\los_uart.c **** }
 845              		.loc 1 213 0
 846 008c 0120     		movs	r0, #1
 847 008e 4042     		rsbs	r0, r0, #0
 848 0090 03B0     		add	sp, sp, #12
 849              		@ sp needed
 850              	.LVL77:
 851              	.LVL78:
 852              	.LVL79:
 853 0092 0CBC     		pop	{r2, r3}
 854 0094 9046     		mov	r8, r2
 855 0096 9946     		mov	r9, r3
 856 0098 F0BD     		pop	{r4, r5, r6, r7, pc}
 857              	.L29:
 858 009a C046     		.align	2
 859              	.L28:
 860 009c 00000000 		.word	.LANCHOR0
 861 00a0 00000000 		.word	gUARTCB
 862              		.cfi_endproc
ARM GAS  C:\Users\WANGBI~1\AppData\Local\Temp\cc4cJIrJ.s 			page 35


 863              	.LFE51:
 865              		.section	.text.los_dev_uart_read,"ax",%progbits
 866              		.align	2
 867              		.global	los_dev_uart_read
 868              		.code	16
 869              		.thumb_func
 871              	los_dev_uart_read:
 872              	.LFB52:
 214:e:/LiteOS/LiteOS/targets/Cloud_FM33A0XX/GCC/../../../targets/Cloud_FM33A0XX/UserCode\los_uart.c **** 
 215:e:/LiteOS/LiteOS/targets/Cloud_FM33A0XX/GCC/../../../targets/Cloud_FM33A0XX/UserCode\los_uart.c **** int los_dev_uart_read(int uartidx, char *outbuf, int rsize, int mstimeout)
 216:e:/LiteOS/LiteOS/targets/Cloud_FM33A0XX/GCC/../../../targets/Cloud_FM33A0XX/UserCode\los_uart.c **** {
 873              		.loc 1 216 0
 874              		.cfi_startproc
 875              		@ args = 0, pretend = 0, frame = 0
 876              		@ frame_needed = 0, uses_anonymous_args = 0
 877              	.LVL80:
 878 0000 F0B5     		push	{r4, r5, r6, r7, lr}
 879              	.LCFI13:
 880              		.cfi_def_cfa_offset 20
 881              		.cfi_offset 4, -20
 882              		.cfi_offset 5, -16
 883              		.cfi_offset 6, -12
 884              		.cfi_offset 7, -8
 885              		.cfi_offset 14, -4
 886 0002 4746     		mov	r7, r8
 887 0004 80B4     		push	{r7}
 888              	.LCFI14:
 889              		.cfi_def_cfa_offset 24
 890              		.cfi_offset 8, -24
 891 0006 0600     		movs	r6, r0
 892 0008 0C00     		movs	r4, r1
 893 000a 1700     		movs	r7, r2
 894 000c 1D00     		movs	r5, r3
 895              	.LVL81:
 217:e:/LiteOS/LiteOS/targets/Cloud_FM33A0XX/GCC/../../../targets/Cloud_FM33A0XX/UserCode\los_uart.c ****   int ret = 0;
 218:e:/LiteOS/LiteOS/targets/Cloud_FM33A0XX/GCC/../../../targets/Cloud_FM33A0XX/UserCode\los_uart.c **** 	if((uartidx < 0)||(uartidx >= CN_AF30XX_COM_NUM)||(NULL ==outbuf)||(rsize == 0))
 896              		.loc 1 218 0
 897 000e 0528     		cmp	r0, #5
 898 0010 3DD8     		bhi	.L36
 899              		.loc 1 218 0 is_stmt 0 discriminator 1
 900 0012 0029     		cmp	r1, #0
 901 0014 3DD0     		beq	.L37
 902              		.loc 1 218 0 discriminator 2
 903 0016 002A     		cmp	r2, #0
 904 0018 3DD0     		beq	.L38
 219:e:/LiteOS/LiteOS/targets/Cloud_FM33A0XX/GCC/../../../targets/Cloud_FM33A0XX/UserCode\los_uart.c **** 	{
 220:e:/LiteOS/LiteOS/targets/Cloud_FM33A0XX/GCC/../../../targets/Cloud_FM33A0XX/UserCode\los_uart.c **** 		return ret;
 221:e:/LiteOS/LiteOS/targets/Cloud_FM33A0XX/GCC/../../../targets/Cloud_FM33A0XX/UserCode\los_uart.c **** 	}
 222:e:/LiteOS/LiteOS/targets/Cloud_FM33A0XX/GCC/../../../targets/Cloud_FM33A0XX/UserCode\los_uart.c **** 	if(LOS_MuxPend(gUARTCB[uartidx].rmutex,CN_UART_SYNCTIMEOUT)==LOS_OK)
 905              		.loc 1 222 0 is_stmt 1
 906 001a 2C23     		movs	r3, #44
 907              	.LVL82:
 908 001c 4343     		muls	r3, r0
 909 001e 204A     		ldr	r2, .L40
 910              	.LVL83:
 911 0020 D318     		adds	r3, r2, r3
 912 0022 586A     		ldr	r0, [r3, #36]
ARM GAS  C:\Users\WANGBI~1\AppData\Local\Temp\cc4cJIrJ.s 			page 36


 913              	.LVL84:
 914 0024 FA21     		movs	r1, #250
 915              	.LVL85:
 916 0026 8900     		lsls	r1, r1, #2
 917 0028 FFF7FEFF 		bl	LOS_MuxPend
 918              	.LVL86:
 919 002c 0028     		cmp	r0, #0
 920 002e 23D1     		bne	.L39
 921              	.L35:
 223:e:/LiteOS/LiteOS/targets/Cloud_FM33A0XX/GCC/../../../targets/Cloud_FM33A0XX/UserCode\los_uart.c **** 	{
 224:e:/LiteOS/LiteOS/targets/Cloud_FM33A0XX/GCC/../../../targets/Cloud_FM33A0XX/UserCode\los_uart.c **** 		do{
 225:e:/LiteOS/LiteOS/targets/Cloud_FM33A0XX/GCC/../../../targets/Cloud_FM33A0XX/UserCode\los_uart.c **** 			if(mstimeout > 0)
 922              		.loc 1 225 0
 923 0030 002D     		cmp	r5, #0
 924 0032 03DD     		ble	.L33
 226:e:/LiteOS/LiteOS/targets/Cloud_FM33A0XX/GCC/../../../targets/Cloud_FM33A0XX/UserCode\los_uart.c **** 			{
 227:e:/LiteOS/LiteOS/targets/Cloud_FM33A0XX/GCC/../../../targets/Cloud_FM33A0XX/UserCode\los_uart.c **** 				LOS_TaskDelay(1);
 925              		.loc 1 227 0
 926 0034 0120     		movs	r0, #1
 927 0036 FFF7FEFF 		bl	LOS_TaskDelay
 928              	.LVL87:
 228:e:/LiteOS/LiteOS/targets/Cloud_FM33A0XX/GCC/../../../targets/Cloud_FM33A0XX/UserCode\los_uart.c **** 				mstimeout--;
 929              		.loc 1 228 0
 930 003a 013D     		subs	r5, r5, #1
 931              	.LVL88:
 932              	.L33:
 229:e:/LiteOS/LiteOS/targets/Cloud_FM33A0XX/GCC/../../../targets/Cloud_FM33A0XX/UserCode\los_uart.c **** 			}
 230:e:/LiteOS/LiteOS/targets/Cloud_FM33A0XX/GCC/../../../targets/Cloud_FM33A0XX/UserCode\los_uart.c **** 		}while((mstimeout > 0)&&(RingDataLen(&gUARTCB[uartidx].rx) < rsize));
 933              		.loc 1 230 0
 934 003c 002D     		cmp	r5, #0
 935 003e 09DD     		ble	.L34
 936              		.loc 1 230 0 is_stmt 0 discriminator 1
 937 0040 2C20     		movs	r0, #44
 938 0042 7043     		muls	r0, r6
 939 0044 1030     		adds	r0, r0, #16
 940 0046 164B     		ldr	r3, .L40
 941 0048 C018     		adds	r0, r0, r3
 942 004a 0430     		adds	r0, r0, #4
 943 004c FFF7FEFF 		bl	RingDataLen
 944              	.LVL89:
 945 0050 8742     		cmp	r7, r0
 946 0052 EDDC     		bgt	.L35
 947              	.L34:
 231:e:/LiteOS/LiteOS/targets/Cloud_FM33A0XX/GCC/../../../targets/Cloud_FM33A0XX/UserCode\los_uart.c **** 		//copy the data here
 232:e:/LiteOS/LiteOS/targets/Cloud_FM33A0XX/GCC/../../../targets/Cloud_FM33A0XX/UserCode\los_uart.c **** 		ret = RingRead(&gUARTCB[uartidx].rx,outbuf,rsize);
 948              		.loc 1 232 0 is_stmt 1
 949 0054 2C23     		movs	r3, #44
 950 0056 5E43     		muls	r6, r3
 951              	.LVL90:
 952 0058 3000     		movs	r0, r6
 953 005a 1030     		adds	r0, r0, #16
 954 005c 104B     		ldr	r3, .L40
 955 005e 9846     		mov	r8, r3
 956 0060 4044     		add	r0, r0, r8
 957 0062 0430     		adds	r0, r0, #4
 958 0064 3A00     		movs	r2, r7
 959 0066 2100     		movs	r1, r4
ARM GAS  C:\Users\WANGBI~1\AppData\Local\Temp\cc4cJIrJ.s 			page 37


 960 0068 FFF7FEFF 		bl	RingRead
 961              	.LVL91:
 962 006c 0500     		movs	r5, r0
 963              	.LVL92:
 233:e:/LiteOS/LiteOS/targets/Cloud_FM33A0XX/GCC/../../../targets/Cloud_FM33A0XX/UserCode\los_uart.c **** 		LOS_MuxPost(gUARTCB[uartidx].rmutex);
 964              		.loc 1 233 0
 965 006e 4644     		add	r6, r6, r8
 966 0070 706A     		ldr	r0, [r6, #36]
 967              	.LVL93:
 968 0072 FFF7FEFF 		bl	LOS_MuxPost
 969              	.LVL94:
 970 0076 00E0     		b	.L32
 971              	.LVL95:
 972              	.L39:
 217:e:/LiteOS/LiteOS/targets/Cloud_FM33A0XX/GCC/../../../targets/Cloud_FM33A0XX/UserCode\los_uart.c **** 	if((uartidx < 0)||(uartidx >= CN_AF30XX_COM_NUM)||(NULL ==outbuf)||(rsize == 0))
 973              		.loc 1 217 0
 974 0078 0025     		movs	r5, #0
 975              	.LVL96:
 976              	.L32:
 234:e:/LiteOS/LiteOS/targets/Cloud_FM33A0XX/GCC/../../../targets/Cloud_FM33A0XX/UserCode\los_uart.c **** 	}
 235:e:/LiteOS/LiteOS/targets/Cloud_FM33A0XX/GCC/../../../targets/Cloud_FM33A0XX/UserCode\los_uart.c **** 	if(ret > 0)
 977              		.loc 1 235 0
 978 007a 002D     		cmp	r5, #0
 979 007c 0CDD     		ble	.L31
 236:e:/LiteOS/LiteOS/targets/Cloud_FM33A0XX/GCC/../../../targets/Cloud_FM33A0XX/UserCode\los_uart.c **** 	{
 237:e:/LiteOS/LiteOS/targets/Cloud_FM33A0XX/GCC/../../../targets/Cloud_FM33A0XX/UserCode\los_uart.c **** 		outbuf[rsize] = 0;
 980              		.loc 1 237 0
 981 007e E719     		adds	r7, r4, r7
 982              	.LVL97:
 983 0080 0023     		movs	r3, #0
 984 0082 3B70     		strb	r3, [r7]
 238:e:/LiteOS/LiteOS/targets/Cloud_FM33A0XX/GCC/../../../targets/Cloud_FM33A0XX/UserCode\los_uart.c **** 		printf("%s",outbuf);
 985              		.loc 1 238 0
 986 0084 2100     		movs	r1, r4
 987 0086 0748     		ldr	r0, .L40+4
 988 0088 FFF7FEFF 		bl	printf
 989              	.LVL98:
 990 008c 04E0     		b	.L31
 991              	.LVL99:
 992              	.L36:
 220:e:/LiteOS/LiteOS/targets/Cloud_FM33A0XX/GCC/../../../targets/Cloud_FM33A0XX/UserCode\los_uart.c **** 	}
 993              		.loc 1 220 0
 994 008e 0025     		movs	r5, #0
 995 0090 02E0     		b	.L31
 996              	.L37:
 997 0092 0025     		movs	r5, #0
 998 0094 00E0     		b	.L31
 999              	.L38:
 1000 0096 0025     		movs	r5, #0
 1001              	.LVL100:
 1002              	.L31:
 239:e:/LiteOS/LiteOS/targets/Cloud_FM33A0XX/GCC/../../../targets/Cloud_FM33A0XX/UserCode\los_uart.c **** 	}
 240:e:/LiteOS/LiteOS/targets/Cloud_FM33A0XX/GCC/../../../targets/Cloud_FM33A0XX/UserCode\los_uart.c ****     return ret;
 241:e:/LiteOS/LiteOS/targets/Cloud_FM33A0XX/GCC/../../../targets/Cloud_FM33A0XX/UserCode\los_uart.c **** }	
 1003              		.loc 1 241 0
 1004 0098 2800     		movs	r0, r5
 1005              		@ sp needed
ARM GAS  C:\Users\WANGBI~1\AppData\Local\Temp\cc4cJIrJ.s 			page 38


 1006              	.LVL101:
 1007 009a 04BC     		pop	{r2}
 1008 009c 9046     		mov	r8, r2
 1009 009e F0BD     		pop	{r4, r5, r6, r7, pc}
 1010              	.L41:
 1011              		.align	2
 1012              	.L40:
 1013 00a0 00000000 		.word	gUARTCB
 1014 00a4 00000000 		.word	.LC5
 1015              		.cfi_endproc
 1016              	.LFE52:
 1018              		.section	.text.los_dev_uart_write,"ax",%progbits
 1019              		.align	2
 1020              		.global	los_dev_uart_write
 1021              		.code	16
 1022              		.thumb_func
 1024              	los_dev_uart_write:
 1025              	.LFB53:
 242:e:/LiteOS/LiteOS/targets/Cloud_FM33A0XX/GCC/../../../targets/Cloud_FM33A0XX/UserCode\los_uart.c **** 
 243:e:/LiteOS/LiteOS/targets/Cloud_FM33A0XX/GCC/../../../targets/Cloud_FM33A0XX/UserCode\los_uart.c **** int los_dev_uart_write(int uartidx, char *inbuf, int wsize, int mstimeout)
 244:e:/LiteOS/LiteOS/targets/Cloud_FM33A0XX/GCC/../../../targets/Cloud_FM33A0XX/UserCode\los_uart.c **** {
 1026              		.loc 1 244 0
 1027              		.cfi_startproc
 1028              		@ args = 0, pretend = 0, frame = 0
 1029              		@ frame_needed = 0, uses_anonymous_args = 0
 1030              	.LVL102:
 1031 0000 F0B5     		push	{r4, r5, r6, r7, lr}
 1032              	.LCFI15:
 1033              		.cfi_def_cfa_offset 20
 1034              		.cfi_offset 4, -20
 1035              		.cfi_offset 5, -16
 1036              		.cfi_offset 6, -12
 1037              		.cfi_offset 7, -8
 1038              		.cfi_offset 14, -4
 1039 0002 83B0     		sub	sp, sp, #12
 1040              	.LCFI16:
 1041              		.cfi_def_cfa_offset 32
 1042 0004 0400     		movs	r4, r0
 1043 0006 0D00     		movs	r5, r1
 1044 0008 1600     		movs	r6, r2
 1045              	.LVL103:
 245:e:/LiteOS/LiteOS/targets/Cloud_FM33A0XX/GCC/../../../targets/Cloud_FM33A0XX/UserCode\los_uart.c ****   int ret = 0;
 246:e:/LiteOS/LiteOS/targets/Cloud_FM33A0XX/GCC/../../../targets/Cloud_FM33A0XX/UserCode\los_uart.c ****   UARTx_Type* UARTx;
 247:e:/LiteOS/LiteOS/targets/Cloud_FM33A0XX/GCC/../../../targets/Cloud_FM33A0XX/UserCode\los_uart.c **** 	UARTx = UARTHandle[uartidx];
 1046              		.loc 1 247 0
 1047 000a 8200     		lsls	r2, r0, #2
 1048              	.LVL104:
 1049 000c 194B     		ldr	r3, .L44
 1050              	.LVL105:
 1051 000e D758     		ldr	r7, [r2, r3]
 1052              	.LVL106:
 248:e:/LiteOS/LiteOS/targets/Cloud_FM33A0XX/GCC/../../../targets/Cloud_FM33A0XX/UserCode\los_uart.c **** 	if((uartidx < 0)||(uartidx >= CN_AF30XX_COM_NUM)||(NULL ==inbuf)||(wsize == 0))
 1053              		.loc 1 248 0
 1054 0010 0528     		cmp	r0, #5
 1055 0012 2CD8     		bhi	.L43
 1056              		.loc 1 248 0 is_stmt 0 discriminator 1
 1057 0014 0029     		cmp	r1, #0
ARM GAS  C:\Users\WANGBI~1\AppData\Local\Temp\cc4cJIrJ.s 			page 39


 1058 0016 2AD0     		beq	.L43
 1059              		.loc 1 248 0 discriminator 2
 1060 0018 002E     		cmp	r6, #0
 1061 001a 28D0     		beq	.L43
 249:e:/LiteOS/LiteOS/targets/Cloud_FM33A0XX/GCC/../../../targets/Cloud_FM33A0XX/UserCode\los_uart.c **** 	{
 250:e:/LiteOS/LiteOS/targets/Cloud_FM33A0XX/GCC/../../../targets/Cloud_FM33A0XX/UserCode\los_uart.c **** 		return ret;
 251:e:/LiteOS/LiteOS/targets/Cloud_FM33A0XX/GCC/../../../targets/Cloud_FM33A0XX/UserCode\los_uart.c **** 	}
 252:e:/LiteOS/LiteOS/targets/Cloud_FM33A0XX/GCC/../../../targets/Cloud_FM33A0XX/UserCode\los_uart.c **** 
 253:e:/LiteOS/LiteOS/targets/Cloud_FM33A0XX/GCC/../../../targets/Cloud_FM33A0XX/UserCode\los_uart.c **** 	if(LOS_MuxPend(gUARTCB[uartidx].wmutex,CN_UART_SYNCTIMEOUT)==LOS_OK)
 1062              		.loc 1 253 0 is_stmt 1
 1063 001c 2C23     		movs	r3, #44
 1064 001e 4343     		muls	r3, r0
 1065 0020 154A     		ldr	r2, .L44+4
 1066 0022 D318     		adds	r3, r2, r3
 1067 0024 986A     		ldr	r0, [r3, #40]
 1068              	.LVL107:
 1069 0026 FA21     		movs	r1, #250
 1070              	.LVL108:
 1071 0028 8900     		lsls	r1, r1, #2
 1072 002a FFF7FEFF 		bl	LOS_MuxPend
 1073              	.LVL109:
 1074 002e 0028     		cmp	r0, #0
 1075 0030 1DD1     		bne	.L43
 254:e:/LiteOS/LiteOS/targets/Cloud_FM33A0XX/GCC/../../../targets/Cloud_FM33A0XX/UserCode\los_uart.c **** 	{
 255:e:/LiteOS/LiteOS/targets/Cloud_FM33A0XX/GCC/../../../targets/Cloud_FM33A0XX/UserCode\los_uart.c **** 		RingInit(&gUARTCB[uartidx].tx,inbuf,wsize,1,wsize-1);
 1076              		.loc 1 255 0
 1077 0032 2C23     		movs	r3, #44
 1078 0034 5C43     		muls	r4, r3
 1079              	.LVL110:
 1080 0036 104B     		ldr	r3, .L44+4
 1081 0038 E418     		adds	r4, r4, r3
 1082 003a 201D     		adds	r0, r4, #4
 1083 003c 731E     		subs	r3, r6, #1
 1084 003e 0093     		str	r3, [sp]
 1085 0040 0123     		movs	r3, #1
 1086 0042 3200     		movs	r2, r6
 1087 0044 2900     		movs	r1, r5
 1088 0046 FFF7FEFF 		bl	RingInit
 1089              	.LVL111:
 256:e:/LiteOS/LiteOS/targets/Cloud_FM33A0XX/GCC/../../../targets/Cloud_FM33A0XX/UserCode\los_uart.c **** 
 257:e:/LiteOS/LiteOS/targets/Cloud_FM33A0XX/GCC/../../../targets/Cloud_FM33A0XX/UserCode\los_uart.c **** 		UART_UARTIF_RxTxIF_ClrEx(UARTx);
 1090              		.loc 1 257 0
 1091 004a 3800     		movs	r0, r7
 1092 004c FFF7FEFF 		bl	UART_UARTIF_RxTxIF_ClrEx
 1093              	.LVL112:
 258:e:/LiteOS/LiteOS/targets/Cloud_FM33A0XX/GCC/../../../targets/Cloud_FM33A0XX/UserCode\los_uart.c **** 		UART_UARTIE_RxTxIE_SetableEx(UARTx, TxInt, ENABLE);
 1094              		.loc 1 258 0
 1095 0050 0122     		movs	r2, #1
 1096 0052 0121     		movs	r1, #1
 1097 0054 3800     		movs	r0, r7
 1098 0056 FFF7FEFF 		bl	UART_UARTIE_RxTxIE_SetableEx
 1099              	.LVL113:
 259:e:/LiteOS/LiteOS/targets/Cloud_FM33A0XX/GCC/../../../targets/Cloud_FM33A0XX/UserCode\los_uart.c **** 		UARTx_TXREG_Write(UARTx,inbuf[0]);
 1100              		.loc 1 259 0
 1101 005a 2978     		ldrb	r1, [r5]
 1102 005c 3800     		movs	r0, r7
 1103 005e FFF7FEFF 		bl	UARTx_TXREG_Write
ARM GAS  C:\Users\WANGBI~1\AppData\Local\Temp\cc4cJIrJ.s 			page 40


 1104              	.LVL114:
 260:e:/LiteOS/LiteOS/targets/Cloud_FM33A0XX/GCC/../../../targets/Cloud_FM33A0XX/UserCode\los_uart.c **** 		LOS_TaskDelay(10);
 1105              		.loc 1 260 0
 1106 0062 0A20     		movs	r0, #10
 1107 0064 FFF7FEFF 		bl	LOS_TaskDelay
 1108              	.LVL115:
 261:e:/LiteOS/LiteOS/targets/Cloud_FM33A0XX/GCC/../../../targets/Cloud_FM33A0XX/UserCode\los_uart.c **** 		LOS_MuxPost(gUARTCB[uartidx].wmutex);
 1109              		.loc 1 261 0
 1110 0068 A06A     		ldr	r0, [r4, #40]
 1111 006a FFF7FEFF 		bl	LOS_MuxPost
 1112              	.LVL116:
 1113              	.L43:
 262:e:/LiteOS/LiteOS/targets/Cloud_FM33A0XX/GCC/../../../targets/Cloud_FM33A0XX/UserCode\los_uart.c **** 	}
 263:e:/LiteOS/LiteOS/targets/Cloud_FM33A0XX/GCC/../../../targets/Cloud_FM33A0XX/UserCode\los_uart.c ****     return ret;
 264:e:/LiteOS/LiteOS/targets/Cloud_FM33A0XX/GCC/../../../targets/Cloud_FM33A0XX/UserCode\los_uart.c **** }
 1114              		.loc 1 264 0
 1115 006e 0020     		movs	r0, #0
 1116 0070 03B0     		add	sp, sp, #12
 1117              		@ sp needed
 1118              	.LVL117:
 1119              	.LVL118:
 1120              	.LVL119:
 1121 0072 F0BD     		pop	{r4, r5, r6, r7, pc}
 1122              	.L45:
 1123              		.align	2
 1124              	.L44:
 1125 0074 00000000 		.word	.LANCHOR0
 1126 0078 00000000 		.word	gUARTCB
 1127              		.cfi_endproc
 1128              	.LFE53:
 1130              		.section	.text.los_dev_uart_rflush,"ax",%progbits
 1131              		.align	2
 1132              		.global	los_dev_uart_rflush
 1133              		.code	16
 1134              		.thumb_func
 1136              	los_dev_uart_rflush:
 1137              	.LFB54:
 265:e:/LiteOS/LiteOS/targets/Cloud_FM33A0XX/GCC/../../../targets/Cloud_FM33A0XX/UserCode\los_uart.c **** 
 266:e:/LiteOS/LiteOS/targets/Cloud_FM33A0XX/GCC/../../../targets/Cloud_FM33A0XX/UserCode\los_uart.c **** int los_dev_uart_rflush(int uartidx)
 267:e:/LiteOS/LiteOS/targets/Cloud_FM33A0XX/GCC/../../../targets/Cloud_FM33A0XX/UserCode\los_uart.c **** {
 1138              		.loc 1 267 0
 1139              		.cfi_startproc
 1140              		@ args = 0, pretend = 0, frame = 0
 1141              		@ frame_needed = 0, uses_anonymous_args = 0
 1142              	.LVL120:
 1143 0000 10B5     		push	{r4, lr}
 1144              	.LCFI17:
 1145              		.cfi_def_cfa_offset 8
 1146              		.cfi_offset 4, -8
 1147              		.cfi_offset 14, -4
 1148 0002 0400     		movs	r4, r0
 1149              	.LVL121:
 268:e:/LiteOS/LiteOS/targets/Cloud_FM33A0XX/GCC/../../../targets/Cloud_FM33A0XX/UserCode\los_uart.c **** 	int ret = 0;
 269:e:/LiteOS/LiteOS/targets/Cloud_FM33A0XX/GCC/../../../targets/Cloud_FM33A0XX/UserCode\los_uart.c **** 	if((uartidx < 0)||(uartidx >= CN_AF30XX_COM_NUM))
 1150              		.loc 1 269 0
 1151 0004 0528     		cmp	r0, #5
 1152 0006 14D8     		bhi	.L47
ARM GAS  C:\Users\WANGBI~1\AppData\Local\Temp\cc4cJIrJ.s 			page 41


 270:e:/LiteOS/LiteOS/targets/Cloud_FM33A0XX/GCC/../../../targets/Cloud_FM33A0XX/UserCode\los_uart.c **** 	{
 271:e:/LiteOS/LiteOS/targets/Cloud_FM33A0XX/GCC/../../../targets/Cloud_FM33A0XX/UserCode\los_uart.c **** 		return ret;
 272:e:/LiteOS/LiteOS/targets/Cloud_FM33A0XX/GCC/../../../targets/Cloud_FM33A0XX/UserCode\los_uart.c **** 	}
 273:e:/LiteOS/LiteOS/targets/Cloud_FM33A0XX/GCC/../../../targets/Cloud_FM33A0XX/UserCode\los_uart.c **** 	if(LOS_MuxPend(gUARTCB[uartidx].rmutex,CN_UART_SYNCTIMEOUT)==LOS_OK)
 1153              		.loc 1 273 0
 1154 0008 2C23     		movs	r3, #44
 1155 000a 4343     		muls	r3, r0
 1156 000c 0A4A     		ldr	r2, .L48
 1157 000e D318     		adds	r3, r2, r3
 1158 0010 586A     		ldr	r0, [r3, #36]
 1159              	.LVL122:
 1160 0012 FA21     		movs	r1, #250
 1161 0014 8900     		lsls	r1, r1, #2
 1162 0016 FFF7FEFF 		bl	LOS_MuxPend
 1163              	.LVL123:
 1164 001a 0028     		cmp	r0, #0
 1165 001c 09D1     		bne	.L47
 274:e:/LiteOS/LiteOS/targets/Cloud_FM33A0XX/GCC/../../../targets/Cloud_FM33A0XX/UserCode\los_uart.c **** 	{
 275:e:/LiteOS/LiteOS/targets/Cloud_FM33A0XX/GCC/../../../targets/Cloud_FM33A0XX/UserCode\los_uart.c **** 		RingReset(&gUARTCB[uartidx].tx);
 1166              		.loc 1 275 0
 1167 001e 2C23     		movs	r3, #44
 1168 0020 5C43     		muls	r4, r3
 1169              	.LVL124:
 1170 0022 054B     		ldr	r3, .L48
 1171 0024 E418     		adds	r4, r4, r3
 1172 0026 201D     		adds	r0, r4, #4
 1173 0028 FFF7FEFF 		bl	RingReset
 1174              	.LVL125:
 276:e:/LiteOS/LiteOS/targets/Cloud_FM33A0XX/GCC/../../../targets/Cloud_FM33A0XX/UserCode\los_uart.c **** 		LOS_MuxPost(gUARTCB[uartidx].rmutex);
 1175              		.loc 1 276 0
 1176 002c 606A     		ldr	r0, [r4, #36]
 1177 002e FFF7FEFF 		bl	LOS_MuxPost
 1178              	.LVL126:
 1179              	.L47:
 277:e:/LiteOS/LiteOS/targets/Cloud_FM33A0XX/GCC/../../../targets/Cloud_FM33A0XX/UserCode\los_uart.c **** 	}
 278:e:/LiteOS/LiteOS/targets/Cloud_FM33A0XX/GCC/../../../targets/Cloud_FM33A0XX/UserCode\los_uart.c **** 
 279:e:/LiteOS/LiteOS/targets/Cloud_FM33A0XX/GCC/../../../targets/Cloud_FM33A0XX/UserCode\los_uart.c ****     return ret;
 280:e:/LiteOS/LiteOS/targets/Cloud_FM33A0XX/GCC/../../../targets/Cloud_FM33A0XX/UserCode\los_uart.c **** }
 1180              		.loc 1 280 0
 1181 0032 0020     		movs	r0, #0
 1182              		@ sp needed
 1183 0034 10BD     		pop	{r4, pc}
 1184              	.L49:
 1185 0036 C046     		.align	2
 1186              	.L48:
 1187 0038 00000000 		.word	gUARTCB
 1188              		.cfi_endproc
 1189              	.LFE54:
 1191              		.section	.text.los_dev_uart_wflush,"ax",%progbits
 1192              		.align	2
 1193              		.global	los_dev_uart_wflush
 1194              		.code	16
 1195              		.thumb_func
 1197              	los_dev_uart_wflush:
 1198              	.LFB55:
 281:e:/LiteOS/LiteOS/targets/Cloud_FM33A0XX/GCC/../../../targets/Cloud_FM33A0XX/UserCode\los_uart.c **** 
 282:e:/LiteOS/LiteOS/targets/Cloud_FM33A0XX/GCC/../../../targets/Cloud_FM33A0XX/UserCode\los_uart.c **** int los_dev_uart_wflush(int uartidx)
ARM GAS  C:\Users\WANGBI~1\AppData\Local\Temp\cc4cJIrJ.s 			page 42


 283:e:/LiteOS/LiteOS/targets/Cloud_FM33A0XX/GCC/../../../targets/Cloud_FM33A0XX/UserCode\los_uart.c **** {
 1199              		.loc 1 283 0
 1200              		.cfi_startproc
 1201              		@ args = 0, pretend = 0, frame = 0
 1202              		@ frame_needed = 0, uses_anonymous_args = 0
 1203              	.LVL127:
 1204 0000 10B5     		push	{r4, lr}
 1205              	.LCFI18:
 1206              		.cfi_def_cfa_offset 8
 1207              		.cfi_offset 4, -8
 1208              		.cfi_offset 14, -4
 1209 0002 0400     		movs	r4, r0
 1210              	.LVL128:
 284:e:/LiteOS/LiteOS/targets/Cloud_FM33A0XX/GCC/../../../targets/Cloud_FM33A0XX/UserCode\los_uart.c **** 	int ret = 0;
 285:e:/LiteOS/LiteOS/targets/Cloud_FM33A0XX/GCC/../../../targets/Cloud_FM33A0XX/UserCode\los_uart.c **** 	if((uartidx < 0)||(uartidx >= CN_AF30XX_COM_NUM))
 1211              		.loc 1 285 0
 1212 0004 0528     		cmp	r0, #5
 1213 0006 14D8     		bhi	.L51
 286:e:/LiteOS/LiteOS/targets/Cloud_FM33A0XX/GCC/../../../targets/Cloud_FM33A0XX/UserCode\los_uart.c **** 	{
 287:e:/LiteOS/LiteOS/targets/Cloud_FM33A0XX/GCC/../../../targets/Cloud_FM33A0XX/UserCode\los_uart.c **** 		return ret;
 288:e:/LiteOS/LiteOS/targets/Cloud_FM33A0XX/GCC/../../../targets/Cloud_FM33A0XX/UserCode\los_uart.c **** 	}
 289:e:/LiteOS/LiteOS/targets/Cloud_FM33A0XX/GCC/../../../targets/Cloud_FM33A0XX/UserCode\los_uart.c **** 	if(LOS_MuxPend(gUARTCB[uartidx].wmutex,CN_UART_SYNCTIMEOUT)==LOS_OK)
 1214              		.loc 1 289 0
 1215 0008 2C23     		movs	r3, #44
 1216 000a 4343     		muls	r3, r0
 1217 000c 0A4A     		ldr	r2, .L52
 1218 000e D318     		adds	r3, r2, r3
 1219 0010 986A     		ldr	r0, [r3, #40]
 1220              	.LVL129:
 1221 0012 FA21     		movs	r1, #250
 1222 0014 8900     		lsls	r1, r1, #2
 1223 0016 FFF7FEFF 		bl	LOS_MuxPend
 1224              	.LVL130:
 1225 001a 0028     		cmp	r0, #0
 1226 001c 09D1     		bne	.L51
 290:e:/LiteOS/LiteOS/targets/Cloud_FM33A0XX/GCC/../../../targets/Cloud_FM33A0XX/UserCode\los_uart.c **** 	{
 291:e:/LiteOS/LiteOS/targets/Cloud_FM33A0XX/GCC/../../../targets/Cloud_FM33A0XX/UserCode\los_uart.c **** 		RingReset(&gUARTCB[uartidx].tx);
 1227              		.loc 1 291 0
 1228 001e 2C23     		movs	r3, #44
 1229 0020 5C43     		muls	r4, r3
 1230              	.LVL131:
 1231 0022 054B     		ldr	r3, .L52
 1232 0024 E418     		adds	r4, r4, r3
 1233 0026 201D     		adds	r0, r4, #4
 1234 0028 FFF7FEFF 		bl	RingReset
 1235              	.LVL132:
 292:e:/LiteOS/LiteOS/targets/Cloud_FM33A0XX/GCC/../../../targets/Cloud_FM33A0XX/UserCode\los_uart.c **** 		LOS_MuxPost(gUARTCB[uartidx].wmutex);
 1236              		.loc 1 292 0
 1237 002c A06A     		ldr	r0, [r4, #40]
 1238 002e FFF7FEFF 		bl	LOS_MuxPost
 1239              	.LVL133:
 1240              	.L51:
 293:e:/LiteOS/LiteOS/targets/Cloud_FM33A0XX/GCC/../../../targets/Cloud_FM33A0XX/UserCode\los_uart.c **** 	}
 294:e:/LiteOS/LiteOS/targets/Cloud_FM33A0XX/GCC/../../../targets/Cloud_FM33A0XX/UserCode\los_uart.c ****     return ret;
 295:e:/LiteOS/LiteOS/targets/Cloud_FM33A0XX/GCC/../../../targets/Cloud_FM33A0XX/UserCode\los_uart.c **** }
 1241              		.loc 1 295 0
 1242 0032 0020     		movs	r0, #0
ARM GAS  C:\Users\WANGBI~1\AppData\Local\Temp\cc4cJIrJ.s 			page 43


 1243              		@ sp needed
 1244 0034 10BD     		pop	{r4, pc}
 1245              	.L53:
 1246 0036 C046     		.align	2
 1247              	.L52:
 1248 0038 00000000 		.word	gUARTCB
 1249              		.cfi_endproc
 1250              	.LFE55:
 1252              		.comm	gUARTCB,264,4
 1253              		.global	UARTHandle
 1254              		.section	.rodata.str1.4,"aMS",%progbits,1
 1255              		.align	2
 1256              	.LC5:
 1257 0000 257300   		.ascii	"%s\000"
 1258              		.section	.data.UARTHandle,"aw",%progbits
 1259              		.align	2
 1260              		.set	.LANCHOR0,. + 0
 1263              	UARTHandle:
 1264 0000 0C200140 		.word	1073815564
 1265 0004 2C200140 		.word	1073815596
 1266 0008 4C200140 		.word	1073815628
 1267 000c 6C200140 		.word	1073815660
 1268 0010 8C200140 		.word	1073815692
 1269 0014 AC200140 		.word	1073815724
 1270              		.text
 1271              	.Letext0:
 1272              		.file 3 "e:\\liteos\\liteos\\targets\\cloud_fm33a0xx\\device\\include\\fm33a0xx.h"
 1273              		.file 4 "d:\\gnu tools arm embedded\\5.4 2016q3\\arm-none-eabi\\include\\machine\\_default_types.h
 1274              		.file 5 "d:\\gnu tools arm embedded\\5.4 2016q3\\arm-none-eabi\\include\\sys\\_stdint.h"
 1275              		.file 6 "e:\\liteos\\liteos\\targets\\cloud_fm33a0xx\\drivers\\fm33a0xx_rcc.h"
 1276              		.file 7 "e:\\liteos\\liteos\\targets\\cloud_fm33a0xx\\drivers\\fm33a0xx_uart.h"
 1277              		.file 8 "e:\\liteos\\liteos\\kernel\\include\\los_typedef.h"
 1278              		.file 9 "e:\\liteos\\liteos\\targets\\cloud_fm33a0xx\\usercode\\ring.h"
 1279              		.file 10 "e:\\liteos\\liteos\\targets\\cloud_fm33a0xx\\usercode\\user_init.h"
 1280              		.file 11 "e:\\liteos\\liteos\\kernel\\include\\los_mux.h"
 1281              		.file 12 "e:\\liteos\\liteos\\kernel\\include\\los_task.h"
 1282              		.file 13 "d:\\gnu tools arm embedded\\5.4 2016q3\\arm-none-eabi\\include\\stdio.h"
ARM GAS  C:\Users\WANGBI~1\AppData\Local\Temp\cc4cJIrJ.s 			page 44

