ARM GAS  C:\Users\WANGBI~1\AppData\Local\Temp\ccSpmgug.s 			page 1


   1              		.syntax unified
   2              		.cpu cortex-m0plus
   3              		.fpu softvfp
   4              		.eabi_attribute 20, 1
   5              		.eabi_attribute 21, 1
   6              		.eabi_attribute 23, 3
   7              		.eabi_attribute 24, 1
   8              		.eabi_attribute 25, 1
   9              		.eabi_attribute 26, 1
  10              		.eabi_attribute 30, 1
  11              		.eabi_attribute 34, 0
  12              		.eabi_attribute 18, 4
  13              		.thumb
  14              		.syntax unified
  15              		.file	"neul_bc95.c"
  16              		.text
  17              	.Ltext0:
  18              		.cfi_sections	.debug_frame
  19              		.section	.text.neul_bc95_hex_to_str,"ax",%progbits
  20              		.align	2
  21              		.code	16
  22              		.thumb_func
  24              	neul_bc95_hex_to_str:
  25              	.LFB55:
  26              		.file 1 "e:/LiteOS/LiteOS/targets/Cloud_FM33A0XX/GCC/../../../targets/Cloud_FM33A0XX/UserCode/neul
   1:e:/LiteOS/LiteOS/targets/Cloud_FM33A0XX/GCC/../../../targets/Cloud_FM33A0XX/UserCode\neul_bc95.c **** /*!
   2:e:/LiteOS/LiteOS/targets/Cloud_FM33A0XX/GCC/../../../targets/Cloud_FM33A0XX/UserCode\neul_bc95.c ****     \file  neul_bc95.c
   3:e:/LiteOS/LiteOS/targets/Cloud_FM33A0XX/GCC/../../../targets/Cloud_FM33A0XX/UserCode\neul_bc95.c ****     \brief NEUL BC95 IoT model driver 
   4:e:/LiteOS/LiteOS/targets/Cloud_FM33A0XX/GCC/../../../targets/Cloud_FM33A0XX/UserCode\neul_bc95.c **** */
   5:e:/LiteOS/LiteOS/targets/Cloud_FM33A0XX/GCC/../../../targets/Cloud_FM33A0XX/UserCode\neul_bc95.c **** 
   6:e:/LiteOS/LiteOS/targets/Cloud_FM33A0XX/GCC/../../../targets/Cloud_FM33A0XX/UserCode\neul_bc95.c **** #include <string.h>
   7:e:/LiteOS/LiteOS/targets/Cloud_FM33A0XX/GCC/../../../targets/Cloud_FM33A0XX/UserCode\neul_bc95.c **** #include "stdlib.h"
   8:e:/LiteOS/LiteOS/targets/Cloud_FM33A0XX/GCC/../../../targets/Cloud_FM33A0XX/UserCode\neul_bc95.c **** #include "neul_bc95.h"
   9:e:/LiteOS/LiteOS/targets/Cloud_FM33A0XX/GCC/../../../targets/Cloud_FM33A0XX/UserCode\neul_bc95.c **** #include "los_sys.h"
  10:e:/LiteOS/LiteOS/targets/Cloud_FM33A0XX/GCC/../../../targets/Cloud_FM33A0XX/UserCode\neul_bc95.c **** #include "los_tick.h"
  11:e:/LiteOS/LiteOS/targets/Cloud_FM33A0XX/GCC/../../../targets/Cloud_FM33A0XX/UserCode\neul_bc95.c **** #include "los_task.ph"
  12:e:/LiteOS/LiteOS/targets/Cloud_FM33A0XX/GCC/../../../targets/Cloud_FM33A0XX/UserCode\neul_bc95.c **** #include "los_config.h"
  13:e:/LiteOS/LiteOS/targets/Cloud_FM33A0XX/GCC/../../../targets/Cloud_FM33A0XX/UserCode\neul_bc95.c **** #include "los_sem.h"
  14:e:/LiteOS/LiteOS/targets/Cloud_FM33A0XX/GCC/../../../targets/Cloud_FM33A0XX/UserCode\neul_bc95.c **** 
  15:e:/LiteOS/LiteOS/targets/Cloud_FM33A0XX/GCC/../../../targets/Cloud_FM33A0XX/UserCode\neul_bc95.c **** #include "los_uart.h"
  16:e:/LiteOS/LiteOS/targets/Cloud_FM33A0XX/GCC/../../../targets/Cloud_FM33A0XX/UserCode\neul_bc95.c **** 
  17:e:/LiteOS/LiteOS/targets/Cloud_FM33A0XX/GCC/../../../targets/Cloud_FM33A0XX/UserCode\neul_bc95.c **** 
  18:e:/LiteOS/LiteOS/targets/Cloud_FM33A0XX/GCC/../../../targets/Cloud_FM33A0XX/UserCode\neul_bc95.c **** #define CN_UART_AT    3
  19:e:/LiteOS/LiteOS/targets/Cloud_FM33A0XX/GCC/../../../targets/Cloud_FM33A0XX/UserCode\neul_bc95.c **** 
  20:e:/LiteOS/LiteOS/targets/Cloud_FM33A0XX/GCC/../../../targets/Cloud_FM33A0XX/UserCode\neul_bc95.c **** 
  21:e:/LiteOS/LiteOS/targets/Cloud_FM33A0XX/GCC/../../../targets/Cloud_FM33A0XX/UserCode\neul_bc95.c **** 
  22:e:/LiteOS/LiteOS/targets/Cloud_FM33A0XX/GCC/../../../targets/Cloud_FM33A0XX/UserCode\neul_bc95.c **** /* USER CODE BEGIN Private defines */
  23:e:/LiteOS/LiteOS/targets/Cloud_FM33A0XX/GCC/../../../targets/Cloud_FM33A0XX/UserCode\neul_bc95.c **** typedef struct
  24:e:/LiteOS/LiteOS/targets/Cloud_FM33A0XX/GCC/../../../targets/Cloud_FM33A0XX/UserCode\neul_bc95.c **** {
  25:e:/LiteOS/LiteOS/targets/Cloud_FM33A0XX/GCC/../../../targets/Cloud_FM33A0XX/UserCode\neul_bc95.c **** 	char net_time[30];
  26:e:/LiteOS/LiteOS/targets/Cloud_FM33A0XX/GCC/../../../targets/Cloud_FM33A0XX/UserCode\neul_bc95.c **** 	char net_csq[5];
  27:e:/LiteOS/LiteOS/targets/Cloud_FM33A0XX/GCC/../../../targets/Cloud_FM33A0XX/UserCode\neul_bc95.c **** 	char net_cfun[5];
  28:e:/LiteOS/LiteOS/targets/Cloud_FM33A0XX/GCC/../../../targets/Cloud_FM33A0XX/UserCode\neul_bc95.c **** 	char net_ip[20];
  29:e:/LiteOS/LiteOS/targets/Cloud_FM33A0XX/GCC/../../../targets/Cloud_FM33A0XX/UserCode\neul_bc95.c **** 	char net_cscon[5];
  30:e:/LiteOS/LiteOS/targets/Cloud_FM33A0XX/GCC/../../../targets/Cloud_FM33A0XX/UserCode\neul_bc95.c **** 	char net_cereg[5];
  31:e:/LiteOS/LiteOS/targets/Cloud_FM33A0XX/GCC/../../../targets/Cloud_FM33A0XX/UserCode\neul_bc95.c **** 	char net_cgatt[5];
  32:e:/LiteOS/LiteOS/targets/Cloud_FM33A0XX/GCC/../../../targets/Cloud_FM33A0XX/UserCode\neul_bc95.c **** 	char net_npsmr[5];
ARM GAS  C:\Users\WANGBI~1\AppData\Local\Temp\ccSpmgug.s 			page 2


  33:e:/LiteOS/LiteOS/targets/Cloud_FM33A0XX/GCC/../../../targets/Cloud_FM33A0XX/UserCode\neul_bc95.c **** 	char net_nsocr[10];
  34:e:/LiteOS/LiteOS/targets/Cloud_FM33A0XX/GCC/../../../targets/Cloud_FM33A0XX/UserCode\neul_bc95.c **** 	char net_nsocl[10];
  35:e:/LiteOS/LiteOS/targets/Cloud_FM33A0XX/GCC/../../../targets/Cloud_FM33A0XX/UserCode\neul_bc95.c **** 	char net_nsost[30];
  36:e:/LiteOS/LiteOS/targets/Cloud_FM33A0XX/GCC/../../../targets/Cloud_FM33A0XX/UserCode\neul_bc95.c **** 	char net_nsonmi[10];
  37:e:/LiteOS/LiteOS/targets/Cloud_FM33A0XX/GCC/../../../targets/Cloud_FM33A0XX/UserCode\neul_bc95.c **** 	char net_nsorf[30];
  38:e:/LiteOS/LiteOS/targets/Cloud_FM33A0XX/GCC/../../../targets/Cloud_FM33A0XX/UserCode\neul_bc95.c **** 	char net_nmgr[30];
  39:e:/LiteOS/LiteOS/targets/Cloud_FM33A0XX/GCC/../../../targets/Cloud_FM33A0XX/UserCode\neul_bc95.c **** 	char net_Signal_power[10];
  40:e:/LiteOS/LiteOS/targets/Cloud_FM33A0XX/GCC/../../../targets/Cloud_FM33A0XX/UserCode\neul_bc95.c **** 	char net_Total_power[10];
  41:e:/LiteOS/LiteOS/targets/Cloud_FM33A0XX/GCC/../../../targets/Cloud_FM33A0XX/UserCode\neul_bc95.c **** 	char net_TX_power[10];
  42:e:/LiteOS/LiteOS/targets/Cloud_FM33A0XX/GCC/../../../targets/Cloud_FM33A0XX/UserCode\neul_bc95.c **** 	char net_TX_time[10];
  43:e:/LiteOS/LiteOS/targets/Cloud_FM33A0XX/GCC/../../../targets/Cloud_FM33A0XX/UserCode\neul_bc95.c **** 	char net_RX_time[10];
  44:e:/LiteOS/LiteOS/targets/Cloud_FM33A0XX/GCC/../../../targets/Cloud_FM33A0XX/UserCode\neul_bc95.c **** 	char net_SCell_ID[10];
  45:e:/LiteOS/LiteOS/targets/Cloud_FM33A0XX/GCC/../../../targets/Cloud_FM33A0XX/UserCode\neul_bc95.c **** 	char net_ECL[10];
  46:e:/LiteOS/LiteOS/targets/Cloud_FM33A0XX/GCC/../../../targets/Cloud_FM33A0XX/UserCode\neul_bc95.c **** 	char net_SNR[10];
  47:e:/LiteOS/LiteOS/targets/Cloud_FM33A0XX/GCC/../../../targets/Cloud_FM33A0XX/UserCode\neul_bc95.c **** 	char net_EARFCN[10];
  48:e:/LiteOS/LiteOS/targets/Cloud_FM33A0XX/GCC/../../../targets/Cloud_FM33A0XX/UserCode\neul_bc95.c **** 	char net_PCI[10];
  49:e:/LiteOS/LiteOS/targets/Cloud_FM33A0XX/GCC/../../../targets/Cloud_FM33A0XX/UserCode\neul_bc95.c **** 	char net_RSRQ[10];
  50:e:/LiteOS/LiteOS/targets/Cloud_FM33A0XX/GCC/../../../targets/Cloud_FM33A0XX/UserCode\neul_bc95.c **** }msg_sys_type;
  51:e:/LiteOS/LiteOS/targets/Cloud_FM33A0XX/GCC/../../../targets/Cloud_FM33A0XX/UserCode\neul_bc95.c **** 
  52:e:/LiteOS/LiteOS/targets/Cloud_FM33A0XX/GCC/../../../targets/Cloud_FM33A0XX/UserCode\neul_bc95.c **** msg_sys_type bc95_net_data;
  53:e:/LiteOS/LiteOS/targets/Cloud_FM33A0XX/GCC/../../../targets/Cloud_FM33A0XX/UserCode\neul_bc95.c **** 
  54:e:/LiteOS/LiteOS/targets/Cloud_FM33A0XX/GCC/../../../targets/Cloud_FM33A0XX/UserCode\neul_bc95.c **** 
  55:e:/LiteOS/LiteOS/targets/Cloud_FM33A0XX/GCC/../../../targets/Cloud_FM33A0XX/UserCode\neul_bc95.c **** #define NEUL_MAX_BUF_SIZE 512
  56:e:/LiteOS/LiteOS/targets/Cloud_FM33A0XX/GCC/../../../targets/Cloud_FM33A0XX/UserCode\neul_bc95.c **** #define NEUL_MAX_SOCKETS 1 // the max udp socket links
  57:e:/LiteOS/LiteOS/targets/Cloud_FM33A0XX/GCC/../../../targets/Cloud_FM33A0XX/UserCode\neul_bc95.c **** #define NEUL_IP_LEN 16
  58:e:/LiteOS/LiteOS/targets/Cloud_FM33A0XX/GCC/../../../targets/Cloud_FM33A0XX/UserCode\neul_bc95.c **** #define NEUL_MANUFACT_LEN 20
  59:e:/LiteOS/LiteOS/targets/Cloud_FM33A0XX/GCC/../../../targets/Cloud_FM33A0XX/UserCode\neul_bc95.c **** 
  60:e:/LiteOS/LiteOS/targets/Cloud_FM33A0XX/GCC/../../../targets/Cloud_FM33A0XX/UserCode\neul_bc95.c **** static char neul_bc95_buf[NEUL_MAX_BUF_SIZE];
  61:e:/LiteOS/LiteOS/targets/Cloud_FM33A0XX/GCC/../../../targets/Cloud_FM33A0XX/UserCode\neul_bc95.c **** static char neul_bc95_wbuf[NEUL_MAX_BUF_SIZE];
  62:e:/LiteOS/LiteOS/targets/Cloud_FM33A0XX/GCC/../../../targets/Cloud_FM33A0XX/UserCode\neul_bc95.c **** static char neul_bc95_tmpbuf[NEUL_MAX_BUF_SIZE];
  63:e:/LiteOS/LiteOS/targets/Cloud_FM33A0XX/GCC/../../../targets/Cloud_FM33A0XX/UserCode\neul_bc95.c **** 
  64:e:/LiteOS/LiteOS/targets/Cloud_FM33A0XX/GCC/../../../targets/Cloud_FM33A0XX/UserCode\neul_bc95.c **** //static int uart_data_read(char *buf, int maxrlen, int mode);
  65:e:/LiteOS/LiteOS/targets/Cloud_FM33A0XX/GCC/../../../targets/Cloud_FM33A0XX/UserCode\neul_bc95.c **** //static int uart_data_write(const char *buf, int writelen, int mode);
  66:e:/LiteOS/LiteOS/targets/Cloud_FM33A0XX/GCC/../../../targets/Cloud_FM33A0XX/UserCode\neul_bc95.c **** int uart_data_read(char *buf, int maxrlen, int mode, int timeout);
  67:e:/LiteOS/LiteOS/targets/Cloud_FM33A0XX/GCC/../../../targets/Cloud_FM33A0XX/UserCode\neul_bc95.c **** int uart_data_write(char *buf, int writelen, int mode);
  68:e:/LiteOS/LiteOS/targets/Cloud_FM33A0XX/GCC/../../../targets/Cloud_FM33A0XX/UserCode\neul_bc95.c **** 
  69:e:/LiteOS/LiteOS/targets/Cloud_FM33A0XX/GCC/../../../targets/Cloud_FM33A0XX/UserCode\neul_bc95.c **** 
  70:e:/LiteOS/LiteOS/targets/Cloud_FM33A0XX/GCC/../../../targets/Cloud_FM33A0XX/UserCode\neul_bc95.c **** static neul_dev_operation_t neul_ops = {
  71:e:/LiteOS/LiteOS/targets/Cloud_FM33A0XX/GCC/../../../targets/Cloud_FM33A0XX/UserCode\neul_bc95.c ****     uart_data_read,
  72:e:/LiteOS/LiteOS/targets/Cloud_FM33A0XX/GCC/../../../targets/Cloud_FM33A0XX/UserCode\neul_bc95.c ****     uart_data_write
  73:e:/LiteOS/LiteOS/targets/Cloud_FM33A0XX/GCC/../../../targets/Cloud_FM33A0XX/UserCode\neul_bc95.c **** };
  74:e:/LiteOS/LiteOS/targets/Cloud_FM33A0XX/GCC/../../../targets/Cloud_FM33A0XX/UserCode\neul_bc95.c **** static remote_info udp_socket[NEUL_MAX_SOCKETS] = {
  75:e:/LiteOS/LiteOS/targets/Cloud_FM33A0XX/GCC/../../../targets/Cloud_FM33A0XX/UserCode\neul_bc95.c **** 	{0, -1, {0}}
  76:e:/LiteOS/LiteOS/targets/Cloud_FM33A0XX/GCC/../../../targets/Cloud_FM33A0XX/UserCode\neul_bc95.c **** };
  77:e:/LiteOS/LiteOS/targets/Cloud_FM33A0XX/GCC/../../../targets/Cloud_FM33A0XX/UserCode\neul_bc95.c **** static neul_dev_info_t neul_dev = {
  78:e:/LiteOS/LiteOS/targets/Cloud_FM33A0XX/GCC/../../../targets/Cloud_FM33A0XX/UserCode\neul_bc95.c ****     neul_bc95_buf,
  79:e:/LiteOS/LiteOS/targets/Cloud_FM33A0XX/GCC/../../../targets/Cloud_FM33A0XX/UserCode\neul_bc95.c ****     neul_bc95_wbuf,
  80:e:/LiteOS/LiteOS/targets/Cloud_FM33A0XX/GCC/../../../targets/Cloud_FM33A0XX/UserCode\neul_bc95.c ****     0,
  81:e:/LiteOS/LiteOS/targets/Cloud_FM33A0XX/GCC/../../../targets/Cloud_FM33A0XX/UserCode\neul_bc95.c ****     udp_socket,
  82:e:/LiteOS/LiteOS/targets/Cloud_FM33A0XX/GCC/../../../targets/Cloud_FM33A0XX/UserCode\neul_bc95.c ****     &neul_ops,
  83:e:/LiteOS/LiteOS/targets/Cloud_FM33A0XX/GCC/../../../targets/Cloud_FM33A0XX/UserCode\neul_bc95.c ****     {0}
  84:e:/LiteOS/LiteOS/targets/Cloud_FM33A0XX/GCC/../../../targets/Cloud_FM33A0XX/UserCode\neul_bc95.c **** };
  85:e:/LiteOS/LiteOS/targets/Cloud_FM33A0XX/GCC/../../../targets/Cloud_FM33A0XX/UserCode\neul_bc95.c **** 
  86:e:/LiteOS/LiteOS/targets/Cloud_FM33A0XX/GCC/../../../targets/Cloud_FM33A0XX/UserCode\neul_bc95.c **** 
  87:e:/LiteOS/LiteOS/targets/Cloud_FM33A0XX/GCC/../../../targets/Cloud_FM33A0XX/UserCode\neul_bc95.c **** /* ============================================================
  88:e:/LiteOS/LiteOS/targets/Cloud_FM33A0XX/GCC/../../../targets/Cloud_FM33A0XX/UserCode\neul_bc95.c **** func name   :   neul_bc95_set_upd_param
  89:e:/LiteOS/LiteOS/targets/Cloud_FM33A0XX/GCC/../../../targets/Cloud_FM33A0XX/UserCode\neul_bc95.c **** discription :   this func just called after the socket created
ARM GAS  C:\Users\WANGBI~1\AppData\Local\Temp\ccSpmgug.s 			page 3


  90:e:/LiteOS/LiteOS/targets/Cloud_FM33A0XX/GCC/../../../targets/Cloud_FM33A0XX/UserCode\neul_bc95.c ****                 set the remote ip address and port the socket sendto or receive fro
  91:e:/LiteOS/LiteOS/targets/Cloud_FM33A0XX/GCC/../../../targets/Cloud_FM33A0XX/UserCode\neul_bc95.c **** param       :   
  92:e:/LiteOS/LiteOS/targets/Cloud_FM33A0XX/GCC/../../../targets/Cloud_FM33A0XX/UserCode\neul_bc95.c ****              rip  @ input param, remote client/server ip address
  93:e:/LiteOS/LiteOS/targets/Cloud_FM33A0XX/GCC/../../../targets/Cloud_FM33A0XX/UserCode\neul_bc95.c ****              port @ input param, remote client/server port
  94:e:/LiteOS/LiteOS/targets/Cloud_FM33A0XX/GCC/../../../targets/Cloud_FM33A0XX/UserCode\neul_bc95.c ****              socket @ input param, local socket handle
  95:e:/LiteOS/LiteOS/targets/Cloud_FM33A0XX/GCC/../../../targets/Cloud_FM33A0XX/UserCode\neul_bc95.c **** return      :  0 mean ok, !0 means param err
  96:e:/LiteOS/LiteOS/targets/Cloud_FM33A0XX/GCC/../../../targets/Cloud_FM33A0XX/UserCode\neul_bc95.c **** Revision    : 
  97:e:/LiteOS/LiteOS/targets/Cloud_FM33A0XX/GCC/../../../targets/Cloud_FM33A0XX/UserCode\neul_bc95.c **** =============================================================== */
  98:e:/LiteOS/LiteOS/targets/Cloud_FM33A0XX/GCC/../../../targets/Cloud_FM33A0XX/UserCode\neul_bc95.c **** int neul_bc95_set_upd_param(const char *rip, const unsigned short port, const int socket)
  99:e:/LiteOS/LiteOS/targets/Cloud_FM33A0XX/GCC/../../../targets/Cloud_FM33A0XX/UserCode\neul_bc95.c **** {
 100:e:/LiteOS/LiteOS/targets/Cloud_FM33A0XX/GCC/../../../targets/Cloud_FM33A0XX/UserCode\neul_bc95.c ****     if (NULL == rip || 0 == port)
 101:e:/LiteOS/LiteOS/targets/Cloud_FM33A0XX/GCC/../../../targets/Cloud_FM33A0XX/UserCode\neul_bc95.c ****     {
 102:e:/LiteOS/LiteOS/targets/Cloud_FM33A0XX/GCC/../../../targets/Cloud_FM33A0XX/UserCode\neul_bc95.c ****         return -1;
 103:e:/LiteOS/LiteOS/targets/Cloud_FM33A0XX/GCC/../../../targets/Cloud_FM33A0XX/UserCode\neul_bc95.c ****     }
 104:e:/LiteOS/LiteOS/targets/Cloud_FM33A0XX/GCC/../../../targets/Cloud_FM33A0XX/UserCode\neul_bc95.c ****     if (strlen(rip) >= NEUL_IP_LEN)
 105:e:/LiteOS/LiteOS/targets/Cloud_FM33A0XX/GCC/../../../targets/Cloud_FM33A0XX/UserCode\neul_bc95.c ****     {
 106:e:/LiteOS/LiteOS/targets/Cloud_FM33A0XX/GCC/../../../targets/Cloud_FM33A0XX/UserCode\neul_bc95.c ****         return -2;
 107:e:/LiteOS/LiteOS/targets/Cloud_FM33A0XX/GCC/../../../targets/Cloud_FM33A0XX/UserCode\neul_bc95.c ****     }
 108:e:/LiteOS/LiteOS/targets/Cloud_FM33A0XX/GCC/../../../targets/Cloud_FM33A0XX/UserCode\neul_bc95.c ****     neul_dev.remotecount++;
 109:e:/LiteOS/LiteOS/targets/Cloud_FM33A0XX/GCC/../../../targets/Cloud_FM33A0XX/UserCode\neul_bc95.c ****     (neul_dev.addrinfo+socket)->port = port;
 110:e:/LiteOS/LiteOS/targets/Cloud_FM33A0XX/GCC/../../../targets/Cloud_FM33A0XX/UserCode\neul_bc95.c ****     (neul_dev.addrinfo+socket)->socket = socket;
 111:e:/LiteOS/LiteOS/targets/Cloud_FM33A0XX/GCC/../../../targets/Cloud_FM33A0XX/UserCode\neul_bc95.c ****     memcpy((neul_dev.addrinfo+socket)->ip, rip, strlen(rip));
 112:e:/LiteOS/LiteOS/targets/Cloud_FM33A0XX/GCC/../../../targets/Cloud_FM33A0XX/UserCode\neul_bc95.c ****     return 0;
 113:e:/LiteOS/LiteOS/targets/Cloud_FM33A0XX/GCC/../../../targets/Cloud_FM33A0XX/UserCode\neul_bc95.c **** }
 114:e:/LiteOS/LiteOS/targets/Cloud_FM33A0XX/GCC/../../../targets/Cloud_FM33A0XX/UserCode\neul_bc95.c **** 
 115:e:/LiteOS/LiteOS/targets/Cloud_FM33A0XX/GCC/../../../targets/Cloud_FM33A0XX/UserCode\neul_bc95.c **** /* ============================================================
 116:e:/LiteOS/LiteOS/targets/Cloud_FM33A0XX/GCC/../../../targets/Cloud_FM33A0XX/UserCode\neul_bc95.c **** func name   :   neul_bc95_set_upd_param
 117:e:/LiteOS/LiteOS/targets/Cloud_FM33A0XX/GCC/../../../targets/Cloud_FM33A0XX/UserCode\neul_bc95.c **** discription :   this func just called after the socket created
 118:e:/LiteOS/LiteOS/targets/Cloud_FM33A0XX/GCC/../../../targets/Cloud_FM33A0XX/UserCode\neul_bc95.c ****                 set the remote ip address and port the socket sendto or receive fro
 119:e:/LiteOS/LiteOS/targets/Cloud_FM33A0XX/GCC/../../../targets/Cloud_FM33A0XX/UserCode\neul_bc95.c **** param       :   
 120:e:/LiteOS/LiteOS/targets/Cloud_FM33A0XX/GCC/../../../targets/Cloud_FM33A0XX/UserCode\neul_bc95.c ****              socket @ input param, local socket handle that need to reset
 121:e:/LiteOS/LiteOS/targets/Cloud_FM33A0XX/GCC/../../../targets/Cloud_FM33A0XX/UserCode\neul_bc95.c **** return      :  0 mean ok, !0 means param err
 122:e:/LiteOS/LiteOS/targets/Cloud_FM33A0XX/GCC/../../../targets/Cloud_FM33A0XX/UserCode\neul_bc95.c **** Revision    : 
 123:e:/LiteOS/LiteOS/targets/Cloud_FM33A0XX/GCC/../../../targets/Cloud_FM33A0XX/UserCode\neul_bc95.c **** =============================================================== */
 124:e:/LiteOS/LiteOS/targets/Cloud_FM33A0XX/GCC/../../../targets/Cloud_FM33A0XX/UserCode\neul_bc95.c **** static int neul_bc95_reset_upd_param(const int socket)
 125:e:/LiteOS/LiteOS/targets/Cloud_FM33A0XX/GCC/../../../targets/Cloud_FM33A0XX/UserCode\neul_bc95.c **** {
 126:e:/LiteOS/LiteOS/targets/Cloud_FM33A0XX/GCC/../../../targets/Cloud_FM33A0XX/UserCode\neul_bc95.c ****     if (socket < 0)
 127:e:/LiteOS/LiteOS/targets/Cloud_FM33A0XX/GCC/../../../targets/Cloud_FM33A0XX/UserCode\neul_bc95.c ****     {
 128:e:/LiteOS/LiteOS/targets/Cloud_FM33A0XX/GCC/../../../targets/Cloud_FM33A0XX/UserCode\neul_bc95.c ****         return -1;
 129:e:/LiteOS/LiteOS/targets/Cloud_FM33A0XX/GCC/../../../targets/Cloud_FM33A0XX/UserCode\neul_bc95.c ****     }
 130:e:/LiteOS/LiteOS/targets/Cloud_FM33A0XX/GCC/../../../targets/Cloud_FM33A0XX/UserCode\neul_bc95.c ****     neul_dev.remotecount--;
 131:e:/LiteOS/LiteOS/targets/Cloud_FM33A0XX/GCC/../../../targets/Cloud_FM33A0XX/UserCode\neul_bc95.c ****     (neul_dev.addrinfo+socket)->port = 0;
 132:e:/LiteOS/LiteOS/targets/Cloud_FM33A0XX/GCC/../../../targets/Cloud_FM33A0XX/UserCode\neul_bc95.c ****     (neul_dev.addrinfo+socket)->socket = -1;
 133:e:/LiteOS/LiteOS/targets/Cloud_FM33A0XX/GCC/../../../targets/Cloud_FM33A0XX/UserCode\neul_bc95.c ****     memset((neul_dev.addrinfo+socket)->ip, 0, NEUL_IP_LEN);
 134:e:/LiteOS/LiteOS/targets/Cloud_FM33A0XX/GCC/../../../targets/Cloud_FM33A0XX/UserCode\neul_bc95.c ****     return 0;
 135:e:/LiteOS/LiteOS/targets/Cloud_FM33A0XX/GCC/../../../targets/Cloud_FM33A0XX/UserCode\neul_bc95.c **** }
 136:e:/LiteOS/LiteOS/targets/Cloud_FM33A0XX/GCC/../../../targets/Cloud_FM33A0XX/UserCode\neul_bc95.c **** 
 137:e:/LiteOS/LiteOS/targets/Cloud_FM33A0XX/GCC/../../../targets/Cloud_FM33A0XX/UserCode\neul_bc95.c **** /* ============================================================
 138:e:/LiteOS/LiteOS/targets/Cloud_FM33A0XX/GCC/../../../targets/Cloud_FM33A0XX/UserCode\neul_bc95.c **** func name   :  neul_bc95_AT_CGMM
 139:e:/LiteOS/LiteOS/targets/Cloud_FM33A0XX/GCC/../../../targets/Cloud_FM33A0XX/UserCode\neul_bc95.c **** discription :  Request Manufacturer Identification
 140:e:/LiteOS/LiteOS/targets/Cloud_FM33A0XX/GCC/../../../targets/Cloud_FM33A0XX/UserCode\neul_bc95.c **** param       :  None 
 141:e:/LiteOS/LiteOS/targets/Cloud_FM33A0XX/GCC/../../../targets/Cloud_FM33A0XX/UserCode\neul_bc95.c **** return      :  0 bc95 is connectted to mcu ok , !0 means not ok
 142:e:/LiteOS/LiteOS/targets/Cloud_FM33A0XX/GCC/../../../targets/Cloud_FM33A0XX/UserCode\neul_bc95.c **** Revision    : 
 143:e:/LiteOS/LiteOS/targets/Cloud_FM33A0XX/GCC/../../../targets/Cloud_FM33A0XX/UserCode\neul_bc95.c **** =============================================================== */
 144:e:/LiteOS/LiteOS/targets/Cloud_FM33A0XX/GCC/../../../targets/Cloud_FM33A0XX/UserCode\neul_bc95.c **** int neul_bc95_AT_CGMM(void)
 145:e:/LiteOS/LiteOS/targets/Cloud_FM33A0XX/GCC/../../../targets/Cloud_FM33A0XX/UserCode\neul_bc95.c **** {
 146:e:/LiteOS/LiteOS/targets/Cloud_FM33A0XX/GCC/../../../targets/Cloud_FM33A0XX/UserCode\neul_bc95.c ****     int ret = 0;
ARM GAS  C:\Users\WANGBI~1\AppData\Local\Temp\ccSpmgug.s 			page 4


 147:e:/LiteOS/LiteOS/targets/Cloud_FM33A0XX/GCC/../../../targets/Cloud_FM33A0XX/UserCode\neul_bc95.c ****     char *p = "AT+CGMM\r";
 148:e:/LiteOS/LiteOS/targets/Cloud_FM33A0XX/GCC/../../../targets/Cloud_FM33A0XX/UserCode\neul_bc95.c ****     char *str = NULL;
 149:e:/LiteOS/LiteOS/targets/Cloud_FM33A0XX/GCC/../../../targets/Cloud_FM33A0XX/UserCode\neul_bc95.c ****     ret = neul_dev.ops->dev_write(p, strlen(p), 0);
 150:e:/LiteOS/LiteOS/targets/Cloud_FM33A0XX/GCC/../../../targets/Cloud_FM33A0XX/UserCode\neul_bc95.c ****     if (ret < 0)
 151:e:/LiteOS/LiteOS/targets/Cloud_FM33A0XX/GCC/../../../targets/Cloud_FM33A0XX/UserCode\neul_bc95.c ****     {
 152:e:/LiteOS/LiteOS/targets/Cloud_FM33A0XX/GCC/../../../targets/Cloud_FM33A0XX/UserCode\neul_bc95.c ****         //write data to bc95 failed
 153:e:/LiteOS/LiteOS/targets/Cloud_FM33A0XX/GCC/../../../targets/Cloud_FM33A0XX/UserCode\neul_bc95.c ****         return -1;
 154:e:/LiteOS/LiteOS/targets/Cloud_FM33A0XX/GCC/../../../targets/Cloud_FM33A0XX/UserCode\neul_bc95.c ****     }
 155:e:/LiteOS/LiteOS/targets/Cloud_FM33A0XX/GCC/../../../targets/Cloud_FM33A0XX/UserCode\neul_bc95.c ****     if (NULL == neul_dev.rbuf)
 156:e:/LiteOS/LiteOS/targets/Cloud_FM33A0XX/GCC/../../../targets/Cloud_FM33A0XX/UserCode\neul_bc95.c ****     {
 157:e:/LiteOS/LiteOS/targets/Cloud_FM33A0XX/GCC/../../../targets/Cloud_FM33A0XX/UserCode\neul_bc95.c ****         return -2;
 158:e:/LiteOS/LiteOS/targets/Cloud_FM33A0XX/GCC/../../../targets/Cloud_FM33A0XX/UserCode\neul_bc95.c ****     }
 159:e:/LiteOS/LiteOS/targets/Cloud_FM33A0XX/GCC/../../../targets/Cloud_FM33A0XX/UserCode\neul_bc95.c ****     memset(neul_dev.rbuf, 0, 20);
 160:e:/LiteOS/LiteOS/targets/Cloud_FM33A0XX/GCC/../../../targets/Cloud_FM33A0XX/UserCode\neul_bc95.c ****     ret = neul_dev.ops->dev_read(neul_dev.rbuf, 20, 0, 200);
 161:e:/LiteOS/LiteOS/targets/Cloud_FM33A0XX/GCC/../../../targets/Cloud_FM33A0XX/UserCode\neul_bc95.c ****     if (ret <= 0)
 162:e:/LiteOS/LiteOS/targets/Cloud_FM33A0XX/GCC/../../../targets/Cloud_FM33A0XX/UserCode\neul_bc95.c ****     {
 163:e:/LiteOS/LiteOS/targets/Cloud_FM33A0XX/GCC/../../../targets/Cloud_FM33A0XX/UserCode\neul_bc95.c ****         //read bc95 manufacturer info failed
 164:e:/LiteOS/LiteOS/targets/Cloud_FM33A0XX/GCC/../../../targets/Cloud_FM33A0XX/UserCode\neul_bc95.c ****         return -3;
 165:e:/LiteOS/LiteOS/targets/Cloud_FM33A0XX/GCC/../../../targets/Cloud_FM33A0XX/UserCode\neul_bc95.c ****     }
 166:e:/LiteOS/LiteOS/targets/Cloud_FM33A0XX/GCC/../../../targets/Cloud_FM33A0XX/UserCode\neul_bc95.c ****     str = strstr(neul_dev.rbuf,"Quectel");
 167:e:/LiteOS/LiteOS/targets/Cloud_FM33A0XX/GCC/../../../targets/Cloud_FM33A0XX/UserCode\neul_bc95.c ****     if (!str)
 168:e:/LiteOS/LiteOS/targets/Cloud_FM33A0XX/GCC/../../../targets/Cloud_FM33A0XX/UserCode\neul_bc95.c ****     {
 169:e:/LiteOS/LiteOS/targets/Cloud_FM33A0XX/GCC/../../../targets/Cloud_FM33A0XX/UserCode\neul_bc95.c ****         //can't find bc95 manufacturer info
 170:e:/LiteOS/LiteOS/targets/Cloud_FM33A0XX/GCC/../../../targets/Cloud_FM33A0XX/UserCode\neul_bc95.c ****         return -4;
 171:e:/LiteOS/LiteOS/targets/Cloud_FM33A0XX/GCC/../../../targets/Cloud_FM33A0XX/UserCode\neul_bc95.c ****     }
 172:e:/LiteOS/LiteOS/targets/Cloud_FM33A0XX/GCC/../../../targets/Cloud_FM33A0XX/UserCode\neul_bc95.c ****     return 0;
 173:e:/LiteOS/LiteOS/targets/Cloud_FM33A0XX/GCC/../../../targets/Cloud_FM33A0XX/UserCode\neul_bc95.c **** }
 174:e:/LiteOS/LiteOS/targets/Cloud_FM33A0XX/GCC/../../../targets/Cloud_FM33A0XX/UserCode\neul_bc95.c **** /* ============================================================
 175:e:/LiteOS/LiteOS/targets/Cloud_FM33A0XX/GCC/../../../targets/Cloud_FM33A0XX/UserCode\neul_bc95.c **** func name   :  neul_bc95_hw_detect
 176:e:/LiteOS/LiteOS/targets/Cloud_FM33A0XX/GCC/../../../targets/Cloud_FM33A0XX/UserCode\neul_bc95.c **** discription :  detect bc95 hardware 
 177:e:/LiteOS/LiteOS/targets/Cloud_FM33A0XX/GCC/../../../targets/Cloud_FM33A0XX/UserCode\neul_bc95.c **** param       :  None 
 178:e:/LiteOS/LiteOS/targets/Cloud_FM33A0XX/GCC/../../../targets/Cloud_FM33A0XX/UserCode\neul_bc95.c **** return      :  0 bc95 is connectted to mcu ok , !0 means not ok
 179:e:/LiteOS/LiteOS/targets/Cloud_FM33A0XX/GCC/../../../targets/Cloud_FM33A0XX/UserCode\neul_bc95.c **** Revision    : 
 180:e:/LiteOS/LiteOS/targets/Cloud_FM33A0XX/GCC/../../../targets/Cloud_FM33A0XX/UserCode\neul_bc95.c **** =============================================================== */
 181:e:/LiteOS/LiteOS/targets/Cloud_FM33A0XX/GCC/../../../targets/Cloud_FM33A0XX/UserCode\neul_bc95.c **** int neul_bc95_hw_detect(void)
 182:e:/LiteOS/LiteOS/targets/Cloud_FM33A0XX/GCC/../../../targets/Cloud_FM33A0XX/UserCode\neul_bc95.c **** {
 183:e:/LiteOS/LiteOS/targets/Cloud_FM33A0XX/GCC/../../../targets/Cloud_FM33A0XX/UserCode\neul_bc95.c ****     int ret = 0;
 184:e:/LiteOS/LiteOS/targets/Cloud_FM33A0XX/GCC/../../../targets/Cloud_FM33A0XX/UserCode\neul_bc95.c ****     char *p = "AT+CGMM\r";
 185:e:/LiteOS/LiteOS/targets/Cloud_FM33A0XX/GCC/../../../targets/Cloud_FM33A0XX/UserCode\neul_bc95.c ****     char *str = NULL;
 186:e:/LiteOS/LiteOS/targets/Cloud_FM33A0XX/GCC/../../../targets/Cloud_FM33A0XX/UserCode\neul_bc95.c ****     ret = neul_dev.ops->dev_write(p, strlen(p), 0);
 187:e:/LiteOS/LiteOS/targets/Cloud_FM33A0XX/GCC/../../../targets/Cloud_FM33A0XX/UserCode\neul_bc95.c ****     if (ret < 0)
 188:e:/LiteOS/LiteOS/targets/Cloud_FM33A0XX/GCC/../../../targets/Cloud_FM33A0XX/UserCode\neul_bc95.c ****     {
 189:e:/LiteOS/LiteOS/targets/Cloud_FM33A0XX/GCC/../../../targets/Cloud_FM33A0XX/UserCode\neul_bc95.c ****         //write data to bc95 failed
 190:e:/LiteOS/LiteOS/targets/Cloud_FM33A0XX/GCC/../../../targets/Cloud_FM33A0XX/UserCode\neul_bc95.c ****         return -1;
 191:e:/LiteOS/LiteOS/targets/Cloud_FM33A0XX/GCC/../../../targets/Cloud_FM33A0XX/UserCode\neul_bc95.c ****     }
 192:e:/LiteOS/LiteOS/targets/Cloud_FM33A0XX/GCC/../../../targets/Cloud_FM33A0XX/UserCode\neul_bc95.c ****     if (NULL == neul_dev.rbuf)
 193:e:/LiteOS/LiteOS/targets/Cloud_FM33A0XX/GCC/../../../targets/Cloud_FM33A0XX/UserCode\neul_bc95.c ****     {
 194:e:/LiteOS/LiteOS/targets/Cloud_FM33A0XX/GCC/../../../targets/Cloud_FM33A0XX/UserCode\neul_bc95.c ****         return -2;
 195:e:/LiteOS/LiteOS/targets/Cloud_FM33A0XX/GCC/../../../targets/Cloud_FM33A0XX/UserCode\neul_bc95.c ****     }
 196:e:/LiteOS/LiteOS/targets/Cloud_FM33A0XX/GCC/../../../targets/Cloud_FM33A0XX/UserCode\neul_bc95.c ****     //neul_bc95_sleep(10);
 197:e:/LiteOS/LiteOS/targets/Cloud_FM33A0XX/GCC/../../../targets/Cloud_FM33A0XX/UserCode\neul_bc95.c ****     memset(neul_dev.rbuf, 0, 100);
 198:e:/LiteOS/LiteOS/targets/Cloud_FM33A0XX/GCC/../../../targets/Cloud_FM33A0XX/UserCode\neul_bc95.c ****     ret = neul_dev.ops->dev_read(neul_dev.rbuf, 100, 0, 200);
 199:e:/LiteOS/LiteOS/targets/Cloud_FM33A0XX/GCC/../../../targets/Cloud_FM33A0XX/UserCode\neul_bc95.c ****     if (ret <= 0)
 200:e:/LiteOS/LiteOS/targets/Cloud_FM33A0XX/GCC/../../../targets/Cloud_FM33A0XX/UserCode\neul_bc95.c ****     {
 201:e:/LiteOS/LiteOS/targets/Cloud_FM33A0XX/GCC/../../../targets/Cloud_FM33A0XX/UserCode\neul_bc95.c ****         //read bc95 manufacturer info failed
 202:e:/LiteOS/LiteOS/targets/Cloud_FM33A0XX/GCC/../../../targets/Cloud_FM33A0XX/UserCode\neul_bc95.c ****         return -3;
 203:e:/LiteOS/LiteOS/targets/Cloud_FM33A0XX/GCC/../../../targets/Cloud_FM33A0XX/UserCode\neul_bc95.c ****     }
ARM GAS  C:\Users\WANGBI~1\AppData\Local\Temp\ccSpmgug.s 			page 5


 204:e:/LiteOS/LiteOS/targets/Cloud_FM33A0XX/GCC/../../../targets/Cloud_FM33A0XX/UserCode\neul_bc95.c ****     str = strstr(neul_dev.rbuf,"BC95HB-02-STD_850");
 205:e:/LiteOS/LiteOS/targets/Cloud_FM33A0XX/GCC/../../../targets/Cloud_FM33A0XX/UserCode\neul_bc95.c ****     if (!str)
 206:e:/LiteOS/LiteOS/targets/Cloud_FM33A0XX/GCC/../../../targets/Cloud_FM33A0XX/UserCode\neul_bc95.c ****     {
 207:e:/LiteOS/LiteOS/targets/Cloud_FM33A0XX/GCC/../../../targets/Cloud_FM33A0XX/UserCode\neul_bc95.c ****         //can't find bc95 manufacturer info
 208:e:/LiteOS/LiteOS/targets/Cloud_FM33A0XX/GCC/../../../targets/Cloud_FM33A0XX/UserCode\neul_bc95.c ****         return -4;
 209:e:/LiteOS/LiteOS/targets/Cloud_FM33A0XX/GCC/../../../targets/Cloud_FM33A0XX/UserCode\neul_bc95.c ****     }
 210:e:/LiteOS/LiteOS/targets/Cloud_FM33A0XX/GCC/../../../targets/Cloud_FM33A0XX/UserCode\neul_bc95.c ****     return 0;
 211:e:/LiteOS/LiteOS/targets/Cloud_FM33A0XX/GCC/../../../targets/Cloud_FM33A0XX/UserCode\neul_bc95.c **** }
 212:e:/LiteOS/LiteOS/targets/Cloud_FM33A0XX/GCC/../../../targets/Cloud_FM33A0XX/UserCode\neul_bc95.c **** 
 213:e:/LiteOS/LiteOS/targets/Cloud_FM33A0XX/GCC/../../../targets/Cloud_FM33A0XX/UserCode\neul_bc95.c **** /* ============================================================
 214:e:/LiteOS/LiteOS/targets/Cloud_FM33A0XX/GCC/../../../targets/Cloud_FM33A0XX/UserCode\neul_bc95.c **** func name   :  neul_bc95_set_imei
 215:e:/LiteOS/LiteOS/targets/Cloud_FM33A0XX/GCC/../../../targets/Cloud_FM33A0XX/UserCode\neul_bc95.c **** discription :  set bc95 imei info 
 216:e:/LiteOS/LiteOS/targets/Cloud_FM33A0XX/GCC/../../../targets/Cloud_FM33A0XX/UserCode\neul_bc95.c **** param       :  
 217:e:/LiteOS/LiteOS/targets/Cloud_FM33A0XX/GCC/../../../targets/Cloud_FM33A0XX/UserCode\neul_bc95.c ****                imei @ input param, the imei data set to bc95
 218:e:/LiteOS/LiteOS/targets/Cloud_FM33A0XX/GCC/../../../targets/Cloud_FM33A0XX/UserCode\neul_bc95.c ****                len @ input param, lenght of the data
 219:e:/LiteOS/LiteOS/targets/Cloud_FM33A0XX/GCC/../../../targets/Cloud_FM33A0XX/UserCode\neul_bc95.c **** return      :  0 set ok , !0 not ok
 220:e:/LiteOS/LiteOS/targets/Cloud_FM33A0XX/GCC/../../../targets/Cloud_FM33A0XX/UserCode\neul_bc95.c **** Revision    : 
 221:e:/LiteOS/LiteOS/targets/Cloud_FM33A0XX/GCC/../../../targets/Cloud_FM33A0XX/UserCode\neul_bc95.c **** =============================================================== */
 222:e:/LiteOS/LiteOS/targets/Cloud_FM33A0XX/GCC/../../../targets/Cloud_FM33A0XX/UserCode\neul_bc95.c **** int neul_bc95_set_imei(const char *imei, int len)
 223:e:/LiteOS/LiteOS/targets/Cloud_FM33A0XX/GCC/../../../targets/Cloud_FM33A0XX/UserCode\neul_bc95.c **** {
 224:e:/LiteOS/LiteOS/targets/Cloud_FM33A0XX/GCC/../../../targets/Cloud_FM33A0XX/UserCode\neul_bc95.c ****     int ret = 0;
 225:e:/LiteOS/LiteOS/targets/Cloud_FM33A0XX/GCC/../../../targets/Cloud_FM33A0XX/UserCode\neul_bc95.c ****     char *p = "AT+NTSETID=1,";
 226:e:/LiteOS/LiteOS/targets/Cloud_FM33A0XX/GCC/../../../targets/Cloud_FM33A0XX/UserCode\neul_bc95.c ****     char *p2 = "AT+CGSN=1\r";
 227:e:/LiteOS/LiteOS/targets/Cloud_FM33A0XX/GCC/../../../targets/Cloud_FM33A0XX/UserCode\neul_bc95.c ****     char *str = NULL;
 228:e:/LiteOS/LiteOS/targets/Cloud_FM33A0XX/GCC/../../../targets/Cloud_FM33A0XX/UserCode\neul_bc95.c ****     //int cmdlen = 0;
 229:e:/LiteOS/LiteOS/targets/Cloud_FM33A0XX/GCC/../../../targets/Cloud_FM33A0XX/UserCode\neul_bc95.c ****     if (NULL == imei || len <= 0)
 230:e:/LiteOS/LiteOS/targets/Cloud_FM33A0XX/GCC/../../../targets/Cloud_FM33A0XX/UserCode\neul_bc95.c ****     {
 231:e:/LiteOS/LiteOS/targets/Cloud_FM33A0XX/GCC/../../../targets/Cloud_FM33A0XX/UserCode\neul_bc95.c ****         return -1;
 232:e:/LiteOS/LiteOS/targets/Cloud_FM33A0XX/GCC/../../../targets/Cloud_FM33A0XX/UserCode\neul_bc95.c ****     }
 233:e:/LiteOS/LiteOS/targets/Cloud_FM33A0XX/GCC/../../../targets/Cloud_FM33A0XX/UserCode\neul_bc95.c ****     if (NULL == neul_dev.wbuf)
 234:e:/LiteOS/LiteOS/targets/Cloud_FM33A0XX/GCC/../../../targets/Cloud_FM33A0XX/UserCode\neul_bc95.c ****     {
 235:e:/LiteOS/LiteOS/targets/Cloud_FM33A0XX/GCC/../../../targets/Cloud_FM33A0XX/UserCode\neul_bc95.c ****         return -2;
 236:e:/LiteOS/LiteOS/targets/Cloud_FM33A0XX/GCC/../../../targets/Cloud_FM33A0XX/UserCode\neul_bc95.c ****     }
 237:e:/LiteOS/LiteOS/targets/Cloud_FM33A0XX/GCC/../../../targets/Cloud_FM33A0XX/UserCode\neul_bc95.c ****     memset(neul_dev.wbuf, 0, 100);
 238:e:/LiteOS/LiteOS/targets/Cloud_FM33A0XX/GCC/../../../targets/Cloud_FM33A0XX/UserCode\neul_bc95.c ****     //cmdlen = strlen(p);
 239:e:/LiteOS/LiteOS/targets/Cloud_FM33A0XX/GCC/../../../targets/Cloud_FM33A0XX/UserCode\neul_bc95.c ****     //memcpy(neul_dev.wbuf, p, cmdlen);
 240:e:/LiteOS/LiteOS/targets/Cloud_FM33A0XX/GCC/../../../targets/Cloud_FM33A0XX/UserCode\neul_bc95.c ****     //memcpy(neul_dev.wbuf+cmdlen, imei, len);
 241:e:/LiteOS/LiteOS/targets/Cloud_FM33A0XX/GCC/../../../targets/Cloud_FM33A0XX/UserCode\neul_bc95.c ****     sprintf(neul_dev.wbuf, "%s%s%c", p, imei, '\r');
 242:e:/LiteOS/LiteOS/targets/Cloud_FM33A0XX/GCC/../../../targets/Cloud_FM33A0XX/UserCode\neul_bc95.c ****     ret = neul_dev.ops->dev_write(neul_dev.wbuf, strlen(neul_dev.wbuf), 0);
 243:e:/LiteOS/LiteOS/targets/Cloud_FM33A0XX/GCC/../../../targets/Cloud_FM33A0XX/UserCode\neul_bc95.c ****     if (ret < 0)
 244:e:/LiteOS/LiteOS/targets/Cloud_FM33A0XX/GCC/../../../targets/Cloud_FM33A0XX/UserCode\neul_bc95.c ****     {
 245:e:/LiteOS/LiteOS/targets/Cloud_FM33A0XX/GCC/../../../targets/Cloud_FM33A0XX/UserCode\neul_bc95.c ****         //write data to bc95 failed
 246:e:/LiteOS/LiteOS/targets/Cloud_FM33A0XX/GCC/../../../targets/Cloud_FM33A0XX/UserCode\neul_bc95.c ****         return -1;
 247:e:/LiteOS/LiteOS/targets/Cloud_FM33A0XX/GCC/../../../targets/Cloud_FM33A0XX/UserCode\neul_bc95.c ****     }
 248:e:/LiteOS/LiteOS/targets/Cloud_FM33A0XX/GCC/../../../targets/Cloud_FM33A0XX/UserCode\neul_bc95.c ****     memset(neul_dev.rbuf, 0, 16);
 249:e:/LiteOS/LiteOS/targets/Cloud_FM33A0XX/GCC/../../../targets/Cloud_FM33A0XX/UserCode\neul_bc95.c ****     ret = neul_dev.ops->dev_read(neul_dev.rbuf, 16, 0, 200);
 250:e:/LiteOS/LiteOS/targets/Cloud_FM33A0XX/GCC/../../../targets/Cloud_FM33A0XX/UserCode\neul_bc95.c ****     if (ret <= 0)
 251:e:/LiteOS/LiteOS/targets/Cloud_FM33A0XX/GCC/../../../targets/Cloud_FM33A0XX/UserCode\neul_bc95.c ****     {
 252:e:/LiteOS/LiteOS/targets/Cloud_FM33A0XX/GCC/../../../targets/Cloud_FM33A0XX/UserCode\neul_bc95.c ****         //read bc95 read set return value info failed
 253:e:/LiteOS/LiteOS/targets/Cloud_FM33A0XX/GCC/../../../targets/Cloud_FM33A0XX/UserCode\neul_bc95.c ****         return -3;
 254:e:/LiteOS/LiteOS/targets/Cloud_FM33A0XX/GCC/../../../targets/Cloud_FM33A0XX/UserCode\neul_bc95.c ****     }
 255:e:/LiteOS/LiteOS/targets/Cloud_FM33A0XX/GCC/../../../targets/Cloud_FM33A0XX/UserCode\neul_bc95.c ****     str = strstr(neul_dev.rbuf,"OK");
 256:e:/LiteOS/LiteOS/targets/Cloud_FM33A0XX/GCC/../../../targets/Cloud_FM33A0XX/UserCode\neul_bc95.c ****     if (NULL == str)
 257:e:/LiteOS/LiteOS/targets/Cloud_FM33A0XX/GCC/../../../targets/Cloud_FM33A0XX/UserCode\neul_bc95.c ****     {
 258:e:/LiteOS/LiteOS/targets/Cloud_FM33A0XX/GCC/../../../targets/Cloud_FM33A0XX/UserCode\neul_bc95.c ****         //read imei info
 259:e:/LiteOS/LiteOS/targets/Cloud_FM33A0XX/GCC/../../../targets/Cloud_FM33A0XX/UserCode\neul_bc95.c ****         ret = neul_dev.ops->dev_write(p2, strlen(p2), 0);
 260:e:/LiteOS/LiteOS/targets/Cloud_FM33A0XX/GCC/../../../targets/Cloud_FM33A0XX/UserCode\neul_bc95.c ****         if (ret < 0)
ARM GAS  C:\Users\WANGBI~1\AppData\Local\Temp\ccSpmgug.s 			page 6


 261:e:/LiteOS/LiteOS/targets/Cloud_FM33A0XX/GCC/../../../targets/Cloud_FM33A0XX/UserCode\neul_bc95.c ****         {
 262:e:/LiteOS/LiteOS/targets/Cloud_FM33A0XX/GCC/../../../targets/Cloud_FM33A0XX/UserCode\neul_bc95.c ****             //write data to bc95 failed
 263:e:/LiteOS/LiteOS/targets/Cloud_FM33A0XX/GCC/../../../targets/Cloud_FM33A0XX/UserCode\neul_bc95.c ****             return -1;
 264:e:/LiteOS/LiteOS/targets/Cloud_FM33A0XX/GCC/../../../targets/Cloud_FM33A0XX/UserCode\neul_bc95.c ****         }
 265:e:/LiteOS/LiteOS/targets/Cloud_FM33A0XX/GCC/../../../targets/Cloud_FM33A0XX/UserCode\neul_bc95.c ****         memset(neul_dev.rbuf, 0, 64);
 266:e:/LiteOS/LiteOS/targets/Cloud_FM33A0XX/GCC/../../../targets/Cloud_FM33A0XX/UserCode\neul_bc95.c ****         ret = neul_dev.ops->dev_read(neul_dev.rbuf, 16, 0, 200);
 267:e:/LiteOS/LiteOS/targets/Cloud_FM33A0XX/GCC/../../../targets/Cloud_FM33A0XX/UserCode\neul_bc95.c ****         if (ret <= 0)
 268:e:/LiteOS/LiteOS/targets/Cloud_FM33A0XX/GCC/../../../targets/Cloud_FM33A0XX/UserCode\neul_bc95.c ****         {
 269:e:/LiteOS/LiteOS/targets/Cloud_FM33A0XX/GCC/../../../targets/Cloud_FM33A0XX/UserCode\neul_bc95.c ****             //read bc95 read set return value info failed
 270:e:/LiteOS/LiteOS/targets/Cloud_FM33A0XX/GCC/../../../targets/Cloud_FM33A0XX/UserCode\neul_bc95.c ****             return -3;
 271:e:/LiteOS/LiteOS/targets/Cloud_FM33A0XX/GCC/../../../targets/Cloud_FM33A0XX/UserCode\neul_bc95.c ****         }
 272:e:/LiteOS/LiteOS/targets/Cloud_FM33A0XX/GCC/../../../targets/Cloud_FM33A0XX/UserCode\neul_bc95.c ****         str = strstr(neul_dev.rbuf,"OK");
 273:e:/LiteOS/LiteOS/targets/Cloud_FM33A0XX/GCC/../../../targets/Cloud_FM33A0XX/UserCode\neul_bc95.c ****         if (NULL == str)
 274:e:/LiteOS/LiteOS/targets/Cloud_FM33A0XX/GCC/../../../targets/Cloud_FM33A0XX/UserCode\neul_bc95.c ****         {
 275:e:/LiteOS/LiteOS/targets/Cloud_FM33A0XX/GCC/../../../targets/Cloud_FM33A0XX/UserCode\neul_bc95.c ****             return -1;
 276:e:/LiteOS/LiteOS/targets/Cloud_FM33A0XX/GCC/../../../targets/Cloud_FM33A0XX/UserCode\neul_bc95.c ****         }
 277:e:/LiteOS/LiteOS/targets/Cloud_FM33A0XX/GCC/../../../targets/Cloud_FM33A0XX/UserCode\neul_bc95.c ****         str = strstr(neul_dev.rbuf,"+CGSN:");
 278:e:/LiteOS/LiteOS/targets/Cloud_FM33A0XX/GCC/../../../targets/Cloud_FM33A0XX/UserCode\neul_bc95.c ****         if (str && strlen(neul_dev.rbuf) >= 22)
 279:e:/LiteOS/LiteOS/targets/Cloud_FM33A0XX/GCC/../../../targets/Cloud_FM33A0XX/UserCode\neul_bc95.c ****         {
 280:e:/LiteOS/LiteOS/targets/Cloud_FM33A0XX/GCC/../../../targets/Cloud_FM33A0XX/UserCode\neul_bc95.c ****             return 0;
 281:e:/LiteOS/LiteOS/targets/Cloud_FM33A0XX/GCC/../../../targets/Cloud_FM33A0XX/UserCode\neul_bc95.c ****         }
 282:e:/LiteOS/LiteOS/targets/Cloud_FM33A0XX/GCC/../../../targets/Cloud_FM33A0XX/UserCode\neul_bc95.c ****         return -1;
 283:e:/LiteOS/LiteOS/targets/Cloud_FM33A0XX/GCC/../../../targets/Cloud_FM33A0XX/UserCode\neul_bc95.c ****     }
 284:e:/LiteOS/LiteOS/targets/Cloud_FM33A0XX/GCC/../../../targets/Cloud_FM33A0XX/UserCode\neul_bc95.c ****     return 0;
 285:e:/LiteOS/LiteOS/targets/Cloud_FM33A0XX/GCC/../../../targets/Cloud_FM33A0XX/UserCode\neul_bc95.c **** }
 286:e:/LiteOS/LiteOS/targets/Cloud_FM33A0XX/GCC/../../../targets/Cloud_FM33A0XX/UserCode\neul_bc95.c **** 
 287:e:/LiteOS/LiteOS/targets/Cloud_FM33A0XX/GCC/../../../targets/Cloud_FM33A0XX/UserCode\neul_bc95.c **** /* ============================================================
 288:e:/LiteOS/LiteOS/targets/Cloud_FM33A0XX/GCC/../../../targets/Cloud_FM33A0XX/UserCode\neul_bc95.c **** func name   :  int neul_bc95_check_imei
 289:e:/LiteOS/LiteOS/targets/Cloud_FM33A0XX/GCC/../../../targets/Cloud_FM33A0XX/UserCode\neul_bc95.c **** discription :  check if bc95 imei is setted 
 290:e:/LiteOS/LiteOS/targets/Cloud_FM33A0XX/GCC/../../../targets/Cloud_FM33A0XX/UserCode\neul_bc95.c **** param       :  None
 291:e:/LiteOS/LiteOS/targets/Cloud_FM33A0XX/GCC/../../../targets/Cloud_FM33A0XX/UserCode\neul_bc95.c **** return      :  1 imei already set, <=0 not set
 292:e:/LiteOS/LiteOS/targets/Cloud_FM33A0XX/GCC/../../../targets/Cloud_FM33A0XX/UserCode\neul_bc95.c **** Revision    : 
 293:e:/LiteOS/LiteOS/targets/Cloud_FM33A0XX/GCC/../../../targets/Cloud_FM33A0XX/UserCode\neul_bc95.c **** =============================================================== */
 294:e:/LiteOS/LiteOS/targets/Cloud_FM33A0XX/GCC/../../../targets/Cloud_FM33A0XX/UserCode\neul_bc95.c **** int neul_bc95_check_imei(void)
 295:e:/LiteOS/LiteOS/targets/Cloud_FM33A0XX/GCC/../../../targets/Cloud_FM33A0XX/UserCode\neul_bc95.c **** {
 296:e:/LiteOS/LiteOS/targets/Cloud_FM33A0XX/GCC/../../../targets/Cloud_FM33A0XX/UserCode\neul_bc95.c ****     int ret = 0;
 297:e:/LiteOS/LiteOS/targets/Cloud_FM33A0XX/GCC/../../../targets/Cloud_FM33A0XX/UserCode\neul_bc95.c ****     char *p2 = "AT+CGSN=1\r";
 298:e:/LiteOS/LiteOS/targets/Cloud_FM33A0XX/GCC/../../../targets/Cloud_FM33A0XX/UserCode\neul_bc95.c ****     char *str = NULL;
 299:e:/LiteOS/LiteOS/targets/Cloud_FM33A0XX/GCC/../../../targets/Cloud_FM33A0XX/UserCode\neul_bc95.c ****     int retry = 0;
 300:e:/LiteOS/LiteOS/targets/Cloud_FM33A0XX/GCC/../../../targets/Cloud_FM33A0XX/UserCode\neul_bc95.c ****     //int cmdlen = 0;
 301:e:/LiteOS/LiteOS/targets/Cloud_FM33A0XX/GCC/../../../targets/Cloud_FM33A0XX/UserCode\neul_bc95.c **** 
 302:e:/LiteOS/LiteOS/targets/Cloud_FM33A0XX/GCC/../../../targets/Cloud_FM33A0XX/UserCode\neul_bc95.c ****     if (NULL == neul_dev.wbuf)
 303:e:/LiteOS/LiteOS/targets/Cloud_FM33A0XX/GCC/../../../targets/Cloud_FM33A0XX/UserCode\neul_bc95.c ****     {
 304:e:/LiteOS/LiteOS/targets/Cloud_FM33A0XX/GCC/../../../targets/Cloud_FM33A0XX/UserCode\neul_bc95.c ****         return -2;
 305:e:/LiteOS/LiteOS/targets/Cloud_FM33A0XX/GCC/../../../targets/Cloud_FM33A0XX/UserCode\neul_bc95.c ****     }
 306:e:/LiteOS/LiteOS/targets/Cloud_FM33A0XX/GCC/../../../targets/Cloud_FM33A0XX/UserCode\neul_bc95.c ****     memset(neul_dev.wbuf, 0, 100);
 307:e:/LiteOS/LiteOS/targets/Cloud_FM33A0XX/GCC/../../../targets/Cloud_FM33A0XX/UserCode\neul_bc95.c ****     //cmdlen = strlen(p);
 308:e:/LiteOS/LiteOS/targets/Cloud_FM33A0XX/GCC/../../../targets/Cloud_FM33A0XX/UserCode\neul_bc95.c ****     //memcpy(neul_dev.wbuf, p, cmdlen);
 309:e:/LiteOS/LiteOS/targets/Cloud_FM33A0XX/GCC/../../../targets/Cloud_FM33A0XX/UserCode\neul_bc95.c ****     //memcpy(neul_dev.wbuf+cmdlen, imei, len);
 310:e:/LiteOS/LiteOS/targets/Cloud_FM33A0XX/GCC/../../../targets/Cloud_FM33A0XX/UserCode\neul_bc95.c **** 		//read imei info
 311:e:/LiteOS/LiteOS/targets/Cloud_FM33A0XX/GCC/../../../targets/Cloud_FM33A0XX/UserCode\neul_bc95.c ****     while(retry < 3)
 312:e:/LiteOS/LiteOS/targets/Cloud_FM33A0XX/GCC/../../../targets/Cloud_FM33A0XX/UserCode\neul_bc95.c ****     {
 313:e:/LiteOS/LiteOS/targets/Cloud_FM33A0XX/GCC/../../../targets/Cloud_FM33A0XX/UserCode\neul_bc95.c ****         retry++;
 314:e:/LiteOS/LiteOS/targets/Cloud_FM33A0XX/GCC/../../../targets/Cloud_FM33A0XX/UserCode\neul_bc95.c **** 		ret = neul_dev.ops->dev_write(p2, strlen(p2), 0);
 315:e:/LiteOS/LiteOS/targets/Cloud_FM33A0XX/GCC/../../../targets/Cloud_FM33A0XX/UserCode\neul_bc95.c **** 		if (ret < 0)
 316:e:/LiteOS/LiteOS/targets/Cloud_FM33A0XX/GCC/../../../targets/Cloud_FM33A0XX/UserCode\neul_bc95.c **** 		{
 317:e:/LiteOS/LiteOS/targets/Cloud_FM33A0XX/GCC/../../../targets/Cloud_FM33A0XX/UserCode\neul_bc95.c ****             //write data to bc95 failed
ARM GAS  C:\Users\WANGBI~1\AppData\Local\Temp\ccSpmgug.s 			page 7


 318:e:/LiteOS/LiteOS/targets/Cloud_FM33A0XX/GCC/../../../targets/Cloud_FM33A0XX/UserCode\neul_bc95.c ****             return -1;
 319:e:/LiteOS/LiteOS/targets/Cloud_FM33A0XX/GCC/../../../targets/Cloud_FM33A0XX/UserCode\neul_bc95.c **** 		}
 320:e:/LiteOS/LiteOS/targets/Cloud_FM33A0XX/GCC/../../../targets/Cloud_FM33A0XX/UserCode\neul_bc95.c **** 		memset(neul_dev.rbuf, 0, 64);
 321:e:/LiteOS/LiteOS/targets/Cloud_FM33A0XX/GCC/../../../targets/Cloud_FM33A0XX/UserCode\neul_bc95.c **** 		ret = neul_dev.ops->dev_read(neul_dev.rbuf, 32, 0, 300);
 322:e:/LiteOS/LiteOS/targets/Cloud_FM33A0XX/GCC/../../../targets/Cloud_FM33A0XX/UserCode\neul_bc95.c **** 		if (ret <= 0)
 323:e:/LiteOS/LiteOS/targets/Cloud_FM33A0XX/GCC/../../../targets/Cloud_FM33A0XX/UserCode\neul_bc95.c **** 		{
 324:e:/LiteOS/LiteOS/targets/Cloud_FM33A0XX/GCC/../../../targets/Cloud_FM33A0XX/UserCode\neul_bc95.c ****             //read bc95 read set return value info failed
 325:e:/LiteOS/LiteOS/targets/Cloud_FM33A0XX/GCC/../../../targets/Cloud_FM33A0XX/UserCode\neul_bc95.c ****             return -3;
 326:e:/LiteOS/LiteOS/targets/Cloud_FM33A0XX/GCC/../../../targets/Cloud_FM33A0XX/UserCode\neul_bc95.c **** 		}
 327:e:/LiteOS/LiteOS/targets/Cloud_FM33A0XX/GCC/../../../targets/Cloud_FM33A0XX/UserCode\neul_bc95.c **** 		str = strstr(neul_dev.rbuf,"OK");
 328:e:/LiteOS/LiteOS/targets/Cloud_FM33A0XX/GCC/../../../targets/Cloud_FM33A0XX/UserCode\neul_bc95.c **** 		if (NULL == str)
 329:e:/LiteOS/LiteOS/targets/Cloud_FM33A0XX/GCC/../../../targets/Cloud_FM33A0XX/UserCode\neul_bc95.c **** 		{
 330:e:/LiteOS/LiteOS/targets/Cloud_FM33A0XX/GCC/../../../targets/Cloud_FM33A0XX/UserCode\neul_bc95.c ****             str = strstr(neul_dev.rbuf,"ERROR");
 331:e:/LiteOS/LiteOS/targets/Cloud_FM33A0XX/GCC/../../../targets/Cloud_FM33A0XX/UserCode\neul_bc95.c ****             if (NULL != str)
 332:e:/LiteOS/LiteOS/targets/Cloud_FM33A0XX/GCC/../../../targets/Cloud_FM33A0XX/UserCode\neul_bc95.c ****             {
 333:e:/LiteOS/LiteOS/targets/Cloud_FM33A0XX/GCC/../../../targets/Cloud_FM33A0XX/UserCode\neul_bc95.c ****                 continue;
 334:e:/LiteOS/LiteOS/targets/Cloud_FM33A0XX/GCC/../../../targets/Cloud_FM33A0XX/UserCode\neul_bc95.c ****             }
 335:e:/LiteOS/LiteOS/targets/Cloud_FM33A0XX/GCC/../../../targets/Cloud_FM33A0XX/UserCode\neul_bc95.c **** 		}
 336:e:/LiteOS/LiteOS/targets/Cloud_FM33A0XX/GCC/../../../targets/Cloud_FM33A0XX/UserCode\neul_bc95.c **** 		str = strstr(neul_dev.rbuf,"+CGSN:");
 337:e:/LiteOS/LiteOS/targets/Cloud_FM33A0XX/GCC/../../../targets/Cloud_FM33A0XX/UserCode\neul_bc95.c **** 		if (str && strlen(neul_dev.rbuf) >= 22)
 338:e:/LiteOS/LiteOS/targets/Cloud_FM33A0XX/GCC/../../../targets/Cloud_FM33A0XX/UserCode\neul_bc95.c **** 		{
 339:e:/LiteOS/LiteOS/targets/Cloud_FM33A0XX/GCC/../../../targets/Cloud_FM33A0XX/UserCode\neul_bc95.c ****             return 1;
 340:e:/LiteOS/LiteOS/targets/Cloud_FM33A0XX/GCC/../../../targets/Cloud_FM33A0XX/UserCode\neul_bc95.c **** 		}
 341:e:/LiteOS/LiteOS/targets/Cloud_FM33A0XX/GCC/../../../targets/Cloud_FM33A0XX/UserCode\neul_bc95.c ****     }
 342:e:/LiteOS/LiteOS/targets/Cloud_FM33A0XX/GCC/../../../targets/Cloud_FM33A0XX/UserCode\neul_bc95.c ****     return 0;
 343:e:/LiteOS/LiteOS/targets/Cloud_FM33A0XX/GCC/../../../targets/Cloud_FM33A0XX/UserCode\neul_bc95.c **** }
 344:e:/LiteOS/LiteOS/targets/Cloud_FM33A0XX/GCC/../../../targets/Cloud_FM33A0XX/UserCode\neul_bc95.c **** 
 345:e:/LiteOS/LiteOS/targets/Cloud_FM33A0XX/GCC/../../../targets/Cloud_FM33A0XX/UserCode\neul_bc95.c **** 
 346:e:/LiteOS/LiteOS/targets/Cloud_FM33A0XX/GCC/../../../targets/Cloud_FM33A0XX/UserCode\neul_bc95.c **** /* ============================================================
 347:e:/LiteOS/LiteOS/targets/Cloud_FM33A0XX/GCC/../../../targets/Cloud_FM33A0XX/UserCode\neul_bc95.c **** func name   :  neul_bc95_set_band
 348:e:/LiteOS/LiteOS/targets/Cloud_FM33A0XX/GCC/../../../targets/Cloud_FM33A0XX/UserCode\neul_bc95.c **** discription :  set bc95 work band 
 349:e:/LiteOS/LiteOS/targets/Cloud_FM33A0XX/GCC/../../../targets/Cloud_FM33A0XX/UserCode\neul_bc95.c **** param       :  
 350:e:/LiteOS/LiteOS/targets/Cloud_FM33A0XX/GCC/../../../targets/Cloud_FM33A0XX/UserCode\neul_bc95.c ****                band @ input param, bc95 work band BC95-CM set to 8, 
 351:e:/LiteOS/LiteOS/targets/Cloud_FM33A0XX/GCC/../../../targets/Cloud_FM33A0XX/UserCode\neul_bc95.c ****                       BC95-SL set to 5, BC95-VF set to 20
 352:e:/LiteOS/LiteOS/targets/Cloud_FM33A0XX/GCC/../../../targets/Cloud_FM33A0XX/UserCode\neul_bc95.c **** return      :  0 set ok , !0 not ok
 353:e:/LiteOS/LiteOS/targets/Cloud_FM33A0XX/GCC/../../../targets/Cloud_FM33A0XX/UserCode\neul_bc95.c **** Revision    : 
 354:e:/LiteOS/LiteOS/targets/Cloud_FM33A0XX/GCC/../../../targets/Cloud_FM33A0XX/UserCode\neul_bc95.c **** =============================================================== */
 355:e:/LiteOS/LiteOS/targets/Cloud_FM33A0XX/GCC/../../../targets/Cloud_FM33A0XX/UserCode\neul_bc95.c **** int neul_bc95_set_band(int band)
 356:e:/LiteOS/LiteOS/targets/Cloud_FM33A0XX/GCC/../../../targets/Cloud_FM33A0XX/UserCode\neul_bc95.c **** {
 357:e:/LiteOS/LiteOS/targets/Cloud_FM33A0XX/GCC/../../../targets/Cloud_FM33A0XX/UserCode\neul_bc95.c ****     char *p = "AT+NBAND=";
 358:e:/LiteOS/LiteOS/targets/Cloud_FM33A0XX/GCC/../../../targets/Cloud_FM33A0XX/UserCode\neul_bc95.c ****     int ret = 0;
 359:e:/LiteOS/LiteOS/targets/Cloud_FM33A0XX/GCC/../../../targets/Cloud_FM33A0XX/UserCode\neul_bc95.c ****     char *str = NULL;
 360:e:/LiteOS/LiteOS/targets/Cloud_FM33A0XX/GCC/../../../targets/Cloud_FM33A0XX/UserCode\neul_bc95.c ****     memset(neul_dev.wbuf, 0, 16);
 361:e:/LiteOS/LiteOS/targets/Cloud_FM33A0XX/GCC/../../../targets/Cloud_FM33A0XX/UserCode\neul_bc95.c ****     if (band == 8 || band == 5 || band == 20)
 362:e:/LiteOS/LiteOS/targets/Cloud_FM33A0XX/GCC/../../../targets/Cloud_FM33A0XX/UserCode\neul_bc95.c ****     {
 363:e:/LiteOS/LiteOS/targets/Cloud_FM33A0XX/GCC/../../../targets/Cloud_FM33A0XX/UserCode\neul_bc95.c ****         sprintf(neul_dev.wbuf, "%s%d%c", p, band, '\r');
 364:e:/LiteOS/LiteOS/targets/Cloud_FM33A0XX/GCC/../../../targets/Cloud_FM33A0XX/UserCode\neul_bc95.c ****     }
 365:e:/LiteOS/LiteOS/targets/Cloud_FM33A0XX/GCC/../../../targets/Cloud_FM33A0XX/UserCode\neul_bc95.c ****     else
 366:e:/LiteOS/LiteOS/targets/Cloud_FM33A0XX/GCC/../../../targets/Cloud_FM33A0XX/UserCode\neul_bc95.c ****     {
 367:e:/LiteOS/LiteOS/targets/Cloud_FM33A0XX/GCC/../../../targets/Cloud_FM33A0XX/UserCode\neul_bc95.c ****         //error band for bc95
 368:e:/LiteOS/LiteOS/targets/Cloud_FM33A0XX/GCC/../../../targets/Cloud_FM33A0XX/UserCode\neul_bc95.c ****         return -1;
 369:e:/LiteOS/LiteOS/targets/Cloud_FM33A0XX/GCC/../../../targets/Cloud_FM33A0XX/UserCode\neul_bc95.c ****     }
 370:e:/LiteOS/LiteOS/targets/Cloud_FM33A0XX/GCC/../../../targets/Cloud_FM33A0XX/UserCode\neul_bc95.c ****     ret = neul_dev.ops->dev_write(neul_dev.wbuf, strlen(neul_dev.wbuf), 0);
 371:e:/LiteOS/LiteOS/targets/Cloud_FM33A0XX/GCC/../../../targets/Cloud_FM33A0XX/UserCode\neul_bc95.c ****     if (ret < 0)
 372:e:/LiteOS/LiteOS/targets/Cloud_FM33A0XX/GCC/../../../targets/Cloud_FM33A0XX/UserCode\neul_bc95.c ****     {
 373:e:/LiteOS/LiteOS/targets/Cloud_FM33A0XX/GCC/../../../targets/Cloud_FM33A0XX/UserCode\neul_bc95.c ****         //write data to bc95 failed
 374:e:/LiteOS/LiteOS/targets/Cloud_FM33A0XX/GCC/../../../targets/Cloud_FM33A0XX/UserCode\neul_bc95.c ****         return -1;
ARM GAS  C:\Users\WANGBI~1\AppData\Local\Temp\ccSpmgug.s 			page 8


 375:e:/LiteOS/LiteOS/targets/Cloud_FM33A0XX/GCC/../../../targets/Cloud_FM33A0XX/UserCode\neul_bc95.c ****     }
 376:e:/LiteOS/LiteOS/targets/Cloud_FM33A0XX/GCC/../../../targets/Cloud_FM33A0XX/UserCode\neul_bc95.c ****     memset(neul_dev.rbuf, 0, 16);
 377:e:/LiteOS/LiteOS/targets/Cloud_FM33A0XX/GCC/../../../targets/Cloud_FM33A0XX/UserCode\neul_bc95.c ****     ret = neul_dev.ops->dev_read(neul_dev.rbuf, 16, 0, 200);
 378:e:/LiteOS/LiteOS/targets/Cloud_FM33A0XX/GCC/../../../targets/Cloud_FM33A0XX/UserCode\neul_bc95.c ****     if (ret <= 0)
 379:e:/LiteOS/LiteOS/targets/Cloud_FM33A0XX/GCC/../../../targets/Cloud_FM33A0XX/UserCode\neul_bc95.c ****     {
 380:e:/LiteOS/LiteOS/targets/Cloud_FM33A0XX/GCC/../../../targets/Cloud_FM33A0XX/UserCode\neul_bc95.c ****         //read bc95 read set return value info failed
 381:e:/LiteOS/LiteOS/targets/Cloud_FM33A0XX/GCC/../../../targets/Cloud_FM33A0XX/UserCode\neul_bc95.c ****         return -3;
 382:e:/LiteOS/LiteOS/targets/Cloud_FM33A0XX/GCC/../../../targets/Cloud_FM33A0XX/UserCode\neul_bc95.c ****     }
 383:e:/LiteOS/LiteOS/targets/Cloud_FM33A0XX/GCC/../../../targets/Cloud_FM33A0XX/UserCode\neul_bc95.c ****     str = strstr(neul_dev.rbuf,"OK");
 384:e:/LiteOS/LiteOS/targets/Cloud_FM33A0XX/GCC/../../../targets/Cloud_FM33A0XX/UserCode\neul_bc95.c ****     if (NULL == str)
 385:e:/LiteOS/LiteOS/targets/Cloud_FM33A0XX/GCC/../../../targets/Cloud_FM33A0XX/UserCode\neul_bc95.c ****     {
 386:e:/LiteOS/LiteOS/targets/Cloud_FM33A0XX/GCC/../../../targets/Cloud_FM33A0XX/UserCode\neul_bc95.c ****         return -1;
 387:e:/LiteOS/LiteOS/targets/Cloud_FM33A0XX/GCC/../../../targets/Cloud_FM33A0XX/UserCode\neul_bc95.c ****     }
 388:e:/LiteOS/LiteOS/targets/Cloud_FM33A0XX/GCC/../../../targets/Cloud_FM33A0XX/UserCode\neul_bc95.c ****     return 0;
 389:e:/LiteOS/LiteOS/targets/Cloud_FM33A0XX/GCC/../../../targets/Cloud_FM33A0XX/UserCode\neul_bc95.c **** }
 390:e:/LiteOS/LiteOS/targets/Cloud_FM33A0XX/GCC/../../../targets/Cloud_FM33A0XX/UserCode\neul_bc95.c **** 
 391:e:/LiteOS/LiteOS/targets/Cloud_FM33A0XX/GCC/../../../targets/Cloud_FM33A0XX/UserCode\neul_bc95.c **** /* ============================================================
 392:e:/LiteOS/LiteOS/targets/Cloud_FM33A0XX/GCC/../../../targets/Cloud_FM33A0XX/UserCode\neul_bc95.c **** func name   :  neul_bc95_active_network
 393:e:/LiteOS/LiteOS/targets/Cloud_FM33A0XX/GCC/../../../targets/Cloud_FM33A0XX/UserCode\neul_bc95.c **** discription :  active bc95's network 
 394:e:/LiteOS/LiteOS/targets/Cloud_FM33A0XX/GCC/../../../targets/Cloud_FM33A0XX/UserCode\neul_bc95.c ****                this will take some time
 395:e:/LiteOS/LiteOS/targets/Cloud_FM33A0XX/GCC/../../../targets/Cloud_FM33A0XX/UserCode\neul_bc95.c **** param       :  None
 396:e:/LiteOS/LiteOS/targets/Cloud_FM33A0XX/GCC/../../../targets/Cloud_FM33A0XX/UserCode\neul_bc95.c **** return      :  0 set ok , !0 not ok
 397:e:/LiteOS/LiteOS/targets/Cloud_FM33A0XX/GCC/../../../targets/Cloud_FM33A0XX/UserCode\neul_bc95.c **** Revision    : 
 398:e:/LiteOS/LiteOS/targets/Cloud_FM33A0XX/GCC/../../../targets/Cloud_FM33A0XX/UserCode\neul_bc95.c **** =============================================================== */
 399:e:/LiteOS/LiteOS/targets/Cloud_FM33A0XX/GCC/../../../targets/Cloud_FM33A0XX/UserCode\neul_bc95.c **** int neul_bc95_active_network(void)
 400:e:/LiteOS/LiteOS/targets/Cloud_FM33A0XX/GCC/../../../targets/Cloud_FM33A0XX/UserCode\neul_bc95.c **** {
 401:e:/LiteOS/LiteOS/targets/Cloud_FM33A0XX/GCC/../../../targets/Cloud_FM33A0XX/UserCode\neul_bc95.c ****     int ret = 0;
 402:e:/LiteOS/LiteOS/targets/Cloud_FM33A0XX/GCC/../../../targets/Cloud_FM33A0XX/UserCode\neul_bc95.c ****     char *str = NULL;
 403:e:/LiteOS/LiteOS/targets/Cloud_FM33A0XX/GCC/../../../targets/Cloud_FM33A0XX/UserCode\neul_bc95.c ****     char *cmd0 = "AT+CGSN=1\r";
 404:e:/LiteOS/LiteOS/targets/Cloud_FM33A0XX/GCC/../../../targets/Cloud_FM33A0XX/UserCode\neul_bc95.c ****     char *cmd1 = "AT+CFUN=1\r"; 
 405:e:/LiteOS/LiteOS/targets/Cloud_FM33A0XX/GCC/../../../targets/Cloud_FM33A0XX/UserCode\neul_bc95.c ****     char *cmd2 = "AT+CIMI\r";
 406:e:/LiteOS/LiteOS/targets/Cloud_FM33A0XX/GCC/../../../targets/Cloud_FM33A0XX/UserCode\neul_bc95.c ****     //char *cmd3 = "AT+CGDCONT=1,\"IP\",\"HUAWEI.COM\"\r";
 407:e:/LiteOS/LiteOS/targets/Cloud_FM33A0XX/GCC/../../../targets/Cloud_FM33A0XX/UserCode\neul_bc95.c ****     char *cmd4 = "AT+CGATT=1\r";
 408:e:/LiteOS/LiteOS/targets/Cloud_FM33A0XX/GCC/../../../targets/Cloud_FM33A0XX/UserCode\neul_bc95.c **** 
 409:e:/LiteOS/LiteOS/targets/Cloud_FM33A0XX/GCC/../../../targets/Cloud_FM33A0XX/UserCode\neul_bc95.c ****     /* Get SN */
 410:e:/LiteOS/LiteOS/targets/Cloud_FM33A0XX/GCC/../../../targets/Cloud_FM33A0XX/UserCode\neul_bc95.c ****     ret = neul_dev.ops->dev_write(cmd0, strlen(cmd0), 0);
 411:e:/LiteOS/LiteOS/targets/Cloud_FM33A0XX/GCC/../../../targets/Cloud_FM33A0XX/UserCode\neul_bc95.c ****     if (ret < 0)
 412:e:/LiteOS/LiteOS/targets/Cloud_FM33A0XX/GCC/../../../targets/Cloud_FM33A0XX/UserCode\neul_bc95.c ****     {
 413:e:/LiteOS/LiteOS/targets/Cloud_FM33A0XX/GCC/../../../targets/Cloud_FM33A0XX/UserCode\neul_bc95.c ****         //write data to bc95 failed
 414:e:/LiteOS/LiteOS/targets/Cloud_FM33A0XX/GCC/../../../targets/Cloud_FM33A0XX/UserCode\neul_bc95.c ****         return -1;
 415:e:/LiteOS/LiteOS/targets/Cloud_FM33A0XX/GCC/../../../targets/Cloud_FM33A0XX/UserCode\neul_bc95.c ****     }
 416:e:/LiteOS/LiteOS/targets/Cloud_FM33A0XX/GCC/../../../targets/Cloud_FM33A0XX/UserCode\neul_bc95.c ****     memset(neul_dev.rbuf, 0, 32);
 417:e:/LiteOS/LiteOS/targets/Cloud_FM33A0XX/GCC/../../../targets/Cloud_FM33A0XX/UserCode\neul_bc95.c ****     ret = neul_dev.ops->dev_read(neul_dev.rbuf, 32, 0, 200);
 418:e:/LiteOS/LiteOS/targets/Cloud_FM33A0XX/GCC/../../../targets/Cloud_FM33A0XX/UserCode\neul_bc95.c ****     if (ret <= 0)
 419:e:/LiteOS/LiteOS/targets/Cloud_FM33A0XX/GCC/../../../targets/Cloud_FM33A0XX/UserCode\neul_bc95.c ****     {
 420:e:/LiteOS/LiteOS/targets/Cloud_FM33A0XX/GCC/../../../targets/Cloud_FM33A0XX/UserCode\neul_bc95.c ****         //read bc95 read set return value info failed
 421:e:/LiteOS/LiteOS/targets/Cloud_FM33A0XX/GCC/../../../targets/Cloud_FM33A0XX/UserCode\neul_bc95.c ****         return -1;
 422:e:/LiteOS/LiteOS/targets/Cloud_FM33A0XX/GCC/../../../targets/Cloud_FM33A0XX/UserCode\neul_bc95.c ****     }
 423:e:/LiteOS/LiteOS/targets/Cloud_FM33A0XX/GCC/../../../targets/Cloud_FM33A0XX/UserCode\neul_bc95.c ****     str = strstr(neul_dev.rbuf,"+CGSN:");
 424:e:/LiteOS/LiteOS/targets/Cloud_FM33A0XX/GCC/../../../targets/Cloud_FM33A0XX/UserCode\neul_bc95.c ****     if (!str)
 425:e:/LiteOS/LiteOS/targets/Cloud_FM33A0XX/GCC/../../../targets/Cloud_FM33A0XX/UserCode\neul_bc95.c ****     {
 426:e:/LiteOS/LiteOS/targets/Cloud_FM33A0XX/GCC/../../../targets/Cloud_FM33A0XX/UserCode\neul_bc95.c ****         return -1;
 427:e:/LiteOS/LiteOS/targets/Cloud_FM33A0XX/GCC/../../../targets/Cloud_FM33A0XX/UserCode\neul_bc95.c ****     }
 428:e:/LiteOS/LiteOS/targets/Cloud_FM33A0XX/GCC/../../../targets/Cloud_FM33A0XX/UserCode\neul_bc95.c ****     if (strlen(str) < 25)
 429:e:/LiteOS/LiteOS/targets/Cloud_FM33A0XX/GCC/../../../targets/Cloud_FM33A0XX/UserCode\neul_bc95.c ****     {
 430:e:/LiteOS/LiteOS/targets/Cloud_FM33A0XX/GCC/../../../targets/Cloud_FM33A0XX/UserCode\neul_bc95.c ****         return -1;
 431:e:/LiteOS/LiteOS/targets/Cloud_FM33A0XX/GCC/../../../targets/Cloud_FM33A0XX/UserCode\neul_bc95.c ****     }
ARM GAS  C:\Users\WANGBI~1\AppData\Local\Temp\ccSpmgug.s 			page 9


 432:e:/LiteOS/LiteOS/targets/Cloud_FM33A0XX/GCC/../../../targets/Cloud_FM33A0XX/UserCode\neul_bc95.c ****     
 433:e:/LiteOS/LiteOS/targets/Cloud_FM33A0XX/GCC/../../../targets/Cloud_FM33A0XX/UserCode\neul_bc95.c ****     /* Config CFUN */
 434:e:/LiteOS/LiteOS/targets/Cloud_FM33A0XX/GCC/../../../targets/Cloud_FM33A0XX/UserCode\neul_bc95.c ****     ret = neul_dev.ops->dev_write(cmd1, strlen(cmd1), 0);
 435:e:/LiteOS/LiteOS/targets/Cloud_FM33A0XX/GCC/../../../targets/Cloud_FM33A0XX/UserCode\neul_bc95.c ****     if (ret < 0)
 436:e:/LiteOS/LiteOS/targets/Cloud_FM33A0XX/GCC/../../../targets/Cloud_FM33A0XX/UserCode\neul_bc95.c ****     {
 437:e:/LiteOS/LiteOS/targets/Cloud_FM33A0XX/GCC/../../../targets/Cloud_FM33A0XX/UserCode\neul_bc95.c ****         //write data to bc95 failed
 438:e:/LiteOS/LiteOS/targets/Cloud_FM33A0XX/GCC/../../../targets/Cloud_FM33A0XX/UserCode\neul_bc95.c ****         return -1;
 439:e:/LiteOS/LiteOS/targets/Cloud_FM33A0XX/GCC/../../../targets/Cloud_FM33A0XX/UserCode\neul_bc95.c ****     }
 440:e:/LiteOS/LiteOS/targets/Cloud_FM33A0XX/GCC/../../../targets/Cloud_FM33A0XX/UserCode\neul_bc95.c ****     //neul_bc95_sleep(4000);//need wait 4 sconds or more, it's a little long
 441:e:/LiteOS/LiteOS/targets/Cloud_FM33A0XX/GCC/../../../targets/Cloud_FM33A0XX/UserCode\neul_bc95.c ****     memset(neul_dev.rbuf, 0, 32);
 442:e:/LiteOS/LiteOS/targets/Cloud_FM33A0XX/GCC/../../../targets/Cloud_FM33A0XX/UserCode\neul_bc95.c ****     ret = neul_dev.ops->dev_read(neul_dev.rbuf, 6, 0, 5000);
 443:e:/LiteOS/LiteOS/targets/Cloud_FM33A0XX/GCC/../../../targets/Cloud_FM33A0XX/UserCode\neul_bc95.c ****     if (ret <= 0)
 444:e:/LiteOS/LiteOS/targets/Cloud_FM33A0XX/GCC/../../../targets/Cloud_FM33A0XX/UserCode\neul_bc95.c ****     {
 445:e:/LiteOS/LiteOS/targets/Cloud_FM33A0XX/GCC/../../../targets/Cloud_FM33A0XX/UserCode\neul_bc95.c ****         //read bc95 read set return value info failed
 446:e:/LiteOS/LiteOS/targets/Cloud_FM33A0XX/GCC/../../../targets/Cloud_FM33A0XX/UserCode\neul_bc95.c ****         return -1;
 447:e:/LiteOS/LiteOS/targets/Cloud_FM33A0XX/GCC/../../../targets/Cloud_FM33A0XX/UserCode\neul_bc95.c ****     }
 448:e:/LiteOS/LiteOS/targets/Cloud_FM33A0XX/GCC/../../../targets/Cloud_FM33A0XX/UserCode\neul_bc95.c ****     str = strstr(neul_dev.rbuf,"OK");
 449:e:/LiteOS/LiteOS/targets/Cloud_FM33A0XX/GCC/../../../targets/Cloud_FM33A0XX/UserCode\neul_bc95.c ****     if (!str)
 450:e:/LiteOS/LiteOS/targets/Cloud_FM33A0XX/GCC/../../../targets/Cloud_FM33A0XX/UserCode\neul_bc95.c ****     {
 451:e:/LiteOS/LiteOS/targets/Cloud_FM33A0XX/GCC/../../../targets/Cloud_FM33A0XX/UserCode\neul_bc95.c ****         return -1;
 452:e:/LiteOS/LiteOS/targets/Cloud_FM33A0XX/GCC/../../../targets/Cloud_FM33A0XX/UserCode\neul_bc95.c ****     }    
 453:e:/LiteOS/LiteOS/targets/Cloud_FM33A0XX/GCC/../../../targets/Cloud_FM33A0XX/UserCode\neul_bc95.c ****  
 454:e:/LiteOS/LiteOS/targets/Cloud_FM33A0XX/GCC/../../../targets/Cloud_FM33A0XX/UserCode\neul_bc95.c ****     neul_bc95_sleep(1000);
 455:e:/LiteOS/LiteOS/targets/Cloud_FM33A0XX/GCC/../../../targets/Cloud_FM33A0XX/UserCode\neul_bc95.c ****     /* Get IMSI */
 456:e:/LiteOS/LiteOS/targets/Cloud_FM33A0XX/GCC/../../../targets/Cloud_FM33A0XX/UserCode\neul_bc95.c ****     ret = neul_dev.ops->dev_write(cmd2, strlen(cmd2), 0);
 457:e:/LiteOS/LiteOS/targets/Cloud_FM33A0XX/GCC/../../../targets/Cloud_FM33A0XX/UserCode\neul_bc95.c ****     if (ret < 0)
 458:e:/LiteOS/LiteOS/targets/Cloud_FM33A0XX/GCC/../../../targets/Cloud_FM33A0XX/UserCode\neul_bc95.c ****     {
 459:e:/LiteOS/LiteOS/targets/Cloud_FM33A0XX/GCC/../../../targets/Cloud_FM33A0XX/UserCode\neul_bc95.c ****         //write data to bc95 failed
 460:e:/LiteOS/LiteOS/targets/Cloud_FM33A0XX/GCC/../../../targets/Cloud_FM33A0XX/UserCode\neul_bc95.c ****         return -1;
 461:e:/LiteOS/LiteOS/targets/Cloud_FM33A0XX/GCC/../../../targets/Cloud_FM33A0XX/UserCode\neul_bc95.c ****     }
 462:e:/LiteOS/LiteOS/targets/Cloud_FM33A0XX/GCC/../../../targets/Cloud_FM33A0XX/UserCode\neul_bc95.c ****     memset(neul_dev.rbuf, 0, 32);
 463:e:/LiteOS/LiteOS/targets/Cloud_FM33A0XX/GCC/../../../targets/Cloud_FM33A0XX/UserCode\neul_bc95.c ****     ret = neul_dev.ops->dev_read(neul_dev.rbuf, 32, 0, 200);
 464:e:/LiteOS/LiteOS/targets/Cloud_FM33A0XX/GCC/../../../targets/Cloud_FM33A0XX/UserCode\neul_bc95.c ****     if (ret <= 0)
 465:e:/LiteOS/LiteOS/targets/Cloud_FM33A0XX/GCC/../../../targets/Cloud_FM33A0XX/UserCode\neul_bc95.c ****     {
 466:e:/LiteOS/LiteOS/targets/Cloud_FM33A0XX/GCC/../../../targets/Cloud_FM33A0XX/UserCode\neul_bc95.c ****         //read bc95 read set return value info failed
 467:e:/LiteOS/LiteOS/targets/Cloud_FM33A0XX/GCC/../../../targets/Cloud_FM33A0XX/UserCode\neul_bc95.c ****         return -1;
 468:e:/LiteOS/LiteOS/targets/Cloud_FM33A0XX/GCC/../../../targets/Cloud_FM33A0XX/UserCode\neul_bc95.c ****     }
 469:e:/LiteOS/LiteOS/targets/Cloud_FM33A0XX/GCC/../../../targets/Cloud_FM33A0XX/UserCode\neul_bc95.c ****     str = strstr(neul_dev.rbuf,"OK");
 470:e:/LiteOS/LiteOS/targets/Cloud_FM33A0XX/GCC/../../../targets/Cloud_FM33A0XX/UserCode\neul_bc95.c ****     if (!str)
 471:e:/LiteOS/LiteOS/targets/Cloud_FM33A0XX/GCC/../../../targets/Cloud_FM33A0XX/UserCode\neul_bc95.c ****     {
 472:e:/LiteOS/LiteOS/targets/Cloud_FM33A0XX/GCC/../../../targets/Cloud_FM33A0XX/UserCode\neul_bc95.c ****         return -1;
 473:e:/LiteOS/LiteOS/targets/Cloud_FM33A0XX/GCC/../../../targets/Cloud_FM33A0XX/UserCode\neul_bc95.c ****     }
 474:e:/LiteOS/LiteOS/targets/Cloud_FM33A0XX/GCC/../../../targets/Cloud_FM33A0XX/UserCode\neul_bc95.c ****     if (strlen(neul_dev.rbuf) < 19)
 475:e:/LiteOS/LiteOS/targets/Cloud_FM33A0XX/GCC/../../../targets/Cloud_FM33A0XX/UserCode\neul_bc95.c ****     {
 476:e:/LiteOS/LiteOS/targets/Cloud_FM33A0XX/GCC/../../../targets/Cloud_FM33A0XX/UserCode\neul_bc95.c ****         return -1;
 477:e:/LiteOS/LiteOS/targets/Cloud_FM33A0XX/GCC/../../../targets/Cloud_FM33A0XX/UserCode\neul_bc95.c ****     }
 478:e:/LiteOS/LiteOS/targets/Cloud_FM33A0XX/GCC/../../../targets/Cloud_FM33A0XX/UserCode\neul_bc95.c ****     
 479:e:/LiteOS/LiteOS/targets/Cloud_FM33A0XX/GCC/../../../targets/Cloud_FM33A0XX/UserCode\neul_bc95.c ****     /* set band to do... */
 480:e:/LiteOS/LiteOS/targets/Cloud_FM33A0XX/GCC/../../../targets/Cloud_FM33A0XX/UserCode\neul_bc95.c ****     ret = neul_bc95_set_band(5);
 481:e:/LiteOS/LiteOS/targets/Cloud_FM33A0XX/GCC/../../../targets/Cloud_FM33A0XX/UserCode\neul_bc95.c ****     if (ret < 0)
 482:e:/LiteOS/LiteOS/targets/Cloud_FM33A0XX/GCC/../../../targets/Cloud_FM33A0XX/UserCode\neul_bc95.c ****     {
 483:e:/LiteOS/LiteOS/targets/Cloud_FM33A0XX/GCC/../../../targets/Cloud_FM33A0XX/UserCode\neul_bc95.c ****         return -1;
 484:e:/LiteOS/LiteOS/targets/Cloud_FM33A0XX/GCC/../../../targets/Cloud_FM33A0XX/UserCode\neul_bc95.c ****     }
 485:e:/LiteOS/LiteOS/targets/Cloud_FM33A0XX/GCC/../../../targets/Cloud_FM33A0XX/UserCode\neul_bc95.c ****     #if 0
 486:e:/LiteOS/LiteOS/targets/Cloud_FM33A0XX/GCC/../../../targets/Cloud_FM33A0XX/UserCode\neul_bc95.c ****     /* Config apn */
 487:e:/LiteOS/LiteOS/targets/Cloud_FM33A0XX/GCC/../../../targets/Cloud_FM33A0XX/UserCode\neul_bc95.c ****     ret = neul_dev.ops->dev_write(cmd3, strlen(cmd3), 0);
 488:e:/LiteOS/LiteOS/targets/Cloud_FM33A0XX/GCC/../../../targets/Cloud_FM33A0XX/UserCode\neul_bc95.c ****     if (ret < 0)
ARM GAS  C:\Users\WANGBI~1\AppData\Local\Temp\ccSpmgug.s 			page 10


 489:e:/LiteOS/LiteOS/targets/Cloud_FM33A0XX/GCC/../../../targets/Cloud_FM33A0XX/UserCode\neul_bc95.c ****     {
 490:e:/LiteOS/LiteOS/targets/Cloud_FM33A0XX/GCC/../../../targets/Cloud_FM33A0XX/UserCode\neul_bc95.c ****         //write data to bc95 failed
 491:e:/LiteOS/LiteOS/targets/Cloud_FM33A0XX/GCC/../../../targets/Cloud_FM33A0XX/UserCode\neul_bc95.c ****         return -1;
 492:e:/LiteOS/LiteOS/targets/Cloud_FM33A0XX/GCC/../../../targets/Cloud_FM33A0XX/UserCode\neul_bc95.c ****     }
 493:e:/LiteOS/LiteOS/targets/Cloud_FM33A0XX/GCC/../../../targets/Cloud_FM33A0XX/UserCode\neul_bc95.c ****     memset(neul_dev.rbuf, 0, 32);
 494:e:/LiteOS/LiteOS/targets/Cloud_FM33A0XX/GCC/../../../targets/Cloud_FM33A0XX/UserCode\neul_bc95.c ****     ret = neul_dev.ops->dev_read(neul_dev.rbuf, 32, 0);
 495:e:/LiteOS/LiteOS/targets/Cloud_FM33A0XX/GCC/../../../targets/Cloud_FM33A0XX/UserCode\neul_bc95.c ****     if (ret <= 0)
 496:e:/LiteOS/LiteOS/targets/Cloud_FM33A0XX/GCC/../../../targets/Cloud_FM33A0XX/UserCode\neul_bc95.c ****     {
 497:e:/LiteOS/LiteOS/targets/Cloud_FM33A0XX/GCC/../../../targets/Cloud_FM33A0XX/UserCode\neul_bc95.c ****         //read bc95 read set return value info failed
 498:e:/LiteOS/LiteOS/targets/Cloud_FM33A0XX/GCC/../../../targets/Cloud_FM33A0XX/UserCode\neul_bc95.c ****         return -2;
 499:e:/LiteOS/LiteOS/targets/Cloud_FM33A0XX/GCC/../../../targets/Cloud_FM33A0XX/UserCode\neul_bc95.c ****     }
 500:e:/LiteOS/LiteOS/targets/Cloud_FM33A0XX/GCC/../../../targets/Cloud_FM33A0XX/UserCode\neul_bc95.c ****     str = strstr(neul_dev.rbuf,"OK");
 501:e:/LiteOS/LiteOS/targets/Cloud_FM33A0XX/GCC/../../../targets/Cloud_FM33A0XX/UserCode\neul_bc95.c ****     if (!str)
 502:e:/LiteOS/LiteOS/targets/Cloud_FM33A0XX/GCC/../../../targets/Cloud_FM33A0XX/UserCode\neul_bc95.c ****     {
 503:e:/LiteOS/LiteOS/targets/Cloud_FM33A0XX/GCC/../../../targets/Cloud_FM33A0XX/UserCode\neul_bc95.c ****         return -1;
 504:e:/LiteOS/LiteOS/targets/Cloud_FM33A0XX/GCC/../../../targets/Cloud_FM33A0XX/UserCode\neul_bc95.c ****     }
 505:e:/LiteOS/LiteOS/targets/Cloud_FM33A0XX/GCC/../../../targets/Cloud_FM33A0XX/UserCode\neul_bc95.c ****     #endif
 506:e:/LiteOS/LiteOS/targets/Cloud_FM33A0XX/GCC/../../../targets/Cloud_FM33A0XX/UserCode\neul_bc95.c ****     
 507:e:/LiteOS/LiteOS/targets/Cloud_FM33A0XX/GCC/../../../targets/Cloud_FM33A0XX/UserCode\neul_bc95.c ****     /* Active Network */
 508:e:/LiteOS/LiteOS/targets/Cloud_FM33A0XX/GCC/../../../targets/Cloud_FM33A0XX/UserCode\neul_bc95.c ****     ret = neul_dev.ops->dev_write(cmd4, strlen(cmd4), 0);
 509:e:/LiteOS/LiteOS/targets/Cloud_FM33A0XX/GCC/../../../targets/Cloud_FM33A0XX/UserCode\neul_bc95.c ****     if (ret < 0)
 510:e:/LiteOS/LiteOS/targets/Cloud_FM33A0XX/GCC/../../../targets/Cloud_FM33A0XX/UserCode\neul_bc95.c ****     {
 511:e:/LiteOS/LiteOS/targets/Cloud_FM33A0XX/GCC/../../../targets/Cloud_FM33A0XX/UserCode\neul_bc95.c ****         //write data to bc95 failed
 512:e:/LiteOS/LiteOS/targets/Cloud_FM33A0XX/GCC/../../../targets/Cloud_FM33A0XX/UserCode\neul_bc95.c ****         return -1;
 513:e:/LiteOS/LiteOS/targets/Cloud_FM33A0XX/GCC/../../../targets/Cloud_FM33A0XX/UserCode\neul_bc95.c ****     }
 514:e:/LiteOS/LiteOS/targets/Cloud_FM33A0XX/GCC/../../../targets/Cloud_FM33A0XX/UserCode\neul_bc95.c ****     memset(neul_dev.rbuf, 0, 32);
 515:e:/LiteOS/LiteOS/targets/Cloud_FM33A0XX/GCC/../../../targets/Cloud_FM33A0XX/UserCode\neul_bc95.c ****     ret = neul_dev.ops->dev_read(neul_dev.rbuf, 32, 0, 200);
 516:e:/LiteOS/LiteOS/targets/Cloud_FM33A0XX/GCC/../../../targets/Cloud_FM33A0XX/UserCode\neul_bc95.c ****     if (ret <= 0)
 517:e:/LiteOS/LiteOS/targets/Cloud_FM33A0XX/GCC/../../../targets/Cloud_FM33A0XX/UserCode\neul_bc95.c ****     {
 518:e:/LiteOS/LiteOS/targets/Cloud_FM33A0XX/GCC/../../../targets/Cloud_FM33A0XX/UserCode\neul_bc95.c ****         //read bc95 read set return value info failed
 519:e:/LiteOS/LiteOS/targets/Cloud_FM33A0XX/GCC/../../../targets/Cloud_FM33A0XX/UserCode\neul_bc95.c ****         return -1;
 520:e:/LiteOS/LiteOS/targets/Cloud_FM33A0XX/GCC/../../../targets/Cloud_FM33A0XX/UserCode\neul_bc95.c ****     }
 521:e:/LiteOS/LiteOS/targets/Cloud_FM33A0XX/GCC/../../../targets/Cloud_FM33A0XX/UserCode\neul_bc95.c ****     str = strstr(neul_dev.rbuf,"OK");
 522:e:/LiteOS/LiteOS/targets/Cloud_FM33A0XX/GCC/../../../targets/Cloud_FM33A0XX/UserCode\neul_bc95.c ****     if (!str)
 523:e:/LiteOS/LiteOS/targets/Cloud_FM33A0XX/GCC/../../../targets/Cloud_FM33A0XX/UserCode\neul_bc95.c ****     {
 524:e:/LiteOS/LiteOS/targets/Cloud_FM33A0XX/GCC/../../../targets/Cloud_FM33A0XX/UserCode\neul_bc95.c ****         return -1;
 525:e:/LiteOS/LiteOS/targets/Cloud_FM33A0XX/GCC/../../../targets/Cloud_FM33A0XX/UserCode\neul_bc95.c ****     }
 526:e:/LiteOS/LiteOS/targets/Cloud_FM33A0XX/GCC/../../../targets/Cloud_FM33A0XX/UserCode\neul_bc95.c **** 
 527:e:/LiteOS/LiteOS/targets/Cloud_FM33A0XX/GCC/../../../targets/Cloud_FM33A0XX/UserCode\neul_bc95.c ****     return 0;
 528:e:/LiteOS/LiteOS/targets/Cloud_FM33A0XX/GCC/../../../targets/Cloud_FM33A0XX/UserCode\neul_bc95.c **** }
 529:e:/LiteOS/LiteOS/targets/Cloud_FM33A0XX/GCC/../../../targets/Cloud_FM33A0XX/UserCode\neul_bc95.c **** 
 530:e:/LiteOS/LiteOS/targets/Cloud_FM33A0XX/GCC/../../../targets/Cloud_FM33A0XX/UserCode\neul_bc95.c **** /* ============================================================
 531:e:/LiteOS/LiteOS/targets/Cloud_FM33A0XX/GCC/../../../targets/Cloud_FM33A0XX/UserCode\neul_bc95.c **** func name   :  neul_bc95_get_netstat
 532:e:/LiteOS/LiteOS/targets/Cloud_FM33A0XX/GCC/../../../targets/Cloud_FM33A0XX/UserCode\neul_bc95.c **** discription :  get bc95's network status 
 533:e:/LiteOS/LiteOS/targets/Cloud_FM33A0XX/GCC/../../../targets/Cloud_FM33A0XX/UserCode\neul_bc95.c ****                
 534:e:/LiteOS/LiteOS/targets/Cloud_FM33A0XX/GCC/../../../targets/Cloud_FM33A0XX/UserCode\neul_bc95.c **** param       :  None
 535:e:/LiteOS/LiteOS/targets/Cloud_FM33A0XX/GCC/../../../targets/Cloud_FM33A0XX/UserCode\neul_bc95.c **** return      :  0 connected , !0 not connect
 536:e:/LiteOS/LiteOS/targets/Cloud_FM33A0XX/GCC/../../../targets/Cloud_FM33A0XX/UserCode\neul_bc95.c **** Revision    : 
 537:e:/LiteOS/LiteOS/targets/Cloud_FM33A0XX/GCC/../../../targets/Cloud_FM33A0XX/UserCode\neul_bc95.c **** =============================================================== */
 538:e:/LiteOS/LiteOS/targets/Cloud_FM33A0XX/GCC/../../../targets/Cloud_FM33A0XX/UserCode\neul_bc95.c **** int neul_bc95_get_netstat(void)
 539:e:/LiteOS/LiteOS/targets/Cloud_FM33A0XX/GCC/../../../targets/Cloud_FM33A0XX/UserCode\neul_bc95.c **** {
 540:e:/LiteOS/LiteOS/targets/Cloud_FM33A0XX/GCC/../../../targets/Cloud_FM33A0XX/UserCode\neul_bc95.c ****     char *cmd = "AT+CGATT?\r";
 541:e:/LiteOS/LiteOS/targets/Cloud_FM33A0XX/GCC/../../../targets/Cloud_FM33A0XX/UserCode\neul_bc95.c ****     char *str = NULL;
 542:e:/LiteOS/LiteOS/targets/Cloud_FM33A0XX/GCC/../../../targets/Cloud_FM33A0XX/UserCode\neul_bc95.c ****     int ret = 0;
 543:e:/LiteOS/LiteOS/targets/Cloud_FM33A0XX/GCC/../../../targets/Cloud_FM33A0XX/UserCode\neul_bc95.c ****     
 544:e:/LiteOS/LiteOS/targets/Cloud_FM33A0XX/GCC/../../../targets/Cloud_FM33A0XX/UserCode\neul_bc95.c ****     ret = neul_dev.ops->dev_write(cmd, strlen(cmd), 0);
 545:e:/LiteOS/LiteOS/targets/Cloud_FM33A0XX/GCC/../../../targets/Cloud_FM33A0XX/UserCode\neul_bc95.c ****     if (ret < 0)
ARM GAS  C:\Users\WANGBI~1\AppData\Local\Temp\ccSpmgug.s 			page 11


 546:e:/LiteOS/LiteOS/targets/Cloud_FM33A0XX/GCC/../../../targets/Cloud_FM33A0XX/UserCode\neul_bc95.c ****     {
 547:e:/LiteOS/LiteOS/targets/Cloud_FM33A0XX/GCC/../../../targets/Cloud_FM33A0XX/UserCode\neul_bc95.c ****         //write data to bc95 failed
 548:e:/LiteOS/LiteOS/targets/Cloud_FM33A0XX/GCC/../../../targets/Cloud_FM33A0XX/UserCode\neul_bc95.c ****         return -1;
 549:e:/LiteOS/LiteOS/targets/Cloud_FM33A0XX/GCC/../../../targets/Cloud_FM33A0XX/UserCode\neul_bc95.c ****     }
 550:e:/LiteOS/LiteOS/targets/Cloud_FM33A0XX/GCC/../../../targets/Cloud_FM33A0XX/UserCode\neul_bc95.c ****     memset(neul_dev.rbuf, 0, 32);
 551:e:/LiteOS/LiteOS/targets/Cloud_FM33A0XX/GCC/../../../targets/Cloud_FM33A0XX/UserCode\neul_bc95.c ****     ret = neul_dev.ops->dev_read(neul_dev.rbuf, 32, 0, 200);
 552:e:/LiteOS/LiteOS/targets/Cloud_FM33A0XX/GCC/../../../targets/Cloud_FM33A0XX/UserCode\neul_bc95.c ****     if (ret <= 0)
 553:e:/LiteOS/LiteOS/targets/Cloud_FM33A0XX/GCC/../../../targets/Cloud_FM33A0XX/UserCode\neul_bc95.c ****     {
 554:e:/LiteOS/LiteOS/targets/Cloud_FM33A0XX/GCC/../../../targets/Cloud_FM33A0XX/UserCode\neul_bc95.c ****         //read bc95 read set return value info failed
 555:e:/LiteOS/LiteOS/targets/Cloud_FM33A0XX/GCC/../../../targets/Cloud_FM33A0XX/UserCode\neul_bc95.c ****         return -1;
 556:e:/LiteOS/LiteOS/targets/Cloud_FM33A0XX/GCC/../../../targets/Cloud_FM33A0XX/UserCode\neul_bc95.c ****     }
 557:e:/LiteOS/LiteOS/targets/Cloud_FM33A0XX/GCC/../../../targets/Cloud_FM33A0XX/UserCode\neul_bc95.c ****     str = strstr(neul_dev.rbuf,"CGATT:1");
 558:e:/LiteOS/LiteOS/targets/Cloud_FM33A0XX/GCC/../../../targets/Cloud_FM33A0XX/UserCode\neul_bc95.c ****     if (!str)
 559:e:/LiteOS/LiteOS/targets/Cloud_FM33A0XX/GCC/../../../targets/Cloud_FM33A0XX/UserCode\neul_bc95.c ****     {
 560:e:/LiteOS/LiteOS/targets/Cloud_FM33A0XX/GCC/../../../targets/Cloud_FM33A0XX/UserCode\neul_bc95.c ****         return -1;
 561:e:/LiteOS/LiteOS/targets/Cloud_FM33A0XX/GCC/../../../targets/Cloud_FM33A0XX/UserCode\neul_bc95.c ****     }
 562:e:/LiteOS/LiteOS/targets/Cloud_FM33A0XX/GCC/../../../targets/Cloud_FM33A0XX/UserCode\neul_bc95.c ****     
 563:e:/LiteOS/LiteOS/targets/Cloud_FM33A0XX/GCC/../../../targets/Cloud_FM33A0XX/UserCode\neul_bc95.c ****     return 0;
 564:e:/LiteOS/LiteOS/targets/Cloud_FM33A0XX/GCC/../../../targets/Cloud_FM33A0XX/UserCode\neul_bc95.c **** }
 565:e:/LiteOS/LiteOS/targets/Cloud_FM33A0XX/GCC/../../../targets/Cloud_FM33A0XX/UserCode\neul_bc95.c **** 
 566:e:/LiteOS/LiteOS/targets/Cloud_FM33A0XX/GCC/../../../targets/Cloud_FM33A0XX/UserCode\neul_bc95.c **** /* ============================================================
 567:e:/LiteOS/LiteOS/targets/Cloud_FM33A0XX/GCC/../../../targets/Cloud_FM33A0XX/UserCode\neul_bc95.c **** func name   :  neul_bc95_query_ip
 568:e:/LiteOS/LiteOS/targets/Cloud_FM33A0XX/GCC/../../../targets/Cloud_FM33A0XX/UserCode\neul_bc95.c **** discription :  query if bc95 get ip address 
 569:e:/LiteOS/LiteOS/targets/Cloud_FM33A0XX/GCC/../../../targets/Cloud_FM33A0XX/UserCode\neul_bc95.c ****                
 570:e:/LiteOS/LiteOS/targets/Cloud_FM33A0XX/GCC/../../../targets/Cloud_FM33A0XX/UserCode\neul_bc95.c **** param       :  None
 571:e:/LiteOS/LiteOS/targets/Cloud_FM33A0XX/GCC/../../../targets/Cloud_FM33A0XX/UserCode\neul_bc95.c **** return      :  0 get ip , !0 no ip
 572:e:/LiteOS/LiteOS/targets/Cloud_FM33A0XX/GCC/../../../targets/Cloud_FM33A0XX/UserCode\neul_bc95.c **** Revision    : 
 573:e:/LiteOS/LiteOS/targets/Cloud_FM33A0XX/GCC/../../../targets/Cloud_FM33A0XX/UserCode\neul_bc95.c **** =============================================================== */
 574:e:/LiteOS/LiteOS/targets/Cloud_FM33A0XX/GCC/../../../targets/Cloud_FM33A0XX/UserCode\neul_bc95.c **** int neul_bc95_query_ip(void)
 575:e:/LiteOS/LiteOS/targets/Cloud_FM33A0XX/GCC/../../../targets/Cloud_FM33A0XX/UserCode\neul_bc95.c **** {
 576:e:/LiteOS/LiteOS/targets/Cloud_FM33A0XX/GCC/../../../targets/Cloud_FM33A0XX/UserCode\neul_bc95.c ****     char *cmd = "AT+CGPADDR\r";
 577:e:/LiteOS/LiteOS/targets/Cloud_FM33A0XX/GCC/../../../targets/Cloud_FM33A0XX/UserCode\neul_bc95.c ****     char *str = NULL;
 578:e:/LiteOS/LiteOS/targets/Cloud_FM33A0XX/GCC/../../../targets/Cloud_FM33A0XX/UserCode\neul_bc95.c ****     int ret = 0;
 579:e:/LiteOS/LiteOS/targets/Cloud_FM33A0XX/GCC/../../../targets/Cloud_FM33A0XX/UserCode\neul_bc95.c ****     
 580:e:/LiteOS/LiteOS/targets/Cloud_FM33A0XX/GCC/../../../targets/Cloud_FM33A0XX/UserCode\neul_bc95.c ****     ret = neul_dev.ops->dev_write(cmd, strlen(cmd), 0);
 581:e:/LiteOS/LiteOS/targets/Cloud_FM33A0XX/GCC/../../../targets/Cloud_FM33A0XX/UserCode\neul_bc95.c ****     if (ret < 0)
 582:e:/LiteOS/LiteOS/targets/Cloud_FM33A0XX/GCC/../../../targets/Cloud_FM33A0XX/UserCode\neul_bc95.c ****     {
 583:e:/LiteOS/LiteOS/targets/Cloud_FM33A0XX/GCC/../../../targets/Cloud_FM33A0XX/UserCode\neul_bc95.c ****         //write data to bc95 failed
 584:e:/LiteOS/LiteOS/targets/Cloud_FM33A0XX/GCC/../../../targets/Cloud_FM33A0XX/UserCode\neul_bc95.c ****         return -1;
 585:e:/LiteOS/LiteOS/targets/Cloud_FM33A0XX/GCC/../../../targets/Cloud_FM33A0XX/UserCode\neul_bc95.c ****     }
 586:e:/LiteOS/LiteOS/targets/Cloud_FM33A0XX/GCC/../../../targets/Cloud_FM33A0XX/UserCode\neul_bc95.c ****     memset(neul_dev.rbuf, 0, 64);
 587:e:/LiteOS/LiteOS/targets/Cloud_FM33A0XX/GCC/../../../targets/Cloud_FM33A0XX/UserCode\neul_bc95.c ****     ret = neul_dev.ops->dev_read(neul_dev.rbuf, 64, 0, 200);
 588:e:/LiteOS/LiteOS/targets/Cloud_FM33A0XX/GCC/../../../targets/Cloud_FM33A0XX/UserCode\neul_bc95.c ****     if (ret <= 0)
 589:e:/LiteOS/LiteOS/targets/Cloud_FM33A0XX/GCC/../../../targets/Cloud_FM33A0XX/UserCode\neul_bc95.c ****     {
 590:e:/LiteOS/LiteOS/targets/Cloud_FM33A0XX/GCC/../../../targets/Cloud_FM33A0XX/UserCode\neul_bc95.c ****         //read bc95 read set return value info failed
 591:e:/LiteOS/LiteOS/targets/Cloud_FM33A0XX/GCC/../../../targets/Cloud_FM33A0XX/UserCode\neul_bc95.c ****         return -1;
 592:e:/LiteOS/LiteOS/targets/Cloud_FM33A0XX/GCC/../../../targets/Cloud_FM33A0XX/UserCode\neul_bc95.c ****     }
 593:e:/LiteOS/LiteOS/targets/Cloud_FM33A0XX/GCC/../../../targets/Cloud_FM33A0XX/UserCode\neul_bc95.c ****     //if get +CGPADDR:0 \r\n OK , no ip get ,need reboot
 594:e:/LiteOS/LiteOS/targets/Cloud_FM33A0XX/GCC/../../../targets/Cloud_FM33A0XX/UserCode\neul_bc95.c ****     str = strstr(neul_dev.rbuf,"+CGPADDR:0,");
 595:e:/LiteOS/LiteOS/targets/Cloud_FM33A0XX/GCC/../../../targets/Cloud_FM33A0XX/UserCode\neul_bc95.c ****     if (!str)
 596:e:/LiteOS/LiteOS/targets/Cloud_FM33A0XX/GCC/../../../targets/Cloud_FM33A0XX/UserCode\neul_bc95.c ****     {
 597:e:/LiteOS/LiteOS/targets/Cloud_FM33A0XX/GCC/../../../targets/Cloud_FM33A0XX/UserCode\neul_bc95.c ****         return -1;
 598:e:/LiteOS/LiteOS/targets/Cloud_FM33A0XX/GCC/../../../targets/Cloud_FM33A0XX/UserCode\neul_bc95.c ****     }
 599:e:/LiteOS/LiteOS/targets/Cloud_FM33A0XX/GCC/../../../targets/Cloud_FM33A0XX/UserCode\neul_bc95.c ****     
 600:e:/LiteOS/LiteOS/targets/Cloud_FM33A0XX/GCC/../../../targets/Cloud_FM33A0XX/UserCode\neul_bc95.c ****     return 0;
 601:e:/LiteOS/LiteOS/targets/Cloud_FM33A0XX/GCC/../../../targets/Cloud_FM33A0XX/UserCode\neul_bc95.c ****     
 602:e:/LiteOS/LiteOS/targets/Cloud_FM33A0XX/GCC/../../../targets/Cloud_FM33A0XX/UserCode\neul_bc95.c **** }
ARM GAS  C:\Users\WANGBI~1\AppData\Local\Temp\ccSpmgug.s 			page 12


 603:e:/LiteOS/LiteOS/targets/Cloud_FM33A0XX/GCC/../../../targets/Cloud_FM33A0XX/UserCode\neul_bc95.c **** 
 604:e:/LiteOS/LiteOS/targets/Cloud_FM33A0XX/GCC/../../../targets/Cloud_FM33A0XX/UserCode\neul_bc95.c **** /* ============================================================
 605:e:/LiteOS/LiteOS/targets/Cloud_FM33A0XX/GCC/../../../targets/Cloud_FM33A0XX/UserCode\neul_bc95.c **** func name   :  neul_bc95_reboot
 606:e:/LiteOS/LiteOS/targets/Cloud_FM33A0XX/GCC/../../../targets/Cloud_FM33A0XX/UserCode\neul_bc95.c **** discription :  reboot bc95 
 607:e:/LiteOS/LiteOS/targets/Cloud_FM33A0XX/GCC/../../../targets/Cloud_FM33A0XX/UserCode\neul_bc95.c ****                
 608:e:/LiteOS/LiteOS/targets/Cloud_FM33A0XX/GCC/../../../targets/Cloud_FM33A0XX/UserCode\neul_bc95.c **** param       :  None
 609:e:/LiteOS/LiteOS/targets/Cloud_FM33A0XX/GCC/../../../targets/Cloud_FM33A0XX/UserCode\neul_bc95.c **** return      :  0 ok!  0 not ok
 610:e:/LiteOS/LiteOS/targets/Cloud_FM33A0XX/GCC/../../../targets/Cloud_FM33A0XX/UserCode\neul_bc95.c **** Revision    : 
 611:e:/LiteOS/LiteOS/targets/Cloud_FM33A0XX/GCC/../../../targets/Cloud_FM33A0XX/UserCode\neul_bc95.c **** =============================================================== */
 612:e:/LiteOS/LiteOS/targets/Cloud_FM33A0XX/GCC/../../../targets/Cloud_FM33A0XX/UserCode\neul_bc95.c **** int neul_bc95_reboot(void)
 613:e:/LiteOS/LiteOS/targets/Cloud_FM33A0XX/GCC/../../../targets/Cloud_FM33A0XX/UserCode\neul_bc95.c **** {
 614:e:/LiteOS/LiteOS/targets/Cloud_FM33A0XX/GCC/../../../targets/Cloud_FM33A0XX/UserCode\neul_bc95.c ****     char *cmd = "AT+NRB\r";
 615:e:/LiteOS/LiteOS/targets/Cloud_FM33A0XX/GCC/../../../targets/Cloud_FM33A0XX/UserCode\neul_bc95.c ****     char *str = NULL;
 616:e:/LiteOS/LiteOS/targets/Cloud_FM33A0XX/GCC/../../../targets/Cloud_FM33A0XX/UserCode\neul_bc95.c ****     int ret = 0;
 617:e:/LiteOS/LiteOS/targets/Cloud_FM33A0XX/GCC/../../../targets/Cloud_FM33A0XX/UserCode\neul_bc95.c ****     
 618:e:/LiteOS/LiteOS/targets/Cloud_FM33A0XX/GCC/../../../targets/Cloud_FM33A0XX/UserCode\neul_bc95.c ****     ret = neul_dev.ops->dev_write(cmd, strlen(cmd), 0);
 619:e:/LiteOS/LiteOS/targets/Cloud_FM33A0XX/GCC/../../../targets/Cloud_FM33A0XX/UserCode\neul_bc95.c ****     if (ret < 0)
 620:e:/LiteOS/LiteOS/targets/Cloud_FM33A0XX/GCC/../../../targets/Cloud_FM33A0XX/UserCode\neul_bc95.c ****     {
 621:e:/LiteOS/LiteOS/targets/Cloud_FM33A0XX/GCC/../../../targets/Cloud_FM33A0XX/UserCode\neul_bc95.c ****         //write data to bc95 failed
 622:e:/LiteOS/LiteOS/targets/Cloud_FM33A0XX/GCC/../../../targets/Cloud_FM33A0XX/UserCode\neul_bc95.c ****         return -1;
 623:e:/LiteOS/LiteOS/targets/Cloud_FM33A0XX/GCC/../../../targets/Cloud_FM33A0XX/UserCode\neul_bc95.c ****     }
 624:e:/LiteOS/LiteOS/targets/Cloud_FM33A0XX/GCC/../../../targets/Cloud_FM33A0XX/UserCode\neul_bc95.c ****     memset(neul_dev.rbuf, 0, 64);
 625:e:/LiteOS/LiteOS/targets/Cloud_FM33A0XX/GCC/../../../targets/Cloud_FM33A0XX/UserCode\neul_bc95.c ****     ret = neul_dev.ops->dev_read(neul_dev.rbuf, 64, 0, 6000);
 626:e:/LiteOS/LiteOS/targets/Cloud_FM33A0XX/GCC/../../../targets/Cloud_FM33A0XX/UserCode\neul_bc95.c ****     if (ret <= 0)
 627:e:/LiteOS/LiteOS/targets/Cloud_FM33A0XX/GCC/../../../targets/Cloud_FM33A0XX/UserCode\neul_bc95.c ****     {
 628:e:/LiteOS/LiteOS/targets/Cloud_FM33A0XX/GCC/../../../targets/Cloud_FM33A0XX/UserCode\neul_bc95.c ****         //read bc95 read set return value info failed
 629:e:/LiteOS/LiteOS/targets/Cloud_FM33A0XX/GCC/../../../targets/Cloud_FM33A0XX/UserCode\neul_bc95.c ****         return -1;
 630:e:/LiteOS/LiteOS/targets/Cloud_FM33A0XX/GCC/../../../targets/Cloud_FM33A0XX/UserCode\neul_bc95.c ****     }
 631:e:/LiteOS/LiteOS/targets/Cloud_FM33A0XX/GCC/../../../targets/Cloud_FM33A0XX/UserCode\neul_bc95.c ****     
 632:e:/LiteOS/LiteOS/targets/Cloud_FM33A0XX/GCC/../../../targets/Cloud_FM33A0XX/UserCode\neul_bc95.c ****     str = strstr(neul_dev.rbuf,"REBOOTING");
 633:e:/LiteOS/LiteOS/targets/Cloud_FM33A0XX/GCC/../../../targets/Cloud_FM33A0XX/UserCode\neul_bc95.c ****     if (!str)
 634:e:/LiteOS/LiteOS/targets/Cloud_FM33A0XX/GCC/../../../targets/Cloud_FM33A0XX/UserCode\neul_bc95.c ****     {
 635:e:/LiteOS/LiteOS/targets/Cloud_FM33A0XX/GCC/../../../targets/Cloud_FM33A0XX/UserCode\neul_bc95.c ****         return -1;
 636:e:/LiteOS/LiteOS/targets/Cloud_FM33A0XX/GCC/../../../targets/Cloud_FM33A0XX/UserCode\neul_bc95.c ****     }
 637:e:/LiteOS/LiteOS/targets/Cloud_FM33A0XX/GCC/../../../targets/Cloud_FM33A0XX/UserCode\neul_bc95.c ****     
 638:e:/LiteOS/LiteOS/targets/Cloud_FM33A0XX/GCC/../../../targets/Cloud_FM33A0XX/UserCode\neul_bc95.c ****     return 0;
 639:e:/LiteOS/LiteOS/targets/Cloud_FM33A0XX/GCC/../../../targets/Cloud_FM33A0XX/UserCode\neul_bc95.c **** }
 640:e:/LiteOS/LiteOS/targets/Cloud_FM33A0XX/GCC/../../../targets/Cloud_FM33A0XX/UserCode\neul_bc95.c **** 
 641:e:/LiteOS/LiteOS/targets/Cloud_FM33A0XX/GCC/../../../targets/Cloud_FM33A0XX/UserCode\neul_bc95.c **** 
 642:e:/LiteOS/LiteOS/targets/Cloud_FM33A0XX/GCC/../../../targets/Cloud_FM33A0XX/UserCode\neul_bc95.c **** /* ============================================================
 643:e:/LiteOS/LiteOS/targets/Cloud_FM33A0XX/GCC/../../../targets/Cloud_FM33A0XX/UserCode\neul_bc95.c **** func name   :  neul_bc95_hex_to_str
 644:e:/LiteOS/LiteOS/targets/Cloud_FM33A0XX/GCC/../../../targets/Cloud_FM33A0XX/UserCode\neul_bc95.c **** discription :  convert hex string to hex data 
 645:e:/LiteOS/LiteOS/targets/Cloud_FM33A0XX/GCC/../../../targets/Cloud_FM33A0XX/UserCode\neul_bc95.c ****                
 646:e:/LiteOS/LiteOS/targets/Cloud_FM33A0XX/GCC/../../../targets/Cloud_FM33A0XX/UserCode\neul_bc95.c **** param       :  bufin @ input param , the data that need to convert
 647:e:/LiteOS/LiteOS/targets/Cloud_FM33A0XX/GCC/../../../targets/Cloud_FM33A0XX/UserCode\neul_bc95.c ****                len @ input param, data length
 648:e:/LiteOS/LiteOS/targets/Cloud_FM33A0XX/GCC/../../../targets/Cloud_FM33A0XX/UserCode\neul_bc95.c ****                bufout @ output param, hex data after convert 
 649:e:/LiteOS/LiteOS/targets/Cloud_FM33A0XX/GCC/../../../targets/Cloud_FM33A0XX/UserCode\neul_bc95.c **** return      :  0 send ok , !0 not ok
 650:e:/LiteOS/LiteOS/targets/Cloud_FM33A0XX/GCC/../../../targets/Cloud_FM33A0XX/UserCode\neul_bc95.c **** Revision    : 
 651:e:/LiteOS/LiteOS/targets/Cloud_FM33A0XX/GCC/../../../targets/Cloud_FM33A0XX/UserCode\neul_bc95.c **** =============================================================== */
 652:e:/LiteOS/LiteOS/targets/Cloud_FM33A0XX/GCC/../../../targets/Cloud_FM33A0XX/UserCode\neul_bc95.c **** static int neul_bc95_str_to_hex(const unsigned char *bufin, int len, char *bufout)
 653:e:/LiteOS/LiteOS/targets/Cloud_FM33A0XX/GCC/../../../targets/Cloud_FM33A0XX/UserCode\neul_bc95.c **** {
 654:e:/LiteOS/LiteOS/targets/Cloud_FM33A0XX/GCC/../../../targets/Cloud_FM33A0XX/UserCode\neul_bc95.c ****     int i = 0;
 655:e:/LiteOS/LiteOS/targets/Cloud_FM33A0XX/GCC/../../../targets/Cloud_FM33A0XX/UserCode\neul_bc95.c ****     #if 0
 656:e:/LiteOS/LiteOS/targets/Cloud_FM33A0XX/GCC/../../../targets/Cloud_FM33A0XX/UserCode\neul_bc95.c ****     int tmp = 0;
 657:e:/LiteOS/LiteOS/targets/Cloud_FM33A0XX/GCC/../../../targets/Cloud_FM33A0XX/UserCode\neul_bc95.c ****     #endif
 658:e:/LiteOS/LiteOS/targets/Cloud_FM33A0XX/GCC/../../../targets/Cloud_FM33A0XX/UserCode\neul_bc95.c ****     if (NULL == bufin || len <= 0 || NULL == bufout)
 659:e:/LiteOS/LiteOS/targets/Cloud_FM33A0XX/GCC/../../../targets/Cloud_FM33A0XX/UserCode\neul_bc95.c ****     {
ARM GAS  C:\Users\WANGBI~1\AppData\Local\Temp\ccSpmgug.s 			page 13


 660:e:/LiteOS/LiteOS/targets/Cloud_FM33A0XX/GCC/../../../targets/Cloud_FM33A0XX/UserCode\neul_bc95.c ****         return -1;
 661:e:/LiteOS/LiteOS/targets/Cloud_FM33A0XX/GCC/../../../targets/Cloud_FM33A0XX/UserCode\neul_bc95.c ****     }
 662:e:/LiteOS/LiteOS/targets/Cloud_FM33A0XX/GCC/../../../targets/Cloud_FM33A0XX/UserCode\neul_bc95.c ****     for(i = 0; i < len; i++)
 663:e:/LiteOS/LiteOS/targets/Cloud_FM33A0XX/GCC/../../../targets/Cloud_FM33A0XX/UserCode\neul_bc95.c ****     {
 664:e:/LiteOS/LiteOS/targets/Cloud_FM33A0XX/GCC/../../../targets/Cloud_FM33A0XX/UserCode\neul_bc95.c ****         #if 0
 665:e:/LiteOS/LiteOS/targets/Cloud_FM33A0XX/GCC/../../../targets/Cloud_FM33A0XX/UserCode\neul_bc95.c ****         tmp = bufin[i]>>4;
 666:e:/LiteOS/LiteOS/targets/Cloud_FM33A0XX/GCC/../../../targets/Cloud_FM33A0XX/UserCode\neul_bc95.c ****         bufout[i*2] = tmp > 0x09?tmp+0x37:tmp+0x30;
 667:e:/LiteOS/LiteOS/targets/Cloud_FM33A0XX/GCC/../../../targets/Cloud_FM33A0XX/UserCode\neul_bc95.c ****         tmp = bufin[i]&0x0F;
 668:e:/LiteOS/LiteOS/targets/Cloud_FM33A0XX/GCC/../../../targets/Cloud_FM33A0XX/UserCode\neul_bc95.c ****         bufout[i*2+1] = tmp > 0x09?tmp+0x37:tmp+0x30;
 669:e:/LiteOS/LiteOS/targets/Cloud_FM33A0XX/GCC/../../../targets/Cloud_FM33A0XX/UserCode\neul_bc95.c ****         #else
 670:e:/LiteOS/LiteOS/targets/Cloud_FM33A0XX/GCC/../../../targets/Cloud_FM33A0XX/UserCode\neul_bc95.c ****         sprintf(bufout+i*2, "%02X", bufin[i]);
 671:e:/LiteOS/LiteOS/targets/Cloud_FM33A0XX/GCC/../../../targets/Cloud_FM33A0XX/UserCode\neul_bc95.c ****         #endif
 672:e:/LiteOS/LiteOS/targets/Cloud_FM33A0XX/GCC/../../../targets/Cloud_FM33A0XX/UserCode\neul_bc95.c ****     }
 673:e:/LiteOS/LiteOS/targets/Cloud_FM33A0XX/GCC/../../../targets/Cloud_FM33A0XX/UserCode\neul_bc95.c ****     return 0; 
 674:e:/LiteOS/LiteOS/targets/Cloud_FM33A0XX/GCC/../../../targets/Cloud_FM33A0XX/UserCode\neul_bc95.c **** }
 675:e:/LiteOS/LiteOS/targets/Cloud_FM33A0XX/GCC/../../../targets/Cloud_FM33A0XX/UserCode\neul_bc95.c **** 
 676:e:/LiteOS/LiteOS/targets/Cloud_FM33A0XX/GCC/../../../targets/Cloud_FM33A0XX/UserCode\neul_bc95.c **** /* ============================================================
 677:e:/LiteOS/LiteOS/targets/Cloud_FM33A0XX/GCC/../../../targets/Cloud_FM33A0XX/UserCode\neul_bc95.c **** func name   :  neul_bc95_hex_to_str
 678:e:/LiteOS/LiteOS/targets/Cloud_FM33A0XX/GCC/../../../targets/Cloud_FM33A0XX/UserCode\neul_bc95.c **** discription :  convert char to hex string 
 679:e:/LiteOS/LiteOS/targets/Cloud_FM33A0XX/GCC/../../../targets/Cloud_FM33A0XX/UserCode\neul_bc95.c ****                
 680:e:/LiteOS/LiteOS/targets/Cloud_FM33A0XX/GCC/../../../targets/Cloud_FM33A0XX/UserCode\neul_bc95.c **** param       :  bufin @ input param , the data that need to convert
 681:e:/LiteOS/LiteOS/targets/Cloud_FM33A0XX/GCC/../../../targets/Cloud_FM33A0XX/UserCode\neul_bc95.c ****                len @ input param, data length
 682:e:/LiteOS/LiteOS/targets/Cloud_FM33A0XX/GCC/../../../targets/Cloud_FM33A0XX/UserCode\neul_bc95.c ****                bufout @ output param, hex string data 
 683:e:/LiteOS/LiteOS/targets/Cloud_FM33A0XX/GCC/../../../targets/Cloud_FM33A0XX/UserCode\neul_bc95.c **** return      :  0 convert ok , !0 not ok
 684:e:/LiteOS/LiteOS/targets/Cloud_FM33A0XX/GCC/../../../targets/Cloud_FM33A0XX/UserCode\neul_bc95.c **** Revision    : 
 685:e:/LiteOS/LiteOS/targets/Cloud_FM33A0XX/GCC/../../../targets/Cloud_FM33A0XX/UserCode\neul_bc95.c **** =============================================================== */
 686:e:/LiteOS/LiteOS/targets/Cloud_FM33A0XX/GCC/../../../targets/Cloud_FM33A0XX/UserCode\neul_bc95.c **** static int neul_bc95_hex_to_str(const char *bufin, int len, char *bufout)
 687:e:/LiteOS/LiteOS/targets/Cloud_FM33A0XX/GCC/../../../targets/Cloud_FM33A0XX/UserCode\neul_bc95.c **** {
  27              		.loc 1 687 0
  28              		.cfi_startproc
  29              		@ args = 0, pretend = 0, frame = 0
  30              		@ frame_needed = 0, uses_anonymous_args = 0
  31              	.LVL0:
  32 0000 F0B5     		push	{r4, r5, r6, r7, lr}
  33              	.LCFI0:
  34              		.cfi_def_cfa_offset 20
  35              		.cfi_offset 4, -20
  36              		.cfi_offset 5, -16
  37              		.cfi_offset 6, -12
  38              		.cfi_offset 7, -8
  39              		.cfi_offset 14, -4
  40              	.LVL1:
 688:e:/LiteOS/LiteOS/targets/Cloud_FM33A0XX/GCC/../../../targets/Cloud_FM33A0XX/UserCode\neul_bc95.c ****     int i = 0;
 689:e:/LiteOS/LiteOS/targets/Cloud_FM33A0XX/GCC/../../../targets/Cloud_FM33A0XX/UserCode\neul_bc95.c ****     unsigned char tmp2 = 0x0;
 690:e:/LiteOS/LiteOS/targets/Cloud_FM33A0XX/GCC/../../../targets/Cloud_FM33A0XX/UserCode\neul_bc95.c ****     unsigned int tmp = 0;
 691:e:/LiteOS/LiteOS/targets/Cloud_FM33A0XX/GCC/../../../targets/Cloud_FM33A0XX/UserCode\neul_bc95.c ****     if (NULL == bufin || len <= 0 || NULL == bufout)
  41              		.loc 1 691 0
  42 0002 0028     		cmp	r0, #0
  43 0004 24D0     		beq	.L9
  44              		.loc 1 691 0 is_stmt 0 discriminator 1
  45 0006 0029     		cmp	r1, #0
  46 0008 25DD     		ble	.L10
  47              		.loc 1 691 0 discriminator 2
  48 000a 002A     		cmp	r2, #0
  49 000c 26D0     		beq	.L11
  50 000e 0026     		movs	r6, #0
  51 0010 1AE0     		b	.L3
ARM GAS  C:\Users\WANGBI~1\AppData\Local\Temp\ccSpmgug.s 			page 14


  52              	.LVL2:
  53              	.L8:
 692:e:/LiteOS/LiteOS/targets/Cloud_FM33A0XX/GCC/../../../targets/Cloud_FM33A0XX/UserCode\neul_bc95.c ****     {
 693:e:/LiteOS/LiteOS/targets/Cloud_FM33A0XX/GCC/../../../targets/Cloud_FM33A0XX/UserCode\neul_bc95.c ****         return -1;
 694:e:/LiteOS/LiteOS/targets/Cloud_FM33A0XX/GCC/../../../targets/Cloud_FM33A0XX/UserCode\neul_bc95.c ****     }
 695:e:/LiteOS/LiteOS/targets/Cloud_FM33A0XX/GCC/../../../targets/Cloud_FM33A0XX/UserCode\neul_bc95.c ****     for(i = 0; i < len; i = i+2)
 696:e:/LiteOS/LiteOS/targets/Cloud_FM33A0XX/GCC/../../../targets/Cloud_FM33A0XX/UserCode\neul_bc95.c ****     {
 697:e:/LiteOS/LiteOS/targets/Cloud_FM33A0XX/GCC/../../../targets/Cloud_FM33A0XX/UserCode\neul_bc95.c ****         #if 1
 698:e:/LiteOS/LiteOS/targets/Cloud_FM33A0XX/GCC/../../../targets/Cloud_FM33A0XX/UserCode\neul_bc95.c ****         tmp2 =  bufin[i];
  54              		.loc 1 698 0 is_stmt 1
  55 0012 3400     		movs	r4, r6
  56 0014 835D     		ldrb	r3, [r0, r6]
  57              	.LVL3:
 699:e:/LiteOS/LiteOS/targets/Cloud_FM33A0XX/GCC/../../../targets/Cloud_FM33A0XX/UserCode\neul_bc95.c ****         tmp2 =  tmp2 <= '9'?tmp2-0x30:tmp2-0x37;
  58              		.loc 1 699 0
  59 0016 392B     		cmp	r3, #57
  60 0018 02D8     		bhi	.L4
  61              	.LVL4:
  62              		.loc 1 699 0 is_stmt 0 discriminator 1
  63 001a 303B     		subs	r3, r3, #48
  64              	.LVL5:
  65 001c DDB2     		uxtb	r5, r3
  66 001e 01E0     		b	.L5
  67              	.LVL6:
  68              	.L4:
  69              		.loc 1 699 0 discriminator 2
  70 0020 373B     		subs	r3, r3, #55
  71              	.LVL7:
  72 0022 DDB2     		uxtb	r5, r3
  73              	.LVL8:
  74              	.L5:
 700:e:/LiteOS/LiteOS/targets/Cloud_FM33A0XX/GCC/../../../targets/Cloud_FM33A0XX/UserCode\neul_bc95.c ****         tmp =  bufin[i+1];
  75              		.loc 1 700 0 is_stmt 1 discriminator 4
  76 0024 0319     		adds	r3, r0, r4
  77 0026 5B78     		ldrb	r3, [r3, #1]
  78              	.LVL9:
 701:e:/LiteOS/LiteOS/targets/Cloud_FM33A0XX/GCC/../../../targets/Cloud_FM33A0XX/UserCode\neul_bc95.c ****         tmp =  tmp <= '9'?tmp-0x30:tmp-0x37;
  79              		.loc 1 701 0 discriminator 4
  80 0028 392B     		cmp	r3, #57
  81 002a 02D8     		bhi	.L6
  82              		.loc 1 701 0 is_stmt 0 discriminator 1
  83 002c 303B     		subs	r3, r3, #48
  84              	.LVL10:
  85 002e 1C00     		movs	r4, r3
  86              	.LVL11:
  87 0030 01E0     		b	.L7
  88              	.LVL12:
  89              	.L6:
  90              		.loc 1 701 0 discriminator 2
  91 0032 373B     		subs	r3, r3, #55
  92              	.LVL13:
  93 0034 1C00     		movs	r4, r3
  94              	.LVL14:
  95              	.L7:
 702:e:/LiteOS/LiteOS/targets/Cloud_FM33A0XX/GCC/../../../targets/Cloud_FM33A0XX/UserCode\neul_bc95.c ****         bufout[i/2] =(tmp2<<4)|(tmp&0x0F);
  96              		.loc 1 702 0 is_stmt 1 discriminator 4
  97 0036 F70F     		lsrs	r7, r6, #31
ARM GAS  C:\Users\WANGBI~1\AppData\Local\Temp\ccSpmgug.s 			page 15


  98 0038 BF19     		adds	r7, r7, r6
  99 003a 7F10     		asrs	r7, r7, #1
 100 003c 2D01     		lsls	r5, r5, #4
 101              	.LVL15:
 102 003e 0F23     		movs	r3, #15
 103 0040 2340     		ands	r3, r4
 104 0042 2B43     		orrs	r3, r5
 105 0044 D355     		strb	r3, [r2, r7]
 695:e:/LiteOS/LiteOS/targets/Cloud_FM33A0XX/GCC/../../../targets/Cloud_FM33A0XX/UserCode\neul_bc95.c ****     {
 106              		.loc 1 695 0 discriminator 4
 107 0046 0236     		adds	r6, r6, #2
 108              	.LVL16:
 109              	.L3:
 695:e:/LiteOS/LiteOS/targets/Cloud_FM33A0XX/GCC/../../../targets/Cloud_FM33A0XX/UserCode\neul_bc95.c ****     {
 110              		.loc 1 695 0 is_stmt 0 discriminator 2
 111 0048 8E42     		cmp	r6, r1
 112 004a E2DB     		blt	.L8
 703:e:/LiteOS/LiteOS/targets/Cloud_FM33A0XX/GCC/../../../targets/Cloud_FM33A0XX/UserCode\neul_bc95.c ****         #else
 704:e:/LiteOS/LiteOS/targets/Cloud_FM33A0XX/GCC/../../../targets/Cloud_FM33A0XX/UserCode\neul_bc95.c ****         sscanf(bufin+i, "%02x", &tmp);
 705:e:/LiteOS/LiteOS/targets/Cloud_FM33A0XX/GCC/../../../targets/Cloud_FM33A0XX/UserCode\neul_bc95.c ****         bufout[i/2] = tmp;
 706:e:/LiteOS/LiteOS/targets/Cloud_FM33A0XX/GCC/../../../targets/Cloud_FM33A0XX/UserCode\neul_bc95.c ****         #endif
 707:e:/LiteOS/LiteOS/targets/Cloud_FM33A0XX/GCC/../../../targets/Cloud_FM33A0XX/UserCode\neul_bc95.c ****     }
 708:e:/LiteOS/LiteOS/targets/Cloud_FM33A0XX/GCC/../../../targets/Cloud_FM33A0XX/UserCode\neul_bc95.c ****     return 0; 
 113              		.loc 1 708 0 is_stmt 1
 114 004c 0020     		movs	r0, #0
 115              	.LVL17:
 116 004e 07E0     		b	.L2
 117              	.LVL18:
 118              	.L9:
 693:e:/LiteOS/LiteOS/targets/Cloud_FM33A0XX/GCC/../../../targets/Cloud_FM33A0XX/UserCode\neul_bc95.c ****     }
 119              		.loc 1 693 0
 120 0050 0120     		movs	r0, #1
 121              	.LVL19:
 122 0052 4042     		rsbs	r0, r0, #0
 123 0054 04E0     		b	.L2
 124              	.LVL20:
 125              	.L10:
 126 0056 0120     		movs	r0, #1
 127              	.LVL21:
 128 0058 4042     		rsbs	r0, r0, #0
 129 005a 01E0     		b	.L2
 130              	.LVL22:
 131              	.L11:
 132 005c 0120     		movs	r0, #1
 133              	.LVL23:
 134 005e 4042     		rsbs	r0, r0, #0
 135              	.LVL24:
 136              	.L2:
 709:e:/LiteOS/LiteOS/targets/Cloud_FM33A0XX/GCC/../../../targets/Cloud_FM33A0XX/UserCode\neul_bc95.c **** }
 137              		.loc 1 709 0
 138              		@ sp needed
 139 0060 F0BD     		pop	{r4, r5, r6, r7, pc}
 140              		.cfi_endproc
 141              	.LFE55:
 143 0062 C046     		.section	.text.neul_bc95_reset_upd_param,"ax",%progbits
 144              		.align	2
 145              		.code	16
ARM GAS  C:\Users\WANGBI~1\AppData\Local\Temp\ccSpmgug.s 			page 16


 146              		.thumb_func
 148              	neul_bc95_reset_upd_param:
 149              	.LFB44:
 125:e:/LiteOS/LiteOS/targets/Cloud_FM33A0XX/GCC/../../../targets/Cloud_FM33A0XX/UserCode\neul_bc95.c ****     if (socket < 0)
 150              		.loc 1 125 0
 151              		.cfi_startproc
 152              		@ args = 0, pretend = 0, frame = 0
 153              		@ frame_needed = 0, uses_anonymous_args = 0
 154              	.LVL25:
 155 0000 10B5     		push	{r4, lr}
 156              	.LCFI1:
 157              		.cfi_def_cfa_offset 8
 158              		.cfi_offset 4, -8
 159              		.cfi_offset 14, -4
 126:e:/LiteOS/LiteOS/targets/Cloud_FM33A0XX/GCC/../../../targets/Cloud_FM33A0XX/UserCode\neul_bc95.c ****     {
 160              		.loc 1 126 0
 161 0002 0028     		cmp	r0, #0
 162 0004 13DB     		blt	.L14
 130:e:/LiteOS/LiteOS/targets/Cloud_FM33A0XX/GCC/../../../targets/Cloud_FM33A0XX/UserCode\neul_bc95.c ****     (neul_dev.addrinfo+socket)->port = 0;
 163              		.loc 1 130 0
 164 0006 0B4B     		ldr	r3, .L15
 165 0008 9A68     		ldr	r2, [r3, #8]
 166 000a 013A     		subs	r2, r2, #1
 167 000c 9A60     		str	r2, [r3, #8]
 131:e:/LiteOS/LiteOS/targets/Cloud_FM33A0XX/GCC/../../../targets/Cloud_FM33A0XX/UserCode\neul_bc95.c ****     (neul_dev.addrinfo+socket)->socket = -1;
 168              		.loc 1 131 0
 169 000e D968     		ldr	r1, [r3, #12]
 170 0010 4200     		lsls	r2, r0, #1
 171 0012 1218     		adds	r2, r2, r0
 172 0014 D300     		lsls	r3, r2, #3
 173 0016 C818     		adds	r0, r1, r3
 174              	.LVL26:
 175 0018 0023     		movs	r3, #0
 176 001a 0380     		strh	r3, [r0]
 132:e:/LiteOS/LiteOS/targets/Cloud_FM33A0XX/GCC/../../../targets/Cloud_FM33A0XX/UserCode\neul_bc95.c ****     memset((neul_dev.addrinfo+socket)->ip, 0, NEUL_IP_LEN);
 177              		.loc 1 132 0
 178 001c 013B     		subs	r3, r3, #1
 179 001e 4360     		str	r3, [r0, #4]
 133:e:/LiteOS/LiteOS/targets/Cloud_FM33A0XX/GCC/../../../targets/Cloud_FM33A0XX/UserCode\neul_bc95.c ****     return 0;
 180              		.loc 1 133 0
 181 0020 0830     		adds	r0, r0, #8
 182 0022 1022     		movs	r2, #16
 183 0024 0021     		movs	r1, #0
 184 0026 FFF7FEFF 		bl	memset
 185              	.LVL27:
 134:e:/LiteOS/LiteOS/targets/Cloud_FM33A0XX/GCC/../../../targets/Cloud_FM33A0XX/UserCode\neul_bc95.c **** }
 186              		.loc 1 134 0
 187 002a 0020     		movs	r0, #0
 188 002c 01E0     		b	.L13
 189              	.LVL28:
 190              	.L14:
 128:e:/LiteOS/LiteOS/targets/Cloud_FM33A0XX/GCC/../../../targets/Cloud_FM33A0XX/UserCode\neul_bc95.c ****     }
 191              		.loc 1 128 0
 192 002e 0120     		movs	r0, #1
 193              	.LVL29:
 194 0030 4042     		rsbs	r0, r0, #0
 195              	.L13:
ARM GAS  C:\Users\WANGBI~1\AppData\Local\Temp\ccSpmgug.s 			page 17


 135:e:/LiteOS/LiteOS/targets/Cloud_FM33A0XX/GCC/../../../targets/Cloud_FM33A0XX/UserCode\neul_bc95.c **** 
 196              		.loc 1 135 0
 197              		@ sp needed
 198 0032 10BD     		pop	{r4, pc}
 199              	.L16:
 200              		.align	2
 201              	.L15:
 202 0034 00000000 		.word	.LANCHOR0
 203              		.cfi_endproc
 204              	.LFE44:
 206              		.section	.text.neul_bc95_str_to_hex,"ax",%progbits
 207              		.align	2
 208              		.code	16
 209              		.thumb_func
 211              	neul_bc95_str_to_hex:
 212              	.LFB54:
 653:e:/LiteOS/LiteOS/targets/Cloud_FM33A0XX/GCC/../../../targets/Cloud_FM33A0XX/UserCode\neul_bc95.c ****     int i = 0;
 213              		.loc 1 653 0
 214              		.cfi_startproc
 215              		@ args = 0, pretend = 0, frame = 0
 216              		@ frame_needed = 0, uses_anonymous_args = 0
 217              	.LVL30:
 218 0000 F8B5     		push	{r3, r4, r5, r6, r7, lr}
 219              	.LCFI2:
 220              		.cfi_def_cfa_offset 24
 221              		.cfi_offset 3, -24
 222              		.cfi_offset 4, -20
 223              		.cfi_offset 5, -16
 224              		.cfi_offset 6, -12
 225              		.cfi_offset 7, -8
 226              		.cfi_offset 14, -4
 227 0002 0600     		movs	r6, r0
 228 0004 0D00     		movs	r5, r1
 229 0006 1700     		movs	r7, r2
 230              	.LVL31:
 658:e:/LiteOS/LiteOS/targets/Cloud_FM33A0XX/GCC/../../../targets/Cloud_FM33A0XX/UserCode\neul_bc95.c ****     {
 231              		.loc 1 658 0
 232 0008 0028     		cmp	r0, #0
 233 000a 10D0     		beq	.L21
 658:e:/LiteOS/LiteOS/targets/Cloud_FM33A0XX/GCC/../../../targets/Cloud_FM33A0XX/UserCode\neul_bc95.c ****     {
 234              		.loc 1 658 0 is_stmt 0 discriminator 1
 235 000c 0029     		cmp	r1, #0
 236 000e 11DD     		ble	.L22
 658:e:/LiteOS/LiteOS/targets/Cloud_FM33A0XX/GCC/../../../targets/Cloud_FM33A0XX/UserCode\neul_bc95.c ****     {
 237              		.loc 1 658 0 discriminator 2
 238 0010 002A     		cmp	r2, #0
 239 0012 12D0     		beq	.L23
 240 0014 0024     		movs	r4, #0
 241 0016 06E0     		b	.L19
 242              	.LVL32:
 243              	.L20:
 670:e:/LiteOS/LiteOS/targets/Cloud_FM33A0XX/GCC/../../../targets/Cloud_FM33A0XX/UserCode\neul_bc95.c ****         #endif
 244              		.loc 1 670 0 is_stmt 1 discriminator 3
 245 0018 6000     		lsls	r0, r4, #1
 246 001a 325D     		ldrb	r2, [r6, r4]
 247 001c 3818     		adds	r0, r7, r0
 248 001e 0849     		ldr	r1, .L24
ARM GAS  C:\Users\WANGBI~1\AppData\Local\Temp\ccSpmgug.s 			page 18


 249 0020 FFF7FEFF 		bl	sprintf
 250              	.LVL33:
 662:e:/LiteOS/LiteOS/targets/Cloud_FM33A0XX/GCC/../../../targets/Cloud_FM33A0XX/UserCode\neul_bc95.c ****     {
 251              		.loc 1 662 0 discriminator 3
 252 0024 0134     		adds	r4, r4, #1
 253              	.LVL34:
 254              	.L19:
 662:e:/LiteOS/LiteOS/targets/Cloud_FM33A0XX/GCC/../../../targets/Cloud_FM33A0XX/UserCode\neul_bc95.c ****     {
 255              		.loc 1 662 0 is_stmt 0 discriminator 1
 256 0026 AC42     		cmp	r4, r5
 257 0028 F6DB     		blt	.L20
 673:e:/LiteOS/LiteOS/targets/Cloud_FM33A0XX/GCC/../../../targets/Cloud_FM33A0XX/UserCode\neul_bc95.c **** }
 258              		.loc 1 673 0 is_stmt 1
 259 002a 0020     		movs	r0, #0
 260 002c 07E0     		b	.L18
 261              	.LVL35:
 262              	.L21:
 660:e:/LiteOS/LiteOS/targets/Cloud_FM33A0XX/GCC/../../../targets/Cloud_FM33A0XX/UserCode\neul_bc95.c ****     }
 263              		.loc 1 660 0
 264 002e 0120     		movs	r0, #1
 265              	.LVL36:
 266 0030 4042     		rsbs	r0, r0, #0
 267 0032 04E0     		b	.L18
 268              	.LVL37:
 269              	.L22:
 270 0034 0120     		movs	r0, #1
 271              	.LVL38:
 272 0036 4042     		rsbs	r0, r0, #0
 273 0038 01E0     		b	.L18
 274              	.LVL39:
 275              	.L23:
 276 003a 0120     		movs	r0, #1
 277              	.LVL40:
 278 003c 4042     		rsbs	r0, r0, #0
 279              	.LVL41:
 280              	.L18:
 674:e:/LiteOS/LiteOS/targets/Cloud_FM33A0XX/GCC/../../../targets/Cloud_FM33A0XX/UserCode\neul_bc95.c **** 
 281              		.loc 1 674 0
 282              		@ sp needed
 283              	.LVL42:
 284              	.LVL43:
 285              	.LVL44:
 286 003e F8BD     		pop	{r3, r4, r5, r6, r7, pc}
 287              	.L25:
 288              		.align	2
 289              	.L24:
 290 0040 00000000 		.word	.LC1
 291              		.cfi_endproc
 292              	.LFE54:
 294              		.section	.text.uart_data_read,"ax",%progbits
 295              		.align	2
 296              		.global	uart_data_read
 297              		.code	16
 298              		.thumb_func
 300              	uart_data_read:
 301              	.LFB80:
 710:e:/LiteOS/LiteOS/targets/Cloud_FM33A0XX/GCC/../../../targets/Cloud_FM33A0XX/UserCode\neul_bc95.c **** 
ARM GAS  C:\Users\WANGBI~1\AppData\Local\Temp\ccSpmgug.s 			page 19


 711:e:/LiteOS/LiteOS/targets/Cloud_FM33A0XX/GCC/../../../targets/Cloud_FM33A0XX/UserCode\neul_bc95.c **** /* ============================================================
 712:e:/LiteOS/LiteOS/targets/Cloud_FM33A0XX/GCC/../../../targets/Cloud_FM33A0XX/UserCode\neul_bc95.c **** func name   :  neul_bc95_set_cdpserver
 713:e:/LiteOS/LiteOS/targets/Cloud_FM33A0XX/GCC/../../../targets/Cloud_FM33A0XX/UserCode\neul_bc95.c **** discription :  set bc95 cdp server 
 714:e:/LiteOS/LiteOS/targets/Cloud_FM33A0XX/GCC/../../../targets/Cloud_FM33A0XX/UserCode\neul_bc95.c ****                
 715:e:/LiteOS/LiteOS/targets/Cloud_FM33A0XX/GCC/../../../targets/Cloud_FM33A0XX/UserCode\neul_bc95.c **** param       :  ipaddr @ input param cdp server ip address
 716:e:/LiteOS/LiteOS/targets/Cloud_FM33A0XX/GCC/../../../targets/Cloud_FM33A0XX/UserCode\neul_bc95.c **** return      :  0 set ok , !0 not ok
 717:e:/LiteOS/LiteOS/targets/Cloud_FM33A0XX/GCC/../../../targets/Cloud_FM33A0XX/UserCode\neul_bc95.c **** Revision    : 
 718:e:/LiteOS/LiteOS/targets/Cloud_FM33A0XX/GCC/../../../targets/Cloud_FM33A0XX/UserCode\neul_bc95.c **** =============================================================== */
 719:e:/LiteOS/LiteOS/targets/Cloud_FM33A0XX/GCC/../../../targets/Cloud_FM33A0XX/UserCode\neul_bc95.c **** int neul_bc95_set_cdpserver(const char *ipaddr)
 720:e:/LiteOS/LiteOS/targets/Cloud_FM33A0XX/GCC/../../../targets/Cloud_FM33A0XX/UserCode\neul_bc95.c **** {
 721:e:/LiteOS/LiteOS/targets/Cloud_FM33A0XX/GCC/../../../targets/Cloud_FM33A0XX/UserCode\neul_bc95.c ****     char *cmd = "AT+NCDP=";
 722:e:/LiteOS/LiteOS/targets/Cloud_FM33A0XX/GCC/../../../targets/Cloud_FM33A0XX/UserCode\neul_bc95.c ****     char *cmd2 = "AT+NCDP?\r";
 723:e:/LiteOS/LiteOS/targets/Cloud_FM33A0XX/GCC/../../../targets/Cloud_FM33A0XX/UserCode\neul_bc95.c ****     char *str = NULL;
 724:e:/LiteOS/LiteOS/targets/Cloud_FM33A0XX/GCC/../../../targets/Cloud_FM33A0XX/UserCode\neul_bc95.c ****     int ret = 0;
 725:e:/LiteOS/LiteOS/targets/Cloud_FM33A0XX/GCC/../../../targets/Cloud_FM33A0XX/UserCode\neul_bc95.c ****     
 726:e:/LiteOS/LiteOS/targets/Cloud_FM33A0XX/GCC/../../../targets/Cloud_FM33A0XX/UserCode\neul_bc95.c ****     if (NULL == ipaddr || strlen(ipaddr) >= 16)
 727:e:/LiteOS/LiteOS/targets/Cloud_FM33A0XX/GCC/../../../targets/Cloud_FM33A0XX/UserCode\neul_bc95.c ****     {
 728:e:/LiteOS/LiteOS/targets/Cloud_FM33A0XX/GCC/../../../targets/Cloud_FM33A0XX/UserCode\neul_bc95.c ****         return -1;
 729:e:/LiteOS/LiteOS/targets/Cloud_FM33A0XX/GCC/../../../targets/Cloud_FM33A0XX/UserCode\neul_bc95.c ****     }
 730:e:/LiteOS/LiteOS/targets/Cloud_FM33A0XX/GCC/../../../targets/Cloud_FM33A0XX/UserCode\neul_bc95.c ****     memset(neul_dev.wbuf, 0, 64);
 731:e:/LiteOS/LiteOS/targets/Cloud_FM33A0XX/GCC/../../../targets/Cloud_FM33A0XX/UserCode\neul_bc95.c ****     sprintf(neul_dev.wbuf, "%s%s%c", cmd, ipaddr, '\r');
 732:e:/LiteOS/LiteOS/targets/Cloud_FM33A0XX/GCC/../../../targets/Cloud_FM33A0XX/UserCode\neul_bc95.c ****     ret = neul_dev.ops->dev_write(neul_dev.wbuf, strlen(neul_dev.wbuf), 0);
 733:e:/LiteOS/LiteOS/targets/Cloud_FM33A0XX/GCC/../../../targets/Cloud_FM33A0XX/UserCode\neul_bc95.c ****     if (ret < 0)
 734:e:/LiteOS/LiteOS/targets/Cloud_FM33A0XX/GCC/../../../targets/Cloud_FM33A0XX/UserCode\neul_bc95.c ****     {
 735:e:/LiteOS/LiteOS/targets/Cloud_FM33A0XX/GCC/../../../targets/Cloud_FM33A0XX/UserCode\neul_bc95.c ****         //write data to bc95 failed
 736:e:/LiteOS/LiteOS/targets/Cloud_FM33A0XX/GCC/../../../targets/Cloud_FM33A0XX/UserCode\neul_bc95.c ****         return -1;
 737:e:/LiteOS/LiteOS/targets/Cloud_FM33A0XX/GCC/../../../targets/Cloud_FM33A0XX/UserCode\neul_bc95.c ****     }
 738:e:/LiteOS/LiteOS/targets/Cloud_FM33A0XX/GCC/../../../targets/Cloud_FM33A0XX/UserCode\neul_bc95.c ****     memset(neul_dev.rbuf, 0, 32);
 739:e:/LiteOS/LiteOS/targets/Cloud_FM33A0XX/GCC/../../../targets/Cloud_FM33A0XX/UserCode\neul_bc95.c ****     ret = neul_dev.ops->dev_read(neul_dev.rbuf, 32, 0, 200);
 740:e:/LiteOS/LiteOS/targets/Cloud_FM33A0XX/GCC/../../../targets/Cloud_FM33A0XX/UserCode\neul_bc95.c ****     if (ret <= 0)
 741:e:/LiteOS/LiteOS/targets/Cloud_FM33A0XX/GCC/../../../targets/Cloud_FM33A0XX/UserCode\neul_bc95.c ****     {
 742:e:/LiteOS/LiteOS/targets/Cloud_FM33A0XX/GCC/../../../targets/Cloud_FM33A0XX/UserCode\neul_bc95.c ****         //read bc95 read set return value info failed
 743:e:/LiteOS/LiteOS/targets/Cloud_FM33A0XX/GCC/../../../targets/Cloud_FM33A0XX/UserCode\neul_bc95.c ****         return -1;
 744:e:/LiteOS/LiteOS/targets/Cloud_FM33A0XX/GCC/../../../targets/Cloud_FM33A0XX/UserCode\neul_bc95.c ****     }
 745:e:/LiteOS/LiteOS/targets/Cloud_FM33A0XX/GCC/../../../targets/Cloud_FM33A0XX/UserCode\neul_bc95.c ****     str = strstr(neul_dev.rbuf,"OK");
 746:e:/LiteOS/LiteOS/targets/Cloud_FM33A0XX/GCC/../../../targets/Cloud_FM33A0XX/UserCode\neul_bc95.c ****     if (!str)
 747:e:/LiteOS/LiteOS/targets/Cloud_FM33A0XX/GCC/../../../targets/Cloud_FM33A0XX/UserCode\neul_bc95.c ****     {
 748:e:/LiteOS/LiteOS/targets/Cloud_FM33A0XX/GCC/../../../targets/Cloud_FM33A0XX/UserCode\neul_bc95.c ****         return -1;
 749:e:/LiteOS/LiteOS/targets/Cloud_FM33A0XX/GCC/../../../targets/Cloud_FM33A0XX/UserCode\neul_bc95.c ****     }
 750:e:/LiteOS/LiteOS/targets/Cloud_FM33A0XX/GCC/../../../targets/Cloud_FM33A0XX/UserCode\neul_bc95.c ****     
 751:e:/LiteOS/LiteOS/targets/Cloud_FM33A0XX/GCC/../../../targets/Cloud_FM33A0XX/UserCode\neul_bc95.c ****     //query the setted ip back
 752:e:/LiteOS/LiteOS/targets/Cloud_FM33A0XX/GCC/../../../targets/Cloud_FM33A0XX/UserCode\neul_bc95.c ****     ret = neul_dev.ops->dev_write(cmd2, strlen(cmd2), 0);
 753:e:/LiteOS/LiteOS/targets/Cloud_FM33A0XX/GCC/../../../targets/Cloud_FM33A0XX/UserCode\neul_bc95.c ****     if (ret < 0)
 754:e:/LiteOS/LiteOS/targets/Cloud_FM33A0XX/GCC/../../../targets/Cloud_FM33A0XX/UserCode\neul_bc95.c ****     {
 755:e:/LiteOS/LiteOS/targets/Cloud_FM33A0XX/GCC/../../../targets/Cloud_FM33A0XX/UserCode\neul_bc95.c ****         //write data to bc95 failed
 756:e:/LiteOS/LiteOS/targets/Cloud_FM33A0XX/GCC/../../../targets/Cloud_FM33A0XX/UserCode\neul_bc95.c ****         return -1;
 757:e:/LiteOS/LiteOS/targets/Cloud_FM33A0XX/GCC/../../../targets/Cloud_FM33A0XX/UserCode\neul_bc95.c ****     }
 758:e:/LiteOS/LiteOS/targets/Cloud_FM33A0XX/GCC/../../../targets/Cloud_FM33A0XX/UserCode\neul_bc95.c ****     memset(neul_dev.rbuf, 0, 32);
 759:e:/LiteOS/LiteOS/targets/Cloud_FM33A0XX/GCC/../../../targets/Cloud_FM33A0XX/UserCode\neul_bc95.c ****     ret = neul_dev.ops->dev_read(neul_dev.rbuf, 32, 0, 200);
 760:e:/LiteOS/LiteOS/targets/Cloud_FM33A0XX/GCC/../../../targets/Cloud_FM33A0XX/UserCode\neul_bc95.c ****     if (ret <= 0)
 761:e:/LiteOS/LiteOS/targets/Cloud_FM33A0XX/GCC/../../../targets/Cloud_FM33A0XX/UserCode\neul_bc95.c ****     {
 762:e:/LiteOS/LiteOS/targets/Cloud_FM33A0XX/GCC/../../../targets/Cloud_FM33A0XX/UserCode\neul_bc95.c ****         //read bc95 read set return value info failed
 763:e:/LiteOS/LiteOS/targets/Cloud_FM33A0XX/GCC/../../../targets/Cloud_FM33A0XX/UserCode\neul_bc95.c ****         return -1;
 764:e:/LiteOS/LiteOS/targets/Cloud_FM33A0XX/GCC/../../../targets/Cloud_FM33A0XX/UserCode\neul_bc95.c ****     }
 765:e:/LiteOS/LiteOS/targets/Cloud_FM33A0XX/GCC/../../../targets/Cloud_FM33A0XX/UserCode\neul_bc95.c ****     str = strstr(neul_dev.rbuf,ipaddr);
 766:e:/LiteOS/LiteOS/targets/Cloud_FM33A0XX/GCC/../../../targets/Cloud_FM33A0XX/UserCode\neul_bc95.c ****     if (!str)
 767:e:/LiteOS/LiteOS/targets/Cloud_FM33A0XX/GCC/../../../targets/Cloud_FM33A0XX/UserCode\neul_bc95.c ****     {
ARM GAS  C:\Users\WANGBI~1\AppData\Local\Temp\ccSpmgug.s 			page 20


 768:e:/LiteOS/LiteOS/targets/Cloud_FM33A0XX/GCC/../../../targets/Cloud_FM33A0XX/UserCode\neul_bc95.c ****         return -1;
 769:e:/LiteOS/LiteOS/targets/Cloud_FM33A0XX/GCC/../../../targets/Cloud_FM33A0XX/UserCode\neul_bc95.c ****     }
 770:e:/LiteOS/LiteOS/targets/Cloud_FM33A0XX/GCC/../../../targets/Cloud_FM33A0XX/UserCode\neul_bc95.c ****     
 771:e:/LiteOS/LiteOS/targets/Cloud_FM33A0XX/GCC/../../../targets/Cloud_FM33A0XX/UserCode\neul_bc95.c ****     return 0;
 772:e:/LiteOS/LiteOS/targets/Cloud_FM33A0XX/GCC/../../../targets/Cloud_FM33A0XX/UserCode\neul_bc95.c **** }
 773:e:/LiteOS/LiteOS/targets/Cloud_FM33A0XX/GCC/../../../targets/Cloud_FM33A0XX/UserCode\neul_bc95.c **** 
 774:e:/LiteOS/LiteOS/targets/Cloud_FM33A0XX/GCC/../../../targets/Cloud_FM33A0XX/UserCode\neul_bc95.c **** 
 775:e:/LiteOS/LiteOS/targets/Cloud_FM33A0XX/GCC/../../../targets/Cloud_FM33A0XX/UserCode\neul_bc95.c **** /* ============================================================
 776:e:/LiteOS/LiteOS/targets/Cloud_FM33A0XX/GCC/../../../targets/Cloud_FM33A0XX/UserCode\neul_bc95.c **** func name   :  neul_bc95_send_coap_paylaod
 777:e:/LiteOS/LiteOS/targets/Cloud_FM33A0XX/GCC/../../../targets/Cloud_FM33A0XX/UserCode\neul_bc95.c **** discription :  send coap message(hex data) to cdp server 
 778:e:/LiteOS/LiteOS/targets/Cloud_FM33A0XX/GCC/../../../targets/Cloud_FM33A0XX/UserCode\neul_bc95.c ****                
 779:e:/LiteOS/LiteOS/targets/Cloud_FM33A0XX/GCC/../../../targets/Cloud_FM33A0XX/UserCode\neul_bc95.c **** param       :  buf @ input param , the data that send to cdp
 780:e:/LiteOS/LiteOS/targets/Cloud_FM33A0XX/GCC/../../../targets/Cloud_FM33A0XX/UserCode\neul_bc95.c ****                sendlen @ input param, data length
 781:e:/LiteOS/LiteOS/targets/Cloud_FM33A0XX/GCC/../../../targets/Cloud_FM33A0XX/UserCode\neul_bc95.c **** return      :  0 send ok , !0 not ok
 782:e:/LiteOS/LiteOS/targets/Cloud_FM33A0XX/GCC/../../../targets/Cloud_FM33A0XX/UserCode\neul_bc95.c **** Revision    : 
 783:e:/LiteOS/LiteOS/targets/Cloud_FM33A0XX/GCC/../../../targets/Cloud_FM33A0XX/UserCode\neul_bc95.c **** =============================================================== */
 784:e:/LiteOS/LiteOS/targets/Cloud_FM33A0XX/GCC/../../../targets/Cloud_FM33A0XX/UserCode\neul_bc95.c **** int neul_bc95_send_coap_paylaod(const char *buf, int sendlen)
 785:e:/LiteOS/LiteOS/targets/Cloud_FM33A0XX/GCC/../../../targets/Cloud_FM33A0XX/UserCode\neul_bc95.c **** {
 786:e:/LiteOS/LiteOS/targets/Cloud_FM33A0XX/GCC/../../../targets/Cloud_FM33A0XX/UserCode\neul_bc95.c ****     char *cmd = "AT+NMGS=";
 787:e:/LiteOS/LiteOS/targets/Cloud_FM33A0XX/GCC/../../../targets/Cloud_FM33A0XX/UserCode\neul_bc95.c ****     char *cmd2 = "AT+NQMGS\r";
 788:e:/LiteOS/LiteOS/targets/Cloud_FM33A0XX/GCC/../../../targets/Cloud_FM33A0XX/UserCode\neul_bc95.c ****     int ret = 0;
 789:e:/LiteOS/LiteOS/targets/Cloud_FM33A0XX/GCC/../../../targets/Cloud_FM33A0XX/UserCode\neul_bc95.c ****     char *str = NULL;
 790:e:/LiteOS/LiteOS/targets/Cloud_FM33A0XX/GCC/../../../targets/Cloud_FM33A0XX/UserCode\neul_bc95.c ****     static int sndcnt = 0;
 791:e:/LiteOS/LiteOS/targets/Cloud_FM33A0XX/GCC/../../../targets/Cloud_FM33A0XX/UserCode\neul_bc95.c ****     int curcnt = 0;
 792:e:/LiteOS/LiteOS/targets/Cloud_FM33A0XX/GCC/../../../targets/Cloud_FM33A0XX/UserCode\neul_bc95.c ****     
 793:e:/LiteOS/LiteOS/targets/Cloud_FM33A0XX/GCC/../../../targets/Cloud_FM33A0XX/UserCode\neul_bc95.c ****     if (NULL == buf || sendlen >= 512)
 794:e:/LiteOS/LiteOS/targets/Cloud_FM33A0XX/GCC/../../../targets/Cloud_FM33A0XX/UserCode\neul_bc95.c ****     {
 795:e:/LiteOS/LiteOS/targets/Cloud_FM33A0XX/GCC/../../../targets/Cloud_FM33A0XX/UserCode\neul_bc95.c ****         return -1;
 796:e:/LiteOS/LiteOS/targets/Cloud_FM33A0XX/GCC/../../../targets/Cloud_FM33A0XX/UserCode\neul_bc95.c ****     }
 797:e:/LiteOS/LiteOS/targets/Cloud_FM33A0XX/GCC/../../../targets/Cloud_FM33A0XX/UserCode\neul_bc95.c ****     memset(neul_dev.wbuf, 0, 64);
 798:e:/LiteOS/LiteOS/targets/Cloud_FM33A0XX/GCC/../../../targets/Cloud_FM33A0XX/UserCode\neul_bc95.c ****     memset(neul_bc95_tmpbuf, 0, NEUL_MAX_BUF_SIZE);
 799:e:/LiteOS/LiteOS/targets/Cloud_FM33A0XX/GCC/../../../targets/Cloud_FM33A0XX/UserCode\neul_bc95.c ****     ret = neul_bc95_str_to_hex((unsigned char *)buf, sendlen, neul_bc95_tmpbuf);
 800:e:/LiteOS/LiteOS/targets/Cloud_FM33A0XX/GCC/../../../targets/Cloud_FM33A0XX/UserCode\neul_bc95.c ****     sprintf(neul_dev.wbuf, "%s%d,%s%c", cmd, sendlen, neul_bc95_tmpbuf, '\r');
 801:e:/LiteOS/LiteOS/targets/Cloud_FM33A0XX/GCC/../../../targets/Cloud_FM33A0XX/UserCode\neul_bc95.c **** 		printf("%s\r",neul_dev.wbuf);
 802:e:/LiteOS/LiteOS/targets/Cloud_FM33A0XX/GCC/../../../targets/Cloud_FM33A0XX/UserCode\neul_bc95.c ****     ret = neul_dev.ops->dev_write(neul_dev.wbuf, strlen(neul_dev.wbuf), 0);
 803:e:/LiteOS/LiteOS/targets/Cloud_FM33A0XX/GCC/../../../targets/Cloud_FM33A0XX/UserCode\neul_bc95.c ****     if (ret < 0)
 804:e:/LiteOS/LiteOS/targets/Cloud_FM33A0XX/GCC/../../../targets/Cloud_FM33A0XX/UserCode\neul_bc95.c ****     {
 805:e:/LiteOS/LiteOS/targets/Cloud_FM33A0XX/GCC/../../../targets/Cloud_FM33A0XX/UserCode\neul_bc95.c ****         //write data to bc95 failed
 806:e:/LiteOS/LiteOS/targets/Cloud_FM33A0XX/GCC/../../../targets/Cloud_FM33A0XX/UserCode\neul_bc95.c ****         return -1;
 807:e:/LiteOS/LiteOS/targets/Cloud_FM33A0XX/GCC/../../../targets/Cloud_FM33A0XX/UserCode\neul_bc95.c ****     }
 808:e:/LiteOS/LiteOS/targets/Cloud_FM33A0XX/GCC/../../../targets/Cloud_FM33A0XX/UserCode\neul_bc95.c ****     memset(neul_dev.rbuf, 0, 32);
 809:e:/LiteOS/LiteOS/targets/Cloud_FM33A0XX/GCC/../../../targets/Cloud_FM33A0XX/UserCode\neul_bc95.c ****     ret = neul_dev.ops->dev_read(neul_dev.rbuf, 32, 0, 200);
 810:e:/LiteOS/LiteOS/targets/Cloud_FM33A0XX/GCC/../../../targets/Cloud_FM33A0XX/UserCode\neul_bc95.c ****     if (ret <= 0)
 811:e:/LiteOS/LiteOS/targets/Cloud_FM33A0XX/GCC/../../../targets/Cloud_FM33A0XX/UserCode\neul_bc95.c ****     {
 812:e:/LiteOS/LiteOS/targets/Cloud_FM33A0XX/GCC/../../../targets/Cloud_FM33A0XX/UserCode\neul_bc95.c ****         //read bc95 read set return value info failed
 813:e:/LiteOS/LiteOS/targets/Cloud_FM33A0XX/GCC/../../../targets/Cloud_FM33A0XX/UserCode\neul_bc95.c ****         return -1;
 814:e:/LiteOS/LiteOS/targets/Cloud_FM33A0XX/GCC/../../../targets/Cloud_FM33A0XX/UserCode\neul_bc95.c ****     }
 815:e:/LiteOS/LiteOS/targets/Cloud_FM33A0XX/GCC/../../../targets/Cloud_FM33A0XX/UserCode\neul_bc95.c ****     str = strstr(neul_dev.rbuf,"OK");
 816:e:/LiteOS/LiteOS/targets/Cloud_FM33A0XX/GCC/../../../targets/Cloud_FM33A0XX/UserCode\neul_bc95.c ****     if (!str)
 817:e:/LiteOS/LiteOS/targets/Cloud_FM33A0XX/GCC/../../../targets/Cloud_FM33A0XX/UserCode\neul_bc95.c ****     {
 818:e:/LiteOS/LiteOS/targets/Cloud_FM33A0XX/GCC/../../../targets/Cloud_FM33A0XX/UserCode\neul_bc95.c ****         return -1;
 819:e:/LiteOS/LiteOS/targets/Cloud_FM33A0XX/GCC/../../../targets/Cloud_FM33A0XX/UserCode\neul_bc95.c ****     }
 820:e:/LiteOS/LiteOS/targets/Cloud_FM33A0XX/GCC/../../../targets/Cloud_FM33A0XX/UserCode\neul_bc95.c ****     
 821:e:/LiteOS/LiteOS/targets/Cloud_FM33A0XX/GCC/../../../targets/Cloud_FM33A0XX/UserCode\neul_bc95.c ****     /* query the message if send */
 822:e:/LiteOS/LiteOS/targets/Cloud_FM33A0XX/GCC/../../../targets/Cloud_FM33A0XX/UserCode\neul_bc95.c ****     memset(neul_dev.rbuf, 0, 64);
 823:e:/LiteOS/LiteOS/targets/Cloud_FM33A0XX/GCC/../../../targets/Cloud_FM33A0XX/UserCode\neul_bc95.c ****     ret = neul_dev.ops->dev_write(cmd2, strlen(cmd2), 0);
 824:e:/LiteOS/LiteOS/targets/Cloud_FM33A0XX/GCC/../../../targets/Cloud_FM33A0XX/UserCode\neul_bc95.c ****     if (ret < 0)
ARM GAS  C:\Users\WANGBI~1\AppData\Local\Temp\ccSpmgug.s 			page 21


 825:e:/LiteOS/LiteOS/targets/Cloud_FM33A0XX/GCC/../../../targets/Cloud_FM33A0XX/UserCode\neul_bc95.c ****     {
 826:e:/LiteOS/LiteOS/targets/Cloud_FM33A0XX/GCC/../../../targets/Cloud_FM33A0XX/UserCode\neul_bc95.c ****         //write data to bc95 failed
 827:e:/LiteOS/LiteOS/targets/Cloud_FM33A0XX/GCC/../../../targets/Cloud_FM33A0XX/UserCode\neul_bc95.c ****         return -1;
 828:e:/LiteOS/LiteOS/targets/Cloud_FM33A0XX/GCC/../../../targets/Cloud_FM33A0XX/UserCode\neul_bc95.c ****     }
 829:e:/LiteOS/LiteOS/targets/Cloud_FM33A0XX/GCC/../../../targets/Cloud_FM33A0XX/UserCode\neul_bc95.c ****     ret = neul_dev.ops->dev_read(neul_dev.rbuf, 64, 0, 200);
 830:e:/LiteOS/LiteOS/targets/Cloud_FM33A0XX/GCC/../../../targets/Cloud_FM33A0XX/UserCode\neul_bc95.c ****     if (ret <= 0)
 831:e:/LiteOS/LiteOS/targets/Cloud_FM33A0XX/GCC/../../../targets/Cloud_FM33A0XX/UserCode\neul_bc95.c ****     {
 832:e:/LiteOS/LiteOS/targets/Cloud_FM33A0XX/GCC/../../../targets/Cloud_FM33A0XX/UserCode\neul_bc95.c ****         //read bc95 read set return value info failed
 833:e:/LiteOS/LiteOS/targets/Cloud_FM33A0XX/GCC/../../../targets/Cloud_FM33A0XX/UserCode\neul_bc95.c ****         return -1;
 834:e:/LiteOS/LiteOS/targets/Cloud_FM33A0XX/GCC/../../../targets/Cloud_FM33A0XX/UserCode\neul_bc95.c ****     }
 835:e:/LiteOS/LiteOS/targets/Cloud_FM33A0XX/GCC/../../../targets/Cloud_FM33A0XX/UserCode\neul_bc95.c ****     str = strstr(neul_dev.rbuf,"SENT="); 
 836:e:/LiteOS/LiteOS/targets/Cloud_FM33A0XX/GCC/../../../targets/Cloud_FM33A0XX/UserCode\neul_bc95.c ****     if (!str)
 837:e:/LiteOS/LiteOS/targets/Cloud_FM33A0XX/GCC/../../../targets/Cloud_FM33A0XX/UserCode\neul_bc95.c ****     {
 838:e:/LiteOS/LiteOS/targets/Cloud_FM33A0XX/GCC/../../../targets/Cloud_FM33A0XX/UserCode\neul_bc95.c ****         return -1;
 839:e:/LiteOS/LiteOS/targets/Cloud_FM33A0XX/GCC/../../../targets/Cloud_FM33A0XX/UserCode\neul_bc95.c ****     }
 840:e:/LiteOS/LiteOS/targets/Cloud_FM33A0XX/GCC/../../../targets/Cloud_FM33A0XX/UserCode\neul_bc95.c ****     sscanf(str, "SENT=%d,%s", &curcnt, neul_dev.wbuf);
 841:e:/LiteOS/LiteOS/targets/Cloud_FM33A0XX/GCC/../../../targets/Cloud_FM33A0XX/UserCode\neul_bc95.c ****     if (curcnt == sndcnt)
 842:e:/LiteOS/LiteOS/targets/Cloud_FM33A0XX/GCC/../../../targets/Cloud_FM33A0XX/UserCode\neul_bc95.c ****     {
 843:e:/LiteOS/LiteOS/targets/Cloud_FM33A0XX/GCC/../../../targets/Cloud_FM33A0XX/UserCode\neul_bc95.c ****         return -1;
 844:e:/LiteOS/LiteOS/targets/Cloud_FM33A0XX/GCC/../../../targets/Cloud_FM33A0XX/UserCode\neul_bc95.c ****     }
 845:e:/LiteOS/LiteOS/targets/Cloud_FM33A0XX/GCC/../../../targets/Cloud_FM33A0XX/UserCode\neul_bc95.c ****     sndcnt = curcnt;
 846:e:/LiteOS/LiteOS/targets/Cloud_FM33A0XX/GCC/../../../targets/Cloud_FM33A0XX/UserCode\neul_bc95.c ****     return 0;
 847:e:/LiteOS/LiteOS/targets/Cloud_FM33A0XX/GCC/../../../targets/Cloud_FM33A0XX/UserCode\neul_bc95.c **** }
 848:e:/LiteOS/LiteOS/targets/Cloud_FM33A0XX/GCC/../../../targets/Cloud_FM33A0XX/UserCode\neul_bc95.c **** 
 849:e:/LiteOS/LiteOS/targets/Cloud_FM33A0XX/GCC/../../../targets/Cloud_FM33A0XX/UserCode\neul_bc95.c **** /* ============================================================
 850:e:/LiteOS/LiteOS/targets/Cloud_FM33A0XX/GCC/../../../targets/Cloud_FM33A0XX/UserCode\neul_bc95.c **** func name   :  neul_bc95_read_coap_msg
 851:e:/LiteOS/LiteOS/targets/Cloud_FM33A0XX/GCC/../../../targets/Cloud_FM33A0XX/UserCode\neul_bc95.c **** discription :  recv coap message(hex data) from cdp server 
 852:e:/LiteOS/LiteOS/targets/Cloud_FM33A0XX/GCC/../../../targets/Cloud_FM33A0XX/UserCode\neul_bc95.c ****                
 853:e:/LiteOS/LiteOS/targets/Cloud_FM33A0XX/GCC/../../../targets/Cloud_FM33A0XX/UserCode\neul_bc95.c **** param       :  buf @ input param , the data that send to cdp
 854:e:/LiteOS/LiteOS/targets/Cloud_FM33A0XX/GCC/../../../targets/Cloud_FM33A0XX/UserCode\neul_bc95.c ****                sendlen @ input param, data length
 855:e:/LiteOS/LiteOS/targets/Cloud_FM33A0XX/GCC/../../../targets/Cloud_FM33A0XX/UserCode\neul_bc95.c **** return      :  >=0 is read data length , <0 not ok
 856:e:/LiteOS/LiteOS/targets/Cloud_FM33A0XX/GCC/../../../targets/Cloud_FM33A0XX/UserCode\neul_bc95.c **** Revision    : 
 857:e:/LiteOS/LiteOS/targets/Cloud_FM33A0XX/GCC/../../../targets/Cloud_FM33A0XX/UserCode\neul_bc95.c **** =============================================================== */
 858:e:/LiteOS/LiteOS/targets/Cloud_FM33A0XX/GCC/../../../targets/Cloud_FM33A0XX/UserCode\neul_bc95.c **** int neul_bc95_get_unrmsg_count(void)
 859:e:/LiteOS/LiteOS/targets/Cloud_FM33A0XX/GCC/../../../targets/Cloud_FM33A0XX/UserCode\neul_bc95.c **** {
 860:e:/LiteOS/LiteOS/targets/Cloud_FM33A0XX/GCC/../../../targets/Cloud_FM33A0XX/UserCode\neul_bc95.c ****     char *cmd = "AT+NQMGR\r\n";
 861:e:/LiteOS/LiteOS/targets/Cloud_FM33A0XX/GCC/../../../targets/Cloud_FM33A0XX/UserCode\neul_bc95.c ****     int ret = 0;
 862:e:/LiteOS/LiteOS/targets/Cloud_FM33A0XX/GCC/../../../targets/Cloud_FM33A0XX/UserCode\neul_bc95.c ****     char *str = NULL;
 863:e:/LiteOS/LiteOS/targets/Cloud_FM33A0XX/GCC/../../../targets/Cloud_FM33A0XX/UserCode\neul_bc95.c ****     int msgcnt = 0;
 864:e:/LiteOS/LiteOS/targets/Cloud_FM33A0XX/GCC/../../../targets/Cloud_FM33A0XX/UserCode\neul_bc95.c ****     
 865:e:/LiteOS/LiteOS/targets/Cloud_FM33A0XX/GCC/../../../targets/Cloud_FM33A0XX/UserCode\neul_bc95.c ****     memset(neul_dev.rbuf, 0, 128);
 866:e:/LiteOS/LiteOS/targets/Cloud_FM33A0XX/GCC/../../../targets/Cloud_FM33A0XX/UserCode\neul_bc95.c ****     ret = neul_dev.ops->dev_write(cmd, strlen(cmd), 0);
 867:e:/LiteOS/LiteOS/targets/Cloud_FM33A0XX/GCC/../../../targets/Cloud_FM33A0XX/UserCode\neul_bc95.c ****     if (ret < 0)
 868:e:/LiteOS/LiteOS/targets/Cloud_FM33A0XX/GCC/../../../targets/Cloud_FM33A0XX/UserCode\neul_bc95.c ****     {
 869:e:/LiteOS/LiteOS/targets/Cloud_FM33A0XX/GCC/../../../targets/Cloud_FM33A0XX/UserCode\neul_bc95.c ****         //write data to bc95 failed
 870:e:/LiteOS/LiteOS/targets/Cloud_FM33A0XX/GCC/../../../targets/Cloud_FM33A0XX/UserCode\neul_bc95.c ****         return -1;
 871:e:/LiteOS/LiteOS/targets/Cloud_FM33A0XX/GCC/../../../targets/Cloud_FM33A0XX/UserCode\neul_bc95.c ****     }
 872:e:/LiteOS/LiteOS/targets/Cloud_FM33A0XX/GCC/../../../targets/Cloud_FM33A0XX/UserCode\neul_bc95.c ****     ret = neul_dev.ops->dev_read(neul_dev.rbuf, 128, 0, 100);
 873:e:/LiteOS/LiteOS/targets/Cloud_FM33A0XX/GCC/../../../targets/Cloud_FM33A0XX/UserCode\neul_bc95.c ****     if (ret < 0)
 874:e:/LiteOS/LiteOS/targets/Cloud_FM33A0XX/GCC/../../../targets/Cloud_FM33A0XX/UserCode\neul_bc95.c ****     {
 875:e:/LiteOS/LiteOS/targets/Cloud_FM33A0XX/GCC/../../../targets/Cloud_FM33A0XX/UserCode\neul_bc95.c ****         //read bc95 read set return value info failed
 876:e:/LiteOS/LiteOS/targets/Cloud_FM33A0XX/GCC/../../../targets/Cloud_FM33A0XX/UserCode\neul_bc95.c ****         return -1;
 877:e:/LiteOS/LiteOS/targets/Cloud_FM33A0XX/GCC/../../../targets/Cloud_FM33A0XX/UserCode\neul_bc95.c ****     }
 878:e:/LiteOS/LiteOS/targets/Cloud_FM33A0XX/GCC/../../../targets/Cloud_FM33A0XX/UserCode\neul_bc95.c ****     str = strstr(neul_dev.rbuf,"BUFFERED");
 879:e:/LiteOS/LiteOS/targets/Cloud_FM33A0XX/GCC/../../../targets/Cloud_FM33A0XX/UserCode\neul_bc95.c ****     if (!str)
 880:e:/LiteOS/LiteOS/targets/Cloud_FM33A0XX/GCC/../../../targets/Cloud_FM33A0XX/UserCode\neul_bc95.c ****     {
 881:e:/LiteOS/LiteOS/targets/Cloud_FM33A0XX/GCC/../../../targets/Cloud_FM33A0XX/UserCode\neul_bc95.c ****         return 0;
ARM GAS  C:\Users\WANGBI~1\AppData\Local\Temp\ccSpmgug.s 			page 22


 882:e:/LiteOS/LiteOS/targets/Cloud_FM33A0XX/GCC/../../../targets/Cloud_FM33A0XX/UserCode\neul_bc95.c ****     }
 883:e:/LiteOS/LiteOS/targets/Cloud_FM33A0XX/GCC/../../../targets/Cloud_FM33A0XX/UserCode\neul_bc95.c ****     sscanf(neul_dev.rbuf, "\r\nBUFFERED=%d,%s", &msgcnt, neul_dev.wbuf);
 884:e:/LiteOS/LiteOS/targets/Cloud_FM33A0XX/GCC/../../../targets/Cloud_FM33A0XX/UserCode\neul_bc95.c ****     if (msgcnt < 0 )
 885:e:/LiteOS/LiteOS/targets/Cloud_FM33A0XX/GCC/../../../targets/Cloud_FM33A0XX/UserCode\neul_bc95.c ****     {
 886:e:/LiteOS/LiteOS/targets/Cloud_FM33A0XX/GCC/../../../targets/Cloud_FM33A0XX/UserCode\neul_bc95.c ****         return 0;
 887:e:/LiteOS/LiteOS/targets/Cloud_FM33A0XX/GCC/../../../targets/Cloud_FM33A0XX/UserCode\neul_bc95.c ****     }
 888:e:/LiteOS/LiteOS/targets/Cloud_FM33A0XX/GCC/../../../targets/Cloud_FM33A0XX/UserCode\neul_bc95.c ****     return msgcnt;
 889:e:/LiteOS/LiteOS/targets/Cloud_FM33A0XX/GCC/../../../targets/Cloud_FM33A0XX/UserCode\neul_bc95.c **** }
 890:e:/LiteOS/LiteOS/targets/Cloud_FM33A0XX/GCC/../../../targets/Cloud_FM33A0XX/UserCode\neul_bc95.c **** 
 891:e:/LiteOS/LiteOS/targets/Cloud_FM33A0XX/GCC/../../../targets/Cloud_FM33A0XX/UserCode\neul_bc95.c **** /* ============================================================
 892:e:/LiteOS/LiteOS/targets/Cloud_FM33A0XX/GCC/../../../targets/Cloud_FM33A0XX/UserCode\neul_bc95.c **** func name   :  neul_bc95_read_coap_msg
 893:e:/LiteOS/LiteOS/targets/Cloud_FM33A0XX/GCC/../../../targets/Cloud_FM33A0XX/UserCode\neul_bc95.c **** discription :  recv coap message(hex data) from cdp server 
 894:e:/LiteOS/LiteOS/targets/Cloud_FM33A0XX/GCC/../../../targets/Cloud_FM33A0XX/UserCode\neul_bc95.c ****                
 895:e:/LiteOS/LiteOS/targets/Cloud_FM33A0XX/GCC/../../../targets/Cloud_FM33A0XX/UserCode\neul_bc95.c **** param       :  buf @ input param , the data that send to cdp
 896:e:/LiteOS/LiteOS/targets/Cloud_FM33A0XX/GCC/../../../targets/Cloud_FM33A0XX/UserCode\neul_bc95.c ****                sendlen @ input param, data length
 897:e:/LiteOS/LiteOS/targets/Cloud_FM33A0XX/GCC/../../../targets/Cloud_FM33A0XX/UserCode\neul_bc95.c **** return      :  >=0 is read data length , <0 not ok
 898:e:/LiteOS/LiteOS/targets/Cloud_FM33A0XX/GCC/../../../targets/Cloud_FM33A0XX/UserCode\neul_bc95.c **** Revision    : 
 899:e:/LiteOS/LiteOS/targets/Cloud_FM33A0XX/GCC/../../../targets/Cloud_FM33A0XX/UserCode\neul_bc95.c **** =============================================================== */
 900:e:/LiteOS/LiteOS/targets/Cloud_FM33A0XX/GCC/../../../targets/Cloud_FM33A0XX/UserCode\neul_bc95.c **** int neul_bc95_read_coap_msg(char *outbuf, int maxrlen)
 901:e:/LiteOS/LiteOS/targets/Cloud_FM33A0XX/GCC/../../../targets/Cloud_FM33A0XX/UserCode\neul_bc95.c **** {
 902:e:/LiteOS/LiteOS/targets/Cloud_FM33A0XX/GCC/../../../targets/Cloud_FM33A0XX/UserCode\neul_bc95.c ****     char *cmd = "AT+NMGR\r\n";
 903:e:/LiteOS/LiteOS/targets/Cloud_FM33A0XX/GCC/../../../targets/Cloud_FM33A0XX/UserCode\neul_bc95.c ****     int ret = 0;
 904:e:/LiteOS/LiteOS/targets/Cloud_FM33A0XX/GCC/../../../targets/Cloud_FM33A0XX/UserCode\neul_bc95.c ****     char *str = NULL;
 905:e:/LiteOS/LiteOS/targets/Cloud_FM33A0XX/GCC/../../../targets/Cloud_FM33A0XX/UserCode\neul_bc95.c ****     int readlen = 0;
 906:e:/LiteOS/LiteOS/targets/Cloud_FM33A0XX/GCC/../../../targets/Cloud_FM33A0XX/UserCode\neul_bc95.c **** 
 907:e:/LiteOS/LiteOS/targets/Cloud_FM33A0XX/GCC/../../../targets/Cloud_FM33A0XX/UserCode\neul_bc95.c ****     if (NULL == outbuf || maxrlen == 0)
 908:e:/LiteOS/LiteOS/targets/Cloud_FM33A0XX/GCC/../../../targets/Cloud_FM33A0XX/UserCode\neul_bc95.c ****     {
 909:e:/LiteOS/LiteOS/targets/Cloud_FM33A0XX/GCC/../../../targets/Cloud_FM33A0XX/UserCode\neul_bc95.c ****         return -1;
 910:e:/LiteOS/LiteOS/targets/Cloud_FM33A0XX/GCC/../../../targets/Cloud_FM33A0XX/UserCode\neul_bc95.c ****     }
 911:e:/LiteOS/LiteOS/targets/Cloud_FM33A0XX/GCC/../../../targets/Cloud_FM33A0XX/UserCode\neul_bc95.c **** 
 912:e:/LiteOS/LiteOS/targets/Cloud_FM33A0XX/GCC/../../../targets/Cloud_FM33A0XX/UserCode\neul_bc95.c ****     ret = neul_dev.ops->dev_write(cmd, strlen(cmd), 0);
 913:e:/LiteOS/LiteOS/targets/Cloud_FM33A0XX/GCC/../../../targets/Cloud_FM33A0XX/UserCode\neul_bc95.c ****     if (ret < 0)
 914:e:/LiteOS/LiteOS/targets/Cloud_FM33A0XX/GCC/../../../targets/Cloud_FM33A0XX/UserCode\neul_bc95.c ****     {
 915:e:/LiteOS/LiteOS/targets/Cloud_FM33A0XX/GCC/../../../targets/Cloud_FM33A0XX/UserCode\neul_bc95.c ****         //write data to bc95 failed
 916:e:/LiteOS/LiteOS/targets/Cloud_FM33A0XX/GCC/../../../targets/Cloud_FM33A0XX/UserCode\neul_bc95.c ****         return -1;
 917:e:/LiteOS/LiteOS/targets/Cloud_FM33A0XX/GCC/../../../targets/Cloud_FM33A0XX/UserCode\neul_bc95.c ****     }
 918:e:/LiteOS/LiteOS/targets/Cloud_FM33A0XX/GCC/../../../targets/Cloud_FM33A0XX/UserCode\neul_bc95.c ****     memset(neul_dev.rbuf, 0, NEUL_MAX_BUF_SIZE);
 919:e:/LiteOS/LiteOS/targets/Cloud_FM33A0XX/GCC/../../../targets/Cloud_FM33A0XX/UserCode\neul_bc95.c ****     ret = neul_dev.ops->dev_read(neul_dev.rbuf, NEUL_MAX_BUF_SIZE, 0, 540);
 920:e:/LiteOS/LiteOS/targets/Cloud_FM33A0XX/GCC/../../../targets/Cloud_FM33A0XX/UserCode\neul_bc95.c ****     if (ret < 0)
 921:e:/LiteOS/LiteOS/targets/Cloud_FM33A0XX/GCC/../../../targets/Cloud_FM33A0XX/UserCode\neul_bc95.c ****     {
 922:e:/LiteOS/LiteOS/targets/Cloud_FM33A0XX/GCC/../../../targets/Cloud_FM33A0XX/UserCode\neul_bc95.c ****         //read bc95 read set return value info failed
 923:e:/LiteOS/LiteOS/targets/Cloud_FM33A0XX/GCC/../../../targets/Cloud_FM33A0XX/UserCode\neul_bc95.c ****         return -1;
 924:e:/LiteOS/LiteOS/targets/Cloud_FM33A0XX/GCC/../../../targets/Cloud_FM33A0XX/UserCode\neul_bc95.c ****     }
 925:e:/LiteOS/LiteOS/targets/Cloud_FM33A0XX/GCC/../../../targets/Cloud_FM33A0XX/UserCode\neul_bc95.c ****     str = strstr(neul_dev.rbuf,"OK");
 926:e:/LiteOS/LiteOS/targets/Cloud_FM33A0XX/GCC/../../../targets/Cloud_FM33A0XX/UserCode\neul_bc95.c ****     if (!str && strlen(neul_dev.rbuf) <=10 )
 927:e:/LiteOS/LiteOS/targets/Cloud_FM33A0XX/GCC/../../../targets/Cloud_FM33A0XX/UserCode\neul_bc95.c ****     {
 928:e:/LiteOS/LiteOS/targets/Cloud_FM33A0XX/GCC/../../../targets/Cloud_FM33A0XX/UserCode\neul_bc95.c ****         return 0;
 929:e:/LiteOS/LiteOS/targets/Cloud_FM33A0XX/GCC/../../../targets/Cloud_FM33A0XX/UserCode\neul_bc95.c ****     }
 930:e:/LiteOS/LiteOS/targets/Cloud_FM33A0XX/GCC/../../../targets/Cloud_FM33A0XX/UserCode\neul_bc95.c ****     sscanf(neul_dev.rbuf, "\r\n%d,%s\r\n\r\nOK\r\n",&readlen, neul_bc95_tmpbuf);
 931:e:/LiteOS/LiteOS/targets/Cloud_FM33A0XX/GCC/../../../targets/Cloud_FM33A0XX/UserCode\neul_bc95.c ****     if (readlen > 0)
 932:e:/LiteOS/LiteOS/targets/Cloud_FM33A0XX/GCC/../../../targets/Cloud_FM33A0XX/UserCode\neul_bc95.c ****     {
 933:e:/LiteOS/LiteOS/targets/Cloud_FM33A0XX/GCC/../../../targets/Cloud_FM33A0XX/UserCode\neul_bc95.c ****         neul_bc95_hex_to_str(neul_bc95_tmpbuf, readlen*2, outbuf);
 934:e:/LiteOS/LiteOS/targets/Cloud_FM33A0XX/GCC/../../../targets/Cloud_FM33A0XX/UserCode\neul_bc95.c ****         return readlen;
 935:e:/LiteOS/LiteOS/targets/Cloud_FM33A0XX/GCC/../../../targets/Cloud_FM33A0XX/UserCode\neul_bc95.c ****     }
 936:e:/LiteOS/LiteOS/targets/Cloud_FM33A0XX/GCC/../../../targets/Cloud_FM33A0XX/UserCode\neul_bc95.c ****     return 0;
 937:e:/LiteOS/LiteOS/targets/Cloud_FM33A0XX/GCC/../../../targets/Cloud_FM33A0XX/UserCode\neul_bc95.c **** }
 938:e:/LiteOS/LiteOS/targets/Cloud_FM33A0XX/GCC/../../../targets/Cloud_FM33A0XX/UserCode\neul_bc95.c **** 
ARM GAS  C:\Users\WANGBI~1\AppData\Local\Temp\ccSpmgug.s 			page 23


 939:e:/LiteOS/LiteOS/targets/Cloud_FM33A0XX/GCC/../../../targets/Cloud_FM33A0XX/UserCode\neul_bc95.c **** 
 940:e:/LiteOS/LiteOS/targets/Cloud_FM33A0XX/GCC/../../../targets/Cloud_FM33A0XX/UserCode\neul_bc95.c **** 
 941:e:/LiteOS/LiteOS/targets/Cloud_FM33A0XX/GCC/../../../targets/Cloud_FM33A0XX/UserCode\neul_bc95.c **** /* ============================================================
 942:e:/LiteOS/LiteOS/targets/Cloud_FM33A0XX/GCC/../../../targets/Cloud_FM33A0XX/UserCode\neul_bc95.c **** func name   :  neul_bc95_get_time
 943:e:/LiteOS/LiteOS/targets/Cloud_FM33A0XX/GCC/../../../targets/Cloud_FM33A0XX/UserCode\neul_bc95.c **** discription :  Return Current Date & Time               
 944:e:/LiteOS/LiteOS/targets/Cloud_FM33A0XX/GCC/../../../targets/Cloud_FM33A0XX/UserCode\neul_bc95.c **** param       :  buf @ out param
 945:e:/LiteOS/LiteOS/targets/Cloud_FM33A0XX/GCC/../../../targets/Cloud_FM33A0XX/UserCode\neul_bc95.c **** return      : 0 mean ok, <0 not ok
 946:e:/LiteOS/LiteOS/targets/Cloud_FM33A0XX/GCC/../../../targets/Cloud_FM33A0XX/UserCode\neul_bc95.c **** Revision    : 
 947:e:/LiteOS/LiteOS/targets/Cloud_FM33A0XX/GCC/../../../targets/Cloud_FM33A0XX/UserCode\neul_bc95.c **** =============================================================== */
 948:e:/LiteOS/LiteOS/targets/Cloud_FM33A0XX/GCC/../../../targets/Cloud_FM33A0XX/UserCode\neul_bc95.c **** int neul_bc95_get_time(char *buf)
 949:e:/LiteOS/LiteOS/targets/Cloud_FM33A0XX/GCC/../../../targets/Cloud_FM33A0XX/UserCode\neul_bc95.c **** {
 950:e:/LiteOS/LiteOS/targets/Cloud_FM33A0XX/GCC/../../../targets/Cloud_FM33A0XX/UserCode\neul_bc95.c **** 	  int ret = 0;
 951:e:/LiteOS/LiteOS/targets/Cloud_FM33A0XX/GCC/../../../targets/Cloud_FM33A0XX/UserCode\neul_bc95.c ****     char *cmd = "AT+CCLK?\r\n";
 952:e:/LiteOS/LiteOS/targets/Cloud_FM33A0XX/GCC/../../../targets/Cloud_FM33A0XX/UserCode\neul_bc95.c ****     
 953:e:/LiteOS/LiteOS/targets/Cloud_FM33A0XX/GCC/../../../targets/Cloud_FM33A0XX/UserCode\neul_bc95.c ****     char *str = NULL;		
 954:e:/LiteOS/LiteOS/targets/Cloud_FM33A0XX/GCC/../../../targets/Cloud_FM33A0XX/UserCode\neul_bc95.c **** 		
 955:e:/LiteOS/LiteOS/targets/Cloud_FM33A0XX/GCC/../../../targets/Cloud_FM33A0XX/UserCode\neul_bc95.c ****     ret = neul_dev.ops->dev_write(cmd, strlen(cmd), 0);
 956:e:/LiteOS/LiteOS/targets/Cloud_FM33A0XX/GCC/../../../targets/Cloud_FM33A0XX/UserCode\neul_bc95.c ****     if (ret < 0)
 957:e:/LiteOS/LiteOS/targets/Cloud_FM33A0XX/GCC/../../../targets/Cloud_FM33A0XX/UserCode\neul_bc95.c ****     {
 958:e:/LiteOS/LiteOS/targets/Cloud_FM33A0XX/GCC/../../../targets/Cloud_FM33A0XX/UserCode\neul_bc95.c ****         //write data to bc95 failed
 959:e:/LiteOS/LiteOS/targets/Cloud_FM33A0XX/GCC/../../../targets/Cloud_FM33A0XX/UserCode\neul_bc95.c ****         return -1;
 960:e:/LiteOS/LiteOS/targets/Cloud_FM33A0XX/GCC/../../../targets/Cloud_FM33A0XX/UserCode\neul_bc95.c ****     }
 961:e:/LiteOS/LiteOS/targets/Cloud_FM33A0XX/GCC/../../../targets/Cloud_FM33A0XX/UserCode\neul_bc95.c ****     memset(neul_dev.rbuf, 0, 100);
 962:e:/LiteOS/LiteOS/targets/Cloud_FM33A0XX/GCC/../../../targets/Cloud_FM33A0XX/UserCode\neul_bc95.c ****     ret = neul_dev.ops->dev_read(neul_dev.rbuf, 100, 0, 200);
 963:e:/LiteOS/LiteOS/targets/Cloud_FM33A0XX/GCC/../../../targets/Cloud_FM33A0XX/UserCode\neul_bc95.c ****     if (ret <= 0)
 964:e:/LiteOS/LiteOS/targets/Cloud_FM33A0XX/GCC/../../../targets/Cloud_FM33A0XX/UserCode\neul_bc95.c ****     {
 965:e:/LiteOS/LiteOS/targets/Cloud_FM33A0XX/GCC/../../../targets/Cloud_FM33A0XX/UserCode\neul_bc95.c ****         //read bc95 read set return value info failed
 966:e:/LiteOS/LiteOS/targets/Cloud_FM33A0XX/GCC/../../../targets/Cloud_FM33A0XX/UserCode\neul_bc95.c ****         return -1;
 967:e:/LiteOS/LiteOS/targets/Cloud_FM33A0XX/GCC/../../../targets/Cloud_FM33A0XX/UserCode\neul_bc95.c ****     }
 968:e:/LiteOS/LiteOS/targets/Cloud_FM33A0XX/GCC/../../../targets/Cloud_FM33A0XX/UserCode\neul_bc95.c ****     str = strstr(neul_dev.rbuf,"OK");
 969:e:/LiteOS/LiteOS/targets/Cloud_FM33A0XX/GCC/../../../targets/Cloud_FM33A0XX/UserCode\neul_bc95.c ****     if (!str)
 970:e:/LiteOS/LiteOS/targets/Cloud_FM33A0XX/GCC/../../../targets/Cloud_FM33A0XX/UserCode\neul_bc95.c ****     {
 971:e:/LiteOS/LiteOS/targets/Cloud_FM33A0XX/GCC/../../../targets/Cloud_FM33A0XX/UserCode\neul_bc95.c ****         return -1;
 972:e:/LiteOS/LiteOS/targets/Cloud_FM33A0XX/GCC/../../../targets/Cloud_FM33A0XX/UserCode\neul_bc95.c ****     }
 973:e:/LiteOS/LiteOS/targets/Cloud_FM33A0XX/GCC/../../../targets/Cloud_FM33A0XX/UserCode\neul_bc95.c ****     sscanf(neul_dev.rbuf, "\r+CCLK:%s",buf );
 974:e:/LiteOS/LiteOS/targets/Cloud_FM33A0XX/GCC/../../../targets/Cloud_FM33A0XX/UserCode\neul_bc95.c **** 	
 975:e:/LiteOS/LiteOS/targets/Cloud_FM33A0XX/GCC/../../../targets/Cloud_FM33A0XX/UserCode\neul_bc95.c ****     return 0;
 976:e:/LiteOS/LiteOS/targets/Cloud_FM33A0XX/GCC/../../../targets/Cloud_FM33A0XX/UserCode\neul_bc95.c **** }
 977:e:/LiteOS/LiteOS/targets/Cloud_FM33A0XX/GCC/../../../targets/Cloud_FM33A0XX/UserCode\neul_bc95.c **** /* ============================================================
 978:e:/LiteOS/LiteOS/targets/Cloud_FM33A0XX/GCC/../../../targets/Cloud_FM33A0XX/UserCode\neul_bc95.c **** func name   :  neul_bc95_get_csq
 979:e:/LiteOS/LiteOS/targets/Cloud_FM33A0XX/GCC/../../../targets/Cloud_FM33A0XX/UserCode\neul_bc95.c **** discription :  Get Signal Strength Indicator               
 980:e:/LiteOS/LiteOS/targets/Cloud_FM33A0XX/GCC/../../../targets/Cloud_FM33A0XX/UserCode\neul_bc95.c **** param       :  buf @ out param
 981:e:/LiteOS/LiteOS/targets/Cloud_FM33A0XX/GCC/../../../targets/Cloud_FM33A0XX/UserCode\neul_bc95.c **** return      : >0 mean ok, <0 not ok
 982:e:/LiteOS/LiteOS/targets/Cloud_FM33A0XX/GCC/../../../targets/Cloud_FM33A0XX/UserCode\neul_bc95.c **** Revision    : 
 983:e:/LiteOS/LiteOS/targets/Cloud_FM33A0XX/GCC/../../../targets/Cloud_FM33A0XX/UserCode\neul_bc95.c **** =============================================================== */
 984:e:/LiteOS/LiteOS/targets/Cloud_FM33A0XX/GCC/../../../targets/Cloud_FM33A0XX/UserCode\neul_bc95.c **** int neul_bc95_get_csq(void)
 985:e:/LiteOS/LiteOS/targets/Cloud_FM33A0XX/GCC/../../../targets/Cloud_FM33A0XX/UserCode\neul_bc95.c **** {
 986:e:/LiteOS/LiteOS/targets/Cloud_FM33A0XX/GCC/../../../targets/Cloud_FM33A0XX/UserCode\neul_bc95.c **** 	  int ret = 0;
 987:e:/LiteOS/LiteOS/targets/Cloud_FM33A0XX/GCC/../../../targets/Cloud_FM33A0XX/UserCode\neul_bc95.c ****     char *cmd = "AT+CSQ\r\n";
 988:e:/LiteOS/LiteOS/targets/Cloud_FM33A0XX/GCC/../../../targets/Cloud_FM33A0XX/UserCode\neul_bc95.c ****     int buf=0;
 989:e:/LiteOS/LiteOS/targets/Cloud_FM33A0XX/GCC/../../../targets/Cloud_FM33A0XX/UserCode\neul_bc95.c ****     char *str = NULL;		
 990:e:/LiteOS/LiteOS/targets/Cloud_FM33A0XX/GCC/../../../targets/Cloud_FM33A0XX/UserCode\neul_bc95.c **** 		
 991:e:/LiteOS/LiteOS/targets/Cloud_FM33A0XX/GCC/../../../targets/Cloud_FM33A0XX/UserCode\neul_bc95.c ****     ret = neul_dev.ops->dev_write(cmd, strlen(cmd), 0);
 992:e:/LiteOS/LiteOS/targets/Cloud_FM33A0XX/GCC/../../../targets/Cloud_FM33A0XX/UserCode\neul_bc95.c ****     if (ret < 0)
 993:e:/LiteOS/LiteOS/targets/Cloud_FM33A0XX/GCC/../../../targets/Cloud_FM33A0XX/UserCode\neul_bc95.c ****     {
 994:e:/LiteOS/LiteOS/targets/Cloud_FM33A0XX/GCC/../../../targets/Cloud_FM33A0XX/UserCode\neul_bc95.c ****         //write data to bc95 failed
 995:e:/LiteOS/LiteOS/targets/Cloud_FM33A0XX/GCC/../../../targets/Cloud_FM33A0XX/UserCode\neul_bc95.c ****         return -1;
ARM GAS  C:\Users\WANGBI~1\AppData\Local\Temp\ccSpmgug.s 			page 24


 996:e:/LiteOS/LiteOS/targets/Cloud_FM33A0XX/GCC/../../../targets/Cloud_FM33A0XX/UserCode\neul_bc95.c ****     }
 997:e:/LiteOS/LiteOS/targets/Cloud_FM33A0XX/GCC/../../../targets/Cloud_FM33A0XX/UserCode\neul_bc95.c ****     memset(neul_dev.rbuf, 0, 100);
 998:e:/LiteOS/LiteOS/targets/Cloud_FM33A0XX/GCC/../../../targets/Cloud_FM33A0XX/UserCode\neul_bc95.c ****     ret = neul_dev.ops->dev_read(neul_dev.rbuf, 100, 0, 200);
 999:e:/LiteOS/LiteOS/targets/Cloud_FM33A0XX/GCC/../../../targets/Cloud_FM33A0XX/UserCode\neul_bc95.c ****     if (ret <= 0)
1000:e:/LiteOS/LiteOS/targets/Cloud_FM33A0XX/GCC/../../../targets/Cloud_FM33A0XX/UserCode\neul_bc95.c ****     {
1001:e:/LiteOS/LiteOS/targets/Cloud_FM33A0XX/GCC/../../../targets/Cloud_FM33A0XX/UserCode\neul_bc95.c ****         //read bc95 read set return value info failed
1002:e:/LiteOS/LiteOS/targets/Cloud_FM33A0XX/GCC/../../../targets/Cloud_FM33A0XX/UserCode\neul_bc95.c ****         return -1;
1003:e:/LiteOS/LiteOS/targets/Cloud_FM33A0XX/GCC/../../../targets/Cloud_FM33A0XX/UserCode\neul_bc95.c ****     }
1004:e:/LiteOS/LiteOS/targets/Cloud_FM33A0XX/GCC/../../../targets/Cloud_FM33A0XX/UserCode\neul_bc95.c ****     str = strstr(neul_dev.rbuf,"OK");
1005:e:/LiteOS/LiteOS/targets/Cloud_FM33A0XX/GCC/../../../targets/Cloud_FM33A0XX/UserCode\neul_bc95.c ****     if (!str)
1006:e:/LiteOS/LiteOS/targets/Cloud_FM33A0XX/GCC/../../../targets/Cloud_FM33A0XX/UserCode\neul_bc95.c ****     {
1007:e:/LiteOS/LiteOS/targets/Cloud_FM33A0XX/GCC/../../../targets/Cloud_FM33A0XX/UserCode\neul_bc95.c ****         return -1;
1008:e:/LiteOS/LiteOS/targets/Cloud_FM33A0XX/GCC/../../../targets/Cloud_FM33A0XX/UserCode\neul_bc95.c ****     }
1009:e:/LiteOS/LiteOS/targets/Cloud_FM33A0XX/GCC/../../../targets/Cloud_FM33A0XX/UserCode\neul_bc95.c ****     sscanf(neul_dev.rbuf, "\r+CSQ:%d,",&buf);
1010:e:/LiteOS/LiteOS/targets/Cloud_FM33A0XX/GCC/../../../targets/Cloud_FM33A0XX/UserCode\neul_bc95.c **** 		
1011:e:/LiteOS/LiteOS/targets/Cloud_FM33A0XX/GCC/../../../targets/Cloud_FM33A0XX/UserCode\neul_bc95.c ****     return buf;
1012:e:/LiteOS/LiteOS/targets/Cloud_FM33A0XX/GCC/../../../targets/Cloud_FM33A0XX/UserCode\neul_bc95.c **** }
1013:e:/LiteOS/LiteOS/targets/Cloud_FM33A0XX/GCC/../../../targets/Cloud_FM33A0XX/UserCode\neul_bc95.c **** /* ============================================================
1014:e:/LiteOS/LiteOS/targets/Cloud_FM33A0XX/GCC/../../../targets/Cloud_FM33A0XX/UserCode\neul_bc95.c **** func name   :  neul_bc95_get_cfun
1015:e:/LiteOS/LiteOS/targets/Cloud_FM33A0XX/GCC/../../../targets/Cloud_FM33A0XX/UserCode\neul_bc95.c **** discription :  Get Phone Functionality               
1016:e:/LiteOS/LiteOS/targets/Cloud_FM33A0XX/GCC/../../../targets/Cloud_FM33A0XX/UserCode\neul_bc95.c **** param       :  buf @ out param
1017:e:/LiteOS/LiteOS/targets/Cloud_FM33A0XX/GCC/../../../targets/Cloud_FM33A0XX/UserCode\neul_bc95.c **** return      : >0 mean ok, <0 not ok
1018:e:/LiteOS/LiteOS/targets/Cloud_FM33A0XX/GCC/../../../targets/Cloud_FM33A0XX/UserCode\neul_bc95.c **** Revision    : 
1019:e:/LiteOS/LiteOS/targets/Cloud_FM33A0XX/GCC/../../../targets/Cloud_FM33A0XX/UserCode\neul_bc95.c **** =============================================================== */
1020:e:/LiteOS/LiteOS/targets/Cloud_FM33A0XX/GCC/../../../targets/Cloud_FM33A0XX/UserCode\neul_bc95.c **** int neul_bc95_get_cfun(void)
1021:e:/LiteOS/LiteOS/targets/Cloud_FM33A0XX/GCC/../../../targets/Cloud_FM33A0XX/UserCode\neul_bc95.c **** {
1022:e:/LiteOS/LiteOS/targets/Cloud_FM33A0XX/GCC/../../../targets/Cloud_FM33A0XX/UserCode\neul_bc95.c **** 	  int ret = 0;
1023:e:/LiteOS/LiteOS/targets/Cloud_FM33A0XX/GCC/../../../targets/Cloud_FM33A0XX/UserCode\neul_bc95.c ****     char *cmd = "AT+CFUN?\r\n";
1024:e:/LiteOS/LiteOS/targets/Cloud_FM33A0XX/GCC/../../../targets/Cloud_FM33A0XX/UserCode\neul_bc95.c ****     int buf=0;
1025:e:/LiteOS/LiteOS/targets/Cloud_FM33A0XX/GCC/../../../targets/Cloud_FM33A0XX/UserCode\neul_bc95.c ****     char *str = NULL;		
1026:e:/LiteOS/LiteOS/targets/Cloud_FM33A0XX/GCC/../../../targets/Cloud_FM33A0XX/UserCode\neul_bc95.c **** 		
1027:e:/LiteOS/LiteOS/targets/Cloud_FM33A0XX/GCC/../../../targets/Cloud_FM33A0XX/UserCode\neul_bc95.c ****     ret = neul_dev.ops->dev_write(cmd, strlen(cmd), 0);
1028:e:/LiteOS/LiteOS/targets/Cloud_FM33A0XX/GCC/../../../targets/Cloud_FM33A0XX/UserCode\neul_bc95.c ****     if (ret < 0)
1029:e:/LiteOS/LiteOS/targets/Cloud_FM33A0XX/GCC/../../../targets/Cloud_FM33A0XX/UserCode\neul_bc95.c ****     {
1030:e:/LiteOS/LiteOS/targets/Cloud_FM33A0XX/GCC/../../../targets/Cloud_FM33A0XX/UserCode\neul_bc95.c ****         //write data to bc95 failed
1031:e:/LiteOS/LiteOS/targets/Cloud_FM33A0XX/GCC/../../../targets/Cloud_FM33A0XX/UserCode\neul_bc95.c ****         return -1;
1032:e:/LiteOS/LiteOS/targets/Cloud_FM33A0XX/GCC/../../../targets/Cloud_FM33A0XX/UserCode\neul_bc95.c ****     }
1033:e:/LiteOS/LiteOS/targets/Cloud_FM33A0XX/GCC/../../../targets/Cloud_FM33A0XX/UserCode\neul_bc95.c ****     memset(neul_dev.rbuf, 0, 100);
1034:e:/LiteOS/LiteOS/targets/Cloud_FM33A0XX/GCC/../../../targets/Cloud_FM33A0XX/UserCode\neul_bc95.c ****     ret = neul_dev.ops->dev_read(neul_dev.rbuf, 100, 0, 200);
1035:e:/LiteOS/LiteOS/targets/Cloud_FM33A0XX/GCC/../../../targets/Cloud_FM33A0XX/UserCode\neul_bc95.c ****     if (ret <= 0)
1036:e:/LiteOS/LiteOS/targets/Cloud_FM33A0XX/GCC/../../../targets/Cloud_FM33A0XX/UserCode\neul_bc95.c ****     {
1037:e:/LiteOS/LiteOS/targets/Cloud_FM33A0XX/GCC/../../../targets/Cloud_FM33A0XX/UserCode\neul_bc95.c ****         //read bc95 read set return value info failed
1038:e:/LiteOS/LiteOS/targets/Cloud_FM33A0XX/GCC/../../../targets/Cloud_FM33A0XX/UserCode\neul_bc95.c ****         return -1;
1039:e:/LiteOS/LiteOS/targets/Cloud_FM33A0XX/GCC/../../../targets/Cloud_FM33A0XX/UserCode\neul_bc95.c ****     }
1040:e:/LiteOS/LiteOS/targets/Cloud_FM33A0XX/GCC/../../../targets/Cloud_FM33A0XX/UserCode\neul_bc95.c ****     str = strstr(neul_dev.rbuf,"OK");
1041:e:/LiteOS/LiteOS/targets/Cloud_FM33A0XX/GCC/../../../targets/Cloud_FM33A0XX/UserCode\neul_bc95.c ****     if (!str)
1042:e:/LiteOS/LiteOS/targets/Cloud_FM33A0XX/GCC/../../../targets/Cloud_FM33A0XX/UserCode\neul_bc95.c ****     {
1043:e:/LiteOS/LiteOS/targets/Cloud_FM33A0XX/GCC/../../../targets/Cloud_FM33A0XX/UserCode\neul_bc95.c ****         return -1;
1044:e:/LiteOS/LiteOS/targets/Cloud_FM33A0XX/GCC/../../../targets/Cloud_FM33A0XX/UserCode\neul_bc95.c ****     }
1045:e:/LiteOS/LiteOS/targets/Cloud_FM33A0XX/GCC/../../../targets/Cloud_FM33A0XX/UserCode\neul_bc95.c ****     sscanf(neul_dev.rbuf, "\r+CFUN:%d,",&buf);
1046:e:/LiteOS/LiteOS/targets/Cloud_FM33A0XX/GCC/../../../targets/Cloud_FM33A0XX/UserCode\neul_bc95.c **** 		
1047:e:/LiteOS/LiteOS/targets/Cloud_FM33A0XX/GCC/../../../targets/Cloud_FM33A0XX/UserCode\neul_bc95.c ****     return buf;
1048:e:/LiteOS/LiteOS/targets/Cloud_FM33A0XX/GCC/../../../targets/Cloud_FM33A0XX/UserCode\neul_bc95.c **** }
1049:e:/LiteOS/LiteOS/targets/Cloud_FM33A0XX/GCC/../../../targets/Cloud_FM33A0XX/UserCode\neul_bc95.c **** /* ============================================================
1050:e:/LiteOS/LiteOS/targets/Cloud_FM33A0XX/GCC/../../../targets/Cloud_FM33A0XX/UserCode\neul_bc95.c **** func name   :  neul_bc95_get_cscon
1051:e:/LiteOS/LiteOS/targets/Cloud_FM33A0XX/GCC/../../../targets/Cloud_FM33A0XX/UserCode\neul_bc95.c **** discription :  Get Signalling Connection Status               
1052:e:/LiteOS/LiteOS/targets/Cloud_FM33A0XX/GCC/../../../targets/Cloud_FM33A0XX/UserCode\neul_bc95.c **** param       :  buf @ out param
ARM GAS  C:\Users\WANGBI~1\AppData\Local\Temp\ccSpmgug.s 			page 25


1053:e:/LiteOS/LiteOS/targets/Cloud_FM33A0XX/GCC/../../../targets/Cloud_FM33A0XX/UserCode\neul_bc95.c **** return      : >0 mean ok, <0 not ok
1054:e:/LiteOS/LiteOS/targets/Cloud_FM33A0XX/GCC/../../../targets/Cloud_FM33A0XX/UserCode\neul_bc95.c **** Revision    : 
1055:e:/LiteOS/LiteOS/targets/Cloud_FM33A0XX/GCC/../../../targets/Cloud_FM33A0XX/UserCode\neul_bc95.c **** =============================================================== */
1056:e:/LiteOS/LiteOS/targets/Cloud_FM33A0XX/GCC/../../../targets/Cloud_FM33A0XX/UserCode\neul_bc95.c **** int neul_bc95_get_cscon(void)
1057:e:/LiteOS/LiteOS/targets/Cloud_FM33A0XX/GCC/../../../targets/Cloud_FM33A0XX/UserCode\neul_bc95.c **** {
1058:e:/LiteOS/LiteOS/targets/Cloud_FM33A0XX/GCC/../../../targets/Cloud_FM33A0XX/UserCode\neul_bc95.c **** 	  int ret = 0;
1059:e:/LiteOS/LiteOS/targets/Cloud_FM33A0XX/GCC/../../../targets/Cloud_FM33A0XX/UserCode\neul_bc95.c ****     char *cmd = "AT+CSCON?\r\n";
1060:e:/LiteOS/LiteOS/targets/Cloud_FM33A0XX/GCC/../../../targets/Cloud_FM33A0XX/UserCode\neul_bc95.c ****     int buf=0;
1061:e:/LiteOS/LiteOS/targets/Cloud_FM33A0XX/GCC/../../../targets/Cloud_FM33A0XX/UserCode\neul_bc95.c ****     char *str = NULL;		
1062:e:/LiteOS/LiteOS/targets/Cloud_FM33A0XX/GCC/../../../targets/Cloud_FM33A0XX/UserCode\neul_bc95.c **** 		
1063:e:/LiteOS/LiteOS/targets/Cloud_FM33A0XX/GCC/../../../targets/Cloud_FM33A0XX/UserCode\neul_bc95.c ****     ret = neul_dev.ops->dev_write(cmd, strlen(cmd), 0);
1064:e:/LiteOS/LiteOS/targets/Cloud_FM33A0XX/GCC/../../../targets/Cloud_FM33A0XX/UserCode\neul_bc95.c ****     if (ret < 0)
1065:e:/LiteOS/LiteOS/targets/Cloud_FM33A0XX/GCC/../../../targets/Cloud_FM33A0XX/UserCode\neul_bc95.c ****     {
1066:e:/LiteOS/LiteOS/targets/Cloud_FM33A0XX/GCC/../../../targets/Cloud_FM33A0XX/UserCode\neul_bc95.c ****         //write data to bc95 failed
1067:e:/LiteOS/LiteOS/targets/Cloud_FM33A0XX/GCC/../../../targets/Cloud_FM33A0XX/UserCode\neul_bc95.c ****         return -1;
1068:e:/LiteOS/LiteOS/targets/Cloud_FM33A0XX/GCC/../../../targets/Cloud_FM33A0XX/UserCode\neul_bc95.c ****     }
1069:e:/LiteOS/LiteOS/targets/Cloud_FM33A0XX/GCC/../../../targets/Cloud_FM33A0XX/UserCode\neul_bc95.c ****     memset(neul_dev.rbuf, 0, 100);
1070:e:/LiteOS/LiteOS/targets/Cloud_FM33A0XX/GCC/../../../targets/Cloud_FM33A0XX/UserCode\neul_bc95.c ****     ret = neul_dev.ops->dev_read(neul_dev.rbuf, 100, 0, 200);
1071:e:/LiteOS/LiteOS/targets/Cloud_FM33A0XX/GCC/../../../targets/Cloud_FM33A0XX/UserCode\neul_bc95.c ****     if (ret <= 0)
1072:e:/LiteOS/LiteOS/targets/Cloud_FM33A0XX/GCC/../../../targets/Cloud_FM33A0XX/UserCode\neul_bc95.c ****     {
1073:e:/LiteOS/LiteOS/targets/Cloud_FM33A0XX/GCC/../../../targets/Cloud_FM33A0XX/UserCode\neul_bc95.c ****         //read bc95 read set return value info failed
1074:e:/LiteOS/LiteOS/targets/Cloud_FM33A0XX/GCC/../../../targets/Cloud_FM33A0XX/UserCode\neul_bc95.c ****         return -1;
1075:e:/LiteOS/LiteOS/targets/Cloud_FM33A0XX/GCC/../../../targets/Cloud_FM33A0XX/UserCode\neul_bc95.c ****     }
1076:e:/LiteOS/LiteOS/targets/Cloud_FM33A0XX/GCC/../../../targets/Cloud_FM33A0XX/UserCode\neul_bc95.c ****     str = strstr(neul_dev.rbuf,"OK");
1077:e:/LiteOS/LiteOS/targets/Cloud_FM33A0XX/GCC/../../../targets/Cloud_FM33A0XX/UserCode\neul_bc95.c ****     if (!str)
1078:e:/LiteOS/LiteOS/targets/Cloud_FM33A0XX/GCC/../../../targets/Cloud_FM33A0XX/UserCode\neul_bc95.c ****     {
1079:e:/LiteOS/LiteOS/targets/Cloud_FM33A0XX/GCC/../../../targets/Cloud_FM33A0XX/UserCode\neul_bc95.c ****         return -1;
1080:e:/LiteOS/LiteOS/targets/Cloud_FM33A0XX/GCC/../../../targets/Cloud_FM33A0XX/UserCode\neul_bc95.c ****     }
1081:e:/LiteOS/LiteOS/targets/Cloud_FM33A0XX/GCC/../../../targets/Cloud_FM33A0XX/UserCode\neul_bc95.c ****     sscanf(neul_dev.rbuf, "\r+CSCON:%d,%d\r",&ret,&buf);
1082:e:/LiteOS/LiteOS/targets/Cloud_FM33A0XX/GCC/../../../targets/Cloud_FM33A0XX/UserCode\neul_bc95.c **** 		
1083:e:/LiteOS/LiteOS/targets/Cloud_FM33A0XX/GCC/../../../targets/Cloud_FM33A0XX/UserCode\neul_bc95.c ****     return buf;
1084:e:/LiteOS/LiteOS/targets/Cloud_FM33A0XX/GCC/../../../targets/Cloud_FM33A0XX/UserCode\neul_bc95.c **** }
1085:e:/LiteOS/LiteOS/targets/Cloud_FM33A0XX/GCC/../../../targets/Cloud_FM33A0XX/UserCode\neul_bc95.c **** /* ============================================================
1086:e:/LiteOS/LiteOS/targets/Cloud_FM33A0XX/GCC/../../../targets/Cloud_FM33A0XX/UserCode\neul_bc95.c **** func name   :  neul_bc95_get_cereg
1087:e:/LiteOS/LiteOS/targets/Cloud_FM33A0XX/GCC/../../../targets/Cloud_FM33A0XX/UserCode\neul_bc95.c **** discription :  Get Network Registration Status               
1088:e:/LiteOS/LiteOS/targets/Cloud_FM33A0XX/GCC/../../../targets/Cloud_FM33A0XX/UserCode\neul_bc95.c **** param       :  buf @ out param
1089:e:/LiteOS/LiteOS/targets/Cloud_FM33A0XX/GCC/../../../targets/Cloud_FM33A0XX/UserCode\neul_bc95.c **** return      : >0 mean ok, <0 not ok
1090:e:/LiteOS/LiteOS/targets/Cloud_FM33A0XX/GCC/../../../targets/Cloud_FM33A0XX/UserCode\neul_bc95.c **** Revision    : 
1091:e:/LiteOS/LiteOS/targets/Cloud_FM33A0XX/GCC/../../../targets/Cloud_FM33A0XX/UserCode\neul_bc95.c **** =============================================================== */
1092:e:/LiteOS/LiteOS/targets/Cloud_FM33A0XX/GCC/../../../targets/Cloud_FM33A0XX/UserCode\neul_bc95.c **** int neul_bc95_get_cereg(void)
1093:e:/LiteOS/LiteOS/targets/Cloud_FM33A0XX/GCC/../../../targets/Cloud_FM33A0XX/UserCode\neul_bc95.c **** {
1094:e:/LiteOS/LiteOS/targets/Cloud_FM33A0XX/GCC/../../../targets/Cloud_FM33A0XX/UserCode\neul_bc95.c **** 	  int ret = 0;
1095:e:/LiteOS/LiteOS/targets/Cloud_FM33A0XX/GCC/../../../targets/Cloud_FM33A0XX/UserCode\neul_bc95.c ****     char *cmd = "AT+CEREG?\r\n";
1096:e:/LiteOS/LiteOS/targets/Cloud_FM33A0XX/GCC/../../../targets/Cloud_FM33A0XX/UserCode\neul_bc95.c ****     int buf=0;
1097:e:/LiteOS/LiteOS/targets/Cloud_FM33A0XX/GCC/../../../targets/Cloud_FM33A0XX/UserCode\neul_bc95.c ****     char *str = NULL;		
1098:e:/LiteOS/LiteOS/targets/Cloud_FM33A0XX/GCC/../../../targets/Cloud_FM33A0XX/UserCode\neul_bc95.c **** 		
1099:e:/LiteOS/LiteOS/targets/Cloud_FM33A0XX/GCC/../../../targets/Cloud_FM33A0XX/UserCode\neul_bc95.c ****     ret = neul_dev.ops->dev_write(cmd, strlen(cmd), 0);
1100:e:/LiteOS/LiteOS/targets/Cloud_FM33A0XX/GCC/../../../targets/Cloud_FM33A0XX/UserCode\neul_bc95.c ****     if (ret < 0)
1101:e:/LiteOS/LiteOS/targets/Cloud_FM33A0XX/GCC/../../../targets/Cloud_FM33A0XX/UserCode\neul_bc95.c ****     {
1102:e:/LiteOS/LiteOS/targets/Cloud_FM33A0XX/GCC/../../../targets/Cloud_FM33A0XX/UserCode\neul_bc95.c ****         //write data to bc95 failed
1103:e:/LiteOS/LiteOS/targets/Cloud_FM33A0XX/GCC/../../../targets/Cloud_FM33A0XX/UserCode\neul_bc95.c ****         return -1;
1104:e:/LiteOS/LiteOS/targets/Cloud_FM33A0XX/GCC/../../../targets/Cloud_FM33A0XX/UserCode\neul_bc95.c ****     }
1105:e:/LiteOS/LiteOS/targets/Cloud_FM33A0XX/GCC/../../../targets/Cloud_FM33A0XX/UserCode\neul_bc95.c ****     memset(neul_dev.rbuf, 0, 100);
1106:e:/LiteOS/LiteOS/targets/Cloud_FM33A0XX/GCC/../../../targets/Cloud_FM33A0XX/UserCode\neul_bc95.c ****     ret = neul_dev.ops->dev_read(neul_dev.rbuf, 100, 0, 200);
1107:e:/LiteOS/LiteOS/targets/Cloud_FM33A0XX/GCC/../../../targets/Cloud_FM33A0XX/UserCode\neul_bc95.c ****     if (ret <= 0)
1108:e:/LiteOS/LiteOS/targets/Cloud_FM33A0XX/GCC/../../../targets/Cloud_FM33A0XX/UserCode\neul_bc95.c ****     {
1109:e:/LiteOS/LiteOS/targets/Cloud_FM33A0XX/GCC/../../../targets/Cloud_FM33A0XX/UserCode\neul_bc95.c ****         //read bc95 read set return value info failed
ARM GAS  C:\Users\WANGBI~1\AppData\Local\Temp\ccSpmgug.s 			page 26


1110:e:/LiteOS/LiteOS/targets/Cloud_FM33A0XX/GCC/../../../targets/Cloud_FM33A0XX/UserCode\neul_bc95.c ****         return -1;
1111:e:/LiteOS/LiteOS/targets/Cloud_FM33A0XX/GCC/../../../targets/Cloud_FM33A0XX/UserCode\neul_bc95.c ****     }
1112:e:/LiteOS/LiteOS/targets/Cloud_FM33A0XX/GCC/../../../targets/Cloud_FM33A0XX/UserCode\neul_bc95.c ****     str = strstr(neul_dev.rbuf,"OK");
1113:e:/LiteOS/LiteOS/targets/Cloud_FM33A0XX/GCC/../../../targets/Cloud_FM33A0XX/UserCode\neul_bc95.c ****     if (!str)
1114:e:/LiteOS/LiteOS/targets/Cloud_FM33A0XX/GCC/../../../targets/Cloud_FM33A0XX/UserCode\neul_bc95.c ****     {
1115:e:/LiteOS/LiteOS/targets/Cloud_FM33A0XX/GCC/../../../targets/Cloud_FM33A0XX/UserCode\neul_bc95.c ****         return -1;
1116:e:/LiteOS/LiteOS/targets/Cloud_FM33A0XX/GCC/../../../targets/Cloud_FM33A0XX/UserCode\neul_bc95.c ****     }
1117:e:/LiteOS/LiteOS/targets/Cloud_FM33A0XX/GCC/../../../targets/Cloud_FM33A0XX/UserCode\neul_bc95.c ****     sscanf(neul_dev.rbuf, "\r+CEREG:%d,%d\r",&ret,&buf);
1118:e:/LiteOS/LiteOS/targets/Cloud_FM33A0XX/GCC/../../../targets/Cloud_FM33A0XX/UserCode\neul_bc95.c **** 		
1119:e:/LiteOS/LiteOS/targets/Cloud_FM33A0XX/GCC/../../../targets/Cloud_FM33A0XX/UserCode\neul_bc95.c ****     return buf;
1120:e:/LiteOS/LiteOS/targets/Cloud_FM33A0XX/GCC/../../../targets/Cloud_FM33A0XX/UserCode\neul_bc95.c **** }
1121:e:/LiteOS/LiteOS/targets/Cloud_FM33A0XX/GCC/../../../targets/Cloud_FM33A0XX/UserCode\neul_bc95.c **** /* ============================================================
1122:e:/LiteOS/LiteOS/targets/Cloud_FM33A0XX/GCC/../../../targets/Cloud_FM33A0XX/UserCode\neul_bc95.c **** func name   :  neul_bc95_get_cgatt
1123:e:/LiteOS/LiteOS/targets/Cloud_FM33A0XX/GCC/../../../targets/Cloud_FM33A0XX/UserCode\neul_bc95.c **** discription :  Request PS Attach or Detach               
1124:e:/LiteOS/LiteOS/targets/Cloud_FM33A0XX/GCC/../../../targets/Cloud_FM33A0XX/UserCode\neul_bc95.c **** param       :  buf @ out param
1125:e:/LiteOS/LiteOS/targets/Cloud_FM33A0XX/GCC/../../../targets/Cloud_FM33A0XX/UserCode\neul_bc95.c **** return      : >0 mean ok, <0 not ok
1126:e:/LiteOS/LiteOS/targets/Cloud_FM33A0XX/GCC/../../../targets/Cloud_FM33A0XX/UserCode\neul_bc95.c **** Revision    : 
1127:e:/LiteOS/LiteOS/targets/Cloud_FM33A0XX/GCC/../../../targets/Cloud_FM33A0XX/UserCode\neul_bc95.c **** =============================================================== */
1128:e:/LiteOS/LiteOS/targets/Cloud_FM33A0XX/GCC/../../../targets/Cloud_FM33A0XX/UserCode\neul_bc95.c **** int neul_bc95_get_cgatt(void)
1129:e:/LiteOS/LiteOS/targets/Cloud_FM33A0XX/GCC/../../../targets/Cloud_FM33A0XX/UserCode\neul_bc95.c **** {
1130:e:/LiteOS/LiteOS/targets/Cloud_FM33A0XX/GCC/../../../targets/Cloud_FM33A0XX/UserCode\neul_bc95.c **** 	  int ret = 0;
1131:e:/LiteOS/LiteOS/targets/Cloud_FM33A0XX/GCC/../../../targets/Cloud_FM33A0XX/UserCode\neul_bc95.c ****     char *cmd = "AT+CGATT?\r\n";
1132:e:/LiteOS/LiteOS/targets/Cloud_FM33A0XX/GCC/../../../targets/Cloud_FM33A0XX/UserCode\neul_bc95.c ****     int buf=0;
1133:e:/LiteOS/LiteOS/targets/Cloud_FM33A0XX/GCC/../../../targets/Cloud_FM33A0XX/UserCode\neul_bc95.c ****     char *str = NULL;		
1134:e:/LiteOS/LiteOS/targets/Cloud_FM33A0XX/GCC/../../../targets/Cloud_FM33A0XX/UserCode\neul_bc95.c **** 		
1135:e:/LiteOS/LiteOS/targets/Cloud_FM33A0XX/GCC/../../../targets/Cloud_FM33A0XX/UserCode\neul_bc95.c ****     ret = neul_dev.ops->dev_write(cmd, strlen(cmd), 0);
1136:e:/LiteOS/LiteOS/targets/Cloud_FM33A0XX/GCC/../../../targets/Cloud_FM33A0XX/UserCode\neul_bc95.c ****     if (ret < 0)
1137:e:/LiteOS/LiteOS/targets/Cloud_FM33A0XX/GCC/../../../targets/Cloud_FM33A0XX/UserCode\neul_bc95.c ****     {
1138:e:/LiteOS/LiteOS/targets/Cloud_FM33A0XX/GCC/../../../targets/Cloud_FM33A0XX/UserCode\neul_bc95.c ****         //write data to bc95 failed
1139:e:/LiteOS/LiteOS/targets/Cloud_FM33A0XX/GCC/../../../targets/Cloud_FM33A0XX/UserCode\neul_bc95.c ****         return -1;
1140:e:/LiteOS/LiteOS/targets/Cloud_FM33A0XX/GCC/../../../targets/Cloud_FM33A0XX/UserCode\neul_bc95.c ****     }
1141:e:/LiteOS/LiteOS/targets/Cloud_FM33A0XX/GCC/../../../targets/Cloud_FM33A0XX/UserCode\neul_bc95.c ****     memset(neul_dev.rbuf, 0, 100);
1142:e:/LiteOS/LiteOS/targets/Cloud_FM33A0XX/GCC/../../../targets/Cloud_FM33A0XX/UserCode\neul_bc95.c ****     ret = neul_dev.ops->dev_read(neul_dev.rbuf, 100, 0, 200);
1143:e:/LiteOS/LiteOS/targets/Cloud_FM33A0XX/GCC/../../../targets/Cloud_FM33A0XX/UserCode\neul_bc95.c ****     if (ret <= 0)
1144:e:/LiteOS/LiteOS/targets/Cloud_FM33A0XX/GCC/../../../targets/Cloud_FM33A0XX/UserCode\neul_bc95.c ****     {
1145:e:/LiteOS/LiteOS/targets/Cloud_FM33A0XX/GCC/../../../targets/Cloud_FM33A0XX/UserCode\neul_bc95.c ****         //read bc95 read set return value info failed
1146:e:/LiteOS/LiteOS/targets/Cloud_FM33A0XX/GCC/../../../targets/Cloud_FM33A0XX/UserCode\neul_bc95.c ****         return -1;
1147:e:/LiteOS/LiteOS/targets/Cloud_FM33A0XX/GCC/../../../targets/Cloud_FM33A0XX/UserCode\neul_bc95.c ****     }
1148:e:/LiteOS/LiteOS/targets/Cloud_FM33A0XX/GCC/../../../targets/Cloud_FM33A0XX/UserCode\neul_bc95.c ****     str = strstr(neul_dev.rbuf,"OK");
1149:e:/LiteOS/LiteOS/targets/Cloud_FM33A0XX/GCC/../../../targets/Cloud_FM33A0XX/UserCode\neul_bc95.c ****     if (!str)
1150:e:/LiteOS/LiteOS/targets/Cloud_FM33A0XX/GCC/../../../targets/Cloud_FM33A0XX/UserCode\neul_bc95.c ****     {
1151:e:/LiteOS/LiteOS/targets/Cloud_FM33A0XX/GCC/../../../targets/Cloud_FM33A0XX/UserCode\neul_bc95.c ****         return -1;
1152:e:/LiteOS/LiteOS/targets/Cloud_FM33A0XX/GCC/../../../targets/Cloud_FM33A0XX/UserCode\neul_bc95.c ****     }
1153:e:/LiteOS/LiteOS/targets/Cloud_FM33A0XX/GCC/../../../targets/Cloud_FM33A0XX/UserCode\neul_bc95.c ****     sscanf(neul_dev.rbuf, "\r+CGATT:%d\r",&buf);
1154:e:/LiteOS/LiteOS/targets/Cloud_FM33A0XX/GCC/../../../targets/Cloud_FM33A0XX/UserCode\neul_bc95.c **** 		
1155:e:/LiteOS/LiteOS/targets/Cloud_FM33A0XX/GCC/../../../targets/Cloud_FM33A0XX/UserCode\neul_bc95.c ****     return buf;
1156:e:/LiteOS/LiteOS/targets/Cloud_FM33A0XX/GCC/../../../targets/Cloud_FM33A0XX/UserCode\neul_bc95.c **** }
1157:e:/LiteOS/LiteOS/targets/Cloud_FM33A0XX/GCC/../../../targets/Cloud_FM33A0XX/UserCode\neul_bc95.c **** /* ============================================================
1158:e:/LiteOS/LiteOS/targets/Cloud_FM33A0XX/GCC/../../../targets/Cloud_FM33A0XX/UserCode\neul_bc95.c **** func name   :  neul_bc95_set_npsmr
1159:e:/LiteOS/LiteOS/targets/Cloud_FM33A0XX/GCC/../../../targets/Cloud_FM33A0XX/UserCode\neul_bc95.c **** discription : Set Power Saving Mode Status              
1160:e:/LiteOS/LiteOS/targets/Cloud_FM33A0XX/GCC/../../../targets/Cloud_FM33A0XX/UserCode\neul_bc95.c **** param       :  buf @ out param
1161:e:/LiteOS/LiteOS/targets/Cloud_FM33A0XX/GCC/../../../targets/Cloud_FM33A0XX/UserCode\neul_bc95.c **** return      : 0 mean ok, <0 not ok
1162:e:/LiteOS/LiteOS/targets/Cloud_FM33A0XX/GCC/../../../targets/Cloud_FM33A0XX/UserCode\neul_bc95.c **** Revision    : 
1163:e:/LiteOS/LiteOS/targets/Cloud_FM33A0XX/GCC/../../../targets/Cloud_FM33A0XX/UserCode\neul_bc95.c **** =============================================================== */
1164:e:/LiteOS/LiteOS/targets/Cloud_FM33A0XX/GCC/../../../targets/Cloud_FM33A0XX/UserCode\neul_bc95.c **** int neul_bc95_set_npsmr(void)
1165:e:/LiteOS/LiteOS/targets/Cloud_FM33A0XX/GCC/../../../targets/Cloud_FM33A0XX/UserCode\neul_bc95.c **** {
1166:e:/LiteOS/LiteOS/targets/Cloud_FM33A0XX/GCC/../../../targets/Cloud_FM33A0XX/UserCode\neul_bc95.c **** 	  int ret = 0;
ARM GAS  C:\Users\WANGBI~1\AppData\Local\Temp\ccSpmgug.s 			page 27


1167:e:/LiteOS/LiteOS/targets/Cloud_FM33A0XX/GCC/../../../targets/Cloud_FM33A0XX/UserCode\neul_bc95.c **** 	  char *cmd = "AT+NPSMR=1\r\n";
1168:e:/LiteOS/LiteOS/targets/Cloud_FM33A0XX/GCC/../../../targets/Cloud_FM33A0XX/UserCode\neul_bc95.c ****     char *str = NULL;		
1169:e:/LiteOS/LiteOS/targets/Cloud_FM33A0XX/GCC/../../../targets/Cloud_FM33A0XX/UserCode\neul_bc95.c **** 		
1170:e:/LiteOS/LiteOS/targets/Cloud_FM33A0XX/GCC/../../../targets/Cloud_FM33A0XX/UserCode\neul_bc95.c ****     ret = neul_dev.ops->dev_write(cmd, strlen(cmd), 0);
1171:e:/LiteOS/LiteOS/targets/Cloud_FM33A0XX/GCC/../../../targets/Cloud_FM33A0XX/UserCode\neul_bc95.c ****     if (ret < 0)
1172:e:/LiteOS/LiteOS/targets/Cloud_FM33A0XX/GCC/../../../targets/Cloud_FM33A0XX/UserCode\neul_bc95.c ****     {
1173:e:/LiteOS/LiteOS/targets/Cloud_FM33A0XX/GCC/../../../targets/Cloud_FM33A0XX/UserCode\neul_bc95.c ****         //write data to bc95 failed
1174:e:/LiteOS/LiteOS/targets/Cloud_FM33A0XX/GCC/../../../targets/Cloud_FM33A0XX/UserCode\neul_bc95.c ****         return -1;
1175:e:/LiteOS/LiteOS/targets/Cloud_FM33A0XX/GCC/../../../targets/Cloud_FM33A0XX/UserCode\neul_bc95.c ****     }
1176:e:/LiteOS/LiteOS/targets/Cloud_FM33A0XX/GCC/../../../targets/Cloud_FM33A0XX/UserCode\neul_bc95.c ****     memset(neul_dev.rbuf, 0, 100);
1177:e:/LiteOS/LiteOS/targets/Cloud_FM33A0XX/GCC/../../../targets/Cloud_FM33A0XX/UserCode\neul_bc95.c ****     ret = neul_dev.ops->dev_read(neul_dev.rbuf, 100, 0, 200);
1178:e:/LiteOS/LiteOS/targets/Cloud_FM33A0XX/GCC/../../../targets/Cloud_FM33A0XX/UserCode\neul_bc95.c ****     if (ret <= 0)
1179:e:/LiteOS/LiteOS/targets/Cloud_FM33A0XX/GCC/../../../targets/Cloud_FM33A0XX/UserCode\neul_bc95.c ****     {
1180:e:/LiteOS/LiteOS/targets/Cloud_FM33A0XX/GCC/../../../targets/Cloud_FM33A0XX/UserCode\neul_bc95.c ****         //read bc95 read set return value info failed
1181:e:/LiteOS/LiteOS/targets/Cloud_FM33A0XX/GCC/../../../targets/Cloud_FM33A0XX/UserCode\neul_bc95.c ****         return -1;
1182:e:/LiteOS/LiteOS/targets/Cloud_FM33A0XX/GCC/../../../targets/Cloud_FM33A0XX/UserCode\neul_bc95.c ****     }
1183:e:/LiteOS/LiteOS/targets/Cloud_FM33A0XX/GCC/../../../targets/Cloud_FM33A0XX/UserCode\neul_bc95.c ****     str = strstr(neul_dev.rbuf,"OK");
1184:e:/LiteOS/LiteOS/targets/Cloud_FM33A0XX/GCC/../../../targets/Cloud_FM33A0XX/UserCode\neul_bc95.c ****     if (!str)
1185:e:/LiteOS/LiteOS/targets/Cloud_FM33A0XX/GCC/../../../targets/Cloud_FM33A0XX/UserCode\neul_bc95.c ****     {
1186:e:/LiteOS/LiteOS/targets/Cloud_FM33A0XX/GCC/../../../targets/Cloud_FM33A0XX/UserCode\neul_bc95.c ****         return -1;
1187:e:/LiteOS/LiteOS/targets/Cloud_FM33A0XX/GCC/../../../targets/Cloud_FM33A0XX/UserCode\neul_bc95.c ****     }
1188:e:/LiteOS/LiteOS/targets/Cloud_FM33A0XX/GCC/../../../targets/Cloud_FM33A0XX/UserCode\neul_bc95.c ****     return 0;
1189:e:/LiteOS/LiteOS/targets/Cloud_FM33A0XX/GCC/../../../targets/Cloud_FM33A0XX/UserCode\neul_bc95.c **** }
1190:e:/LiteOS/LiteOS/targets/Cloud_FM33A0XX/GCC/../../../targets/Cloud_FM33A0XX/UserCode\neul_bc95.c **** /* ============================================================
1191:e:/LiteOS/LiteOS/targets/Cloud_FM33A0XX/GCC/../../../targets/Cloud_FM33A0XX/UserCode\neul_bc95.c **** func name   :  neul_bc95_get_npsmr
1192:e:/LiteOS/LiteOS/targets/Cloud_FM33A0XX/GCC/../../../targets/Cloud_FM33A0XX/UserCode\neul_bc95.c **** discription :  Request Power Saving Mode Status              
1193:e:/LiteOS/LiteOS/targets/Cloud_FM33A0XX/GCC/../../../targets/Cloud_FM33A0XX/UserCode\neul_bc95.c **** param       :  buf @ out param
1194:e:/LiteOS/LiteOS/targets/Cloud_FM33A0XX/GCC/../../../targets/Cloud_FM33A0XX/UserCode\neul_bc95.c **** return      : >0 mean ok, <0 not ok
1195:e:/LiteOS/LiteOS/targets/Cloud_FM33A0XX/GCC/../../../targets/Cloud_FM33A0XX/UserCode\neul_bc95.c **** Revision    : 
1196:e:/LiteOS/LiteOS/targets/Cloud_FM33A0XX/GCC/../../../targets/Cloud_FM33A0XX/UserCode\neul_bc95.c **** =============================================================== */
1197:e:/LiteOS/LiteOS/targets/Cloud_FM33A0XX/GCC/../../../targets/Cloud_FM33A0XX/UserCode\neul_bc95.c **** int neul_bc95_get_npsmr(void)
1198:e:/LiteOS/LiteOS/targets/Cloud_FM33A0XX/GCC/../../../targets/Cloud_FM33A0XX/UserCode\neul_bc95.c **** {
1199:e:/LiteOS/LiteOS/targets/Cloud_FM33A0XX/GCC/../../../targets/Cloud_FM33A0XX/UserCode\neul_bc95.c **** 	  int ret = 0;
1200:e:/LiteOS/LiteOS/targets/Cloud_FM33A0XX/GCC/../../../targets/Cloud_FM33A0XX/UserCode\neul_bc95.c ****     char *cmd = "AT+NPSMR?\r\n";
1201:e:/LiteOS/LiteOS/targets/Cloud_FM33A0XX/GCC/../../../targets/Cloud_FM33A0XX/UserCode\neul_bc95.c ****     int buf=0;
1202:e:/LiteOS/LiteOS/targets/Cloud_FM33A0XX/GCC/../../../targets/Cloud_FM33A0XX/UserCode\neul_bc95.c ****     char *str = NULL;		
1203:e:/LiteOS/LiteOS/targets/Cloud_FM33A0XX/GCC/../../../targets/Cloud_FM33A0XX/UserCode\neul_bc95.c **** 		
1204:e:/LiteOS/LiteOS/targets/Cloud_FM33A0XX/GCC/../../../targets/Cloud_FM33A0XX/UserCode\neul_bc95.c ****     ret = neul_dev.ops->dev_write(cmd, strlen(cmd), 0);
1205:e:/LiteOS/LiteOS/targets/Cloud_FM33A0XX/GCC/../../../targets/Cloud_FM33A0XX/UserCode\neul_bc95.c ****     if (ret < 0)
1206:e:/LiteOS/LiteOS/targets/Cloud_FM33A0XX/GCC/../../../targets/Cloud_FM33A0XX/UserCode\neul_bc95.c ****     {
1207:e:/LiteOS/LiteOS/targets/Cloud_FM33A0XX/GCC/../../../targets/Cloud_FM33A0XX/UserCode\neul_bc95.c ****         //write data to bc95 failed
1208:e:/LiteOS/LiteOS/targets/Cloud_FM33A0XX/GCC/../../../targets/Cloud_FM33A0XX/UserCode\neul_bc95.c ****         return -1;
1209:e:/LiteOS/LiteOS/targets/Cloud_FM33A0XX/GCC/../../../targets/Cloud_FM33A0XX/UserCode\neul_bc95.c ****     }
1210:e:/LiteOS/LiteOS/targets/Cloud_FM33A0XX/GCC/../../../targets/Cloud_FM33A0XX/UserCode\neul_bc95.c ****     memset(neul_dev.rbuf, 0, 100);
1211:e:/LiteOS/LiteOS/targets/Cloud_FM33A0XX/GCC/../../../targets/Cloud_FM33A0XX/UserCode\neul_bc95.c ****     ret = neul_dev.ops->dev_read(neul_dev.rbuf, 100, 0, 200);
1212:e:/LiteOS/LiteOS/targets/Cloud_FM33A0XX/GCC/../../../targets/Cloud_FM33A0XX/UserCode\neul_bc95.c ****     if (ret <= 0)
1213:e:/LiteOS/LiteOS/targets/Cloud_FM33A0XX/GCC/../../../targets/Cloud_FM33A0XX/UserCode\neul_bc95.c ****     {
1214:e:/LiteOS/LiteOS/targets/Cloud_FM33A0XX/GCC/../../../targets/Cloud_FM33A0XX/UserCode\neul_bc95.c ****         //read bc95 read set return value info failed
1215:e:/LiteOS/LiteOS/targets/Cloud_FM33A0XX/GCC/../../../targets/Cloud_FM33A0XX/UserCode\neul_bc95.c ****         return -1;
1216:e:/LiteOS/LiteOS/targets/Cloud_FM33A0XX/GCC/../../../targets/Cloud_FM33A0XX/UserCode\neul_bc95.c ****     }
1217:e:/LiteOS/LiteOS/targets/Cloud_FM33A0XX/GCC/../../../targets/Cloud_FM33A0XX/UserCode\neul_bc95.c ****     str = strstr(neul_dev.rbuf,"OK");
1218:e:/LiteOS/LiteOS/targets/Cloud_FM33A0XX/GCC/../../../targets/Cloud_FM33A0XX/UserCode\neul_bc95.c ****     if (!str)
1219:e:/LiteOS/LiteOS/targets/Cloud_FM33A0XX/GCC/../../../targets/Cloud_FM33A0XX/UserCode\neul_bc95.c ****     {
1220:e:/LiteOS/LiteOS/targets/Cloud_FM33A0XX/GCC/../../../targets/Cloud_FM33A0XX/UserCode\neul_bc95.c ****         return -1;
1221:e:/LiteOS/LiteOS/targets/Cloud_FM33A0XX/GCC/../../../targets/Cloud_FM33A0XX/UserCode\neul_bc95.c ****     }
1222:e:/LiteOS/LiteOS/targets/Cloud_FM33A0XX/GCC/../../../targets/Cloud_FM33A0XX/UserCode\neul_bc95.c ****     sscanf(neul_dev.rbuf, "\r+NPSMR:%d,%d\r",&ret,&buf);
1223:e:/LiteOS/LiteOS/targets/Cloud_FM33A0XX/GCC/../../../targets/Cloud_FM33A0XX/UserCode\neul_bc95.c ****     return buf;
ARM GAS  C:\Users\WANGBI~1\AppData\Local\Temp\ccSpmgug.s 			page 28


1224:e:/LiteOS/LiteOS/targets/Cloud_FM33A0XX/GCC/../../../targets/Cloud_FM33A0XX/UserCode\neul_bc95.c **** }
1225:e:/LiteOS/LiteOS/targets/Cloud_FM33A0XX/GCC/../../../targets/Cloud_FM33A0XX/UserCode\neul_bc95.c **** 
1226:e:/LiteOS/LiteOS/targets/Cloud_FM33A0XX/GCC/../../../targets/Cloud_FM33A0XX/UserCode\neul_bc95.c **** /* ============================================================
1227:e:/LiteOS/LiteOS/targets/Cloud_FM33A0XX/GCC/../../../targets/Cloud_FM33A0XX/UserCode\neul_bc95.c **** func name   :  neul_bc95_get_id
1228:e:/LiteOS/LiteOS/targets/Cloud_FM33A0XX/GCC/../../../targets/Cloud_FM33A0XX/UserCode\neul_bc95.c **** discription :  Request IP address of the device             
1229:e:/LiteOS/LiteOS/targets/Cloud_FM33A0XX/GCC/../../../targets/Cloud_FM33A0XX/UserCode\neul_bc95.c **** param       :  buf @ out param
1230:e:/LiteOS/LiteOS/targets/Cloud_FM33A0XX/GCC/../../../targets/Cloud_FM33A0XX/UserCode\neul_bc95.c **** return      : 0 mean ok, <0 not ok
1231:e:/LiteOS/LiteOS/targets/Cloud_FM33A0XX/GCC/../../../targets/Cloud_FM33A0XX/UserCode\neul_bc95.c **** Revision    : 
1232:e:/LiteOS/LiteOS/targets/Cloud_FM33A0XX/GCC/../../../targets/Cloud_FM33A0XX/UserCode\neul_bc95.c **** =============================================================== */
1233:e:/LiteOS/LiteOS/targets/Cloud_FM33A0XX/GCC/../../../targets/Cloud_FM33A0XX/UserCode\neul_bc95.c **** int neul_bc95_get_id(char *buf)
1234:e:/LiteOS/LiteOS/targets/Cloud_FM33A0XX/GCC/../../../targets/Cloud_FM33A0XX/UserCode\neul_bc95.c **** {
1235:e:/LiteOS/LiteOS/targets/Cloud_FM33A0XX/GCC/../../../targets/Cloud_FM33A0XX/UserCode\neul_bc95.c **** 	  int ret = 0;
1236:e:/LiteOS/LiteOS/targets/Cloud_FM33A0XX/GCC/../../../targets/Cloud_FM33A0XX/UserCode\neul_bc95.c ****     char *cmd = "AT+CGPADDR=0\r\n";
1237:e:/LiteOS/LiteOS/targets/Cloud_FM33A0XX/GCC/../../../targets/Cloud_FM33A0XX/UserCode\neul_bc95.c ****     char *str = NULL;		
1238:e:/LiteOS/LiteOS/targets/Cloud_FM33A0XX/GCC/../../../targets/Cloud_FM33A0XX/UserCode\neul_bc95.c **** 		
1239:e:/LiteOS/LiteOS/targets/Cloud_FM33A0XX/GCC/../../../targets/Cloud_FM33A0XX/UserCode\neul_bc95.c ****     ret = neul_dev.ops->dev_write(cmd, strlen(cmd), 0);
1240:e:/LiteOS/LiteOS/targets/Cloud_FM33A0XX/GCC/../../../targets/Cloud_FM33A0XX/UserCode\neul_bc95.c ****     if (ret < 0)
1241:e:/LiteOS/LiteOS/targets/Cloud_FM33A0XX/GCC/../../../targets/Cloud_FM33A0XX/UserCode\neul_bc95.c ****     {
1242:e:/LiteOS/LiteOS/targets/Cloud_FM33A0XX/GCC/../../../targets/Cloud_FM33A0XX/UserCode\neul_bc95.c ****         //write data to bc95 failed
1243:e:/LiteOS/LiteOS/targets/Cloud_FM33A0XX/GCC/../../../targets/Cloud_FM33A0XX/UserCode\neul_bc95.c ****         return -1;
1244:e:/LiteOS/LiteOS/targets/Cloud_FM33A0XX/GCC/../../../targets/Cloud_FM33A0XX/UserCode\neul_bc95.c ****     }
1245:e:/LiteOS/LiteOS/targets/Cloud_FM33A0XX/GCC/../../../targets/Cloud_FM33A0XX/UserCode\neul_bc95.c ****     memset(neul_dev.rbuf, 0, 100);
1246:e:/LiteOS/LiteOS/targets/Cloud_FM33A0XX/GCC/../../../targets/Cloud_FM33A0XX/UserCode\neul_bc95.c ****     ret = neul_dev.ops->dev_read(neul_dev.rbuf, 100, 0, 200);
1247:e:/LiteOS/LiteOS/targets/Cloud_FM33A0XX/GCC/../../../targets/Cloud_FM33A0XX/UserCode\neul_bc95.c ****     if (ret <= 0)
1248:e:/LiteOS/LiteOS/targets/Cloud_FM33A0XX/GCC/../../../targets/Cloud_FM33A0XX/UserCode\neul_bc95.c ****     {
1249:e:/LiteOS/LiteOS/targets/Cloud_FM33A0XX/GCC/../../../targets/Cloud_FM33A0XX/UserCode\neul_bc95.c ****         //read bc95 read set return value info failed
1250:e:/LiteOS/LiteOS/targets/Cloud_FM33A0XX/GCC/../../../targets/Cloud_FM33A0XX/UserCode\neul_bc95.c ****         return -1;
1251:e:/LiteOS/LiteOS/targets/Cloud_FM33A0XX/GCC/../../../targets/Cloud_FM33A0XX/UserCode\neul_bc95.c ****     }
1252:e:/LiteOS/LiteOS/targets/Cloud_FM33A0XX/GCC/../../../targets/Cloud_FM33A0XX/UserCode\neul_bc95.c ****     str = strstr(neul_dev.rbuf,"OK");
1253:e:/LiteOS/LiteOS/targets/Cloud_FM33A0XX/GCC/../../../targets/Cloud_FM33A0XX/UserCode\neul_bc95.c ****     if (!str)
1254:e:/LiteOS/LiteOS/targets/Cloud_FM33A0XX/GCC/../../../targets/Cloud_FM33A0XX/UserCode\neul_bc95.c ****     {
1255:e:/LiteOS/LiteOS/targets/Cloud_FM33A0XX/GCC/../../../targets/Cloud_FM33A0XX/UserCode\neul_bc95.c ****         return -1;
1256:e:/LiteOS/LiteOS/targets/Cloud_FM33A0XX/GCC/../../../targets/Cloud_FM33A0XX/UserCode\neul_bc95.c ****     }
1257:e:/LiteOS/LiteOS/targets/Cloud_FM33A0XX/GCC/../../../targets/Cloud_FM33A0XX/UserCode\neul_bc95.c ****     sscanf(neul_dev.rbuf, "\r+CGPADDR:%s\r",buf);
1258:e:/LiteOS/LiteOS/targets/Cloud_FM33A0XX/GCC/../../../targets/Cloud_FM33A0XX/UserCode\neul_bc95.c ****     return 0;
1259:e:/LiteOS/LiteOS/targets/Cloud_FM33A0XX/GCC/../../../targets/Cloud_FM33A0XX/UserCode\neul_bc95.c **** }
1260:e:/LiteOS/LiteOS/targets/Cloud_FM33A0XX/GCC/../../../targets/Cloud_FM33A0XX/UserCode\neul_bc95.c **** /* ============================================================
1261:e:/LiteOS/LiteOS/targets/Cloud_FM33A0XX/GCC/../../../targets/Cloud_FM33A0XX/UserCode\neul_bc95.c **** func name   :  neul_bc95_get_nuestats
1262:e:/LiteOS/LiteOS/targets/Cloud_FM33A0XX/GCC/../../../targets/Cloud_FM33A0XX/UserCode\neul_bc95.c **** discription :  RQuery UE Statistics             
1263:e:/LiteOS/LiteOS/targets/Cloud_FM33A0XX/GCC/../../../targets/Cloud_FM33A0XX/UserCode\neul_bc95.c **** param       :  buf @ out param
1264:e:/LiteOS/LiteOS/targets/Cloud_FM33A0XX/GCC/../../../targets/Cloud_FM33A0XX/UserCode\neul_bc95.c **** return      : 0 mean ok, <0 not ok
1265:e:/LiteOS/LiteOS/targets/Cloud_FM33A0XX/GCC/../../../targets/Cloud_FM33A0XX/UserCode\neul_bc95.c **** Revision    : 
1266:e:/LiteOS/LiteOS/targets/Cloud_FM33A0XX/GCC/../../../targets/Cloud_FM33A0XX/UserCode\neul_bc95.c **** =============================================================== */
1267:e:/LiteOS/LiteOS/targets/Cloud_FM33A0XX/GCC/../../../targets/Cloud_FM33A0XX/UserCode\neul_bc95.c **** int neul_bc95_get_nuestats(void)
1268:e:/LiteOS/LiteOS/targets/Cloud_FM33A0XX/GCC/../../../targets/Cloud_FM33A0XX/UserCode\neul_bc95.c **** {
1269:e:/LiteOS/LiteOS/targets/Cloud_FM33A0XX/GCC/../../../targets/Cloud_FM33A0XX/UserCode\neul_bc95.c **** 	  int ret = 0;
1270:e:/LiteOS/LiteOS/targets/Cloud_FM33A0XX/GCC/../../../targets/Cloud_FM33A0XX/UserCode\neul_bc95.c ****     char *cmd = "AT+NUESTATS\r\n";
1271:e:/LiteOS/LiteOS/targets/Cloud_FM33A0XX/GCC/../../../targets/Cloud_FM33A0XX/UserCode\neul_bc95.c ****     char *str = NULL;		
1272:e:/LiteOS/LiteOS/targets/Cloud_FM33A0XX/GCC/../../../targets/Cloud_FM33A0XX/UserCode\neul_bc95.c ****     ret = neul_dev.ops->dev_write(cmd, strlen(cmd), 0);
1273:e:/LiteOS/LiteOS/targets/Cloud_FM33A0XX/GCC/../../../targets/Cloud_FM33A0XX/UserCode\neul_bc95.c ****     if (ret < 0)
1274:e:/LiteOS/LiteOS/targets/Cloud_FM33A0XX/GCC/../../../targets/Cloud_FM33A0XX/UserCode\neul_bc95.c ****     {
1275:e:/LiteOS/LiteOS/targets/Cloud_FM33A0XX/GCC/../../../targets/Cloud_FM33A0XX/UserCode\neul_bc95.c ****         //write data to bc95 failed
1276:e:/LiteOS/LiteOS/targets/Cloud_FM33A0XX/GCC/../../../targets/Cloud_FM33A0XX/UserCode\neul_bc95.c ****         return -1;
1277:e:/LiteOS/LiteOS/targets/Cloud_FM33A0XX/GCC/../../../targets/Cloud_FM33A0XX/UserCode\neul_bc95.c ****     }
1278:e:/LiteOS/LiteOS/targets/Cloud_FM33A0XX/GCC/../../../targets/Cloud_FM33A0XX/UserCode\neul_bc95.c ****     memset(neul_dev.rbuf, 0, 1000);
1279:e:/LiteOS/LiteOS/targets/Cloud_FM33A0XX/GCC/../../../targets/Cloud_FM33A0XX/UserCode\neul_bc95.c ****     ret = neul_dev.ops->dev_read(neul_dev.rbuf, 1000, 0, 200);
1280:e:/LiteOS/LiteOS/targets/Cloud_FM33A0XX/GCC/../../../targets/Cloud_FM33A0XX/UserCode\neul_bc95.c ****     if (ret <= 0)
ARM GAS  C:\Users\WANGBI~1\AppData\Local\Temp\ccSpmgug.s 			page 29


1281:e:/LiteOS/LiteOS/targets/Cloud_FM33A0XX/GCC/../../../targets/Cloud_FM33A0XX/UserCode\neul_bc95.c ****     {
1282:e:/LiteOS/LiteOS/targets/Cloud_FM33A0XX/GCC/../../../targets/Cloud_FM33A0XX/UserCode\neul_bc95.c ****         //read bc95 read set return value info failed
1283:e:/LiteOS/LiteOS/targets/Cloud_FM33A0XX/GCC/../../../targets/Cloud_FM33A0XX/UserCode\neul_bc95.c ****         return -1;
1284:e:/LiteOS/LiteOS/targets/Cloud_FM33A0XX/GCC/../../../targets/Cloud_FM33A0XX/UserCode\neul_bc95.c ****     }
1285:e:/LiteOS/LiteOS/targets/Cloud_FM33A0XX/GCC/../../../targets/Cloud_FM33A0XX/UserCode\neul_bc95.c ****     str = strstr(neul_dev.rbuf,"OK");
1286:e:/LiteOS/LiteOS/targets/Cloud_FM33A0XX/GCC/../../../targets/Cloud_FM33A0XX/UserCode\neul_bc95.c ****     if (!str)
1287:e:/LiteOS/LiteOS/targets/Cloud_FM33A0XX/GCC/../../../targets/Cloud_FM33A0XX/UserCode\neul_bc95.c ****     {
1288:e:/LiteOS/LiteOS/targets/Cloud_FM33A0XX/GCC/../../../targets/Cloud_FM33A0XX/UserCode\neul_bc95.c ****         return -1;
1289:e:/LiteOS/LiteOS/targets/Cloud_FM33A0XX/GCC/../../../targets/Cloud_FM33A0XX/UserCode\neul_bc95.c ****     }
1290:e:/LiteOS/LiteOS/targets/Cloud_FM33A0XX/GCC/../../../targets/Cloud_FM33A0XX/UserCode\neul_bc95.c **** 		sscanf(neul_dev.rbuf, "\rSignal power:%s\rTotal power:%s\rTX power:%s\rTX time:%s\rRX time:%s\rCe
1291:e:/LiteOS/LiteOS/targets/Cloud_FM33A0XX/GCC/../../../targets/Cloud_FM33A0XX/UserCode\neul_bc95.c **** 		                          bc95_net_data.net_Signal_power,
1292:e:/LiteOS/LiteOS/targets/Cloud_FM33A0XX/GCC/../../../targets/Cloud_FM33A0XX/UserCode\neul_bc95.c **** 															bc95_net_data.net_Total_power,
1293:e:/LiteOS/LiteOS/targets/Cloud_FM33A0XX/GCC/../../../targets/Cloud_FM33A0XX/UserCode\neul_bc95.c **** 															bc95_net_data.net_TX_power,
1294:e:/LiteOS/LiteOS/targets/Cloud_FM33A0XX/GCC/../../../targets/Cloud_FM33A0XX/UserCode\neul_bc95.c **** 															bc95_net_data.net_TX_time,
1295:e:/LiteOS/LiteOS/targets/Cloud_FM33A0XX/GCC/../../../targets/Cloud_FM33A0XX/UserCode\neul_bc95.c **** 															bc95_net_data.net_RX_time,
1296:e:/LiteOS/LiteOS/targets/Cloud_FM33A0XX/GCC/../../../targets/Cloud_FM33A0XX/UserCode\neul_bc95.c **** 															bc95_net_data.net_SCell_ID,
1297:e:/LiteOS/LiteOS/targets/Cloud_FM33A0XX/GCC/../../../targets/Cloud_FM33A0XX/UserCode\neul_bc95.c **** 															bc95_net_data.net_ECL,
1298:e:/LiteOS/LiteOS/targets/Cloud_FM33A0XX/GCC/../../../targets/Cloud_FM33A0XX/UserCode\neul_bc95.c **** 															bc95_net_data.net_SNR,
1299:e:/LiteOS/LiteOS/targets/Cloud_FM33A0XX/GCC/../../../targets/Cloud_FM33A0XX/UserCode\neul_bc95.c **** 															bc95_net_data.net_EARFCN,
1300:e:/LiteOS/LiteOS/targets/Cloud_FM33A0XX/GCC/../../../targets/Cloud_FM33A0XX/UserCode\neul_bc95.c **** 															bc95_net_data.net_PCI,
1301:e:/LiteOS/LiteOS/targets/Cloud_FM33A0XX/GCC/../../../targets/Cloud_FM33A0XX/UserCode\neul_bc95.c **** 															bc95_net_data.net_RSRQ);
1302:e:/LiteOS/LiteOS/targets/Cloud_FM33A0XX/GCC/../../../targets/Cloud_FM33A0XX/UserCode\neul_bc95.c **** 		//printf("%s",neul_dev.rbuf);
1303:e:/LiteOS/LiteOS/targets/Cloud_FM33A0XX/GCC/../../../targets/Cloud_FM33A0XX/UserCode\neul_bc95.c ****     return 0;
1304:e:/LiteOS/LiteOS/targets/Cloud_FM33A0XX/GCC/../../../targets/Cloud_FM33A0XX/UserCode\neul_bc95.c **** }
1305:e:/LiteOS/LiteOS/targets/Cloud_FM33A0XX/GCC/../../../targets/Cloud_FM33A0XX/UserCode\neul_bc95.c **** 
1306:e:/LiteOS/LiteOS/targets/Cloud_FM33A0XX/GCC/../../../targets/Cloud_FM33A0XX/UserCode\neul_bc95.c **** /* ============================================================
1307:e:/LiteOS/LiteOS/targets/Cloud_FM33A0XX/GCC/../../../targets/Cloud_FM33A0XX/UserCode\neul_bc95.c **** func name   :  neul_bc95_create_udpsocket
1308:e:/LiteOS/LiteOS/targets/Cloud_FM33A0XX/GCC/../../../targets/Cloud_FM33A0XX/UserCode\neul_bc95.c **** discription :  create udp socket 
1309:e:/LiteOS/LiteOS/targets/Cloud_FM33A0XX/GCC/../../../targets/Cloud_FM33A0XX/UserCode\neul_bc95.c ****                
1310:e:/LiteOS/LiteOS/targets/Cloud_FM33A0XX/GCC/../../../targets/Cloud_FM33A0XX/UserCode\neul_bc95.c **** param       :  localport @ input param , the port local socket used
1311:e:/LiteOS/LiteOS/targets/Cloud_FM33A0XX/GCC/../../../targets/Cloud_FM33A0XX/UserCode\neul_bc95.c **** return      :  >=0 socket handle , < 0 not ok
1312:e:/LiteOS/LiteOS/targets/Cloud_FM33A0XX/GCC/../../../targets/Cloud_FM33A0XX/UserCode\neul_bc95.c **** Revision    : 
1313:e:/LiteOS/LiteOS/targets/Cloud_FM33A0XX/GCC/../../../targets/Cloud_FM33A0XX/UserCode\neul_bc95.c **** =============================================================== */
1314:e:/LiteOS/LiteOS/targets/Cloud_FM33A0XX/GCC/../../../targets/Cloud_FM33A0XX/UserCode\neul_bc95.c **** int neul_bc95_create_udpsocket(unsigned short localport)
1315:e:/LiteOS/LiteOS/targets/Cloud_FM33A0XX/GCC/../../../targets/Cloud_FM33A0XX/UserCode\neul_bc95.c **** {
1316:e:/LiteOS/LiteOS/targets/Cloud_FM33A0XX/GCC/../../../targets/Cloud_FM33A0XX/UserCode\neul_bc95.c ****     char *cmd = "AT+NSOCR=DGRAM,17,";
1317:e:/LiteOS/LiteOS/targets/Cloud_FM33A0XX/GCC/../../../targets/Cloud_FM33A0XX/UserCode\neul_bc95.c ****     int ret = 0;
1318:e:/LiteOS/LiteOS/targets/Cloud_FM33A0XX/GCC/../../../targets/Cloud_FM33A0XX/UserCode\neul_bc95.c ****     char *str = NULL;
1319:e:/LiteOS/LiteOS/targets/Cloud_FM33A0XX/GCC/../../../targets/Cloud_FM33A0XX/UserCode\neul_bc95.c ****     int socket = -1;
1320:e:/LiteOS/LiteOS/targets/Cloud_FM33A0XX/GCC/../../../targets/Cloud_FM33A0XX/UserCode\neul_bc95.c ****     if (0 == localport)
1321:e:/LiteOS/LiteOS/targets/Cloud_FM33A0XX/GCC/../../../targets/Cloud_FM33A0XX/UserCode\neul_bc95.c ****     {
1322:e:/LiteOS/LiteOS/targets/Cloud_FM33A0XX/GCC/../../../targets/Cloud_FM33A0XX/UserCode\neul_bc95.c ****         return -1;
1323:e:/LiteOS/LiteOS/targets/Cloud_FM33A0XX/GCC/../../../targets/Cloud_FM33A0XX/UserCode\neul_bc95.c ****     }
1324:e:/LiteOS/LiteOS/targets/Cloud_FM33A0XX/GCC/../../../targets/Cloud_FM33A0XX/UserCode\neul_bc95.c ****     memset(neul_dev.wbuf, 0, 64);
1325:e:/LiteOS/LiteOS/targets/Cloud_FM33A0XX/GCC/../../../targets/Cloud_FM33A0XX/UserCode\neul_bc95.c ****     sprintf(neul_dev.wbuf, "%s%d,1\r", cmd, localport);
1326:e:/LiteOS/LiteOS/targets/Cloud_FM33A0XX/GCC/../../../targets/Cloud_FM33A0XX/UserCode\neul_bc95.c ****     ret = neul_dev.ops->dev_write(neul_dev.wbuf, strlen(neul_dev.wbuf), 0);
1327:e:/LiteOS/LiteOS/targets/Cloud_FM33A0XX/GCC/../../../targets/Cloud_FM33A0XX/UserCode\neul_bc95.c ****     if (ret < 0)
1328:e:/LiteOS/LiteOS/targets/Cloud_FM33A0XX/GCC/../../../targets/Cloud_FM33A0XX/UserCode\neul_bc95.c ****     {
1329:e:/LiteOS/LiteOS/targets/Cloud_FM33A0XX/GCC/../../../targets/Cloud_FM33A0XX/UserCode\neul_bc95.c ****         //write data to bc95 failed
1330:e:/LiteOS/LiteOS/targets/Cloud_FM33A0XX/GCC/../../../targets/Cloud_FM33A0XX/UserCode\neul_bc95.c ****         return -1;
1331:e:/LiteOS/LiteOS/targets/Cloud_FM33A0XX/GCC/../../../targets/Cloud_FM33A0XX/UserCode\neul_bc95.c ****     }
1332:e:/LiteOS/LiteOS/targets/Cloud_FM33A0XX/GCC/../../../targets/Cloud_FM33A0XX/UserCode\neul_bc95.c ****     memset(neul_dev.rbuf, 0, 32);
1333:e:/LiteOS/LiteOS/targets/Cloud_FM33A0XX/GCC/../../../targets/Cloud_FM33A0XX/UserCode\neul_bc95.c ****     ret = neul_dev.ops->dev_read(neul_dev.rbuf, 32, 0, 200);
1334:e:/LiteOS/LiteOS/targets/Cloud_FM33A0XX/GCC/../../../targets/Cloud_FM33A0XX/UserCode\neul_bc95.c ****     if (ret <= 0)
1335:e:/LiteOS/LiteOS/targets/Cloud_FM33A0XX/GCC/../../../targets/Cloud_FM33A0XX/UserCode\neul_bc95.c ****     {
1336:e:/LiteOS/LiteOS/targets/Cloud_FM33A0XX/GCC/../../../targets/Cloud_FM33A0XX/UserCode\neul_bc95.c ****         //read bc95 read set return value info failed
1337:e:/LiteOS/LiteOS/targets/Cloud_FM33A0XX/GCC/../../../targets/Cloud_FM33A0XX/UserCode\neul_bc95.c ****         return -1;
ARM GAS  C:\Users\WANGBI~1\AppData\Local\Temp\ccSpmgug.s 			page 30


1338:e:/LiteOS/LiteOS/targets/Cloud_FM33A0XX/GCC/../../../targets/Cloud_FM33A0XX/UserCode\neul_bc95.c ****     }
1339:e:/LiteOS/LiteOS/targets/Cloud_FM33A0XX/GCC/../../../targets/Cloud_FM33A0XX/UserCode\neul_bc95.c ****     str = strstr(neul_dev.rbuf,"OK");
1340:e:/LiteOS/LiteOS/targets/Cloud_FM33A0XX/GCC/../../../targets/Cloud_FM33A0XX/UserCode\neul_bc95.c ****     if (!str)
1341:e:/LiteOS/LiteOS/targets/Cloud_FM33A0XX/GCC/../../../targets/Cloud_FM33A0XX/UserCode\neul_bc95.c ****     {
1342:e:/LiteOS/LiteOS/targets/Cloud_FM33A0XX/GCC/../../../targets/Cloud_FM33A0XX/UserCode\neul_bc95.c ****         return -1;
1343:e:/LiteOS/LiteOS/targets/Cloud_FM33A0XX/GCC/../../../targets/Cloud_FM33A0XX/UserCode\neul_bc95.c ****     }
1344:e:/LiteOS/LiteOS/targets/Cloud_FM33A0XX/GCC/../../../targets/Cloud_FM33A0XX/UserCode\neul_bc95.c ****     sscanf(neul_dev.rbuf, "%d\r%s",&socket, neul_bc95_tmpbuf);
1345:e:/LiteOS/LiteOS/targets/Cloud_FM33A0XX/GCC/../../../targets/Cloud_FM33A0XX/UserCode\neul_bc95.c ****     if (socket >= 0)
1346:e:/LiteOS/LiteOS/targets/Cloud_FM33A0XX/GCC/../../../targets/Cloud_FM33A0XX/UserCode\neul_bc95.c ****     {
1347:e:/LiteOS/LiteOS/targets/Cloud_FM33A0XX/GCC/../../../targets/Cloud_FM33A0XX/UserCode\neul_bc95.c ****         return socket;
1348:e:/LiteOS/LiteOS/targets/Cloud_FM33A0XX/GCC/../../../targets/Cloud_FM33A0XX/UserCode\neul_bc95.c ****     }
1349:e:/LiteOS/LiteOS/targets/Cloud_FM33A0XX/GCC/../../../targets/Cloud_FM33A0XX/UserCode\neul_bc95.c ****     return -1;
1350:e:/LiteOS/LiteOS/targets/Cloud_FM33A0XX/GCC/../../../targets/Cloud_FM33A0XX/UserCode\neul_bc95.c **** }
1351:e:/LiteOS/LiteOS/targets/Cloud_FM33A0XX/GCC/../../../targets/Cloud_FM33A0XX/UserCode\neul_bc95.c **** 
1352:e:/LiteOS/LiteOS/targets/Cloud_FM33A0XX/GCC/../../../targets/Cloud_FM33A0XX/UserCode\neul_bc95.c **** /* ============================================================
1353:e:/LiteOS/LiteOS/targets/Cloud_FM33A0XX/GCC/../../../targets/Cloud_FM33A0XX/UserCode\neul_bc95.c **** func name   :  neul_bc95_close_udpsocket
1354:e:/LiteOS/LiteOS/targets/Cloud_FM33A0XX/GCC/../../../targets/Cloud_FM33A0XX/UserCode\neul_bc95.c **** discription :  close udp socket 
1355:e:/LiteOS/LiteOS/targets/Cloud_FM33A0XX/GCC/../../../targets/Cloud_FM33A0XX/UserCode\neul_bc95.c ****                
1356:e:/LiteOS/LiteOS/targets/Cloud_FM33A0XX/GCC/../../../targets/Cloud_FM33A0XX/UserCode\neul_bc95.c **** param       :  socket @ input param , the socket handle that need close
1357:e:/LiteOS/LiteOS/targets/Cloud_FM33A0XX/GCC/../../../targets/Cloud_FM33A0XX/UserCode\neul_bc95.c **** return      :  0 close ok , !0 not ok
1358:e:/LiteOS/LiteOS/targets/Cloud_FM33A0XX/GCC/../../../targets/Cloud_FM33A0XX/UserCode\neul_bc95.c **** Revision    : 
1359:e:/LiteOS/LiteOS/targets/Cloud_FM33A0XX/GCC/../../../targets/Cloud_FM33A0XX/UserCode\neul_bc95.c **** =============================================================== */
1360:e:/LiteOS/LiteOS/targets/Cloud_FM33A0XX/GCC/../../../targets/Cloud_FM33A0XX/UserCode\neul_bc95.c **** int neul_bc95_close_udpsocket(int socket)
1361:e:/LiteOS/LiteOS/targets/Cloud_FM33A0XX/GCC/../../../targets/Cloud_FM33A0XX/UserCode\neul_bc95.c **** {
1362:e:/LiteOS/LiteOS/targets/Cloud_FM33A0XX/GCC/../../../targets/Cloud_FM33A0XX/UserCode\neul_bc95.c ****     char *cmd = "AT+NSOCL=";
1363:e:/LiteOS/LiteOS/targets/Cloud_FM33A0XX/GCC/../../../targets/Cloud_FM33A0XX/UserCode\neul_bc95.c ****     int ret = 0;
1364:e:/LiteOS/LiteOS/targets/Cloud_FM33A0XX/GCC/../../../targets/Cloud_FM33A0XX/UserCode\neul_bc95.c ****     char *str = NULL;
1365:e:/LiteOS/LiteOS/targets/Cloud_FM33A0XX/GCC/../../../targets/Cloud_FM33A0XX/UserCode\neul_bc95.c ****     
1366:e:/LiteOS/LiteOS/targets/Cloud_FM33A0XX/GCC/../../../targets/Cloud_FM33A0XX/UserCode\neul_bc95.c ****     memset(neul_dev.wbuf, 0, 64);
1367:e:/LiteOS/LiteOS/targets/Cloud_FM33A0XX/GCC/../../../targets/Cloud_FM33A0XX/UserCode\neul_bc95.c ****     sprintf(neul_dev.wbuf, "%s%d\r", cmd, socket);
1368:e:/LiteOS/LiteOS/targets/Cloud_FM33A0XX/GCC/../../../targets/Cloud_FM33A0XX/UserCode\neul_bc95.c ****     ret = neul_dev.ops->dev_write(neul_dev.wbuf, strlen(neul_dev.wbuf), 0);
1369:e:/LiteOS/LiteOS/targets/Cloud_FM33A0XX/GCC/../../../targets/Cloud_FM33A0XX/UserCode\neul_bc95.c ****     if (ret < 0)
1370:e:/LiteOS/LiteOS/targets/Cloud_FM33A0XX/GCC/../../../targets/Cloud_FM33A0XX/UserCode\neul_bc95.c ****     {
1371:e:/LiteOS/LiteOS/targets/Cloud_FM33A0XX/GCC/../../../targets/Cloud_FM33A0XX/UserCode\neul_bc95.c ****         //write data to bc95 failed
1372:e:/LiteOS/LiteOS/targets/Cloud_FM33A0XX/GCC/../../../targets/Cloud_FM33A0XX/UserCode\neul_bc95.c ****         return -1;
1373:e:/LiteOS/LiteOS/targets/Cloud_FM33A0XX/GCC/../../../targets/Cloud_FM33A0XX/UserCode\neul_bc95.c ****     }
1374:e:/LiteOS/LiteOS/targets/Cloud_FM33A0XX/GCC/../../../targets/Cloud_FM33A0XX/UserCode\neul_bc95.c ****     memset(neul_dev.rbuf, 0, 32);
1375:e:/LiteOS/LiteOS/targets/Cloud_FM33A0XX/GCC/../../../targets/Cloud_FM33A0XX/UserCode\neul_bc95.c ****     ret = neul_dev.ops->dev_read(neul_dev.rbuf, 32, 0, 200);
1376:e:/LiteOS/LiteOS/targets/Cloud_FM33A0XX/GCC/../../../targets/Cloud_FM33A0XX/UserCode\neul_bc95.c ****     if (ret <= 0)
1377:e:/LiteOS/LiteOS/targets/Cloud_FM33A0XX/GCC/../../../targets/Cloud_FM33A0XX/UserCode\neul_bc95.c ****     {
1378:e:/LiteOS/LiteOS/targets/Cloud_FM33A0XX/GCC/../../../targets/Cloud_FM33A0XX/UserCode\neul_bc95.c ****         //read bc95 read set return value info failed
1379:e:/LiteOS/LiteOS/targets/Cloud_FM33A0XX/GCC/../../../targets/Cloud_FM33A0XX/UserCode\neul_bc95.c ****         return -1;
1380:e:/LiteOS/LiteOS/targets/Cloud_FM33A0XX/GCC/../../../targets/Cloud_FM33A0XX/UserCode\neul_bc95.c ****     }
1381:e:/LiteOS/LiteOS/targets/Cloud_FM33A0XX/GCC/../../../targets/Cloud_FM33A0XX/UserCode\neul_bc95.c ****     str = strstr(neul_dev.rbuf,"OK");
1382:e:/LiteOS/LiteOS/targets/Cloud_FM33A0XX/GCC/../../../targets/Cloud_FM33A0XX/UserCode\neul_bc95.c ****     if (!str)
1383:e:/LiteOS/LiteOS/targets/Cloud_FM33A0XX/GCC/../../../targets/Cloud_FM33A0XX/UserCode\neul_bc95.c ****     {
1384:e:/LiteOS/LiteOS/targets/Cloud_FM33A0XX/GCC/../../../targets/Cloud_FM33A0XX/UserCode\neul_bc95.c ****         return -1;
1385:e:/LiteOS/LiteOS/targets/Cloud_FM33A0XX/GCC/../../../targets/Cloud_FM33A0XX/UserCode\neul_bc95.c ****     }
1386:e:/LiteOS/LiteOS/targets/Cloud_FM33A0XX/GCC/../../../targets/Cloud_FM33A0XX/UserCode\neul_bc95.c **** 
1387:e:/LiteOS/LiteOS/targets/Cloud_FM33A0XX/GCC/../../../targets/Cloud_FM33A0XX/UserCode\neul_bc95.c ****     neul_bc95_reset_upd_param(socket);
1388:e:/LiteOS/LiteOS/targets/Cloud_FM33A0XX/GCC/../../../targets/Cloud_FM33A0XX/UserCode\neul_bc95.c ****     
1389:e:/LiteOS/LiteOS/targets/Cloud_FM33A0XX/GCC/../../../targets/Cloud_FM33A0XX/UserCode\neul_bc95.c ****     return 0;
1390:e:/LiteOS/LiteOS/targets/Cloud_FM33A0XX/GCC/../../../targets/Cloud_FM33A0XX/UserCode\neul_bc95.c **** }
1391:e:/LiteOS/LiteOS/targets/Cloud_FM33A0XX/GCC/../../../targets/Cloud_FM33A0XX/UserCode\neul_bc95.c **** 
1392:e:/LiteOS/LiteOS/targets/Cloud_FM33A0XX/GCC/../../../targets/Cloud_FM33A0XX/UserCode\neul_bc95.c **** /* ============================================================
1393:e:/LiteOS/LiteOS/targets/Cloud_FM33A0XX/GCC/../../../targets/Cloud_FM33A0XX/UserCode\neul_bc95.c **** func name   :  neul_bc95_socket_config_remoteinfo
1394:e:/LiteOS/LiteOS/targets/Cloud_FM33A0XX/GCC/../../../targets/Cloud_FM33A0XX/UserCode\neul_bc95.c **** discription :  set remote address info that socket will send data to 
ARM GAS  C:\Users\WANGBI~1\AppData\Local\Temp\ccSpmgug.s 			page 31


1395:e:/LiteOS/LiteOS/targets/Cloud_FM33A0XX/GCC/../../../targets/Cloud_FM33A0XX/UserCode\neul_bc95.c ****                
1396:e:/LiteOS/LiteOS/targets/Cloud_FM33A0XX/GCC/../../../targets/Cloud_FM33A0XX/UserCode\neul_bc95.c **** param       :  socket @ input param , the socket handle that need close
1397:e:/LiteOS/LiteOS/targets/Cloud_FM33A0XX/GCC/../../../targets/Cloud_FM33A0XX/UserCode\neul_bc95.c **** return      :  0 set ok , !0 not ok
1398:e:/LiteOS/LiteOS/targets/Cloud_FM33A0XX/GCC/../../../targets/Cloud_FM33A0XX/UserCode\neul_bc95.c **** Revision    : 
1399:e:/LiteOS/LiteOS/targets/Cloud_FM33A0XX/GCC/../../../targets/Cloud_FM33A0XX/UserCode\neul_bc95.c **** =============================================================== */
1400:e:/LiteOS/LiteOS/targets/Cloud_FM33A0XX/GCC/../../../targets/Cloud_FM33A0XX/UserCode\neul_bc95.c **** int neul_bc95_socket_config_remoteinfo(int socket, const char *remoteip, unsigned short port)
1401:e:/LiteOS/LiteOS/targets/Cloud_FM33A0XX/GCC/../../../targets/Cloud_FM33A0XX/UserCode\neul_bc95.c **** {
1402:e:/LiteOS/LiteOS/targets/Cloud_FM33A0XX/GCC/../../../targets/Cloud_FM33A0XX/UserCode\neul_bc95.c ****     int ret = 0;
1403:e:/LiteOS/LiteOS/targets/Cloud_FM33A0XX/GCC/../../../targets/Cloud_FM33A0XX/UserCode\neul_bc95.c ****     if (socket < 0 || NULL == remoteip || port == 0)
1404:e:/LiteOS/LiteOS/targets/Cloud_FM33A0XX/GCC/../../../targets/Cloud_FM33A0XX/UserCode\neul_bc95.c ****     {
1405:e:/LiteOS/LiteOS/targets/Cloud_FM33A0XX/GCC/../../../targets/Cloud_FM33A0XX/UserCode\neul_bc95.c ****         return -1;
1406:e:/LiteOS/LiteOS/targets/Cloud_FM33A0XX/GCC/../../../targets/Cloud_FM33A0XX/UserCode\neul_bc95.c ****     }
1407:e:/LiteOS/LiteOS/targets/Cloud_FM33A0XX/GCC/../../../targets/Cloud_FM33A0XX/UserCode\neul_bc95.c ****     ret = neul_bc95_set_upd_param(remoteip, port, socket);
1408:e:/LiteOS/LiteOS/targets/Cloud_FM33A0XX/GCC/../../../targets/Cloud_FM33A0XX/UserCode\neul_bc95.c ****     return ret;
1409:e:/LiteOS/LiteOS/targets/Cloud_FM33A0XX/GCC/../../../targets/Cloud_FM33A0XX/UserCode\neul_bc95.c **** }
1410:e:/LiteOS/LiteOS/targets/Cloud_FM33A0XX/GCC/../../../targets/Cloud_FM33A0XX/UserCode\neul_bc95.c **** 
1411:e:/LiteOS/LiteOS/targets/Cloud_FM33A0XX/GCC/../../../targets/Cloud_FM33A0XX/UserCode\neul_bc95.c **** /* ============================================================
1412:e:/LiteOS/LiteOS/targets/Cloud_FM33A0XX/GCC/../../../targets/Cloud_FM33A0XX/UserCode\neul_bc95.c **** func name   :  neul_bc95_udp_send
1413:e:/LiteOS/LiteOS/targets/Cloud_FM33A0XX/GCC/../../../targets/Cloud_FM33A0XX/UserCode\neul_bc95.c **** discription :  send data to socket 
1414:e:/LiteOS/LiteOS/targets/Cloud_FM33A0XX/GCC/../../../targets/Cloud_FM33A0XX/UserCode\neul_bc95.c ****                
1415:e:/LiteOS/LiteOS/targets/Cloud_FM33A0XX/GCC/../../../targets/Cloud_FM33A0XX/UserCode\neul_bc95.c **** param       :  socket @ input param , the data will send to this socket
1416:e:/LiteOS/LiteOS/targets/Cloud_FM33A0XX/GCC/../../../targets/Cloud_FM33A0XX/UserCode\neul_bc95.c ****                buf @ input param, the data buf
1417:e:/LiteOS/LiteOS/targets/Cloud_FM33A0XX/GCC/../../../targets/Cloud_FM33A0XX/UserCode\neul_bc95.c ****                sendlen @ input param, the send data length
1418:e:/LiteOS/LiteOS/targets/Cloud_FM33A0XX/GCC/../../../targets/Cloud_FM33A0XX/UserCode\neul_bc95.c **** return      :  0 send data ok , !0 not ok
1419:e:/LiteOS/LiteOS/targets/Cloud_FM33A0XX/GCC/../../../targets/Cloud_FM33A0XX/UserCode\neul_bc95.c **** Revision    : 
1420:e:/LiteOS/LiteOS/targets/Cloud_FM33A0XX/GCC/../../../targets/Cloud_FM33A0XX/UserCode\neul_bc95.c **** =============================================================== */
1421:e:/LiteOS/LiteOS/targets/Cloud_FM33A0XX/GCC/../../../targets/Cloud_FM33A0XX/UserCode\neul_bc95.c **** int neul_bc95_udp_send(int socket, const char *buf, int sendlen)
1422:e:/LiteOS/LiteOS/targets/Cloud_FM33A0XX/GCC/../../../targets/Cloud_FM33A0XX/UserCode\neul_bc95.c **** {
1423:e:/LiteOS/LiteOS/targets/Cloud_FM33A0XX/GCC/../../../targets/Cloud_FM33A0XX/UserCode\neul_bc95.c ****     //AT+NSOST=0,192.53.100.53,5683,25,400241C7B17401724D0265703D323031363038323331363438
1424:e:/LiteOS/LiteOS/targets/Cloud_FM33A0XX/GCC/../../../targets/Cloud_FM33A0XX/UserCode\neul_bc95.c ****     char *cmd = "AT+NSOST=";
1425:e:/LiteOS/LiteOS/targets/Cloud_FM33A0XX/GCC/../../../targets/Cloud_FM33A0XX/UserCode\neul_bc95.c ****     int ret = 0;
1426:e:/LiteOS/LiteOS/targets/Cloud_FM33A0XX/GCC/../../../targets/Cloud_FM33A0XX/UserCode\neul_bc95.c ****     char *str = NULL;
1427:e:/LiteOS/LiteOS/targets/Cloud_FM33A0XX/GCC/../../../targets/Cloud_FM33A0XX/UserCode\neul_bc95.c ****     
1428:e:/LiteOS/LiteOS/targets/Cloud_FM33A0XX/GCC/../../../targets/Cloud_FM33A0XX/UserCode\neul_bc95.c ****     sscanf(neul_dev.rbuf, "%d\r%s",&socket, neul_bc95_tmpbuf);
1429:e:/LiteOS/LiteOS/targets/Cloud_FM33A0XX/GCC/../../../targets/Cloud_FM33A0XX/UserCode\neul_bc95.c ****     if (socket < 0 || NULL == buf || 0 == sendlen)
1430:e:/LiteOS/LiteOS/targets/Cloud_FM33A0XX/GCC/../../../targets/Cloud_FM33A0XX/UserCode\neul_bc95.c ****     {
1431:e:/LiteOS/LiteOS/targets/Cloud_FM33A0XX/GCC/../../../targets/Cloud_FM33A0XX/UserCode\neul_bc95.c ****         return -1;
1432:e:/LiteOS/LiteOS/targets/Cloud_FM33A0XX/GCC/../../../targets/Cloud_FM33A0XX/UserCode\neul_bc95.c ****     }
1433:e:/LiteOS/LiteOS/targets/Cloud_FM33A0XX/GCC/../../../targets/Cloud_FM33A0XX/UserCode\neul_bc95.c ****     
1434:e:/LiteOS/LiteOS/targets/Cloud_FM33A0XX/GCC/../../../targets/Cloud_FM33A0XX/UserCode\neul_bc95.c ****     memset(neul_dev.wbuf, 0, NEUL_MAX_BUF_SIZE);
1435:e:/LiteOS/LiteOS/targets/Cloud_FM33A0XX/GCC/../../../targets/Cloud_FM33A0XX/UserCode\neul_bc95.c ****     memset(neul_bc95_tmpbuf, 0, NEUL_MAX_BUF_SIZE);
1436:e:/LiteOS/LiteOS/targets/Cloud_FM33A0XX/GCC/../../../targets/Cloud_FM33A0XX/UserCode\neul_bc95.c ****     neul_bc95_hex_to_str((const char *)buf, sendlen, neul_bc95_tmpbuf);
1437:e:/LiteOS/LiteOS/targets/Cloud_FM33A0XX/GCC/../../../targets/Cloud_FM33A0XX/UserCode\neul_bc95.c ****     sprintf(neul_dev.wbuf, "%s%d,%s,%d,%d,%s\r", cmd, socket,
1438:e:/LiteOS/LiteOS/targets/Cloud_FM33A0XX/GCC/../../../targets/Cloud_FM33A0XX/UserCode\neul_bc95.c ****             (neul_dev.addrinfo+socket)->ip,
1439:e:/LiteOS/LiteOS/targets/Cloud_FM33A0XX/GCC/../../../targets/Cloud_FM33A0XX/UserCode\neul_bc95.c ****             (neul_dev.addrinfo+socket)->port,
1440:e:/LiteOS/LiteOS/targets/Cloud_FM33A0XX/GCC/../../../targets/Cloud_FM33A0XX/UserCode\neul_bc95.c ****             sendlen,
1441:e:/LiteOS/LiteOS/targets/Cloud_FM33A0XX/GCC/../../../targets/Cloud_FM33A0XX/UserCode\neul_bc95.c ****             neul_bc95_tmpbuf);
1442:e:/LiteOS/LiteOS/targets/Cloud_FM33A0XX/GCC/../../../targets/Cloud_FM33A0XX/UserCode\neul_bc95.c ****     ret = neul_dev.ops->dev_write(neul_dev.wbuf, strlen(neul_dev.wbuf), 0);
1443:e:/LiteOS/LiteOS/targets/Cloud_FM33A0XX/GCC/../../../targets/Cloud_FM33A0XX/UserCode\neul_bc95.c ****     if (ret < 0)
1444:e:/LiteOS/LiteOS/targets/Cloud_FM33A0XX/GCC/../../../targets/Cloud_FM33A0XX/UserCode\neul_bc95.c ****     {
1445:e:/LiteOS/LiteOS/targets/Cloud_FM33A0XX/GCC/../../../targets/Cloud_FM33A0XX/UserCode\neul_bc95.c ****         //write data to bc95 failed
1446:e:/LiteOS/LiteOS/targets/Cloud_FM33A0XX/GCC/../../../targets/Cloud_FM33A0XX/UserCode\neul_bc95.c ****         return -1;
1447:e:/LiteOS/LiteOS/targets/Cloud_FM33A0XX/GCC/../../../targets/Cloud_FM33A0XX/UserCode\neul_bc95.c ****     }
1448:e:/LiteOS/LiteOS/targets/Cloud_FM33A0XX/GCC/../../../targets/Cloud_FM33A0XX/UserCode\neul_bc95.c ****     memset(neul_dev.rbuf, 0, 32);
1449:e:/LiteOS/LiteOS/targets/Cloud_FM33A0XX/GCC/../../../targets/Cloud_FM33A0XX/UserCode\neul_bc95.c ****     ret = neul_dev.ops->dev_read(neul_dev.rbuf, 32, 0, 200);
1450:e:/LiteOS/LiteOS/targets/Cloud_FM33A0XX/GCC/../../../targets/Cloud_FM33A0XX/UserCode\neul_bc95.c ****     if (ret <= 0)
1451:e:/LiteOS/LiteOS/targets/Cloud_FM33A0XX/GCC/../../../targets/Cloud_FM33A0XX/UserCode\neul_bc95.c ****     {
ARM GAS  C:\Users\WANGBI~1\AppData\Local\Temp\ccSpmgug.s 			page 32


1452:e:/LiteOS/LiteOS/targets/Cloud_FM33A0XX/GCC/../../../targets/Cloud_FM33A0XX/UserCode\neul_bc95.c ****         //read bc95 read set return value info failed
1453:e:/LiteOS/LiteOS/targets/Cloud_FM33A0XX/GCC/../../../targets/Cloud_FM33A0XX/UserCode\neul_bc95.c ****         return -1;
1454:e:/LiteOS/LiteOS/targets/Cloud_FM33A0XX/GCC/../../../targets/Cloud_FM33A0XX/UserCode\neul_bc95.c ****     }
1455:e:/LiteOS/LiteOS/targets/Cloud_FM33A0XX/GCC/../../../targets/Cloud_FM33A0XX/UserCode\neul_bc95.c ****     str = strstr(neul_dev.rbuf,"OK");
1456:e:/LiteOS/LiteOS/targets/Cloud_FM33A0XX/GCC/../../../targets/Cloud_FM33A0XX/UserCode\neul_bc95.c ****     if (!str)
1457:e:/LiteOS/LiteOS/targets/Cloud_FM33A0XX/GCC/../../../targets/Cloud_FM33A0XX/UserCode\neul_bc95.c ****     {
1458:e:/LiteOS/LiteOS/targets/Cloud_FM33A0XX/GCC/../../../targets/Cloud_FM33A0XX/UserCode\neul_bc95.c ****         return -1;
1459:e:/LiteOS/LiteOS/targets/Cloud_FM33A0XX/GCC/../../../targets/Cloud_FM33A0XX/UserCode\neul_bc95.c ****     }
1460:e:/LiteOS/LiteOS/targets/Cloud_FM33A0XX/GCC/../../../targets/Cloud_FM33A0XX/UserCode\neul_bc95.c ****     return 0;
1461:e:/LiteOS/LiteOS/targets/Cloud_FM33A0XX/GCC/../../../targets/Cloud_FM33A0XX/UserCode\neul_bc95.c **** }
1462:e:/LiteOS/LiteOS/targets/Cloud_FM33A0XX/GCC/../../../targets/Cloud_FM33A0XX/UserCode\neul_bc95.c **** 
1463:e:/LiteOS/LiteOS/targets/Cloud_FM33A0XX/GCC/../../../targets/Cloud_FM33A0XX/UserCode\neul_bc95.c **** /* ============================================================
1464:e:/LiteOS/LiteOS/targets/Cloud_FM33A0XX/GCC/../../../targets/Cloud_FM33A0XX/UserCode\neul_bc95.c **** func name   :  neul_bc95_udp_read
1465:e:/LiteOS/LiteOS/targets/Cloud_FM33A0XX/GCC/../../../targets/Cloud_FM33A0XX/UserCode\neul_bc95.c **** discription :  read data from socket 
1466:e:/LiteOS/LiteOS/targets/Cloud_FM33A0XX/GCC/../../../targets/Cloud_FM33A0XX/UserCode\neul_bc95.c ****                
1467:e:/LiteOS/LiteOS/targets/Cloud_FM33A0XX/GCC/../../../targets/Cloud_FM33A0XX/UserCode\neul_bc95.c **** param       :  socket @ input param , the data will read from this socket
1468:e:/LiteOS/LiteOS/targets/Cloud_FM33A0XX/GCC/../../../targets/Cloud_FM33A0XX/UserCode\neul_bc95.c ****                buf @ out param, store the data read
1469:e:/LiteOS/LiteOS/targets/Cloud_FM33A0XX/GCC/../../../targets/Cloud_FM33A0XX/UserCode\neul_bc95.c ****                maxrlen @ input param, the max read data length
1470:e:/LiteOS/LiteOS/targets/Cloud_FM33A0XX/GCC/../../../targets/Cloud_FM33A0XX/UserCode\neul_bc95.c **** return      :  >0 read data length , <0 not ok
1471:e:/LiteOS/LiteOS/targets/Cloud_FM33A0XX/GCC/../../../targets/Cloud_FM33A0XX/UserCode\neul_bc95.c **** Revision    : 
1472:e:/LiteOS/LiteOS/targets/Cloud_FM33A0XX/GCC/../../../targets/Cloud_FM33A0XX/UserCode\neul_bc95.c **** =============================================================== */
1473:e:/LiteOS/LiteOS/targets/Cloud_FM33A0XX/GCC/../../../targets/Cloud_FM33A0XX/UserCode\neul_bc95.c **** int neul_bc95_udp_read(int socket,char *buf, int maxrlen, int mode)
1474:e:/LiteOS/LiteOS/targets/Cloud_FM33A0XX/GCC/../../../targets/Cloud_FM33A0XX/UserCode\neul_bc95.c **** {
1475:e:/LiteOS/LiteOS/targets/Cloud_FM33A0XX/GCC/../../../targets/Cloud_FM33A0XX/UserCode\neul_bc95.c ****     //AT+NSORF=0,4 
1476:e:/LiteOS/LiteOS/targets/Cloud_FM33A0XX/GCC/../../../targets/Cloud_FM33A0XX/UserCode\neul_bc95.c ****     char *cmd = "AT+NSORF=";
1477:e:/LiteOS/LiteOS/targets/Cloud_FM33A0XX/GCC/../../../targets/Cloud_FM33A0XX/UserCode\neul_bc95.c ****     int ret = 0;
1478:e:/LiteOS/LiteOS/targets/Cloud_FM33A0XX/GCC/../../../targets/Cloud_FM33A0XX/UserCode\neul_bc95.c ****     char *str = NULL;
1479:e:/LiteOS/LiteOS/targets/Cloud_FM33A0XX/GCC/../../../targets/Cloud_FM33A0XX/UserCode\neul_bc95.c ****     int rlen = 0;
1480:e:/LiteOS/LiteOS/targets/Cloud_FM33A0XX/GCC/../../../targets/Cloud_FM33A0XX/UserCode\neul_bc95.c ****     int rskt = -1;
1481:e:/LiteOS/LiteOS/targets/Cloud_FM33A0XX/GCC/../../../targets/Cloud_FM33A0XX/UserCode\neul_bc95.c ****     int port = 0;
1482:e:/LiteOS/LiteOS/targets/Cloud_FM33A0XX/GCC/../../../targets/Cloud_FM33A0XX/UserCode\neul_bc95.c ****     int readleft = 0;
1483:e:/LiteOS/LiteOS/targets/Cloud_FM33A0XX/GCC/../../../targets/Cloud_FM33A0XX/UserCode\neul_bc95.c **** 
1484:e:/LiteOS/LiteOS/targets/Cloud_FM33A0XX/GCC/../../../targets/Cloud_FM33A0XX/UserCode\neul_bc95.c ****     if (socket < 0 || NULL == buf || maxrlen <= 0)
1485:e:/LiteOS/LiteOS/targets/Cloud_FM33A0XX/GCC/../../../targets/Cloud_FM33A0XX/UserCode\neul_bc95.c ****     {
1486:e:/LiteOS/LiteOS/targets/Cloud_FM33A0XX/GCC/../../../targets/Cloud_FM33A0XX/UserCode\neul_bc95.c ****         return -1;
1487:e:/LiteOS/LiteOS/targets/Cloud_FM33A0XX/GCC/../../../targets/Cloud_FM33A0XX/UserCode\neul_bc95.c ****     }
1488:e:/LiteOS/LiteOS/targets/Cloud_FM33A0XX/GCC/../../../targets/Cloud_FM33A0XX/UserCode\neul_bc95.c ****     memset(neul_dev.rbuf, 0, 100);
1489:e:/LiteOS/LiteOS/targets/Cloud_FM33A0XX/GCC/../../../targets/Cloud_FM33A0XX/UserCode\neul_bc95.c ****     ret = neul_dev.ops->dev_read(neul_dev.rbuf, 100, 0, 200);		
1490:e:/LiteOS/LiteOS/targets/Cloud_FM33A0XX/GCC/../../../targets/Cloud_FM33A0XX/UserCode\neul_bc95.c **** 		sscanf(neul_dev.rbuf,"\r+NSONMI:0,%d\r",&rlen);
1491:e:/LiteOS/LiteOS/targets/Cloud_FM33A0XX/GCC/../../../targets/Cloud_FM33A0XX/UserCode\neul_bc95.c **** 		
1492:e:/LiteOS/LiteOS/targets/Cloud_FM33A0XX/GCC/../../../targets/Cloud_FM33A0XX/UserCode\neul_bc95.c ****     sprintf(neul_dev.wbuf, "%s%d,%d\r", cmd, socket, maxrlen);
1493:e:/LiteOS/LiteOS/targets/Cloud_FM33A0XX/GCC/../../../targets/Cloud_FM33A0XX/UserCode\neul_bc95.c ****     ret = neul_dev.ops->dev_write(neul_dev.wbuf, strlen(neul_dev.wbuf), 0);
1494:e:/LiteOS/LiteOS/targets/Cloud_FM33A0XX/GCC/../../../targets/Cloud_FM33A0XX/UserCode\neul_bc95.c ****     if (ret < 0)
1495:e:/LiteOS/LiteOS/targets/Cloud_FM33A0XX/GCC/../../../targets/Cloud_FM33A0XX/UserCode\neul_bc95.c ****     {
1496:e:/LiteOS/LiteOS/targets/Cloud_FM33A0XX/GCC/../../../targets/Cloud_FM33A0XX/UserCode\neul_bc95.c ****         //write data to bc95 failed
1497:e:/LiteOS/LiteOS/targets/Cloud_FM33A0XX/GCC/../../../targets/Cloud_FM33A0XX/UserCode\neul_bc95.c ****         return -1;
1498:e:/LiteOS/LiteOS/targets/Cloud_FM33A0XX/GCC/../../../targets/Cloud_FM33A0XX/UserCode\neul_bc95.c ****     }
1499:e:/LiteOS/LiteOS/targets/Cloud_FM33A0XX/GCC/../../../targets/Cloud_FM33A0XX/UserCode\neul_bc95.c ****     memset(neul_dev.rbuf, 0, 200);
1500:e:/LiteOS/LiteOS/targets/Cloud_FM33A0XX/GCC/../../../targets/Cloud_FM33A0XX/UserCode\neul_bc95.c ****     ret = neul_dev.ops->dev_read(neul_dev.rbuf, 200, 0, 200);
1501:e:/LiteOS/LiteOS/targets/Cloud_FM33A0XX/GCC/../../../targets/Cloud_FM33A0XX/UserCode\neul_bc95.c ****     if (ret <= 0)
1502:e:/LiteOS/LiteOS/targets/Cloud_FM33A0XX/GCC/../../../targets/Cloud_FM33A0XX/UserCode\neul_bc95.c ****     {
1503:e:/LiteOS/LiteOS/targets/Cloud_FM33A0XX/GCC/../../../targets/Cloud_FM33A0XX/UserCode\neul_bc95.c ****         //read bc95 read set return value info failed
1504:e:/LiteOS/LiteOS/targets/Cloud_FM33A0XX/GCC/../../../targets/Cloud_FM33A0XX/UserCode\neul_bc95.c ****         return -1;
1505:e:/LiteOS/LiteOS/targets/Cloud_FM33A0XX/GCC/../../../targets/Cloud_FM33A0XX/UserCode\neul_bc95.c ****     }
1506:e:/LiteOS/LiteOS/targets/Cloud_FM33A0XX/GCC/../../../targets/Cloud_FM33A0XX/UserCode\neul_bc95.c ****     str = strstr(neul_dev.rbuf,"OK");
1507:e:/LiteOS/LiteOS/targets/Cloud_FM33A0XX/GCC/../../../targets/Cloud_FM33A0XX/UserCode\neul_bc95.c ****     if (!str)
1508:e:/LiteOS/LiteOS/targets/Cloud_FM33A0XX/GCC/../../../targets/Cloud_FM33A0XX/UserCode\neul_bc95.c ****     {
ARM GAS  C:\Users\WANGBI~1\AppData\Local\Temp\ccSpmgug.s 			page 33


1509:e:/LiteOS/LiteOS/targets/Cloud_FM33A0XX/GCC/../../../targets/Cloud_FM33A0XX/UserCode\neul_bc95.c ****         return -1;
1510:e:/LiteOS/LiteOS/targets/Cloud_FM33A0XX/GCC/../../../targets/Cloud_FM33A0XX/UserCode\neul_bc95.c ****     }
1511:e:/LiteOS/LiteOS/targets/Cloud_FM33A0XX/GCC/../../../targets/Cloud_FM33A0XX/UserCode\neul_bc95.c ****     sscanf(neul_dev.rbuf, "\r%d,%s,%d,%d,%s,%d\r%s", &rskt,
1512:e:/LiteOS/LiteOS/targets/Cloud_FM33A0XX/GCC/../../../targets/Cloud_FM33A0XX/UserCode\neul_bc95.c ****                             neul_bc95_tmpbuf,
1513:e:/LiteOS/LiteOS/targets/Cloud_FM33A0XX/GCC/../../../targets/Cloud_FM33A0XX/UserCode\neul_bc95.c ****                             &port,
1514:e:/LiteOS/LiteOS/targets/Cloud_FM33A0XX/GCC/../../../targets/Cloud_FM33A0XX/UserCode\neul_bc95.c ****                             &rlen,
1515:e:/LiteOS/LiteOS/targets/Cloud_FM33A0XX/GCC/../../../targets/Cloud_FM33A0XX/UserCode\neul_bc95.c ****                             neul_bc95_tmpbuf+22,
1516:e:/LiteOS/LiteOS/targets/Cloud_FM33A0XX/GCC/../../../targets/Cloud_FM33A0XX/UserCode\neul_bc95.c ****                             &readleft,
1517:e:/LiteOS/LiteOS/targets/Cloud_FM33A0XX/GCC/../../../targets/Cloud_FM33A0XX/UserCode\neul_bc95.c **** 		                        neul_dev.wbuf);
1518:e:/LiteOS/LiteOS/targets/Cloud_FM33A0XX/GCC/../../../targets/Cloud_FM33A0XX/UserCode\neul_bc95.c ****   	printf("neul_dev.rbuf:%s\n",neul_dev.rbuf);	
1519:e:/LiteOS/LiteOS/targets/Cloud_FM33A0XX/GCC/../../../targets/Cloud_FM33A0XX/UserCode\neul_bc95.c ****     if (rlen>0)
1520:e:/LiteOS/LiteOS/targets/Cloud_FM33A0XX/GCC/../../../targets/Cloud_FM33A0XX/UserCode\neul_bc95.c ****     {
1521:e:/LiteOS/LiteOS/targets/Cloud_FM33A0XX/GCC/../../../targets/Cloud_FM33A0XX/UserCode\neul_bc95.c ****         neul_bc95_str_to_hex((const unsigned char *)(neul_bc95_tmpbuf+22),rlen*2, buf);
1522:e:/LiteOS/LiteOS/targets/Cloud_FM33A0XX/GCC/../../../targets/Cloud_FM33A0XX/UserCode\neul_bc95.c ****     }
1523:e:/LiteOS/LiteOS/targets/Cloud_FM33A0XX/GCC/../../../targets/Cloud_FM33A0XX/UserCode\neul_bc95.c **** 	
1524:e:/LiteOS/LiteOS/targets/Cloud_FM33A0XX/GCC/../../../targets/Cloud_FM33A0XX/UserCode\neul_bc95.c ****     return rlen;
1525:e:/LiteOS/LiteOS/targets/Cloud_FM33A0XX/GCC/../../../targets/Cloud_FM33A0XX/UserCode\neul_bc95.c **** }
1526:e:/LiteOS/LiteOS/targets/Cloud_FM33A0XX/GCC/../../../targets/Cloud_FM33A0XX/UserCode\neul_bc95.c **** 
1527:e:/LiteOS/LiteOS/targets/Cloud_FM33A0XX/GCC/../../../targets/Cloud_FM33A0XX/UserCode\neul_bc95.c **** /* ============================================================
1528:e:/LiteOS/LiteOS/targets/Cloud_FM33A0XX/GCC/../../../targets/Cloud_FM33A0XX/UserCode\neul_bc95.c **** func name   :  neul_bc95_set_auto_connect
1529:e:/LiteOS/LiteOS/targets/Cloud_FM33A0XX/GCC/../../../targets/Cloud_FM33A0XX/UserCode\neul_bc95.c **** discription :  set bc95 module auto connect network
1530:e:/LiteOS/LiteOS/targets/Cloud_FM33A0XX/GCC/../../../targets/Cloud_FM33A0XX/UserCode\neul_bc95.c ****                
1531:e:/LiteOS/LiteOS/targets/Cloud_FM33A0XX/GCC/../../../targets/Cloud_FM33A0XX/UserCode\neul_bc95.c **** param       :  None
1532:e:/LiteOS/LiteOS/targets/Cloud_FM33A0XX/GCC/../../../targets/Cloud_FM33A0XX/UserCode\neul_bc95.c **** return      :  0 set ok , !0 not ok
1533:e:/LiteOS/LiteOS/targets/Cloud_FM33A0XX/GCC/../../../targets/Cloud_FM33A0XX/UserCode\neul_bc95.c **** Revision    : 
1534:e:/LiteOS/LiteOS/targets/Cloud_FM33A0XX/GCC/../../../targets/Cloud_FM33A0XX/UserCode\neul_bc95.c **** =============================================================== */
1535:e:/LiteOS/LiteOS/targets/Cloud_FM33A0XX/GCC/../../../targets/Cloud_FM33A0XX/UserCode\neul_bc95.c **** int neul_bc95_set_auto_connect(int flag)
1536:e:/LiteOS/LiteOS/targets/Cloud_FM33A0XX/GCC/../../../targets/Cloud_FM33A0XX/UserCode\neul_bc95.c **** {
1537:e:/LiteOS/LiteOS/targets/Cloud_FM33A0XX/GCC/../../../targets/Cloud_FM33A0XX/UserCode\neul_bc95.c ****     int ret = 0;
1538:e:/LiteOS/LiteOS/targets/Cloud_FM33A0XX/GCC/../../../targets/Cloud_FM33A0XX/UserCode\neul_bc95.c ****     char *str = NULL;
1539:e:/LiteOS/LiteOS/targets/Cloud_FM33A0XX/GCC/../../../targets/Cloud_FM33A0XX/UserCode\neul_bc95.c ****     char *p1 = "AT+NCONFIG=AUTOCONNECT,TRUE\r";
1540:e:/LiteOS/LiteOS/targets/Cloud_FM33A0XX/GCC/../../../targets/Cloud_FM33A0XX/UserCode\neul_bc95.c ****     char *p2 = "AT+NCONFIG=AUTOCONNECT,FALSE\r";
1541:e:/LiteOS/LiteOS/targets/Cloud_FM33A0XX/GCC/../../../targets/Cloud_FM33A0XX/UserCode\neul_bc95.c **** 
1542:e:/LiteOS/LiteOS/targets/Cloud_FM33A0XX/GCC/../../../targets/Cloud_FM33A0XX/UserCode\neul_bc95.c ****     if (flag)
1543:e:/LiteOS/LiteOS/targets/Cloud_FM33A0XX/GCC/../../../targets/Cloud_FM33A0XX/UserCode\neul_bc95.c ****     {
1544:e:/LiteOS/LiteOS/targets/Cloud_FM33A0XX/GCC/../../../targets/Cloud_FM33A0XX/UserCode\neul_bc95.c ****         //set auto connect
1545:e:/LiteOS/LiteOS/targets/Cloud_FM33A0XX/GCC/../../../targets/Cloud_FM33A0XX/UserCode\neul_bc95.c ****         ret = neul_dev.ops->dev_write(p1, strlen(p1), 0);
1546:e:/LiteOS/LiteOS/targets/Cloud_FM33A0XX/GCC/../../../targets/Cloud_FM33A0XX/UserCode\neul_bc95.c ****     }
1547:e:/LiteOS/LiteOS/targets/Cloud_FM33A0XX/GCC/../../../targets/Cloud_FM33A0XX/UserCode\neul_bc95.c ****     else
1548:e:/LiteOS/LiteOS/targets/Cloud_FM33A0XX/GCC/../../../targets/Cloud_FM33A0XX/UserCode\neul_bc95.c ****     {
1549:e:/LiteOS/LiteOS/targets/Cloud_FM33A0XX/GCC/../../../targets/Cloud_FM33A0XX/UserCode\neul_bc95.c ****         //not auto connect
1550:e:/LiteOS/LiteOS/targets/Cloud_FM33A0XX/GCC/../../../targets/Cloud_FM33A0XX/UserCode\neul_bc95.c ****         ret = neul_dev.ops->dev_write(p2, strlen(p2), 0);
1551:e:/LiteOS/LiteOS/targets/Cloud_FM33A0XX/GCC/../../../targets/Cloud_FM33A0XX/UserCode\neul_bc95.c ****     }
1552:e:/LiteOS/LiteOS/targets/Cloud_FM33A0XX/GCC/../../../targets/Cloud_FM33A0XX/UserCode\neul_bc95.c ****     memset(neul_dev.rbuf, 0, 32);
1553:e:/LiteOS/LiteOS/targets/Cloud_FM33A0XX/GCC/../../../targets/Cloud_FM33A0XX/UserCode\neul_bc95.c ****     ret = neul_dev.ops->dev_read(neul_dev.rbuf, 32, 0, 300);
1554:e:/LiteOS/LiteOS/targets/Cloud_FM33A0XX/GCC/../../../targets/Cloud_FM33A0XX/UserCode\neul_bc95.c ****     if (ret <= 0)
1555:e:/LiteOS/LiteOS/targets/Cloud_FM33A0XX/GCC/../../../targets/Cloud_FM33A0XX/UserCode\neul_bc95.c ****     {
1556:e:/LiteOS/LiteOS/targets/Cloud_FM33A0XX/GCC/../../../targets/Cloud_FM33A0XX/UserCode\neul_bc95.c ****         //read bc95 read set return value info failed
1557:e:/LiteOS/LiteOS/targets/Cloud_FM33A0XX/GCC/../../../targets/Cloud_FM33A0XX/UserCode\neul_bc95.c ****         return -1;
1558:e:/LiteOS/LiteOS/targets/Cloud_FM33A0XX/GCC/../../../targets/Cloud_FM33A0XX/UserCode\neul_bc95.c ****     }
1559:e:/LiteOS/LiteOS/targets/Cloud_FM33A0XX/GCC/../../../targets/Cloud_FM33A0XX/UserCode\neul_bc95.c ****     str = strstr(neul_dev.rbuf,"OK");
1560:e:/LiteOS/LiteOS/targets/Cloud_FM33A0XX/GCC/../../../targets/Cloud_FM33A0XX/UserCode\neul_bc95.c ****     if (!str)
1561:e:/LiteOS/LiteOS/targets/Cloud_FM33A0XX/GCC/../../../targets/Cloud_FM33A0XX/UserCode\neul_bc95.c ****     {
1562:e:/LiteOS/LiteOS/targets/Cloud_FM33A0XX/GCC/../../../targets/Cloud_FM33A0XX/UserCode\neul_bc95.c ****         return -1;
1563:e:/LiteOS/LiteOS/targets/Cloud_FM33A0XX/GCC/../../../targets/Cloud_FM33A0XX/UserCode\neul_bc95.c ****     }
1564:e:/LiteOS/LiteOS/targets/Cloud_FM33A0XX/GCC/../../../targets/Cloud_FM33A0XX/UserCode\neul_bc95.c ****     return 0;
1565:e:/LiteOS/LiteOS/targets/Cloud_FM33A0XX/GCC/../../../targets/Cloud_FM33A0XX/UserCode\neul_bc95.c **** }
ARM GAS  C:\Users\WANGBI~1\AppData\Local\Temp\ccSpmgug.s 			page 34


1566:e:/LiteOS/LiteOS/targets/Cloud_FM33A0XX/GCC/../../../targets/Cloud_FM33A0XX/UserCode\neul_bc95.c **** 
1567:e:/LiteOS/LiteOS/targets/Cloud_FM33A0XX/GCC/../../../targets/Cloud_FM33A0XX/UserCode\neul_bc95.c **** int neul_bc95_get_auto_connect()
1568:e:/LiteOS/LiteOS/targets/Cloud_FM33A0XX/GCC/../../../targets/Cloud_FM33A0XX/UserCode\neul_bc95.c **** {
1569:e:/LiteOS/LiteOS/targets/Cloud_FM33A0XX/GCC/../../../targets/Cloud_FM33A0XX/UserCode\neul_bc95.c ****     int ret = 0;
1570:e:/LiteOS/LiteOS/targets/Cloud_FM33A0XX/GCC/../../../targets/Cloud_FM33A0XX/UserCode\neul_bc95.c ****     char *str = NULL;
1571:e:/LiteOS/LiteOS/targets/Cloud_FM33A0XX/GCC/../../../targets/Cloud_FM33A0XX/UserCode\neul_bc95.c ****     char *p = "AT+NCONFIG?\r";
1572:e:/LiteOS/LiteOS/targets/Cloud_FM33A0XX/GCC/../../../targets/Cloud_FM33A0XX/UserCode\neul_bc95.c ****     char *p1 = "AUTOCONNECT,TRUE";
1573:e:/LiteOS/LiteOS/targets/Cloud_FM33A0XX/GCC/../../../targets/Cloud_FM33A0XX/UserCode\neul_bc95.c ****     char *p2 = "AUTOCONNECT,FALSE";
1574:e:/LiteOS/LiteOS/targets/Cloud_FM33A0XX/GCC/../../../targets/Cloud_FM33A0XX/UserCode\neul_bc95.c **** 
1575:e:/LiteOS/LiteOS/targets/Cloud_FM33A0XX/GCC/../../../targets/Cloud_FM33A0XX/UserCode\neul_bc95.c ****     ret = neul_dev.ops->dev_write(p, strlen(p), 0);
1576:e:/LiteOS/LiteOS/targets/Cloud_FM33A0XX/GCC/../../../targets/Cloud_FM33A0XX/UserCode\neul_bc95.c ****     
1577:e:/LiteOS/LiteOS/targets/Cloud_FM33A0XX/GCC/../../../targets/Cloud_FM33A0XX/UserCode\neul_bc95.c ****     memset(neul_dev.rbuf, 0, 32);
1578:e:/LiteOS/LiteOS/targets/Cloud_FM33A0XX/GCC/../../../targets/Cloud_FM33A0XX/UserCode\neul_bc95.c ****     ret = neul_dev.ops->dev_read(neul_dev.rbuf, 106, 0, 500);
1579:e:/LiteOS/LiteOS/targets/Cloud_FM33A0XX/GCC/../../../targets/Cloud_FM33A0XX/UserCode\neul_bc95.c ****     if (ret <= 0)
1580:e:/LiteOS/LiteOS/targets/Cloud_FM33A0XX/GCC/../../../targets/Cloud_FM33A0XX/UserCode\neul_bc95.c ****     {
1581:e:/LiteOS/LiteOS/targets/Cloud_FM33A0XX/GCC/../../../targets/Cloud_FM33A0XX/UserCode\neul_bc95.c ****         //read bc95 read set return value info failed
1582:e:/LiteOS/LiteOS/targets/Cloud_FM33A0XX/GCC/../../../targets/Cloud_FM33A0XX/UserCode\neul_bc95.c ****         return -1;
1583:e:/LiteOS/LiteOS/targets/Cloud_FM33A0XX/GCC/../../../targets/Cloud_FM33A0XX/UserCode\neul_bc95.c ****     }
1584:e:/LiteOS/LiteOS/targets/Cloud_FM33A0XX/GCC/../../../targets/Cloud_FM33A0XX/UserCode\neul_bc95.c ****     str = strstr(neul_dev.rbuf,"OK");
1585:e:/LiteOS/LiteOS/targets/Cloud_FM33A0XX/GCC/../../../targets/Cloud_FM33A0XX/UserCode\neul_bc95.c ****     if (!str)
1586:e:/LiteOS/LiteOS/targets/Cloud_FM33A0XX/GCC/../../../targets/Cloud_FM33A0XX/UserCode\neul_bc95.c ****     {
1587:e:/LiteOS/LiteOS/targets/Cloud_FM33A0XX/GCC/../../../targets/Cloud_FM33A0XX/UserCode\neul_bc95.c ****         return -1;
1588:e:/LiteOS/LiteOS/targets/Cloud_FM33A0XX/GCC/../../../targets/Cloud_FM33A0XX/UserCode\neul_bc95.c ****     }
1589:e:/LiteOS/LiteOS/targets/Cloud_FM33A0XX/GCC/../../../targets/Cloud_FM33A0XX/UserCode\neul_bc95.c ****     str = strstr(neul_dev.rbuf,p1);
1590:e:/LiteOS/LiteOS/targets/Cloud_FM33A0XX/GCC/../../../targets/Cloud_FM33A0XX/UserCode\neul_bc95.c ****     if (str)
1591:e:/LiteOS/LiteOS/targets/Cloud_FM33A0XX/GCC/../../../targets/Cloud_FM33A0XX/UserCode\neul_bc95.c ****     {
1592:e:/LiteOS/LiteOS/targets/Cloud_FM33A0XX/GCC/../../../targets/Cloud_FM33A0XX/UserCode\neul_bc95.c ****         return 1;
1593:e:/LiteOS/LiteOS/targets/Cloud_FM33A0XX/GCC/../../../targets/Cloud_FM33A0XX/UserCode\neul_bc95.c ****     } 
1594:e:/LiteOS/LiteOS/targets/Cloud_FM33A0XX/GCC/../../../targets/Cloud_FM33A0XX/UserCode\neul_bc95.c ****     str = strstr(neul_dev.rbuf,p2);
1595:e:/LiteOS/LiteOS/targets/Cloud_FM33A0XX/GCC/../../../targets/Cloud_FM33A0XX/UserCode\neul_bc95.c ****     if (str)
1596:e:/LiteOS/LiteOS/targets/Cloud_FM33A0XX/GCC/../../../targets/Cloud_FM33A0XX/UserCode\neul_bc95.c ****     {
1597:e:/LiteOS/LiteOS/targets/Cloud_FM33A0XX/GCC/../../../targets/Cloud_FM33A0XX/UserCode\neul_bc95.c ****         return 2;
1598:e:/LiteOS/LiteOS/targets/Cloud_FM33A0XX/GCC/../../../targets/Cloud_FM33A0XX/UserCode\neul_bc95.c ****     }
1599:e:/LiteOS/LiteOS/targets/Cloud_FM33A0XX/GCC/../../../targets/Cloud_FM33A0XX/UserCode\neul_bc95.c ****     return -1;
1600:e:/LiteOS/LiteOS/targets/Cloud_FM33A0XX/GCC/../../../targets/Cloud_FM33A0XX/UserCode\neul_bc95.c **** }
1601:e:/LiteOS/LiteOS/targets/Cloud_FM33A0XX/GCC/../../../targets/Cloud_FM33A0XX/UserCode\neul_bc95.c **** 
1602:e:/LiteOS/LiteOS/targets/Cloud_FM33A0XX/GCC/../../../targets/Cloud_FM33A0XX/UserCode\neul_bc95.c **** /* ============================================================
1603:e:/LiteOS/LiteOS/targets/Cloud_FM33A0XX/GCC/../../../targets/Cloud_FM33A0XX/UserCode\neul_bc95.c **** func name   :  neul_bc95_hw_init
1604:e:/LiteOS/LiteOS/targets/Cloud_FM33A0XX/GCC/../../../targets/Cloud_FM33A0XX/UserCode\neul_bc95.c **** discription :  init neul bc95 device 
1605:e:/LiteOS/LiteOS/targets/Cloud_FM33A0XX/GCC/../../../targets/Cloud_FM33A0XX/UserCode\neul_bc95.c ****                
1606:e:/LiteOS/LiteOS/targets/Cloud_FM33A0XX/GCC/../../../targets/Cloud_FM33A0XX/UserCode\neul_bc95.c **** param       :  None
1607:e:/LiteOS/LiteOS/targets/Cloud_FM33A0XX/GCC/../../../targets/Cloud_FM33A0XX/UserCode\neul_bc95.c **** return      :  0 init ok , !0 not ok
1608:e:/LiteOS/LiteOS/targets/Cloud_FM33A0XX/GCC/../../../targets/Cloud_FM33A0XX/UserCode\neul_bc95.c **** Revision    : 
1609:e:/LiteOS/LiteOS/targets/Cloud_FM33A0XX/GCC/../../../targets/Cloud_FM33A0XX/UserCode\neul_bc95.c **** =============================================================== */
1610:e:/LiteOS/LiteOS/targets/Cloud_FM33A0XX/GCC/../../../targets/Cloud_FM33A0XX/UserCode\neul_bc95.c **** int neul_bc95_hw_init(void)
1611:e:/LiteOS/LiteOS/targets/Cloud_FM33A0XX/GCC/../../../targets/Cloud_FM33A0XX/UserCode\neul_bc95.c **** {
1612:e:/LiteOS/LiteOS/targets/Cloud_FM33A0XX/GCC/../../../targets/Cloud_FM33A0XX/UserCode\neul_bc95.c ****     int ret = 0;
1613:e:/LiteOS/LiteOS/targets/Cloud_FM33A0XX/GCC/../../../targets/Cloud_FM33A0XX/UserCode\neul_bc95.c **** 
1614:e:/LiteOS/LiteOS/targets/Cloud_FM33A0XX/GCC/../../../targets/Cloud_FM33A0XX/UserCode\neul_bc95.c ****     neul_bc95_reboot();
1615:e:/LiteOS/LiteOS/targets/Cloud_FM33A0XX/GCC/../../../targets/Cloud_FM33A0XX/UserCode\neul_bc95.c ****     neul_bc95_sleep(4000);
1616:e:/LiteOS/LiteOS/targets/Cloud_FM33A0XX/GCC/../../../targets/Cloud_FM33A0XX/UserCode\neul_bc95.c ****     ret = neul_bc95_hw_detect();
1617:e:/LiteOS/LiteOS/targets/Cloud_FM33A0XX/GCC/../../../targets/Cloud_FM33A0XX/UserCode\neul_bc95.c ****     if (ret < 0)
1618:e:/LiteOS/LiteOS/targets/Cloud_FM33A0XX/GCC/../../../targets/Cloud_FM33A0XX/UserCode\neul_bc95.c ****     {
1619:e:/LiteOS/LiteOS/targets/Cloud_FM33A0XX/GCC/../../../targets/Cloud_FM33A0XX/UserCode\neul_bc95.c ****         return ret;
1620:e:/LiteOS/LiteOS/targets/Cloud_FM33A0XX/GCC/../../../targets/Cloud_FM33A0XX/UserCode\neul_bc95.c ****     }
1621:e:/LiteOS/LiteOS/targets/Cloud_FM33A0XX/GCC/../../../targets/Cloud_FM33A0XX/UserCode\neul_bc95.c ****     ret = neul_bc95_get_auto_connect();
1622:e:/LiteOS/LiteOS/targets/Cloud_FM33A0XX/GCC/../../../targets/Cloud_FM33A0XX/UserCode\neul_bc95.c ****     if (ret < 0)
ARM GAS  C:\Users\WANGBI~1\AppData\Local\Temp\ccSpmgug.s 			page 35


1623:e:/LiteOS/LiteOS/targets/Cloud_FM33A0XX/GCC/../../../targets/Cloud_FM33A0XX/UserCode\neul_bc95.c ****     {
1624:e:/LiteOS/LiteOS/targets/Cloud_FM33A0XX/GCC/../../../targets/Cloud_FM33A0XX/UserCode\neul_bc95.c ****         return ret;
1625:e:/LiteOS/LiteOS/targets/Cloud_FM33A0XX/GCC/../../../targets/Cloud_FM33A0XX/UserCode\neul_bc95.c ****     }
1626:e:/LiteOS/LiteOS/targets/Cloud_FM33A0XX/GCC/../../../targets/Cloud_FM33A0XX/UserCode\neul_bc95.c ****     if (ret == 1)
1627:e:/LiteOS/LiteOS/targets/Cloud_FM33A0XX/GCC/../../../targets/Cloud_FM33A0XX/UserCode\neul_bc95.c ****     {
1628:e:/LiteOS/LiteOS/targets/Cloud_FM33A0XX/GCC/../../../targets/Cloud_FM33A0XX/UserCode\neul_bc95.c ****         return 0;
1629:e:/LiteOS/LiteOS/targets/Cloud_FM33A0XX/GCC/../../../targets/Cloud_FM33A0XX/UserCode\neul_bc95.c ****     }
1630:e:/LiteOS/LiteOS/targets/Cloud_FM33A0XX/GCC/../../../targets/Cloud_FM33A0XX/UserCode\neul_bc95.c **** //    neul_bc95_prepare_transmit();
1631:e:/LiteOS/LiteOS/targets/Cloud_FM33A0XX/GCC/../../../targets/Cloud_FM33A0XX/UserCode\neul_bc95.c **** //    //not auto connect
1632:e:/LiteOS/LiteOS/targets/Cloud_FM33A0XX/GCC/../../../targets/Cloud_FM33A0XX/UserCode\neul_bc95.c **** //    neul_bc95_set_auto_connect(0);
1633:e:/LiteOS/LiteOS/targets/Cloud_FM33A0XX/GCC/../../../targets/Cloud_FM33A0XX/UserCode\neul_bc95.c **** //    neul_bc95_sleep(1000);
1634:e:/LiteOS/LiteOS/targets/Cloud_FM33A0XX/GCC/../../../targets/Cloud_FM33A0XX/UserCode\neul_bc95.c **** 
1635:e:/LiteOS/LiteOS/targets/Cloud_FM33A0XX/GCC/../../../targets/Cloud_FM33A0XX/UserCode\neul_bc95.c **** //    neul_bc95_prepare_transmit();
1636:e:/LiteOS/LiteOS/targets/Cloud_FM33A0XX/GCC/../../../targets/Cloud_FM33A0XX/UserCode\neul_bc95.c **** //    neul_bc95_sleep(200);
1637:e:/LiteOS/LiteOS/targets/Cloud_FM33A0XX/GCC/../../../targets/Cloud_FM33A0XX/UserCode\neul_bc95.c **** //    ret = neul_bc95_active_network();
1638:e:/LiteOS/LiteOS/targets/Cloud_FM33A0XX/GCC/../../../targets/Cloud_FM33A0XX/UserCode\neul_bc95.c ****     
1639:e:/LiteOS/LiteOS/targets/Cloud_FM33A0XX/GCC/../../../targets/Cloud_FM33A0XX/UserCode\neul_bc95.c ****     return ret;
1640:e:/LiteOS/LiteOS/targets/Cloud_FM33A0XX/GCC/../../../targets/Cloud_FM33A0XX/UserCode\neul_bc95.c **** }
1641:e:/LiteOS/LiteOS/targets/Cloud_FM33A0XX/GCC/../../../targets/Cloud_FM33A0XX/UserCode\neul_bc95.c **** int neul_bc95_prepare_transmit(void)
1642:e:/LiteOS/LiteOS/targets/Cloud_FM33A0XX/GCC/../../../targets/Cloud_FM33A0XX/UserCode\neul_bc95.c **** {
1643:e:/LiteOS/LiteOS/targets/Cloud_FM33A0XX/GCC/../../../targets/Cloud_FM33A0XX/UserCode\neul_bc95.c ****     int ret = 0;
1644:e:/LiteOS/LiteOS/targets/Cloud_FM33A0XX/GCC/../../../targets/Cloud_FM33A0XX/UserCode\neul_bc95.c ****     char *p1 = "AT\r\n";
1645:e:/LiteOS/LiteOS/targets/Cloud_FM33A0XX/GCC/../../../targets/Cloud_FM33A0XX/UserCode\neul_bc95.c ****     
1646:e:/LiteOS/LiteOS/targets/Cloud_FM33A0XX/GCC/../../../targets/Cloud_FM33A0XX/UserCode\neul_bc95.c ****     memset(neul_dev.rbuf, 0, 32);
1647:e:/LiteOS/LiteOS/targets/Cloud_FM33A0XX/GCC/../../../targets/Cloud_FM33A0XX/UserCode\neul_bc95.c ****     ret = neul_dev.ops->dev_write(p1, strlen(p1), 0);
1648:e:/LiteOS/LiteOS/targets/Cloud_FM33A0XX/GCC/../../../targets/Cloud_FM33A0XX/UserCode\neul_bc95.c ****     ret = neul_dev.ops->dev_read(neul_dev.rbuf, 32, 0, 500);
1649:e:/LiteOS/LiteOS/targets/Cloud_FM33A0XX/GCC/../../../targets/Cloud_FM33A0XX/UserCode\neul_bc95.c ****     uart_data_flush();
1650:e:/LiteOS/LiteOS/targets/Cloud_FM33A0XX/GCC/../../../targets/Cloud_FM33A0XX/UserCode\neul_bc95.c ****     return ret;
1651:e:/LiteOS/LiteOS/targets/Cloud_FM33A0XX/GCC/../../../targets/Cloud_FM33A0XX/UserCode\neul_bc95.c **** }
1652:e:/LiteOS/LiteOS/targets/Cloud_FM33A0XX/GCC/../../../targets/Cloud_FM33A0XX/UserCode\neul_bc95.c **** int neul_bc95_sleep(int ticks)
1653:e:/LiteOS/LiteOS/targets/Cloud_FM33A0XX/GCC/../../../targets/Cloud_FM33A0XX/UserCode\neul_bc95.c **** {
1654:e:/LiteOS/LiteOS/targets/Cloud_FM33A0XX/GCC/../../../targets/Cloud_FM33A0XX/UserCode\neul_bc95.c ****     LOS_TaskDelay(ticks);
1655:e:/LiteOS/LiteOS/targets/Cloud_FM33A0XX/GCC/../../../targets/Cloud_FM33A0XX/UserCode\neul_bc95.c ****     return 0;
1656:e:/LiteOS/LiteOS/targets/Cloud_FM33A0XX/GCC/../../../targets/Cloud_FM33A0XX/UserCode\neul_bc95.c **** }
1657:e:/LiteOS/LiteOS/targets/Cloud_FM33A0XX/GCC/../../../targets/Cloud_FM33A0XX/UserCode\neul_bc95.c **** 
1658:e:/LiteOS/LiteOS/targets/Cloud_FM33A0XX/GCC/../../../targets/Cloud_FM33A0XX/UserCode\neul_bc95.c **** //AT+NTSETID=1,460012345678966
1659:e:/LiteOS/LiteOS/targets/Cloud_FM33A0XX/GCC/../../../targets/Cloud_FM33A0XX/UserCode\neul_bc95.c **** 
1660:e:/LiteOS/LiteOS/targets/Cloud_FM33A0XX/GCC/../../../targets/Cloud_FM33A0XX/UserCode\neul_bc95.c **** //\r\nNeul \r\nOK\r\n
1661:e:/LiteOS/LiteOS/targets/Cloud_FM33A0XX/GCC/../../../targets/Cloud_FM33A0XX/UserCode\neul_bc95.c **** //typedef int (*neul_read)(char *buf, int maxrlen, int mode);
1662:e:/LiteOS/LiteOS/targets/Cloud_FM33A0XX/GCC/../../../targets/Cloud_FM33A0XX/UserCode\neul_bc95.c **** //typedef int (*neul_write)(const char *buf, int writelen, int mode);
1663:e:/LiteOS/LiteOS/targets/Cloud_FM33A0XX/GCC/../../../targets/Cloud_FM33A0XX/UserCode\neul_bc95.c **** 
1664:e:/LiteOS/LiteOS/targets/Cloud_FM33A0XX/GCC/../../../targets/Cloud_FM33A0XX/UserCode\neul_bc95.c **** 
1665:e:/LiteOS/LiteOS/targets/Cloud_FM33A0XX/GCC/../../../targets/Cloud_FM33A0XX/UserCode\neul_bc95.c **** //static int uart_data_read(char *buf, int maxrlen, int mode)
1666:e:/LiteOS/LiteOS/targets/Cloud_FM33A0XX/GCC/../../../targets/Cloud_FM33A0XX/UserCode\neul_bc95.c **** int uart_data_read(char *buf, int maxrlen, int mode, int timeout)
1667:e:/LiteOS/LiteOS/targets/Cloud_FM33A0XX/GCC/../../../targets/Cloud_FM33A0XX/UserCode\neul_bc95.c **** {
 302              		.loc 1 1667 0
 303              		.cfi_startproc
 304              		@ args = 0, pretend = 0, frame = 0
 305              		@ frame_needed = 0, uses_anonymous_args = 0
 306              	.LVL45:
 307 0000 10B5     		push	{r4, lr}
 308              	.LCFI3:
 309              		.cfi_def_cfa_offset 8
 310              		.cfi_offset 4, -8
 311              		.cfi_offset 14, -4
 312              	.LVL46:
1668:e:/LiteOS/LiteOS/targets/Cloud_FM33A0XX/GCC/../../../targets/Cloud_FM33A0XX/UserCode\neul_bc95.c ****     int retlen = 0;
ARM GAS  C:\Users\WANGBI~1\AppData\Local\Temp\ccSpmgug.s 			page 36


1669:e:/LiteOS/LiteOS/targets/Cloud_FM33A0XX/GCC/../../../targets/Cloud_FM33A0XX/UserCode\neul_bc95.c ****     if (NULL == buf || maxrlen <= 0 || timeout < 0)
 313              		.loc 1 1669 0
 314 0002 0028     		cmp	r0, #0
 315 0004 12D0     		beq	.L29
 316              		.loc 1 1669 0 is_stmt 0 discriminator 1
 317 0006 0029     		cmp	r1, #0
 318 0008 12DD     		ble	.L30
 319              		.loc 1 1669 0 discriminator 2
 320 000a 002B     		cmp	r3, #0
 321 000c 12DB     		blt	.L31
1670:e:/LiteOS/LiteOS/targets/Cloud_FM33A0XX/GCC/../../../targets/Cloud_FM33A0XX/UserCode\neul_bc95.c ****     {
1671:e:/LiteOS/LiteOS/targets/Cloud_FM33A0XX/GCC/../../../targets/Cloud_FM33A0XX/UserCode\neul_bc95.c ****         return 0;
1672:e:/LiteOS/LiteOS/targets/Cloud_FM33A0XX/GCC/../../../targets/Cloud_FM33A0XX/UserCode\neul_bc95.c ****     }
1673:e:/LiteOS/LiteOS/targets/Cloud_FM33A0XX/GCC/../../../targets/Cloud_FM33A0XX/UserCode\neul_bc95.c ****     if(mode == 0)
 322              		.loc 1 1673 0 is_stmt 1
 323 000e 002A     		cmp	r2, #0
 324 0010 05D1     		bne	.L28
1674:e:/LiteOS/LiteOS/targets/Cloud_FM33A0XX/GCC/../../../targets/Cloud_FM33A0XX/UserCode\neul_bc95.c ****     {
1675:e:/LiteOS/LiteOS/targets/Cloud_FM33A0XX/GCC/../../../targets/Cloud_FM33A0XX/UserCode\neul_bc95.c ****         //block mode
1676:e:/LiteOS/LiteOS/targets/Cloud_FM33A0XX/GCC/../../../targets/Cloud_FM33A0XX/UserCode\neul_bc95.c ****         retlen = los_dev_uart_read(CN_UART_AT, buf, maxrlen, timeout);
 325              		.loc 1 1676 0
 326 0012 0A00     		movs	r2, r1
 327              	.LVL47:
 328 0014 0100     		movs	r1, r0
 329              	.LVL48:
 330 0016 0320     		movs	r0, #3
 331              	.LVL49:
 332 0018 FFF7FEFF 		bl	los_dev_uart_read
 333              	.LVL50:
 334 001c 0BE0     		b	.L27
 335              	.LVL51:
 336              	.L28:
1677:e:/LiteOS/LiteOS/targets/Cloud_FM33A0XX/GCC/../../../targets/Cloud_FM33A0XX/UserCode\neul_bc95.c ****     }
1678:e:/LiteOS/LiteOS/targets/Cloud_FM33A0XX/GCC/../../../targets/Cloud_FM33A0XX/UserCode\neul_bc95.c ****     else
1679:e:/LiteOS/LiteOS/targets/Cloud_FM33A0XX/GCC/../../../targets/Cloud_FM33A0XX/UserCode\neul_bc95.c ****     {
1680:e:/LiteOS/LiteOS/targets/Cloud_FM33A0XX/GCC/../../../targets/Cloud_FM33A0XX/UserCode\neul_bc95.c ****         //none block mode
1681:e:/LiteOS/LiteOS/targets/Cloud_FM33A0XX/GCC/../../../targets/Cloud_FM33A0XX/UserCode\neul_bc95.c ****         retlen = los_dev_uart_read(CN_UART_AT, buf, maxrlen, 0);
 337              		.loc 1 1681 0
 338 001e 0023     		movs	r3, #0
 339              	.LVL52:
 340 0020 0A00     		movs	r2, r1
 341              	.LVL53:
 342 0022 0100     		movs	r1, r0
 343              	.LVL54:
 344 0024 0320     		movs	r0, #3
 345              	.LVL55:
 346 0026 FFF7FEFF 		bl	los_dev_uart_read
 347              	.LVL56:
 348 002a 04E0     		b	.L27
 349              	.LVL57:
 350              	.L29:
1671:e:/LiteOS/LiteOS/targets/Cloud_FM33A0XX/GCC/../../../targets/Cloud_FM33A0XX/UserCode\neul_bc95.c ****     }
 351              		.loc 1 1671 0
 352 002c 0020     		movs	r0, #0
 353              	.LVL58:
 354 002e 02E0     		b	.L27
 355              	.LVL59:
ARM GAS  C:\Users\WANGBI~1\AppData\Local\Temp\ccSpmgug.s 			page 37


 356              	.L30:
 357 0030 0020     		movs	r0, #0
 358              	.LVL60:
 359 0032 00E0     		b	.L27
 360              	.LVL61:
 361              	.L31:
 362 0034 0020     		movs	r0, #0
 363              	.LVL62:
 364              	.L27:
1682:e:/LiteOS/LiteOS/targets/Cloud_FM33A0XX/GCC/../../../targets/Cloud_FM33A0XX/UserCode\neul_bc95.c ****     }
1683:e:/LiteOS/LiteOS/targets/Cloud_FM33A0XX/GCC/../../../targets/Cloud_FM33A0XX/UserCode\neul_bc95.c ****     
1684:e:/LiteOS/LiteOS/targets/Cloud_FM33A0XX/GCC/../../../targets/Cloud_FM33A0XX/UserCode\neul_bc95.c ****     return retlen;
1685:e:/LiteOS/LiteOS/targets/Cloud_FM33A0XX/GCC/../../../targets/Cloud_FM33A0XX/UserCode\neul_bc95.c **** }
 365              		.loc 1 1685 0
 366              		@ sp needed
 367 0036 10BD     		pop	{r4, pc}
 368              		.cfi_endproc
 369              	.LFE80:
 371              		.section	.text.uart_data_write,"ax",%progbits
 372              		.align	2
 373              		.global	uart_data_write
 374              		.code	16
 375              		.thumb_func
 377              	uart_data_write:
 378              	.LFB81:
1686:e:/LiteOS/LiteOS/targets/Cloud_FM33A0XX/GCC/../../../targets/Cloud_FM33A0XX/UserCode\neul_bc95.c **** //static int uart_data_write(const char *buf, int writelen, int mode)
1687:e:/LiteOS/LiteOS/targets/Cloud_FM33A0XX/GCC/../../../targets/Cloud_FM33A0XX/UserCode\neul_bc95.c **** int uart_data_write(char *buf, int writelen, int mode)
1688:e:/LiteOS/LiteOS/targets/Cloud_FM33A0XX/GCC/../../../targets/Cloud_FM33A0XX/UserCode\neul_bc95.c **** {
 379              		.loc 1 1688 0
 380              		.cfi_startproc
 381              		@ args = 0, pretend = 0, frame = 0
 382              		@ frame_needed = 0, uses_anonymous_args = 0
 383              	.LVL63:
 384 0000 10B5     		push	{r4, lr}
 385              	.LCFI4:
 386              		.cfi_def_cfa_offset 8
 387              		.cfi_offset 4, -8
 388              		.cfi_offset 14, -4
1689:e:/LiteOS/LiteOS/targets/Cloud_FM33A0XX/GCC/../../../targets/Cloud_FM33A0XX/UserCode\neul_bc95.c ****     if (NULL == buf || writelen <= 0)
 389              		.loc 1 1689 0
 390 0002 0028     		cmp	r0, #0
 391 0004 08D0     		beq	.L33
 392              		.loc 1 1689 0 is_stmt 0 discriminator 1
 393 0006 0029     		cmp	r1, #0
 394 0008 06DD     		ble	.L33
1690:e:/LiteOS/LiteOS/targets/Cloud_FM33A0XX/GCC/../../../targets/Cloud_FM33A0XX/UserCode\neul_bc95.c ****     {
1691:e:/LiteOS/LiteOS/targets/Cloud_FM33A0XX/GCC/../../../targets/Cloud_FM33A0XX/UserCode\neul_bc95.c ****         return 0;
1692:e:/LiteOS/LiteOS/targets/Cloud_FM33A0XX/GCC/../../../targets/Cloud_FM33A0XX/UserCode\neul_bc95.c ****     }
1693:e:/LiteOS/LiteOS/targets/Cloud_FM33A0XX/GCC/../../../targets/Cloud_FM33A0XX/UserCode\neul_bc95.c ****     los_dev_uart_write(CN_UART_AT, buf, writelen, 500);
 395              		.loc 1 1693 0 is_stmt 1
 396 000a FA23     		movs	r3, #250
 397 000c 5B00     		lsls	r3, r3, #1
 398 000e 0A00     		movs	r2, r1
 399              	.LVL64:
 400 0010 0100     		movs	r1, r0
 401              	.LVL65:
 402 0012 0320     		movs	r0, #3
ARM GAS  C:\Users\WANGBI~1\AppData\Local\Temp\ccSpmgug.s 			page 38


 403              	.LVL66:
 404 0014 FFF7FEFF 		bl	los_dev_uart_write
 405              	.LVL67:
 406              	.L33:
1694:e:/LiteOS/LiteOS/targets/Cloud_FM33A0XX/GCC/../../../targets/Cloud_FM33A0XX/UserCode\neul_bc95.c ****     return 0;
1695:e:/LiteOS/LiteOS/targets/Cloud_FM33A0XX/GCC/../../../targets/Cloud_FM33A0XX/UserCode\neul_bc95.c **** }
 407              		.loc 1 1695 0
 408 0018 0020     		movs	r0, #0
 409              		@ sp needed
 410 001a 10BD     		pop	{r4, pc}
 411              		.cfi_endproc
 412              	.LFE81:
 414              		.section	.text.neul_bc95_set_upd_param,"ax",%progbits
 415              		.align	2
 416              		.global	neul_bc95_set_upd_param
 417              		.code	16
 418              		.thumb_func
 420              	neul_bc95_set_upd_param:
 421              	.LFB43:
  99:e:/LiteOS/LiteOS/targets/Cloud_FM33A0XX/GCC/../../../targets/Cloud_FM33A0XX/UserCode\neul_bc95.c ****     if (NULL == rip || 0 == port)
 422              		.loc 1 99 0
 423              		.cfi_startproc
 424              		@ args = 0, pretend = 0, frame = 0
 425              		@ frame_needed = 0, uses_anonymous_args = 0
 426              	.LVL68:
 427 0000 70B5     		push	{r4, r5, r6, lr}
 428              	.LCFI5:
 429              		.cfi_def_cfa_offset 16
 430              		.cfi_offset 4, -16
 431              		.cfi_offset 5, -12
 432              		.cfi_offset 6, -8
 433              		.cfi_offset 14, -4
 434 0002 0500     		movs	r5, r0
 435 0004 0E00     		movs	r6, r1
 436 0006 1400     		movs	r4, r2
 100:e:/LiteOS/LiteOS/targets/Cloud_FM33A0XX/GCC/../../../targets/Cloud_FM33A0XX/UserCode\neul_bc95.c ****     {
 437              		.loc 1 100 0
 438 0008 0028     		cmp	r0, #0
 439 000a 1CD0     		beq	.L36
 100:e:/LiteOS/LiteOS/targets/Cloud_FM33A0XX/GCC/../../../targets/Cloud_FM33A0XX/UserCode\neul_bc95.c ****     {
 440              		.loc 1 100 0 is_stmt 0 discriminator 1
 441 000c 0029     		cmp	r1, #0
 442 000e 1DD0     		beq	.L37
 104:e:/LiteOS/LiteOS/targets/Cloud_FM33A0XX/GCC/../../../targets/Cloud_FM33A0XX/UserCode\neul_bc95.c ****     {
 443              		.loc 1 104 0 is_stmt 1
 444 0010 FFF7FEFF 		bl	strlen
 445              	.LVL69:
 446 0014 0F28     		cmp	r0, #15
 447 0016 1CD8     		bhi	.L38
 108:e:/LiteOS/LiteOS/targets/Cloud_FM33A0XX/GCC/../../../targets/Cloud_FM33A0XX/UserCode\neul_bc95.c ****     (neul_dev.addrinfo+socket)->port = port;
 448              		.loc 1 108 0
 449 0018 0F4B     		ldr	r3, .L39
 450 001a 9A68     		ldr	r2, [r3, #8]
 451 001c 0132     		adds	r2, r2, #1
 452 001e 9A60     		str	r2, [r3, #8]
 109:e:/LiteOS/LiteOS/targets/Cloud_FM33A0XX/GCC/../../../targets/Cloud_FM33A0XX/UserCode\neul_bc95.c ****     (neul_dev.addrinfo+socket)->socket = socket;
 453              		.loc 1 109 0
ARM GAS  C:\Users\WANGBI~1\AppData\Local\Temp\ccSpmgug.s 			page 39


 454 0020 D868     		ldr	r0, [r3, #12]
 455 0022 6200     		lsls	r2, r4, #1
 456 0024 1219     		adds	r2, r2, r4
 457 0026 D300     		lsls	r3, r2, #3
 458 0028 C018     		adds	r0, r0, r3
 459 002a 0680     		strh	r6, [r0]
 110:e:/LiteOS/LiteOS/targets/Cloud_FM33A0XX/GCC/../../../targets/Cloud_FM33A0XX/UserCode\neul_bc95.c ****     memcpy((neul_dev.addrinfo+socket)->ip, rip, strlen(rip));
 460              		.loc 1 110 0
 461 002c 4460     		str	r4, [r0, #4]
 111:e:/LiteOS/LiteOS/targets/Cloud_FM33A0XX/GCC/../../../targets/Cloud_FM33A0XX/UserCode\neul_bc95.c ****     return 0;
 462              		.loc 1 111 0
 463 002e 0830     		adds	r0, r0, #8
 464 0030 0400     		movs	r4, r0
 465              	.LVL70:
 466 0032 2800     		movs	r0, r5
 467              	.LVL71:
 468 0034 FFF7FEFF 		bl	strlen
 469              	.LVL72:
 470 0038 0200     		movs	r2, r0
 471 003a 2900     		movs	r1, r5
 472 003c 2000     		movs	r0, r4
 473 003e FFF7FEFF 		bl	memcpy
 474              	.LVL73:
 112:e:/LiteOS/LiteOS/targets/Cloud_FM33A0XX/GCC/../../../targets/Cloud_FM33A0XX/UserCode\neul_bc95.c **** }
 475              		.loc 1 112 0
 476 0042 0020     		movs	r0, #0
 477 0044 07E0     		b	.L35
 478              	.LVL74:
 479              	.L36:
 102:e:/LiteOS/LiteOS/targets/Cloud_FM33A0XX/GCC/../../../targets/Cloud_FM33A0XX/UserCode\neul_bc95.c ****     }
 480              		.loc 1 102 0
 481 0046 0120     		movs	r0, #1
 482              	.LVL75:
 483 0048 4042     		rsbs	r0, r0, #0
 484 004a 04E0     		b	.L35
 485              	.LVL76:
 486              	.L37:
 487 004c 0120     		movs	r0, #1
 488              	.LVL77:
 489 004e 4042     		rsbs	r0, r0, #0
 490 0050 01E0     		b	.L35
 491              	.LVL78:
 492              	.L38:
 106:e:/LiteOS/LiteOS/targets/Cloud_FM33A0XX/GCC/../../../targets/Cloud_FM33A0XX/UserCode\neul_bc95.c ****     }
 493              		.loc 1 106 0
 494 0052 0220     		movs	r0, #2
 495 0054 4042     		rsbs	r0, r0, #0
 496              	.LVL79:
 497              	.L35:
 113:e:/LiteOS/LiteOS/targets/Cloud_FM33A0XX/GCC/../../../targets/Cloud_FM33A0XX/UserCode\neul_bc95.c **** 
 498              		.loc 1 113 0
 499              		@ sp needed
 500              	.LVL80:
 501 0056 70BD     		pop	{r4, r5, r6, pc}
 502              	.L40:
 503              		.align	2
 504              	.L39:
ARM GAS  C:\Users\WANGBI~1\AppData\Local\Temp\ccSpmgug.s 			page 40


 505 0058 00000000 		.word	.LANCHOR0
 506              		.cfi_endproc
 507              	.LFE43:
 509              		.section	.text.neul_bc95_AT_CGMM,"ax",%progbits
 510              		.align	2
 511              		.global	neul_bc95_AT_CGMM
 512              		.code	16
 513              		.thumb_func
 515              	neul_bc95_AT_CGMM:
 516              	.LFB45:
 145:e:/LiteOS/LiteOS/targets/Cloud_FM33A0XX/GCC/../../../targets/Cloud_FM33A0XX/UserCode\neul_bc95.c ****     int ret = 0;
