ARM GAS  C:\Users\WANGBI~1\AppData\Local\Temp\ccbZtvog.s 			page 1


   1              		.syntax unified
   2              		.cpu cortex-m0plus
   3              		.fpu softvfp
   4              		.eabi_attribute 20, 1
   5              		.eabi_attribute 21, 1
   6              		.eabi_attribute 23, 3
   7              		.eabi_attribute 24, 1
   8              		.eabi_attribute 25, 1
   9              		.eabi_attribute 26, 1
  10              		.eabi_attribute 30, 1
  11              		.eabi_attribute 34, 0
  12              		.eabi_attribute 18, 4
  13              		.thumb
  14              		.syntax unified
  15              		.file	"user_init.c"
  16              		.text
  17              	.Ltext0:
  18              		.cfi_sections	.debug_frame
  19              		.section	.text.Init_SysTick,"ax",%progbits
  20              		.align	2
  21              		.global	Init_SysTick
  22              		.code	16
  23              		.thumb_func
  25              	Init_SysTick:
  26              	.LFB43:
  27              		.file 1 "e:/LiteOS/LiteOS/targets/Cloud_FM33A0XX/GCC/../../../targets/Cloud_FM33A0XX/UserCode/user
   1:e:/LiteOS/LiteOS/targets/Cloud_FM33A0XX/GCC/../../../targets/Cloud_FM33A0XX/UserCode\user_init.c **** #include "define_all.h"  
   2:e:/LiteOS/LiteOS/targets/Cloud_FM33A0XX/GCC/../../../targets/Cloud_FM33A0XX/UserCode\user_init.c **** 
   3:e:/LiteOS/LiteOS/targets/Cloud_FM33A0XX/GCC/../../../targets/Cloud_FM33A0XX/UserCode\user_init.c **** //cpu滴答定时器配置(软件延时用)
   4:e:/LiteOS/LiteOS/targets/Cloud_FM33A0XX/GCC/../../../targets/Cloud_FM33A0XX/UserCode\user_init.c **** void Init_SysTick(void)
   5:e:/LiteOS/LiteOS/targets/Cloud_FM33A0XX/GCC/../../../targets/Cloud_FM33A0XX/UserCode\user_init.c **** {
  28              		.loc 1 5 0
  29              		.cfi_startproc
  30              		@ args = 0, pretend = 0, frame = 0
  31              		@ frame_needed = 0, uses_anonymous_args = 0
  32              		@ link register save eliminated.
  33              	.LVL0:
  34              	.LBB12:
  35              	.LBB13:
  36              		.file 2 "e:\\liteos\\liteos\\targets\\cloud_fm33a0xx\\device\\include\\core_cm0plus.h"
   1:e:\liteos\liteos\targets\cloud_fm33a0xx\device\include\core_cm0plus.h **** /**************************************************************************//**
   2:e:\liteos\liteos\targets\cloud_fm33a0xx\device\include\core_cm0plus.h ****  * @file     core_cm0plus.h
   3:e:\liteos\liteos\targets\cloud_fm33a0xx\device\include\core_cm0plus.h ****  * @brief    CMSIS Cortex-M0+ Core Peripheral Access Layer Header File
   4:e:\liteos\liteos\targets\cloud_fm33a0xx\device\include\core_cm0plus.h ****  * @version  V5.00
   5:e:\liteos\liteos\targets\cloud_fm33a0xx\device\include\core_cm0plus.h ****  * @date     29. April 2016
   6:e:\liteos\liteos\targets\cloud_fm33a0xx\device\include\core_cm0plus.h ****  ******************************************************************************/
   7:e:\liteos\liteos\targets\cloud_fm33a0xx\device\include\core_cm0plus.h **** /*
   8:e:\liteos\liteos\targets\cloud_fm33a0xx\device\include\core_cm0plus.h ****  * Copyright (c) 2009-2016 ARM Limited. All rights reserved.
   9:e:\liteos\liteos\targets\cloud_fm33a0xx\device\include\core_cm0plus.h ****  *
  10:e:\liteos\liteos\targets\cloud_fm33a0xx\device\include\core_cm0plus.h ****  * SPDX-License-Identifier: Apache-2.0
  11:e:\liteos\liteos\targets\cloud_fm33a0xx\device\include\core_cm0plus.h ****  *
  12:e:\liteos\liteos\targets\cloud_fm33a0xx\device\include\core_cm0plus.h ****  * Licensed under the Apache License, Version 2.0 (the License); you may
  13:e:\liteos\liteos\targets\cloud_fm33a0xx\device\include\core_cm0plus.h ****  * not use this file except in compliance with the License.
  14:e:\liteos\liteos\targets\cloud_fm33a0xx\device\include\core_cm0plus.h ****  * You may obtain a copy of the License at
  15:e:\liteos\liteos\targets\cloud_fm33a0xx\device\include\core_cm0plus.h ****  *
  16:e:\liteos\liteos\targets\cloud_fm33a0xx\device\include\core_cm0plus.h ****  * http://www.apache.org/licenses/LICENSE-2.0
  17:e:\liteos\liteos\targets\cloud_fm33a0xx\device\include\core_cm0plus.h ****  *
ARM GAS  C:\Users\WANGBI~1\AppData\Local\Temp\ccbZtvog.s 			page 2


  18:e:\liteos\liteos\targets\cloud_fm33a0xx\device\include\core_cm0plus.h ****  * Unless required by applicable law or agreed to in writing, software
  19:e:\liteos\liteos\targets\cloud_fm33a0xx\device\include\core_cm0plus.h ****  * distributed under the License is distributed on an AS IS BASIS, WITHOUT
  20:e:\liteos\liteos\targets\cloud_fm33a0xx\device\include\core_cm0plus.h ****  * WARRANTIES OR CONDITIONS OF ANY KIND, either express or implied.
  21:e:\liteos\liteos\targets\cloud_fm33a0xx\device\include\core_cm0plus.h ****  * See the License for the specific language governing permissions and
  22:e:\liteos\liteos\targets\cloud_fm33a0xx\device\include\core_cm0plus.h ****  * limitations under the License.
  23:e:\liteos\liteos\targets\cloud_fm33a0xx\device\include\core_cm0plus.h ****  */
  24:e:\liteos\liteos\targets\cloud_fm33a0xx\device\include\core_cm0plus.h **** 
  25:e:\liteos\liteos\targets\cloud_fm33a0xx\device\include\core_cm0plus.h **** #if   defined ( __ICCARM__ )
  26:e:\liteos\liteos\targets\cloud_fm33a0xx\device\include\core_cm0plus.h ****  #pragma system_include         /* treat file as system include file for MISRA check */
  27:e:\liteos\liteos\targets\cloud_fm33a0xx\device\include\core_cm0plus.h **** #elif defined (__ARMCC_VERSION) && (__ARMCC_VERSION >= 6010050)
  28:e:\liteos\liteos\targets\cloud_fm33a0xx\device\include\core_cm0plus.h ****   #pragma clang system_header   /* treat file as system include file */
  29:e:\liteos\liteos\targets\cloud_fm33a0xx\device\include\core_cm0plus.h **** #endif
  30:e:\liteos\liteos\targets\cloud_fm33a0xx\device\include\core_cm0plus.h **** 
  31:e:\liteos\liteos\targets\cloud_fm33a0xx\device\include\core_cm0plus.h **** #ifndef __CORE_CM0PLUS_H_GENERIC
  32:e:\liteos\liteos\targets\cloud_fm33a0xx\device\include\core_cm0plus.h **** #define __CORE_CM0PLUS_H_GENERIC
  33:e:\liteos\liteos\targets\cloud_fm33a0xx\device\include\core_cm0plus.h **** 
  34:e:\liteos\liteos\targets\cloud_fm33a0xx\device\include\core_cm0plus.h **** #include <stdint.h>
  35:e:\liteos\liteos\targets\cloud_fm33a0xx\device\include\core_cm0plus.h **** 
  36:e:\liteos\liteos\targets\cloud_fm33a0xx\device\include\core_cm0plus.h **** #ifdef __cplusplus
  37:e:\liteos\liteos\targets\cloud_fm33a0xx\device\include\core_cm0plus.h ****  extern "C" {
  38:e:\liteos\liteos\targets\cloud_fm33a0xx\device\include\core_cm0plus.h **** #endif
  39:e:\liteos\liteos\targets\cloud_fm33a0xx\device\include\core_cm0plus.h **** 
  40:e:\liteos\liteos\targets\cloud_fm33a0xx\device\include\core_cm0plus.h **** /**
  41:e:\liteos\liteos\targets\cloud_fm33a0xx\device\include\core_cm0plus.h ****   \page CMSIS_MISRA_Exceptions  MISRA-C:2004 Compliance Exceptions
  42:e:\liteos\liteos\targets\cloud_fm33a0xx\device\include\core_cm0plus.h ****   CMSIS violates the following MISRA-C:2004 rules:
  43:e:\liteos\liteos\targets\cloud_fm33a0xx\device\include\core_cm0plus.h **** 
  44:e:\liteos\liteos\targets\cloud_fm33a0xx\device\include\core_cm0plus.h ****    \li Required Rule 8.5, object/function definition in header file.<br>
  45:e:\liteos\liteos\targets\cloud_fm33a0xx\device\include\core_cm0plus.h ****      Function definitions in header files are used to allow 'inlining'.
  46:e:\liteos\liteos\targets\cloud_fm33a0xx\device\include\core_cm0plus.h **** 
  47:e:\liteos\liteos\targets\cloud_fm33a0xx\device\include\core_cm0plus.h ****    \li Required Rule 18.4, declaration of union type or object of union type: '{...}'.<br>
  48:e:\liteos\liteos\targets\cloud_fm33a0xx\device\include\core_cm0plus.h ****      Unions are used for effective representation of core registers.
  49:e:\liteos\liteos\targets\cloud_fm33a0xx\device\include\core_cm0plus.h **** 
  50:e:\liteos\liteos\targets\cloud_fm33a0xx\device\include\core_cm0plus.h ****    \li Advisory Rule 19.7, Function-like macro defined.<br>
  51:e:\liteos\liteos\targets\cloud_fm33a0xx\device\include\core_cm0plus.h ****      Function-like macros are used to allow more efficient code.
  52:e:\liteos\liteos\targets\cloud_fm33a0xx\device\include\core_cm0plus.h ****  */
  53:e:\liteos\liteos\targets\cloud_fm33a0xx\device\include\core_cm0plus.h **** 
  54:e:\liteos\liteos\targets\cloud_fm33a0xx\device\include\core_cm0plus.h **** 
  55:e:\liteos\liteos\targets\cloud_fm33a0xx\device\include\core_cm0plus.h **** /*******************************************************************************
  56:e:\liteos\liteos\targets\cloud_fm33a0xx\device\include\core_cm0plus.h ****  *                 CMSIS definitions
  57:e:\liteos\liteos\targets\cloud_fm33a0xx\device\include\core_cm0plus.h ****  ******************************************************************************/
  58:e:\liteos\liteos\targets\cloud_fm33a0xx\device\include\core_cm0plus.h **** /**
  59:e:\liteos\liteos\targets\cloud_fm33a0xx\device\include\core_cm0plus.h ****   \ingroup Cortex-M0+
  60:e:\liteos\liteos\targets\cloud_fm33a0xx\device\include\core_cm0plus.h ****   @{
  61:e:\liteos\liteos\targets\cloud_fm33a0xx\device\include\core_cm0plus.h ****  */
  62:e:\liteos\liteos\targets\cloud_fm33a0xx\device\include\core_cm0plus.h **** 
  63:e:\liteos\liteos\targets\cloud_fm33a0xx\device\include\core_cm0plus.h **** /*  CMSIS CM0+ definitions */
  64:e:\liteos\liteos\targets\cloud_fm33a0xx\device\include\core_cm0plus.h **** #define __CM0PLUS_CMSIS_VERSION_MAIN ( 5U)                                      /*!< [31:16] CMSIS 
  65:e:\liteos\liteos\targets\cloud_fm33a0xx\device\include\core_cm0plus.h **** #define __CM0PLUS_CMSIS_VERSION_SUB  ( 0U)                                      /*!< [15:0]  CMSIS 
  66:e:\liteos\liteos\targets\cloud_fm33a0xx\device\include\core_cm0plus.h **** #define __CM0PLUS_CMSIS_VERSION      ((__CM0PLUS_CMSIS_VERSION_MAIN << 16U) | \
  67:e:\liteos\liteos\targets\cloud_fm33a0xx\device\include\core_cm0plus.h ****                                        __CM0PLUS_CMSIS_VERSION_SUB           )  /*!< CMSIS HAL vers
  68:e:\liteos\liteos\targets\cloud_fm33a0xx\device\include\core_cm0plus.h **** 
  69:e:\liteos\liteos\targets\cloud_fm33a0xx\device\include\core_cm0plus.h **** #define __CORTEX_M                   (0U)                                       /*!< Cortex-M Core 
  70:e:\liteos\liteos\targets\cloud_fm33a0xx\device\include\core_cm0plus.h **** 
  71:e:\liteos\liteos\targets\cloud_fm33a0xx\device\include\core_cm0plus.h **** /* Common defines in core_*.h files
  72:e:\liteos\liteos\targets\cloud_fm33a0xx\device\include\core_cm0plus.h ****   - #define __ASM               Compiler keyword for asm
  73:e:\liteos\liteos\targets\cloud_fm33a0xx\device\include\core_cm0plus.h ****   - #define __INLINE            Compiler keyword for inline
  74:e:\liteos\liteos\targets\cloud_fm33a0xx\device\include\core_cm0plus.h ****   - #define __STATIC_INLINE     Compiler keyword for static inline
ARM GAS  C:\Users\WANGBI~1\AppData\Local\Temp\ccbZtvog.s 			page 3


  75:e:\liteos\liteos\targets\cloud_fm33a0xx\device\include\core_cm0plus.h ****   - #define __NO_RETURN         function that never returns
  76:e:\liteos\liteos\targets\cloud_fm33a0xx\device\include\core_cm0plus.h ****   - #define __USED              function or variable that is not optimized away
  77:e:\liteos\liteos\targets\cloud_fm33a0xx\device\include\core_cm0plus.h ****   - #define __WEAK              weak function or variable
  78:e:\liteos\liteos\targets\cloud_fm33a0xx\device\include\core_cm0plus.h ****   - #define __UNALIGNED_UINT32  pointer to unaligned uint32_t variable
  79:e:\liteos\liteos\targets\cloud_fm33a0xx\device\include\core_cm0plus.h ****  */
  80:e:\liteos\liteos\targets\cloud_fm33a0xx\device\include\core_cm0plus.h **** #if   defined ( __CC_ARM )                                            /* ARM Compiler 4/5 */
  81:e:\liteos\liteos\targets\cloud_fm33a0xx\device\include\core_cm0plus.h ****   #define __ASM                     __asm
  82:e:\liteos\liteos\targets\cloud_fm33a0xx\device\include\core_cm0plus.h ****   #define __INLINE                  __inline
  83:e:\liteos\liteos\targets\cloud_fm33a0xx\device\include\core_cm0plus.h ****   #define __STATIC_INLINE           static __inline
  84:e:\liteos\liteos\targets\cloud_fm33a0xx\device\include\core_cm0plus.h ****   #define __NO_RETURN               __declspec(noreturn)
  85:e:\liteos\liteos\targets\cloud_fm33a0xx\device\include\core_cm0plus.h ****   #define __USED                    __attribute__((used))
  86:e:\liteos\liteos\targets\cloud_fm33a0xx\device\include\core_cm0plus.h ****   #define __WEAK                    __attribute__((weak))
  87:e:\liteos\liteos\targets\cloud_fm33a0xx\device\include\core_cm0plus.h ****   #define __UNALIGNED_UINT32(x)     (*((__packed uint32_t *)(x)))
  88:e:\liteos\liteos\targets\cloud_fm33a0xx\device\include\core_cm0plus.h **** 
  89:e:\liteos\liteos\targets\cloud_fm33a0xx\device\include\core_cm0plus.h **** #elif defined (__ARMCC_VERSION) && (__ARMCC_VERSION >= 6010050)       /* ARM Compiler 6 */
  90:e:\liteos\liteos\targets\cloud_fm33a0xx\device\include\core_cm0plus.h ****   #define __ASM                     __asm
  91:e:\liteos\liteos\targets\cloud_fm33a0xx\device\include\core_cm0plus.h ****   #define __INLINE                  __inline
  92:e:\liteos\liteos\targets\cloud_fm33a0xx\device\include\core_cm0plus.h ****   #define __STATIC_INLINE           static __inline
  93:e:\liteos\liteos\targets\cloud_fm33a0xx\device\include\core_cm0plus.h ****   #define __NO_RETURN               __attribute__((noreturn))
  94:e:\liteos\liteos\targets\cloud_fm33a0xx\device\include\core_cm0plus.h ****   #define __USED                    __attribute__((used))
  95:e:\liteos\liteos\targets\cloud_fm33a0xx\device\include\core_cm0plus.h ****   #define __WEAK                    __attribute__((weak))
  96:e:\liteos\liteos\targets\cloud_fm33a0xx\device\include\core_cm0plus.h ****   #pragma clang diagnostic push
  97:e:\liteos\liteos\targets\cloud_fm33a0xx\device\include\core_cm0plus.h ****   #pragma clang diagnostic ignored "-Wpacked"
  98:e:\liteos\liteos\targets\cloud_fm33a0xx\device\include\core_cm0plus.h ****   struct __attribute__((packed)) T_UINT32 { uint32_t v; };
  99:e:\liteos\liteos\targets\cloud_fm33a0xx\device\include\core_cm0plus.h ****   #pragma clang diagnostic pop
 100:e:\liteos\liteos\targets\cloud_fm33a0xx\device\include\core_cm0plus.h ****   #define __UNALIGNED_UINT32(x)     (((struct T_UINT32 *)(x))->v)
 101:e:\liteos\liteos\targets\cloud_fm33a0xx\device\include\core_cm0plus.h **** 
 102:e:\liteos\liteos\targets\cloud_fm33a0xx\device\include\core_cm0plus.h **** #elif defined ( __GNUC__ )                                            /* GNU Compiler */
 103:e:\liteos\liteos\targets\cloud_fm33a0xx\device\include\core_cm0plus.h ****   #define __ASM                     __asm
 104:e:\liteos\liteos\targets\cloud_fm33a0xx\device\include\core_cm0plus.h ****   #define __INLINE                  inline
 105:e:\liteos\liteos\targets\cloud_fm33a0xx\device\include\core_cm0plus.h ****   #define __STATIC_INLINE           static inline
 106:e:\liteos\liteos\targets\cloud_fm33a0xx\device\include\core_cm0plus.h ****   #define __NO_RETURN               __attribute__((noreturn))
 107:e:\liteos\liteos\targets\cloud_fm33a0xx\device\include\core_cm0plus.h ****   #define __USED                    __attribute__((used))
 108:e:\liteos\liteos\targets\cloud_fm33a0xx\device\include\core_cm0plus.h ****   #define __WEAK                    __attribute__((weak))
 109:e:\liteos\liteos\targets\cloud_fm33a0xx\device\include\core_cm0plus.h ****   struct __attribute__((packed)) T_UINT32 { uint32_t v; };
 110:e:\liteos\liteos\targets\cloud_fm33a0xx\device\include\core_cm0plus.h ****   #define __UNALIGNED_UINT32(x)     (((struct T_UINT32 *)(x))->v)
 111:e:\liteos\liteos\targets\cloud_fm33a0xx\device\include\core_cm0plus.h **** 
 112:e:\liteos\liteos\targets\cloud_fm33a0xx\device\include\core_cm0plus.h **** #elif defined ( __ICCARM__ )                                          /* IAR Compiler */
 113:e:\liteos\liteos\targets\cloud_fm33a0xx\device\include\core_cm0plus.h ****   #define __ASM                     __asm
 114:e:\liteos\liteos\targets\cloud_fm33a0xx\device\include\core_cm0plus.h ****   #define __INLINE                  inline
 115:e:\liteos\liteos\targets\cloud_fm33a0xx\device\include\core_cm0plus.h ****   #define __STATIC_INLINE           static inline
 116:e:\liteos\liteos\targets\cloud_fm33a0xx\device\include\core_cm0plus.h ****   #define __NO_RETURN               __noreturn
 117:e:\liteos\liteos\targets\cloud_fm33a0xx\device\include\core_cm0plus.h ****   #define __USED
 118:e:\liteos\liteos\targets\cloud_fm33a0xx\device\include\core_cm0plus.h ****   #define __WEAK                    __weak
 119:e:\liteos\liteos\targets\cloud_fm33a0xx\device\include\core_cm0plus.h ****   struct __packed T_UINT32 { uint32_t v; };
 120:e:\liteos\liteos\targets\cloud_fm33a0xx\device\include\core_cm0plus.h ****   #define __UNALIGNED_UINT32(x)     (((struct T_UINT32 *)(x))->v)
 121:e:\liteos\liteos\targets\cloud_fm33a0xx\device\include\core_cm0plus.h **** 
 122:e:\liteos\liteos\targets\cloud_fm33a0xx\device\include\core_cm0plus.h **** #elif defined ( __TI_ARM__ )                                          /* TI ARM Compiler */
 123:e:\liteos\liteos\targets\cloud_fm33a0xx\device\include\core_cm0plus.h ****   #define __ASM                     __asm
 124:e:\liteos\liteos\targets\cloud_fm33a0xx\device\include\core_cm0plus.h ****   #define __INLINE                  inline
 125:e:\liteos\liteos\targets\cloud_fm33a0xx\device\include\core_cm0plus.h ****   #define __STATIC_INLINE           static inline
 126:e:\liteos\liteos\targets\cloud_fm33a0xx\device\include\core_cm0plus.h ****   #define __NO_RETURN               __attribute__((noreturn))
 127:e:\liteos\liteos\targets\cloud_fm33a0xx\device\include\core_cm0plus.h ****   #define __USED                    __attribute__((used))
 128:e:\liteos\liteos\targets\cloud_fm33a0xx\device\include\core_cm0plus.h ****   #define __WEAK                    __attribute__((weak))
 129:e:\liteos\liteos\targets\cloud_fm33a0xx\device\include\core_cm0plus.h ****   struct __attribute__((packed)) T_UINT32 { uint32_t v; };
 130:e:\liteos\liteos\targets\cloud_fm33a0xx\device\include\core_cm0plus.h ****   #define __UNALIGNED_UINT32(x)     (((struct T_UINT32 *)(x))->v)
 131:e:\liteos\liteos\targets\cloud_fm33a0xx\device\include\core_cm0plus.h **** 
ARM GAS  C:\Users\WANGBI~1\AppData\Local\Temp\ccbZtvog.s 			page 4


 132:e:\liteos\liteos\targets\cloud_fm33a0xx\device\include\core_cm0plus.h **** #elif defined ( __TASKING__ )                                         /* TASKING Compiler */
 133:e:\liteos\liteos\targets\cloud_fm33a0xx\device\include\core_cm0plus.h ****   #define __ASM                     __asm
 134:e:\liteos\liteos\targets\cloud_fm33a0xx\device\include\core_cm0plus.h ****   #define __INLINE                  inline
 135:e:\liteos\liteos\targets\cloud_fm33a0xx\device\include\core_cm0plus.h ****   #define __STATIC_INLINE           static inline
 136:e:\liteos\liteos\targets\cloud_fm33a0xx\device\include\core_cm0plus.h ****   #define __NO_RETURN               __attribute__((noreturn))
 137:e:\liteos\liteos\targets\cloud_fm33a0xx\device\include\core_cm0plus.h ****   #define __USED                    __attribute__((used))
 138:e:\liteos\liteos\targets\cloud_fm33a0xx\device\include\core_cm0plus.h ****   #define __WEAK                    __attribute__((weak))
 139:e:\liteos\liteos\targets\cloud_fm33a0xx\device\include\core_cm0plus.h ****   struct __packed__ T_UINT32 { uint32_t v; };
 140:e:\liteos\liteos\targets\cloud_fm33a0xx\device\include\core_cm0plus.h ****   #define __UNALIGNED_UINT32(x)     (((struct T_UINT32 *)(x))->v)
 141:e:\liteos\liteos\targets\cloud_fm33a0xx\device\include\core_cm0plus.h **** 
 142:e:\liteos\liteos\targets\cloud_fm33a0xx\device\include\core_cm0plus.h **** #elif defined ( __CSMC__ )                                            /* COSMIC Compiler */
 143:e:\liteos\liteos\targets\cloud_fm33a0xx\device\include\core_cm0plus.h ****   #define __packed
 144:e:\liteos\liteos\targets\cloud_fm33a0xx\device\include\core_cm0plus.h ****   #define __ASM                     _asm
 145:e:\liteos\liteos\targets\cloud_fm33a0xx\device\include\core_cm0plus.h ****   #define __INLINE                  inline
 146:e:\liteos\liteos\targets\cloud_fm33a0xx\device\include\core_cm0plus.h ****   #define __STATIC_INLINE           static inline
 147:e:\liteos\liteos\targets\cloud_fm33a0xx\device\include\core_cm0plus.h ****   #define __NO_RETURN
 148:e:\liteos\liteos\targets\cloud_fm33a0xx\device\include\core_cm0plus.h ****   #define __USED
 149:e:\liteos\liteos\targets\cloud_fm33a0xx\device\include\core_cm0plus.h ****   #define __WEAK
 150:e:\liteos\liteos\targets\cloud_fm33a0xx\device\include\core_cm0plus.h ****   #define __UNALIGNED_UINT32(x)     (*x)
 151:e:\liteos\liteos\targets\cloud_fm33a0xx\device\include\core_cm0plus.h **** 
 152:e:\liteos\liteos\targets\cloud_fm33a0xx\device\include\core_cm0plus.h **** #else
 153:e:\liteos\liteos\targets\cloud_fm33a0xx\device\include\core_cm0plus.h ****   #error Unknown compiler
 154:e:\liteos\liteos\targets\cloud_fm33a0xx\device\include\core_cm0plus.h **** #endif
 155:e:\liteos\liteos\targets\cloud_fm33a0xx\device\include\core_cm0plus.h **** 
 156:e:\liteos\liteos\targets\cloud_fm33a0xx\device\include\core_cm0plus.h **** /** __FPU_USED indicates whether an FPU is used or not.
 157:e:\liteos\liteos\targets\cloud_fm33a0xx\device\include\core_cm0plus.h ****     This core does not support an FPU at all
 158:e:\liteos\liteos\targets\cloud_fm33a0xx\device\include\core_cm0plus.h **** */
 159:e:\liteos\liteos\targets\cloud_fm33a0xx\device\include\core_cm0plus.h **** #define __FPU_USED       0U
 160:e:\liteos\liteos\targets\cloud_fm33a0xx\device\include\core_cm0plus.h **** 
 161:e:\liteos\liteos\targets\cloud_fm33a0xx\device\include\core_cm0plus.h **** #if defined ( __CC_ARM )
 162:e:\liteos\liteos\targets\cloud_fm33a0xx\device\include\core_cm0plus.h ****   #if defined __TARGET_FPU_VFP
 163:e:\liteos\liteos\targets\cloud_fm33a0xx\device\include\core_cm0plus.h ****     #error "Compiler generates FPU instructions for a device without an FPU (check __FPU_PRESENT)"
 164:e:\liteos\liteos\targets\cloud_fm33a0xx\device\include\core_cm0plus.h ****   #endif
 165:e:\liteos\liteos\targets\cloud_fm33a0xx\device\include\core_cm0plus.h **** 
 166:e:\liteos\liteos\targets\cloud_fm33a0xx\device\include\core_cm0plus.h **** #elif defined (__ARMCC_VERSION) && (__ARMCC_VERSION >= 6010050)
 167:e:\liteos\liteos\targets\cloud_fm33a0xx\device\include\core_cm0plus.h ****   #if defined __ARM_PCS_VFP
 168:e:\liteos\liteos\targets\cloud_fm33a0xx\device\include\core_cm0plus.h ****     #error "Compiler generates FPU instructions for a device without an FPU (check __FPU_PRESENT)"
 169:e:\liteos\liteos\targets\cloud_fm33a0xx\device\include\core_cm0plus.h ****   #endif
 170:e:\liteos\liteos\targets\cloud_fm33a0xx\device\include\core_cm0plus.h **** 
 171:e:\liteos\liteos\targets\cloud_fm33a0xx\device\include\core_cm0plus.h **** #elif defined ( __GNUC__ )
 172:e:\liteos\liteos\targets\cloud_fm33a0xx\device\include\core_cm0plus.h ****   #if defined (__VFP_FP__) && !defined(__SOFTFP__)
 173:e:\liteos\liteos\targets\cloud_fm33a0xx\device\include\core_cm0plus.h ****     #error "Compiler generates FPU instructions for a device without an FPU (check __FPU_PRESENT)"
 174:e:\liteos\liteos\targets\cloud_fm33a0xx\device\include\core_cm0plus.h ****   #endif
 175:e:\liteos\liteos\targets\cloud_fm33a0xx\device\include\core_cm0plus.h **** 
 176:e:\liteos\liteos\targets\cloud_fm33a0xx\device\include\core_cm0plus.h **** #elif defined ( __ICCARM__ )
 177:e:\liteos\liteos\targets\cloud_fm33a0xx\device\include\core_cm0plus.h ****   #if defined __ARMVFP__
 178:e:\liteos\liteos\targets\cloud_fm33a0xx\device\include\core_cm0plus.h ****     #error "Compiler generates FPU instructions for a device without an FPU (check __FPU_PRESENT)"
 179:e:\liteos\liteos\targets\cloud_fm33a0xx\device\include\core_cm0plus.h ****   #endif
 180:e:\liteos\liteos\targets\cloud_fm33a0xx\device\include\core_cm0plus.h **** 
 181:e:\liteos\liteos\targets\cloud_fm33a0xx\device\include\core_cm0plus.h **** #elif defined ( __TI_ARM__ )
 182:e:\liteos\liteos\targets\cloud_fm33a0xx\device\include\core_cm0plus.h ****   #if defined __TI_VFP_SUPPORT__
 183:e:\liteos\liteos\targets\cloud_fm33a0xx\device\include\core_cm0plus.h ****     #error "Compiler generates FPU instructions for a device without an FPU (check __FPU_PRESENT)"
 184:e:\liteos\liteos\targets\cloud_fm33a0xx\device\include\core_cm0plus.h ****   #endif
 185:e:\liteos\liteos\targets\cloud_fm33a0xx\device\include\core_cm0plus.h **** 
 186:e:\liteos\liteos\targets\cloud_fm33a0xx\device\include\core_cm0plus.h **** #elif defined ( __TASKING__ )
 187:e:\liteos\liteos\targets\cloud_fm33a0xx\device\include\core_cm0plus.h ****   #if defined __FPU_VFP__
 188:e:\liteos\liteos\targets\cloud_fm33a0xx\device\include\core_cm0plus.h ****     #error "Compiler generates FPU instructions for a device without an FPU (check __FPU_PRESENT)"
ARM GAS  C:\Users\WANGBI~1\AppData\Local\Temp\ccbZtvog.s 			page 5


 189:e:\liteos\liteos\targets\cloud_fm33a0xx\device\include\core_cm0plus.h ****   #endif
 190:e:\liteos\liteos\targets\cloud_fm33a0xx\device\include\core_cm0plus.h **** 
 191:e:\liteos\liteos\targets\cloud_fm33a0xx\device\include\core_cm0plus.h **** #elif defined ( __CSMC__ )
 192:e:\liteos\liteos\targets\cloud_fm33a0xx\device\include\core_cm0plus.h ****   #if ( __CSMC__ & 0x400U)
 193:e:\liteos\liteos\targets\cloud_fm33a0xx\device\include\core_cm0plus.h ****     #error "Compiler generates FPU instructions for a device without an FPU (check __FPU_PRESENT)"
 194:e:\liteos\liteos\targets\cloud_fm33a0xx\device\include\core_cm0plus.h ****   #endif
 195:e:\liteos\liteos\targets\cloud_fm33a0xx\device\include\core_cm0plus.h **** 
 196:e:\liteos\liteos\targets\cloud_fm33a0xx\device\include\core_cm0plus.h **** #endif
 197:e:\liteos\liteos\targets\cloud_fm33a0xx\device\include\core_cm0plus.h **** 
 198:e:\liteos\liteos\targets\cloud_fm33a0xx\device\include\core_cm0plus.h **** #include "core_cminstr.h"                /* Core Instruction Access */
 199:e:\liteos\liteos\targets\cloud_fm33a0xx\device\include\core_cm0plus.h **** #include "core_cmfunc.h"                 /* Core Function Access */
 200:e:\liteos\liteos\targets\cloud_fm33a0xx\device\include\core_cm0plus.h **** 
 201:e:\liteos\liteos\targets\cloud_fm33a0xx\device\include\core_cm0plus.h **** #ifdef __cplusplus
 202:e:\liteos\liteos\targets\cloud_fm33a0xx\device\include\core_cm0plus.h **** }
 203:e:\liteos\liteos\targets\cloud_fm33a0xx\device\include\core_cm0plus.h **** #endif
 204:e:\liteos\liteos\targets\cloud_fm33a0xx\device\include\core_cm0plus.h **** 
 205:e:\liteos\liteos\targets\cloud_fm33a0xx\device\include\core_cm0plus.h **** #endif /* __CORE_CM0PLUS_H_GENERIC */
 206:e:\liteos\liteos\targets\cloud_fm33a0xx\device\include\core_cm0plus.h **** 
 207:e:\liteos\liteos\targets\cloud_fm33a0xx\device\include\core_cm0plus.h **** #ifndef __CMSIS_GENERIC
 208:e:\liteos\liteos\targets\cloud_fm33a0xx\device\include\core_cm0plus.h **** 
 209:e:\liteos\liteos\targets\cloud_fm33a0xx\device\include\core_cm0plus.h **** #ifndef __CORE_CM0PLUS_H_DEPENDANT
 210:e:\liteos\liteos\targets\cloud_fm33a0xx\device\include\core_cm0plus.h **** #define __CORE_CM0PLUS_H_DEPENDANT
 211:e:\liteos\liteos\targets\cloud_fm33a0xx\device\include\core_cm0plus.h **** 
 212:e:\liteos\liteos\targets\cloud_fm33a0xx\device\include\core_cm0plus.h **** #ifdef __cplusplus
 213:e:\liteos\liteos\targets\cloud_fm33a0xx\device\include\core_cm0plus.h ****  extern "C" {
 214:e:\liteos\liteos\targets\cloud_fm33a0xx\device\include\core_cm0plus.h **** #endif
 215:e:\liteos\liteos\targets\cloud_fm33a0xx\device\include\core_cm0plus.h **** 
 216:e:\liteos\liteos\targets\cloud_fm33a0xx\device\include\core_cm0plus.h **** /* check device defines and use defaults */
 217:e:\liteos\liteos\targets\cloud_fm33a0xx\device\include\core_cm0plus.h **** #if defined __CHECK_DEVICE_DEFINES
 218:e:\liteos\liteos\targets\cloud_fm33a0xx\device\include\core_cm0plus.h ****   #ifndef __CM0PLUS_REV
 219:e:\liteos\liteos\targets\cloud_fm33a0xx\device\include\core_cm0plus.h ****     #define __CM0PLUS_REV             0x0000U
 220:e:\liteos\liteos\targets\cloud_fm33a0xx\device\include\core_cm0plus.h ****     #warning "__CM0PLUS_REV not defined in device header file; using default!"
 221:e:\liteos\liteos\targets\cloud_fm33a0xx\device\include\core_cm0plus.h ****   #endif
 222:e:\liteos\liteos\targets\cloud_fm33a0xx\device\include\core_cm0plus.h **** 
 223:e:\liteos\liteos\targets\cloud_fm33a0xx\device\include\core_cm0plus.h ****   #ifndef __MPU_PRESENT
 224:e:\liteos\liteos\targets\cloud_fm33a0xx\device\include\core_cm0plus.h ****     #define __MPU_PRESENT             0U
 225:e:\liteos\liteos\targets\cloud_fm33a0xx\device\include\core_cm0plus.h ****     #warning "__MPU_PRESENT not defined in device header file; using default!"
 226:e:\liteos\liteos\targets\cloud_fm33a0xx\device\include\core_cm0plus.h ****   #endif
 227:e:\liteos\liteos\targets\cloud_fm33a0xx\device\include\core_cm0plus.h **** 
 228:e:\liteos\liteos\targets\cloud_fm33a0xx\device\include\core_cm0plus.h ****   #ifndef __VTOR_PRESENT
 229:e:\liteos\liteos\targets\cloud_fm33a0xx\device\include\core_cm0plus.h ****     #define __VTOR_PRESENT            0U
 230:e:\liteos\liteos\targets\cloud_fm33a0xx\device\include\core_cm0plus.h ****     #warning "__VTOR_PRESENT not defined in device header file; using default!"
 231:e:\liteos\liteos\targets\cloud_fm33a0xx\device\include\core_cm0plus.h ****   #endif
 232:e:\liteos\liteos\targets\cloud_fm33a0xx\device\include\core_cm0plus.h **** 
 233:e:\liteos\liteos\targets\cloud_fm33a0xx\device\include\core_cm0plus.h ****   #ifndef __NVIC_PRIO_BITS
 234:e:\liteos\liteos\targets\cloud_fm33a0xx\device\include\core_cm0plus.h ****     #define __NVIC_PRIO_BITS          2U
 235:e:\liteos\liteos\targets\cloud_fm33a0xx\device\include\core_cm0plus.h ****     #warning "__NVIC_PRIO_BITS not defined in device header file; using default!"
 236:e:\liteos\liteos\targets\cloud_fm33a0xx\device\include\core_cm0plus.h ****   #endif
 237:e:\liteos\liteos\targets\cloud_fm33a0xx\device\include\core_cm0plus.h **** 
 238:e:\liteos\liteos\targets\cloud_fm33a0xx\device\include\core_cm0plus.h ****   #ifndef __Vendor_SysTickConfig
 239:e:\liteos\liteos\targets\cloud_fm33a0xx\device\include\core_cm0plus.h ****     #define __Vendor_SysTickConfig    0U
 240:e:\liteos\liteos\targets\cloud_fm33a0xx\device\include\core_cm0plus.h ****     #warning "__Vendor_SysTickConfig not defined in device header file; using default!"
 241:e:\liteos\liteos\targets\cloud_fm33a0xx\device\include\core_cm0plus.h ****   #endif
 242:e:\liteos\liteos\targets\cloud_fm33a0xx\device\include\core_cm0plus.h **** #endif
 243:e:\liteos\liteos\targets\cloud_fm33a0xx\device\include\core_cm0plus.h **** 
 244:e:\liteos\liteos\targets\cloud_fm33a0xx\device\include\core_cm0plus.h **** /* IO definitions (access restrictions to peripheral registers) */
 245:e:\liteos\liteos\targets\cloud_fm33a0xx\device\include\core_cm0plus.h **** /**
ARM GAS  C:\Users\WANGBI~1\AppData\Local\Temp\ccbZtvog.s 			page 6


 246:e:\liteos\liteos\targets\cloud_fm33a0xx\device\include\core_cm0plus.h ****     \defgroup CMSIS_glob_defs CMSIS Global Defines
 247:e:\liteos\liteos\targets\cloud_fm33a0xx\device\include\core_cm0plus.h **** 
 248:e:\liteos\liteos\targets\cloud_fm33a0xx\device\include\core_cm0plus.h ****     <strong>IO Type Qualifiers</strong> are used
 249:e:\liteos\liteos\targets\cloud_fm33a0xx\device\include\core_cm0plus.h ****     \li to specify the access to peripheral variables.
 250:e:\liteos\liteos\targets\cloud_fm33a0xx\device\include\core_cm0plus.h ****     \li for automatic generation of peripheral register debug information.
 251:e:\liteos\liteos\targets\cloud_fm33a0xx\device\include\core_cm0plus.h **** */
 252:e:\liteos\liteos\targets\cloud_fm33a0xx\device\include\core_cm0plus.h **** #ifdef __cplusplus
 253:e:\liteos\liteos\targets\cloud_fm33a0xx\device\include\core_cm0plus.h ****   #define   __I     volatile             /*!< Defines 'read only' permissions */
 254:e:\liteos\liteos\targets\cloud_fm33a0xx\device\include\core_cm0plus.h **** #else
 255:e:\liteos\liteos\targets\cloud_fm33a0xx\device\include\core_cm0plus.h ****   #define   __I     volatile const       /*!< Defines 'read only' permissions */
 256:e:\liteos\liteos\targets\cloud_fm33a0xx\device\include\core_cm0plus.h **** #endif
 257:e:\liteos\liteos\targets\cloud_fm33a0xx\device\include\core_cm0plus.h **** #define     __O     volatile             /*!< Defines 'write only' permissions */
 258:e:\liteos\liteos\targets\cloud_fm33a0xx\device\include\core_cm0plus.h **** #define     __IO    volatile             /*!< Defines 'read / write' permissions */
 259:e:\liteos\liteos\targets\cloud_fm33a0xx\device\include\core_cm0plus.h **** 
 260:e:\liteos\liteos\targets\cloud_fm33a0xx\device\include\core_cm0plus.h **** /* following defines should be used for structure members */
 261:e:\liteos\liteos\targets\cloud_fm33a0xx\device\include\core_cm0plus.h **** #define     __IM     volatile const      /*! Defines 'read only' structure member permissions */
 262:e:\liteos\liteos\targets\cloud_fm33a0xx\device\include\core_cm0plus.h **** #define     __OM     volatile            /*! Defines 'write only' structure member permissions */
 263:e:\liteos\liteos\targets\cloud_fm33a0xx\device\include\core_cm0plus.h **** #define     __IOM    volatile            /*! Defines 'read / write' structure member permissions */
 264:e:\liteos\liteos\targets\cloud_fm33a0xx\device\include\core_cm0plus.h **** 
 265:e:\liteos\liteos\targets\cloud_fm33a0xx\device\include\core_cm0plus.h **** /*@} end of group Cortex-M0+ */
 266:e:\liteos\liteos\targets\cloud_fm33a0xx\device\include\core_cm0plus.h **** 
 267:e:\liteos\liteos\targets\cloud_fm33a0xx\device\include\core_cm0plus.h **** 
 268:e:\liteos\liteos\targets\cloud_fm33a0xx\device\include\core_cm0plus.h **** 
 269:e:\liteos\liteos\targets\cloud_fm33a0xx\device\include\core_cm0plus.h **** /*******************************************************************************
 270:e:\liteos\liteos\targets\cloud_fm33a0xx\device\include\core_cm0plus.h ****  *                 Register Abstraction
 271:e:\liteos\liteos\targets\cloud_fm33a0xx\device\include\core_cm0plus.h ****   Core Register contain:
 272:e:\liteos\liteos\targets\cloud_fm33a0xx\device\include\core_cm0plus.h ****   - Core Register
 273:e:\liteos\liteos\targets\cloud_fm33a0xx\device\include\core_cm0plus.h ****   - Core NVIC Register
 274:e:\liteos\liteos\targets\cloud_fm33a0xx\device\include\core_cm0plus.h ****   - Core SCB Register
 275:e:\liteos\liteos\targets\cloud_fm33a0xx\device\include\core_cm0plus.h ****   - Core SysTick Register
 276:e:\liteos\liteos\targets\cloud_fm33a0xx\device\include\core_cm0plus.h ****   - Core MPU Register
 277:e:\liteos\liteos\targets\cloud_fm33a0xx\device\include\core_cm0plus.h ****  ******************************************************************************/
 278:e:\liteos\liteos\targets\cloud_fm33a0xx\device\include\core_cm0plus.h **** /**
 279:e:\liteos\liteos\targets\cloud_fm33a0xx\device\include\core_cm0plus.h ****   \defgroup CMSIS_core_register Defines and Type Definitions
 280:e:\liteos\liteos\targets\cloud_fm33a0xx\device\include\core_cm0plus.h ****   \brief Type definitions and defines for Cortex-M processor based devices.
 281:e:\liteos\liteos\targets\cloud_fm33a0xx\device\include\core_cm0plus.h **** */
 282:e:\liteos\liteos\targets\cloud_fm33a0xx\device\include\core_cm0plus.h **** 
 283:e:\liteos\liteos\targets\cloud_fm33a0xx\device\include\core_cm0plus.h **** /**
 284:e:\liteos\liteos\targets\cloud_fm33a0xx\device\include\core_cm0plus.h ****   \ingroup    CMSIS_core_register
 285:e:\liteos\liteos\targets\cloud_fm33a0xx\device\include\core_cm0plus.h ****   \defgroup   CMSIS_CORE  Status and Control Registers
 286:e:\liteos\liteos\targets\cloud_fm33a0xx\device\include\core_cm0plus.h ****   \brief      Core Register type definitions.
 287:e:\liteos\liteos\targets\cloud_fm33a0xx\device\include\core_cm0plus.h ****   @{
 288:e:\liteos\liteos\targets\cloud_fm33a0xx\device\include\core_cm0plus.h ****  */
 289:e:\liteos\liteos\targets\cloud_fm33a0xx\device\include\core_cm0plus.h **** 
 290:e:\liteos\liteos\targets\cloud_fm33a0xx\device\include\core_cm0plus.h **** /**
 291:e:\liteos\liteos\targets\cloud_fm33a0xx\device\include\core_cm0plus.h ****   \brief  Union type to access the Application Program Status Register (APSR).
 292:e:\liteos\liteos\targets\cloud_fm33a0xx\device\include\core_cm0plus.h ****  */
 293:e:\liteos\liteos\targets\cloud_fm33a0xx\device\include\core_cm0plus.h **** typedef union
 294:e:\liteos\liteos\targets\cloud_fm33a0xx\device\include\core_cm0plus.h **** {
 295:e:\liteos\liteos\targets\cloud_fm33a0xx\device\include\core_cm0plus.h ****   struct
 296:e:\liteos\liteos\targets\cloud_fm33a0xx\device\include\core_cm0plus.h ****   {
 297:e:\liteos\liteos\targets\cloud_fm33a0xx\device\include\core_cm0plus.h ****     uint32_t _reserved0:28;              /*!< bit:  0..27  Reserved */
 298:e:\liteos\liteos\targets\cloud_fm33a0xx\device\include\core_cm0plus.h ****     uint32_t V:1;                        /*!< bit:     28  Overflow condition code flag */
 299:e:\liteos\liteos\targets\cloud_fm33a0xx\device\include\core_cm0plus.h ****     uint32_t C:1;                        /*!< bit:     29  Carry condition code flag */
 300:e:\liteos\liteos\targets\cloud_fm33a0xx\device\include\core_cm0plus.h ****     uint32_t Z:1;                        /*!< bit:     30  Zero condition code flag */
 301:e:\liteos\liteos\targets\cloud_fm33a0xx\device\include\core_cm0plus.h ****     uint32_t N:1;                        /*!< bit:     31  Negative condition code flag */
 302:e:\liteos\liteos\targets\cloud_fm33a0xx\device\include\core_cm0plus.h ****   } b;                                   /*!< Structure used for bit  access */
ARM GAS  C:\Users\WANGBI~1\AppData\Local\Temp\ccbZtvog.s 			page 7


 303:e:\liteos\liteos\targets\cloud_fm33a0xx\device\include\core_cm0plus.h ****   uint32_t w;                            /*!< Type      used for word access */
 304:e:\liteos\liteos\targets\cloud_fm33a0xx\device\include\core_cm0plus.h **** } APSR_Type;
 305:e:\liteos\liteos\targets\cloud_fm33a0xx\device\include\core_cm0plus.h **** 
 306:e:\liteos\liteos\targets\cloud_fm33a0xx\device\include\core_cm0plus.h **** /* APSR Register Definitions */
 307:e:\liteos\liteos\targets\cloud_fm33a0xx\device\include\core_cm0plus.h **** #define APSR_N_Pos                         31U                                            /*!< APSR
 308:e:\liteos\liteos\targets\cloud_fm33a0xx\device\include\core_cm0plus.h **** #define APSR_N_Msk                         (1UL << APSR_N_Pos)                            /*!< APSR
 309:e:\liteos\liteos\targets\cloud_fm33a0xx\device\include\core_cm0plus.h **** 
 310:e:\liteos\liteos\targets\cloud_fm33a0xx\device\include\core_cm0plus.h **** #define APSR_Z_Pos                         30U                                            /*!< APSR
 311:e:\liteos\liteos\targets\cloud_fm33a0xx\device\include\core_cm0plus.h **** #define APSR_Z_Msk                         (1UL << APSR_Z_Pos)                            /*!< APSR
 312:e:\liteos\liteos\targets\cloud_fm33a0xx\device\include\core_cm0plus.h **** 
 313:e:\liteos\liteos\targets\cloud_fm33a0xx\device\include\core_cm0plus.h **** #define APSR_C_Pos                         29U                                            /*!< APSR
 314:e:\liteos\liteos\targets\cloud_fm33a0xx\device\include\core_cm0plus.h **** #define APSR_C_Msk                         (1UL << APSR_C_Pos)                            /*!< APSR
 315:e:\liteos\liteos\targets\cloud_fm33a0xx\device\include\core_cm0plus.h **** 
 316:e:\liteos\liteos\targets\cloud_fm33a0xx\device\include\core_cm0plus.h **** #define APSR_V_Pos                         28U                                            /*!< APSR
 317:e:\liteos\liteos\targets\cloud_fm33a0xx\device\include\core_cm0plus.h **** #define APSR_V_Msk                         (1UL << APSR_V_Pos)                            /*!< APSR
 318:e:\liteos\liteos\targets\cloud_fm33a0xx\device\include\core_cm0plus.h **** 
 319:e:\liteos\liteos\targets\cloud_fm33a0xx\device\include\core_cm0plus.h **** 
 320:e:\liteos\liteos\targets\cloud_fm33a0xx\device\include\core_cm0plus.h **** /**
 321:e:\liteos\liteos\targets\cloud_fm33a0xx\device\include\core_cm0plus.h ****   \brief  Union type to access the Interrupt Program Status Register (IPSR).
 322:e:\liteos\liteos\targets\cloud_fm33a0xx\device\include\core_cm0plus.h ****  */
 323:e:\liteos\liteos\targets\cloud_fm33a0xx\device\include\core_cm0plus.h **** typedef union
 324:e:\liteos\liteos\targets\cloud_fm33a0xx\device\include\core_cm0plus.h **** {
 325:e:\liteos\liteos\targets\cloud_fm33a0xx\device\include\core_cm0plus.h ****   struct
 326:e:\liteos\liteos\targets\cloud_fm33a0xx\device\include\core_cm0plus.h ****   {
 327:e:\liteos\liteos\targets\cloud_fm33a0xx\device\include\core_cm0plus.h ****     uint32_t ISR:9;                      /*!< bit:  0.. 8  Exception number */
 328:e:\liteos\liteos\targets\cloud_fm33a0xx\device\include\core_cm0plus.h ****     uint32_t _reserved0:23;              /*!< bit:  9..31  Reserved */
 329:e:\liteos\liteos\targets\cloud_fm33a0xx\device\include\core_cm0plus.h ****   } b;                                   /*!< Structure used for bit  access */
 330:e:\liteos\liteos\targets\cloud_fm33a0xx\device\include\core_cm0plus.h ****   uint32_t w;                            /*!< Type      used for word access */
 331:e:\liteos\liteos\targets\cloud_fm33a0xx\device\include\core_cm0plus.h **** } IPSR_Type;
 332:e:\liteos\liteos\targets\cloud_fm33a0xx\device\include\core_cm0plus.h **** 
 333:e:\liteos\liteos\targets\cloud_fm33a0xx\device\include\core_cm0plus.h **** /* IPSR Register Definitions */
 334:e:\liteos\liteos\targets\cloud_fm33a0xx\device\include\core_cm0plus.h **** #define IPSR_ISR_Pos                        0U                                            /*!< IPSR
 335:e:\liteos\liteos\targets\cloud_fm33a0xx\device\include\core_cm0plus.h **** #define IPSR_ISR_Msk                       (0x1FFUL /*<< IPSR_ISR_Pos*/)                  /*!< IPSR
 336:e:\liteos\liteos\targets\cloud_fm33a0xx\device\include\core_cm0plus.h **** 
 337:e:\liteos\liteos\targets\cloud_fm33a0xx\device\include\core_cm0plus.h **** 
 338:e:\liteos\liteos\targets\cloud_fm33a0xx\device\include\core_cm0plus.h **** /**
 339:e:\liteos\liteos\targets\cloud_fm33a0xx\device\include\core_cm0plus.h ****   \brief  Union type to access the Special-Purpose Program Status Registers (xPSR).
 340:e:\liteos\liteos\targets\cloud_fm33a0xx\device\include\core_cm0plus.h ****  */
 341:e:\liteos\liteos\targets\cloud_fm33a0xx\device\include\core_cm0plus.h **** typedef union
 342:e:\liteos\liteos\targets\cloud_fm33a0xx\device\include\core_cm0plus.h **** {
 343:e:\liteos\liteos\targets\cloud_fm33a0xx\device\include\core_cm0plus.h ****   struct
 344:e:\liteos\liteos\targets\cloud_fm33a0xx\device\include\core_cm0plus.h ****   {
 345:e:\liteos\liteos\targets\cloud_fm33a0xx\device\include\core_cm0plus.h ****     uint32_t ISR:9;                      /*!< bit:  0.. 8  Exception number */
 346:e:\liteos\liteos\targets\cloud_fm33a0xx\device\include\core_cm0plus.h ****     uint32_t _reserved0:15;              /*!< bit:  9..23  Reserved */
 347:e:\liteos\liteos\targets\cloud_fm33a0xx\device\include\core_cm0plus.h ****     uint32_t T:1;                        /*!< bit:     24  Thumb bit        (read 0) */
 348:e:\liteos\liteos\targets\cloud_fm33a0xx\device\include\core_cm0plus.h ****     uint32_t _reserved1:3;               /*!< bit: 25..27  Reserved */
 349:e:\liteos\liteos\targets\cloud_fm33a0xx\device\include\core_cm0plus.h ****     uint32_t V:1;                        /*!< bit:     28  Overflow condition code flag */
 350:e:\liteos\liteos\targets\cloud_fm33a0xx\device\include\core_cm0plus.h ****     uint32_t C:1;                        /*!< bit:     29  Carry condition code flag */
 351:e:\liteos\liteos\targets\cloud_fm33a0xx\device\include\core_cm0plus.h ****     uint32_t Z:1;                        /*!< bit:     30  Zero condition code flag */
 352:e:\liteos\liteos\targets\cloud_fm33a0xx\device\include\core_cm0plus.h ****     uint32_t N:1;                        /*!< bit:     31  Negative condition code flag */
 353:e:\liteos\liteos\targets\cloud_fm33a0xx\device\include\core_cm0plus.h ****   } b;                                   /*!< Structure used for bit  access */
 354:e:\liteos\liteos\targets\cloud_fm33a0xx\device\include\core_cm0plus.h ****   uint32_t w;                            /*!< Type      used for word access */
 355:e:\liteos\liteos\targets\cloud_fm33a0xx\device\include\core_cm0plus.h **** } xPSR_Type;
 356:e:\liteos\liteos\targets\cloud_fm33a0xx\device\include\core_cm0plus.h **** 
 357:e:\liteos\liteos\targets\cloud_fm33a0xx\device\include\core_cm0plus.h **** /* xPSR Register Definitions */
 358:e:\liteos\liteos\targets\cloud_fm33a0xx\device\include\core_cm0plus.h **** #define xPSR_N_Pos                         31U                                            /*!< xPSR
 359:e:\liteos\liteos\targets\cloud_fm33a0xx\device\include\core_cm0plus.h **** #define xPSR_N_Msk                         (1UL << xPSR_N_Pos)                            /*!< xPSR
ARM GAS  C:\Users\WANGBI~1\AppData\Local\Temp\ccbZtvog.s 			page 8


 360:e:\liteos\liteos\targets\cloud_fm33a0xx\device\include\core_cm0plus.h **** 
 361:e:\liteos\liteos\targets\cloud_fm33a0xx\device\include\core_cm0plus.h **** #define xPSR_Z_Pos                         30U                                            /*!< xPSR
 362:e:\liteos\liteos\targets\cloud_fm33a0xx\device\include\core_cm0plus.h **** #define xPSR_Z_Msk                         (1UL << xPSR_Z_Pos)                            /*!< xPSR
 363:e:\liteos\liteos\targets\cloud_fm33a0xx\device\include\core_cm0plus.h **** 
 364:e:\liteos\liteos\targets\cloud_fm33a0xx\device\include\core_cm0plus.h **** #define xPSR_C_Pos                         29U                                            /*!< xPSR
 365:e:\liteos\liteos\targets\cloud_fm33a0xx\device\include\core_cm0plus.h **** #define xPSR_C_Msk                         (1UL << xPSR_C_Pos)                            /*!< xPSR
 366:e:\liteos\liteos\targets\cloud_fm33a0xx\device\include\core_cm0plus.h **** 
 367:e:\liteos\liteos\targets\cloud_fm33a0xx\device\include\core_cm0plus.h **** #define xPSR_V_Pos                         28U                                            /*!< xPSR
 368:e:\liteos\liteos\targets\cloud_fm33a0xx\device\include\core_cm0plus.h **** #define xPSR_V_Msk                         (1UL << xPSR_V_Pos)                            /*!< xPSR
 369:e:\liteos\liteos\targets\cloud_fm33a0xx\device\include\core_cm0plus.h **** 
 370:e:\liteos\liteos\targets\cloud_fm33a0xx\device\include\core_cm0plus.h **** #define xPSR_T_Pos                         24U                                            /*!< xPSR
 371:e:\liteos\liteos\targets\cloud_fm33a0xx\device\include\core_cm0plus.h **** #define xPSR_T_Msk                         (1UL << xPSR_T_Pos)                            /*!< xPSR
 372:e:\liteos\liteos\targets\cloud_fm33a0xx\device\include\core_cm0plus.h **** 
 373:e:\liteos\liteos\targets\cloud_fm33a0xx\device\include\core_cm0plus.h **** #define xPSR_ISR_Pos                        0U                                            /*!< xPSR
 374:e:\liteos\liteos\targets\cloud_fm33a0xx\device\include\core_cm0plus.h **** #define xPSR_ISR_Msk                       (0x1FFUL /*<< xPSR_ISR_Pos*/)                  /*!< xPSR
 375:e:\liteos\liteos\targets\cloud_fm33a0xx\device\include\core_cm0plus.h **** 
 376:e:\liteos\liteos\targets\cloud_fm33a0xx\device\include\core_cm0plus.h **** 
 377:e:\liteos\liteos\targets\cloud_fm33a0xx\device\include\core_cm0plus.h **** /**
 378:e:\liteos\liteos\targets\cloud_fm33a0xx\device\include\core_cm0plus.h ****   \brief  Union type to access the Control Registers (CONTROL).
 379:e:\liteos\liteos\targets\cloud_fm33a0xx\device\include\core_cm0plus.h ****  */
 380:e:\liteos\liteos\targets\cloud_fm33a0xx\device\include\core_cm0plus.h **** typedef union
 381:e:\liteos\liteos\targets\cloud_fm33a0xx\device\include\core_cm0plus.h **** {
 382:e:\liteos\liteos\targets\cloud_fm33a0xx\device\include\core_cm0plus.h ****   struct
 383:e:\liteos\liteos\targets\cloud_fm33a0xx\device\include\core_cm0plus.h ****   {
 384:e:\liteos\liteos\targets\cloud_fm33a0xx\device\include\core_cm0plus.h ****     uint32_t nPRIV:1;                    /*!< bit:      0  Execution privilege in Thread mode */
 385:e:\liteos\liteos\targets\cloud_fm33a0xx\device\include\core_cm0plus.h ****     uint32_t SPSEL:1;                    /*!< bit:      1  Stack to be used */
 386:e:\liteos\liteos\targets\cloud_fm33a0xx\device\include\core_cm0plus.h ****     uint32_t _reserved1:30;              /*!< bit:  2..31  Reserved */
 387:e:\liteos\liteos\targets\cloud_fm33a0xx\device\include\core_cm0plus.h ****   } b;                                   /*!< Structure used for bit  access */
 388:e:\liteos\liteos\targets\cloud_fm33a0xx\device\include\core_cm0plus.h ****   uint32_t w;                            /*!< Type      used for word access */
 389:e:\liteos\liteos\targets\cloud_fm33a0xx\device\include\core_cm0plus.h **** } CONTROL_Type;
 390:e:\liteos\liteos\targets\cloud_fm33a0xx\device\include\core_cm0plus.h **** 
 391:e:\liteos\liteos\targets\cloud_fm33a0xx\device\include\core_cm0plus.h **** /* CONTROL Register Definitions */
 392:e:\liteos\liteos\targets\cloud_fm33a0xx\device\include\core_cm0plus.h **** #define CONTROL_SPSEL_Pos                   1U                                            /*!< CONT
 393:e:\liteos\liteos\targets\cloud_fm33a0xx\device\include\core_cm0plus.h **** #define CONTROL_SPSEL_Msk                  (1UL << CONTROL_SPSEL_Pos)                     /*!< CONT
 394:e:\liteos\liteos\targets\cloud_fm33a0xx\device\include\core_cm0plus.h **** 
 395:e:\liteos\liteos\targets\cloud_fm33a0xx\device\include\core_cm0plus.h **** #define CONTROL_nPRIV_Pos                   0U                                            /*!< CONT
 396:e:\liteos\liteos\targets\cloud_fm33a0xx\device\include\core_cm0plus.h **** #define CONTROL_nPRIV_Msk                  (1UL /*<< CONTROL_nPRIV_Pos*/)                 /*!< CONT
 397:e:\liteos\liteos\targets\cloud_fm33a0xx\device\include\core_cm0plus.h **** 
 398:e:\liteos\liteos\targets\cloud_fm33a0xx\device\include\core_cm0plus.h **** /*@} end of group CMSIS_CORE */
 399:e:\liteos\liteos\targets\cloud_fm33a0xx\device\include\core_cm0plus.h **** 
 400:e:\liteos\liteos\targets\cloud_fm33a0xx\device\include\core_cm0plus.h **** 
 401:e:\liteos\liteos\targets\cloud_fm33a0xx\device\include\core_cm0plus.h **** /**
 402:e:\liteos\liteos\targets\cloud_fm33a0xx\device\include\core_cm0plus.h ****   \ingroup    CMSIS_core_register
 403:e:\liteos\liteos\targets\cloud_fm33a0xx\device\include\core_cm0plus.h ****   \defgroup   CMSIS_NVIC  Nested Vectored Interrupt Controller (NVIC)
 404:e:\liteos\liteos\targets\cloud_fm33a0xx\device\include\core_cm0plus.h ****   \brief      Type definitions for the NVIC Registers
 405:e:\liteos\liteos\targets\cloud_fm33a0xx\device\include\core_cm0plus.h ****   @{
 406:e:\liteos\liteos\targets\cloud_fm33a0xx\device\include\core_cm0plus.h ****  */
 407:e:\liteos\liteos\targets\cloud_fm33a0xx\device\include\core_cm0plus.h **** 
 408:e:\liteos\liteos\targets\cloud_fm33a0xx\device\include\core_cm0plus.h **** /**
 409:e:\liteos\liteos\targets\cloud_fm33a0xx\device\include\core_cm0plus.h ****   \brief  Structure type to access the Nested Vectored Interrupt Controller (NVIC).
 410:e:\liteos\liteos\targets\cloud_fm33a0xx\device\include\core_cm0plus.h ****  */
 411:e:\liteos\liteos\targets\cloud_fm33a0xx\device\include\core_cm0plus.h **** typedef struct
 412:e:\liteos\liteos\targets\cloud_fm33a0xx\device\include\core_cm0plus.h **** {
 413:e:\liteos\liteos\targets\cloud_fm33a0xx\device\include\core_cm0plus.h ****   __IOM uint32_t ISER[1U];               /*!< Offset: 0x000 (R/W)  Interrupt Set Enable Register */
 414:e:\liteos\liteos\targets\cloud_fm33a0xx\device\include\core_cm0plus.h ****         uint32_t RESERVED0[31U];
 415:e:\liteos\liteos\targets\cloud_fm33a0xx\device\include\core_cm0plus.h ****   __IOM uint32_t ICER[1U];               /*!< Offset: 0x080 (R/W)  Interrupt Clear Enable Register 
 416:e:\liteos\liteos\targets\cloud_fm33a0xx\device\include\core_cm0plus.h ****         uint32_t RSERVED1[31U];
ARM GAS  C:\Users\WANGBI~1\AppData\Local\Temp\ccbZtvog.s 			page 9


 417:e:\liteos\liteos\targets\cloud_fm33a0xx\device\include\core_cm0plus.h ****   __IOM uint32_t ISPR[1U];               /*!< Offset: 0x100 (R/W)  Interrupt Set Pending Register *
 418:e:\liteos\liteos\targets\cloud_fm33a0xx\device\include\core_cm0plus.h ****         uint32_t RESERVED2[31U];
 419:e:\liteos\liteos\targets\cloud_fm33a0xx\device\include\core_cm0plus.h ****   __IOM uint32_t ICPR[1U];               /*!< Offset: 0x180 (R/W)  Interrupt Clear Pending Register
 420:e:\liteos\liteos\targets\cloud_fm33a0xx\device\include\core_cm0plus.h ****         uint32_t RESERVED3[31U];
 421:e:\liteos\liteos\targets\cloud_fm33a0xx\device\include\core_cm0plus.h ****         uint32_t RESERVED4[64U];
 422:e:\liteos\liteos\targets\cloud_fm33a0xx\device\include\core_cm0plus.h ****   __IOM uint32_t IP[8U];                 /*!< Offset: 0x300 (R/W)  Interrupt Priority Register */
 423:e:\liteos\liteos\targets\cloud_fm33a0xx\device\include\core_cm0plus.h **** }  NVIC_Type;
 424:e:\liteos\liteos\targets\cloud_fm33a0xx\device\include\core_cm0plus.h **** 
 425:e:\liteos\liteos\targets\cloud_fm33a0xx\device\include\core_cm0plus.h **** /*@} end of group CMSIS_NVIC */
 426:e:\liteos\liteos\targets\cloud_fm33a0xx\device\include\core_cm0plus.h **** 
 427:e:\liteos\liteos\targets\cloud_fm33a0xx\device\include\core_cm0plus.h **** 
 428:e:\liteos\liteos\targets\cloud_fm33a0xx\device\include\core_cm0plus.h **** /**
 429:e:\liteos\liteos\targets\cloud_fm33a0xx\device\include\core_cm0plus.h ****   \ingroup  CMSIS_core_register
 430:e:\liteos\liteos\targets\cloud_fm33a0xx\device\include\core_cm0plus.h ****   \defgroup CMSIS_SCB     System Control Block (SCB)
 431:e:\liteos\liteos\targets\cloud_fm33a0xx\device\include\core_cm0plus.h ****   \brief    Type definitions for the System Control Block Registers
 432:e:\liteos\liteos\targets\cloud_fm33a0xx\device\include\core_cm0plus.h ****   @{
 433:e:\liteos\liteos\targets\cloud_fm33a0xx\device\include\core_cm0plus.h ****  */
 434:e:\liteos\liteos\targets\cloud_fm33a0xx\device\include\core_cm0plus.h **** 
 435:e:\liteos\liteos\targets\cloud_fm33a0xx\device\include\core_cm0plus.h **** /**
 436:e:\liteos\liteos\targets\cloud_fm33a0xx\device\include\core_cm0plus.h ****   \brief  Structure type to access the System Control Block (SCB).
 437:e:\liteos\liteos\targets\cloud_fm33a0xx\device\include\core_cm0plus.h ****  */
 438:e:\liteos\liteos\targets\cloud_fm33a0xx\device\include\core_cm0plus.h **** typedef struct
 439:e:\liteos\liteos\targets\cloud_fm33a0xx\device\include\core_cm0plus.h **** {
 440:e:\liteos\liteos\targets\cloud_fm33a0xx\device\include\core_cm0plus.h ****   __IM  uint32_t CPUID;                  /*!< Offset: 0x000 (R/ )  CPUID Base Register */
 441:e:\liteos\liteos\targets\cloud_fm33a0xx\device\include\core_cm0plus.h ****   __IOM uint32_t ICSR;                   /*!< Offset: 0x004 (R/W)  Interrupt Control and State Regi
 442:e:\liteos\liteos\targets\cloud_fm33a0xx\device\include\core_cm0plus.h **** #if defined (__VTOR_PRESENT) && (__VTOR_PRESENT == 1U)
 443:e:\liteos\liteos\targets\cloud_fm33a0xx\device\include\core_cm0plus.h ****   __IOM uint32_t VTOR;                   /*!< Offset: 0x008 (R/W)  Vector Table Offset Register */
 444:e:\liteos\liteos\targets\cloud_fm33a0xx\device\include\core_cm0plus.h **** #else
 445:e:\liteos\liteos\targets\cloud_fm33a0xx\device\include\core_cm0plus.h ****         uint32_t RESERVED0;
 446:e:\liteos\liteos\targets\cloud_fm33a0xx\device\include\core_cm0plus.h **** #endif
 447:e:\liteos\liteos\targets\cloud_fm33a0xx\device\include\core_cm0plus.h ****   __IOM uint32_t AIRCR;                  /*!< Offset: 0x00C (R/W)  Application Interrupt and Reset 
 448:e:\liteos\liteos\targets\cloud_fm33a0xx\device\include\core_cm0plus.h ****   __IOM uint32_t SCR;                    /*!< Offset: 0x010 (R/W)  System Control Register */
 449:e:\liteos\liteos\targets\cloud_fm33a0xx\device\include\core_cm0plus.h ****   __IOM uint32_t CCR;                    /*!< Offset: 0x014 (R/W)  Configuration Control Register *
 450:e:\liteos\liteos\targets\cloud_fm33a0xx\device\include\core_cm0plus.h ****         uint32_t RESERVED1;
 451:e:\liteos\liteos\targets\cloud_fm33a0xx\device\include\core_cm0plus.h ****   __IOM uint32_t SHP[2U];                /*!< Offset: 0x01C (R/W)  System Handlers Priority Registe
 452:e:\liteos\liteos\targets\cloud_fm33a0xx\device\include\core_cm0plus.h ****   __IOM uint32_t SHCSR;                  /*!< Offset: 0x024 (R/W)  System Handler Control and State
 453:e:\liteos\liteos\targets\cloud_fm33a0xx\device\include\core_cm0plus.h **** } SCB_Type;
 454:e:\liteos\liteos\targets\cloud_fm33a0xx\device\include\core_cm0plus.h **** 
 455:e:\liteos\liteos\targets\cloud_fm33a0xx\device\include\core_cm0plus.h **** /* SCB CPUID Register Definitions */
 456:e:\liteos\liteos\targets\cloud_fm33a0xx\device\include\core_cm0plus.h **** #define SCB_CPUID_IMPLEMENTER_Pos          24U                                            /*!< SCB 
 457:e:\liteos\liteos\targets\cloud_fm33a0xx\device\include\core_cm0plus.h **** #define SCB_CPUID_IMPLEMENTER_Msk          (0xFFUL << SCB_CPUID_IMPLEMENTER_Pos)          /*!< SCB 
 458:e:\liteos\liteos\targets\cloud_fm33a0xx\device\include\core_cm0plus.h **** 
 459:e:\liteos\liteos\targets\cloud_fm33a0xx\device\include\core_cm0plus.h **** #define SCB_CPUID_VARIANT_Pos              20U                                            /*!< SCB 
 460:e:\liteos\liteos\targets\cloud_fm33a0xx\device\include\core_cm0plus.h **** #define SCB_CPUID_VARIANT_Msk              (0xFUL << SCB_CPUID_VARIANT_Pos)               /*!< SCB 
 461:e:\liteos\liteos\targets\cloud_fm33a0xx\device\include\core_cm0plus.h **** 
 462:e:\liteos\liteos\targets\cloud_fm33a0xx\device\include\core_cm0plus.h **** #define SCB_CPUID_ARCHITECTURE_Pos         16U                                            /*!< SCB 
 463:e:\liteos\liteos\targets\cloud_fm33a0xx\device\include\core_cm0plus.h **** #define SCB_CPUID_ARCHITECTURE_Msk         (0xFUL << SCB_CPUID_ARCHITECTURE_Pos)          /*!< SCB 
 464:e:\liteos\liteos\targets\cloud_fm33a0xx\device\include\core_cm0plus.h **** 
 465:e:\liteos\liteos\targets\cloud_fm33a0xx\device\include\core_cm0plus.h **** #define SCB_CPUID_PARTNO_Pos                4U                                            /*!< SCB 
 466:e:\liteos\liteos\targets\cloud_fm33a0xx\device\include\core_cm0plus.h **** #define SCB_CPUID_PARTNO_Msk               (0xFFFUL << SCB_CPUID_PARTNO_Pos)              /*!< SCB 
 467:e:\liteos\liteos\targets\cloud_fm33a0xx\device\include\core_cm0plus.h **** 
 468:e:\liteos\liteos\targets\cloud_fm33a0xx\device\include\core_cm0plus.h **** #define SCB_CPUID_REVISION_Pos              0U                                            /*!< SCB 
 469:e:\liteos\liteos\targets\cloud_fm33a0xx\device\include\core_cm0plus.h **** #define SCB_CPUID_REVISION_Msk             (0xFUL /*<< SCB_CPUID_REVISION_Pos*/)          /*!< SCB 
 470:e:\liteos\liteos\targets\cloud_fm33a0xx\device\include\core_cm0plus.h **** 
 471:e:\liteos\liteos\targets\cloud_fm33a0xx\device\include\core_cm0plus.h **** /* SCB Interrupt Control State Register Definitions */
 472:e:\liteos\liteos\targets\cloud_fm33a0xx\device\include\core_cm0plus.h **** #define SCB_ICSR_NMIPENDSET_Pos            31U                                            /*!< SCB 
 473:e:\liteos\liteos\targets\cloud_fm33a0xx\device\include\core_cm0plus.h **** #define SCB_ICSR_NMIPENDSET_Msk            (1UL << SCB_ICSR_NMIPENDSET_Pos)               /*!< SCB 
ARM GAS  C:\Users\WANGBI~1\AppData\Local\Temp\ccbZtvog.s 			page 10


 474:e:\liteos\liteos\targets\cloud_fm33a0xx\device\include\core_cm0plus.h **** 
 475:e:\liteos\liteos\targets\cloud_fm33a0xx\device\include\core_cm0plus.h **** #define SCB_ICSR_PENDSVSET_Pos             28U                                            /*!< SCB 
 476:e:\liteos\liteos\targets\cloud_fm33a0xx\device\include\core_cm0plus.h **** #define SCB_ICSR_PENDSVSET_Msk             (1UL << SCB_ICSR_PENDSVSET_Pos)                /*!< SCB 
 477:e:\liteos\liteos\targets\cloud_fm33a0xx\device\include\core_cm0plus.h **** 
 478:e:\liteos\liteos\targets\cloud_fm33a0xx\device\include\core_cm0plus.h **** #define SCB_ICSR_PENDSVCLR_Pos             27U                                            /*!< SCB 
 479:e:\liteos\liteos\targets\cloud_fm33a0xx\device\include\core_cm0plus.h **** #define SCB_ICSR_PENDSVCLR_Msk             (1UL << SCB_ICSR_PENDSVCLR_Pos)                /*!< SCB 
 480:e:\liteos\liteos\targets\cloud_fm33a0xx\device\include\core_cm0plus.h **** 
 481:e:\liteos\liteos\targets\cloud_fm33a0xx\device\include\core_cm0plus.h **** #define SCB_ICSR_PENDSTSET_Pos             26U                                            /*!< SCB 
 482:e:\liteos\liteos\targets\cloud_fm33a0xx\device\include\core_cm0plus.h **** #define SCB_ICSR_PENDSTSET_Msk             (1UL << SCB_ICSR_PENDSTSET_Pos)                /*!< SCB 
 483:e:\liteos\liteos\targets\cloud_fm33a0xx\device\include\core_cm0plus.h **** 
 484:e:\liteos\liteos\targets\cloud_fm33a0xx\device\include\core_cm0plus.h **** #define SCB_ICSR_PENDSTCLR_Pos             25U                                            /*!< SCB 
 485:e:\liteos\liteos\targets\cloud_fm33a0xx\device\include\core_cm0plus.h **** #define SCB_ICSR_PENDSTCLR_Msk             (1UL << SCB_ICSR_PENDSTCLR_Pos)                /*!< SCB 
 486:e:\liteos\liteos\targets\cloud_fm33a0xx\device\include\core_cm0plus.h **** 
 487:e:\liteos\liteos\targets\cloud_fm33a0xx\device\include\core_cm0plus.h **** #define SCB_ICSR_ISRPREEMPT_Pos            23U                                            /*!< SCB 
 488:e:\liteos\liteos\targets\cloud_fm33a0xx\device\include\core_cm0plus.h **** #define SCB_ICSR_ISRPREEMPT_Msk            (1UL << SCB_ICSR_ISRPREEMPT_Pos)               /*!< SCB 
 489:e:\liteos\liteos\targets\cloud_fm33a0xx\device\include\core_cm0plus.h **** 
 490:e:\liteos\liteos\targets\cloud_fm33a0xx\device\include\core_cm0plus.h **** #define SCB_ICSR_ISRPENDING_Pos            22U                                            /*!< SCB 
 491:e:\liteos\liteos\targets\cloud_fm33a0xx\device\include\core_cm0plus.h **** #define SCB_ICSR_ISRPENDING_Msk            (1UL << SCB_ICSR_ISRPENDING_Pos)               /*!< SCB 
 492:e:\liteos\liteos\targets\cloud_fm33a0xx\device\include\core_cm0plus.h **** 
 493:e:\liteos\liteos\targets\cloud_fm33a0xx\device\include\core_cm0plus.h **** #define SCB_ICSR_VECTPENDING_Pos           12U                                            /*!< SCB 
 494:e:\liteos\liteos\targets\cloud_fm33a0xx\device\include\core_cm0plus.h **** #define SCB_ICSR_VECTPENDING_Msk           (0x1FFUL << SCB_ICSR_VECTPENDING_Pos)          /*!< SCB 
 495:e:\liteos\liteos\targets\cloud_fm33a0xx\device\include\core_cm0plus.h **** 
 496:e:\liteos\liteos\targets\cloud_fm33a0xx\device\include\core_cm0plus.h **** #define SCB_ICSR_VECTACTIVE_Pos             0U                                            /*!< SCB 
 497:e:\liteos\liteos\targets\cloud_fm33a0xx\device\include\core_cm0plus.h **** #define SCB_ICSR_VECTACTIVE_Msk            (0x1FFUL /*<< SCB_ICSR_VECTACTIVE_Pos*/)       /*!< SCB 
 498:e:\liteos\liteos\targets\cloud_fm33a0xx\device\include\core_cm0plus.h **** 
 499:e:\liteos\liteos\targets\cloud_fm33a0xx\device\include\core_cm0plus.h **** #if defined (__VTOR_PRESENT) && (__VTOR_PRESENT == 1U)
 500:e:\liteos\liteos\targets\cloud_fm33a0xx\device\include\core_cm0plus.h **** /* SCB Interrupt Control State Register Definitions */
 501:e:\liteos\liteos\targets\cloud_fm33a0xx\device\include\core_cm0plus.h **** #define SCB_VTOR_TBLOFF_Pos                 8U                                            /*!< SCB 
 502:e:\liteos\liteos\targets\cloud_fm33a0xx\device\include\core_cm0plus.h **** #define SCB_VTOR_TBLOFF_Msk                (0xFFFFFFUL << SCB_VTOR_TBLOFF_Pos)            /*!< SCB 
 503:e:\liteos\liteos\targets\cloud_fm33a0xx\device\include\core_cm0plus.h **** #endif
 504:e:\liteos\liteos\targets\cloud_fm33a0xx\device\include\core_cm0plus.h **** 
 505:e:\liteos\liteos\targets\cloud_fm33a0xx\device\include\core_cm0plus.h **** /* SCB Application Interrupt and Reset Control Register Definitions */
 506:e:\liteos\liteos\targets\cloud_fm33a0xx\device\include\core_cm0plus.h **** #define SCB_AIRCR_VECTKEY_Pos              16U                                            /*!< SCB 
 507:e:\liteos\liteos\targets\cloud_fm33a0xx\device\include\core_cm0plus.h **** #define SCB_AIRCR_VECTKEY_Msk              (0xFFFFUL << SCB_AIRCR_VECTKEY_Pos)            /*!< SCB 
 508:e:\liteos\liteos\targets\cloud_fm33a0xx\device\include\core_cm0plus.h **** 
 509:e:\liteos\liteos\targets\cloud_fm33a0xx\device\include\core_cm0plus.h **** #define SCB_AIRCR_VECTKEYSTAT_Pos          16U                                            /*!< SCB 
 510:e:\liteos\liteos\targets\cloud_fm33a0xx\device\include\core_cm0plus.h **** #define SCB_AIRCR_VECTKEYSTAT_Msk          (0xFFFFUL << SCB_AIRCR_VECTKEYSTAT_Pos)        /*!< SCB 
 511:e:\liteos\liteos\targets\cloud_fm33a0xx\device\include\core_cm0plus.h **** 
 512:e:\liteos\liteos\targets\cloud_fm33a0xx\device\include\core_cm0plus.h **** #define SCB_AIRCR_ENDIANESS_Pos            15U                                            /*!< SCB 
 513:e:\liteos\liteos\targets\cloud_fm33a0xx\device\include\core_cm0plus.h **** #define SCB_AIRCR_ENDIANESS_Msk            (1UL << SCB_AIRCR_ENDIANESS_Pos)               /*!< SCB 
 514:e:\liteos\liteos\targets\cloud_fm33a0xx\device\include\core_cm0plus.h **** 
 515:e:\liteos\liteos\targets\cloud_fm33a0xx\device\include\core_cm0plus.h **** #define SCB_AIRCR_SYSRESETREQ_Pos           2U                                            /*!< SCB 
 516:e:\liteos\liteos\targets\cloud_fm33a0xx\device\include\core_cm0plus.h **** #define SCB_AIRCR_SYSRESETREQ_Msk          (1UL << SCB_AIRCR_SYSRESETREQ_Pos)             /*!< SCB 
 517:e:\liteos\liteos\targets\cloud_fm33a0xx\device\include\core_cm0plus.h **** 
 518:e:\liteos\liteos\targets\cloud_fm33a0xx\device\include\core_cm0plus.h **** #define SCB_AIRCR_VECTCLRACTIVE_Pos         1U                                            /*!< SCB 
 519:e:\liteos\liteos\targets\cloud_fm33a0xx\device\include\core_cm0plus.h **** #define SCB_AIRCR_VECTCLRACTIVE_Msk        (1UL << SCB_AIRCR_VECTCLRACTIVE_Pos)           /*!< SCB 
 520:e:\liteos\liteos\targets\cloud_fm33a0xx\device\include\core_cm0plus.h **** 
 521:e:\liteos\liteos\targets\cloud_fm33a0xx\device\include\core_cm0plus.h **** /* SCB System Control Register Definitions */
 522:e:\liteos\liteos\targets\cloud_fm33a0xx\device\include\core_cm0plus.h **** #define SCB_SCR_SEVONPEND_Pos               4U                                            /*!< SCB 
 523:e:\liteos\liteos\targets\cloud_fm33a0xx\device\include\core_cm0plus.h **** #define SCB_SCR_SEVONPEND_Msk              (1UL << SCB_SCR_SEVONPEND_Pos)                 /*!< SCB 
 524:e:\liteos\liteos\targets\cloud_fm33a0xx\device\include\core_cm0plus.h **** 
 525:e:\liteos\liteos\targets\cloud_fm33a0xx\device\include\core_cm0plus.h **** #define SCB_SCR_SLEEPDEEP_Pos               2U                                            /*!< SCB 
 526:e:\liteos\liteos\targets\cloud_fm33a0xx\device\include\core_cm0plus.h **** #define SCB_SCR_SLEEPDEEP_Msk              (1UL << SCB_SCR_SLEEPDEEP_Pos)                 /*!< SCB 
 527:e:\liteos\liteos\targets\cloud_fm33a0xx\device\include\core_cm0plus.h **** 
 528:e:\liteos\liteos\targets\cloud_fm33a0xx\device\include\core_cm0plus.h **** #define SCB_SCR_SLEEPONEXIT_Pos             1U                                            /*!< SCB 
 529:e:\liteos\liteos\targets\cloud_fm33a0xx\device\include\core_cm0plus.h **** #define SCB_SCR_SLEEPONEXIT_Msk            (1UL << SCB_SCR_SLEEPONEXIT_Pos)               /*!< SCB 
 530:e:\liteos\liteos\targets\cloud_fm33a0xx\device\include\core_cm0plus.h **** 
ARM GAS  C:\Users\WANGBI~1\AppData\Local\Temp\ccbZtvog.s 			page 11


 531:e:\liteos\liteos\targets\cloud_fm33a0xx\device\include\core_cm0plus.h **** /* SCB Configuration Control Register Definitions */
 532:e:\liteos\liteos\targets\cloud_fm33a0xx\device\include\core_cm0plus.h **** #define SCB_CCR_STKALIGN_Pos                9U                                            /*!< SCB 
 533:e:\liteos\liteos\targets\cloud_fm33a0xx\device\include\core_cm0plus.h **** #define SCB_CCR_STKALIGN_Msk               (1UL << SCB_CCR_STKALIGN_Pos)                  /*!< SCB 
 534:e:\liteos\liteos\targets\cloud_fm33a0xx\device\include\core_cm0plus.h **** 
 535:e:\liteos\liteos\targets\cloud_fm33a0xx\device\include\core_cm0plus.h **** #define SCB_CCR_UNALIGN_TRP_Pos             3U                                            /*!< SCB 
 536:e:\liteos\liteos\targets\cloud_fm33a0xx\device\include\core_cm0plus.h **** #define SCB_CCR_UNALIGN_TRP_Msk            (1UL << SCB_CCR_UNALIGN_TRP_Pos)               /*!< SCB 
 537:e:\liteos\liteos\targets\cloud_fm33a0xx\device\include\core_cm0plus.h **** 
 538:e:\liteos\liteos\targets\cloud_fm33a0xx\device\include\core_cm0plus.h **** /* SCB System Handler Control and State Register Definitions */
 539:e:\liteos\liteos\targets\cloud_fm33a0xx\device\include\core_cm0plus.h **** #define SCB_SHCSR_SVCALLPENDED_Pos         15U                                            /*!< SCB 
 540:e:\liteos\liteos\targets\cloud_fm33a0xx\device\include\core_cm0plus.h **** #define SCB_SHCSR_SVCALLPENDED_Msk         (1UL << SCB_SHCSR_SVCALLPENDED_Pos)            /*!< SCB 
 541:e:\liteos\liteos\targets\cloud_fm33a0xx\device\include\core_cm0plus.h **** 
 542:e:\liteos\liteos\targets\cloud_fm33a0xx\device\include\core_cm0plus.h **** /*@} end of group CMSIS_SCB */
 543:e:\liteos\liteos\targets\cloud_fm33a0xx\device\include\core_cm0plus.h **** 
 544:e:\liteos\liteos\targets\cloud_fm33a0xx\device\include\core_cm0plus.h **** 
 545:e:\liteos\liteos\targets\cloud_fm33a0xx\device\include\core_cm0plus.h **** /**
 546:e:\liteos\liteos\targets\cloud_fm33a0xx\device\include\core_cm0plus.h ****   \ingroup  CMSIS_core_register
 547:e:\liteos\liteos\targets\cloud_fm33a0xx\device\include\core_cm0plus.h ****   \defgroup CMSIS_SysTick     System Tick Timer (SysTick)
 548:e:\liteos\liteos\targets\cloud_fm33a0xx\device\include\core_cm0plus.h ****   \brief    Type definitions for the System Timer Registers.
 549:e:\liteos\liteos\targets\cloud_fm33a0xx\device\include\core_cm0plus.h ****   @{
 550:e:\liteos\liteos\targets\cloud_fm33a0xx\device\include\core_cm0plus.h ****  */
 551:e:\liteos\liteos\targets\cloud_fm33a0xx\device\include\core_cm0plus.h **** 
 552:e:\liteos\liteos\targets\cloud_fm33a0xx\device\include\core_cm0plus.h **** /**
 553:e:\liteos\liteos\targets\cloud_fm33a0xx\device\include\core_cm0plus.h ****   \brief  Structure type to access the System Timer (SysTick).
 554:e:\liteos\liteos\targets\cloud_fm33a0xx\device\include\core_cm0plus.h ****  */
 555:e:\liteos\liteos\targets\cloud_fm33a0xx\device\include\core_cm0plus.h **** typedef struct
 556:e:\liteos\liteos\targets\cloud_fm33a0xx\device\include\core_cm0plus.h **** {
 557:e:\liteos\liteos\targets\cloud_fm33a0xx\device\include\core_cm0plus.h ****   __IOM uint32_t CTRL;                   /*!< Offset: 0x000 (R/W)  SysTick Control and Status Regis
 558:e:\liteos\liteos\targets\cloud_fm33a0xx\device\include\core_cm0plus.h ****   __IOM uint32_t LOAD;                   /*!< Offset: 0x004 (R/W)  SysTick Reload Value Register */
 559:e:\liteos\liteos\targets\cloud_fm33a0xx\device\include\core_cm0plus.h ****   __IOM uint32_t VAL;                    /*!< Offset: 0x008 (R/W)  SysTick Current Value Register *
 560:e:\liteos\liteos\targets\cloud_fm33a0xx\device\include\core_cm0plus.h ****   __IM  uint32_t CALIB;                  /*!< Offset: 0x00C (R/ )  SysTick Calibration Register */
 561:e:\liteos\liteos\targets\cloud_fm33a0xx\device\include\core_cm0plus.h **** } SysTick_Type;
 562:e:\liteos\liteos\targets\cloud_fm33a0xx\device\include\core_cm0plus.h **** 
 563:e:\liteos\liteos\targets\cloud_fm33a0xx\device\include\core_cm0plus.h **** /* SysTick Control / Status Register Definitions */
 564:e:\liteos\liteos\targets\cloud_fm33a0xx\device\include\core_cm0plus.h **** #define SysTick_CTRL_COUNTFLAG_Pos         16U                                            /*!< SysT
 565:e:\liteos\liteos\targets\cloud_fm33a0xx\device\include\core_cm0plus.h **** #define SysTick_CTRL_COUNTFLAG_Msk         (1UL << SysTick_CTRL_COUNTFLAG_Pos)            /*!< SysT
 566:e:\liteos\liteos\targets\cloud_fm33a0xx\device\include\core_cm0plus.h **** 
 567:e:\liteos\liteos\targets\cloud_fm33a0xx\device\include\core_cm0plus.h **** #define SysTick_CTRL_CLKSOURCE_Pos          2U                                            /*!< SysT
 568:e:\liteos\liteos\targets\cloud_fm33a0xx\device\include\core_cm0plus.h **** #define SysTick_CTRL_CLKSOURCE_Msk         (1UL << SysTick_CTRL_CLKSOURCE_Pos)            /*!< SysT
 569:e:\liteos\liteos\targets\cloud_fm33a0xx\device\include\core_cm0plus.h **** 
 570:e:\liteos\liteos\targets\cloud_fm33a0xx\device\include\core_cm0plus.h **** #define SysTick_CTRL_TICKINT_Pos            1U                                            /*!< SysT
 571:e:\liteos\liteos\targets\cloud_fm33a0xx\device\include\core_cm0plus.h **** #define SysTick_CTRL_TICKINT_Msk           (1UL << SysTick_CTRL_TICKINT_Pos)              /*!< SysT
 572:e:\liteos\liteos\targets\cloud_fm33a0xx\device\include\core_cm0plus.h **** 
 573:e:\liteos\liteos\targets\cloud_fm33a0xx\device\include\core_cm0plus.h **** #define SysTick_CTRL_ENABLE_Pos             0U                                            /*!< SysT
 574:e:\liteos\liteos\targets\cloud_fm33a0xx\device\include\core_cm0plus.h **** #define SysTick_CTRL_ENABLE_Msk            (1UL /*<< SysTick_CTRL_ENABLE_Pos*/)           /*!< SysT
 575:e:\liteos\liteos\targets\cloud_fm33a0xx\device\include\core_cm0plus.h **** 
 576:e:\liteos\liteos\targets\cloud_fm33a0xx\device\include\core_cm0plus.h **** /* SysTick Reload Register Definitions */
 577:e:\liteos\liteos\targets\cloud_fm33a0xx\device\include\core_cm0plus.h **** #define SysTick_LOAD_RELOAD_Pos             0U                                            /*!< SysT
 578:e:\liteos\liteos\targets\cloud_fm33a0xx\device\include\core_cm0plus.h **** #define SysTick_LOAD_RELOAD_Msk            (0xFFFFFFUL /*<< SysTick_LOAD_RELOAD_Pos*/)    /*!< SysT
 579:e:\liteos\liteos\targets\cloud_fm33a0xx\device\include\core_cm0plus.h **** 
 580:e:\liteos\liteos\targets\cloud_fm33a0xx\device\include\core_cm0plus.h **** /* SysTick Current Register Definitions */
 581:e:\liteos\liteos\targets\cloud_fm33a0xx\device\include\core_cm0plus.h **** #define SysTick_VAL_CURRENT_Pos             0U                                            /*!< SysT
 582:e:\liteos\liteos\targets\cloud_fm33a0xx\device\include\core_cm0plus.h **** #define SysTick_VAL_CURRENT_Msk            (0xFFFFFFUL /*<< SysTick_VAL_CURRENT_Pos*/)    /*!< SysT
 583:e:\liteos\liteos\targets\cloud_fm33a0xx\device\include\core_cm0plus.h **** 
 584:e:\liteos\liteos\targets\cloud_fm33a0xx\device\include\core_cm0plus.h **** /* SysTick Calibration Register Definitions */
 585:e:\liteos\liteos\targets\cloud_fm33a0xx\device\include\core_cm0plus.h **** #define SysTick_CALIB_NOREF_Pos            31U                                            /*!< SysT
 586:e:\liteos\liteos\targets\cloud_fm33a0xx\device\include\core_cm0plus.h **** #define SysTick_CALIB_NOREF_Msk            (1UL << SysTick_CALIB_NOREF_Pos)               /*!< SysT
 587:e:\liteos\liteos\targets\cloud_fm33a0xx\device\include\core_cm0plus.h **** 
ARM GAS  C:\Users\WANGBI~1\AppData\Local\Temp\ccbZtvog.s 			page 12


 588:e:\liteos\liteos\targets\cloud_fm33a0xx\device\include\core_cm0plus.h **** #define SysTick_CALIB_SKEW_Pos             30U                                            /*!< SysT
 589:e:\liteos\liteos\targets\cloud_fm33a0xx\device\include\core_cm0plus.h **** #define SysTick_CALIB_SKEW_Msk             (1UL << SysTick_CALIB_SKEW_Pos)                /*!< SysT
 590:e:\liteos\liteos\targets\cloud_fm33a0xx\device\include\core_cm0plus.h **** 
 591:e:\liteos\liteos\targets\cloud_fm33a0xx\device\include\core_cm0plus.h **** #define SysTick_CALIB_TENMS_Pos             0U                                            /*!< SysT
 592:e:\liteos\liteos\targets\cloud_fm33a0xx\device\include\core_cm0plus.h **** #define SysTick_CALIB_TENMS_Msk            (0xFFFFFFUL /*<< SysTick_CALIB_TENMS_Pos*/)    /*!< SysT
 593:e:\liteos\liteos\targets\cloud_fm33a0xx\device\include\core_cm0plus.h **** 
 594:e:\liteos\liteos\targets\cloud_fm33a0xx\device\include\core_cm0plus.h **** /*@} end of group CMSIS_SysTick */
 595:e:\liteos\liteos\targets\cloud_fm33a0xx\device\include\core_cm0plus.h **** 
 596:e:\liteos\liteos\targets\cloud_fm33a0xx\device\include\core_cm0plus.h **** #if defined (__MPU_PRESENT) && (__MPU_PRESENT == 1U)
 597:e:\liteos\liteos\targets\cloud_fm33a0xx\device\include\core_cm0plus.h **** /**
 598:e:\liteos\liteos\targets\cloud_fm33a0xx\device\include\core_cm0plus.h ****   \ingroup  CMSIS_core_register
 599:e:\liteos\liteos\targets\cloud_fm33a0xx\device\include\core_cm0plus.h ****   \defgroup CMSIS_MPU     Memory Protection Unit (MPU)
 600:e:\liteos\liteos\targets\cloud_fm33a0xx\device\include\core_cm0plus.h ****   \brief    Type definitions for the Memory Protection Unit (MPU)
 601:e:\liteos\liteos\targets\cloud_fm33a0xx\device\include\core_cm0plus.h ****   @{
 602:e:\liteos\liteos\targets\cloud_fm33a0xx\device\include\core_cm0plus.h ****  */
 603:e:\liteos\liteos\targets\cloud_fm33a0xx\device\include\core_cm0plus.h **** 
 604:e:\liteos\liteos\targets\cloud_fm33a0xx\device\include\core_cm0plus.h **** /**
 605:e:\liteos\liteos\targets\cloud_fm33a0xx\device\include\core_cm0plus.h ****   \brief  Structure type to access the Memory Protection Unit (MPU).
 606:e:\liteos\liteos\targets\cloud_fm33a0xx\device\include\core_cm0plus.h ****  */
 607:e:\liteos\liteos\targets\cloud_fm33a0xx\device\include\core_cm0plus.h **** typedef struct
 608:e:\liteos\liteos\targets\cloud_fm33a0xx\device\include\core_cm0plus.h **** {
 609:e:\liteos\liteos\targets\cloud_fm33a0xx\device\include\core_cm0plus.h ****   __IM  uint32_t TYPE;                   /*!< Offset: 0x000 (R/ )  MPU Type Register */
 610:e:\liteos\liteos\targets\cloud_fm33a0xx\device\include\core_cm0plus.h ****   __IOM uint32_t CTRL;                   /*!< Offset: 0x004 (R/W)  MPU Control Register */
 611:e:\liteos\liteos\targets\cloud_fm33a0xx\device\include\core_cm0plus.h ****   __IOM uint32_t RNR;                    /*!< Offset: 0x008 (R/W)  MPU Region RNRber Register */
 612:e:\liteos\liteos\targets\cloud_fm33a0xx\device\include\core_cm0plus.h ****   __IOM uint32_t RBAR;                   /*!< Offset: 0x00C (R/W)  MPU Region Base Address Register
 613:e:\liteos\liteos\targets\cloud_fm33a0xx\device\include\core_cm0plus.h ****   __IOM uint32_t RASR;                   /*!< Offset: 0x010 (R/W)  MPU Region Attribute and Size Re
 614:e:\liteos\liteos\targets\cloud_fm33a0xx\device\include\core_cm0plus.h **** } MPU_Type;
 615:e:\liteos\liteos\targets\cloud_fm33a0xx\device\include\core_cm0plus.h **** 
 616:e:\liteos\liteos\targets\cloud_fm33a0xx\device\include\core_cm0plus.h **** /* MPU Type Register Definitions */
 617:e:\liteos\liteos\targets\cloud_fm33a0xx\device\include\core_cm0plus.h **** #define MPU_TYPE_IREGION_Pos               16U                                            /*!< MPU 
 618:e:\liteos\liteos\targets\cloud_fm33a0xx\device\include\core_cm0plus.h **** #define MPU_TYPE_IREGION_Msk               (0xFFUL << MPU_TYPE_IREGION_Pos)               /*!< MPU 
 619:e:\liteos\liteos\targets\cloud_fm33a0xx\device\include\core_cm0plus.h **** 
 620:e:\liteos\liteos\targets\cloud_fm33a0xx\device\include\core_cm0plus.h **** #define MPU_TYPE_DREGION_Pos                8U                                            /*!< MPU 
 621:e:\liteos\liteos\targets\cloud_fm33a0xx\device\include\core_cm0plus.h **** #define MPU_TYPE_DREGION_Msk               (0xFFUL << MPU_TYPE_DREGION_Pos)               /*!< MPU 
 622:e:\liteos\liteos\targets\cloud_fm33a0xx\device\include\core_cm0plus.h **** 
 623:e:\liteos\liteos\targets\cloud_fm33a0xx\device\include\core_cm0plus.h **** #define MPU_TYPE_SEPARATE_Pos               0U                                            /*!< MPU 
 624:e:\liteos\liteos\targets\cloud_fm33a0xx\device\include\core_cm0plus.h **** #define MPU_TYPE_SEPARATE_Msk              (1UL /*<< MPU_TYPE_SEPARATE_Pos*/)             /*!< MPU 
 625:e:\liteos\liteos\targets\cloud_fm33a0xx\device\include\core_cm0plus.h **** 
 626:e:\liteos\liteos\targets\cloud_fm33a0xx\device\include\core_cm0plus.h **** /* MPU Control Register Definitions */
 627:e:\liteos\liteos\targets\cloud_fm33a0xx\device\include\core_cm0plus.h **** #define MPU_CTRL_PRIVDEFENA_Pos             2U                                            /*!< MPU 
 628:e:\liteos\liteos\targets\cloud_fm33a0xx\device\include\core_cm0plus.h **** #define MPU_CTRL_PRIVDEFENA_Msk            (1UL << MPU_CTRL_PRIVDEFENA_Pos)               /*!< MPU 
 629:e:\liteos\liteos\targets\cloud_fm33a0xx\device\include\core_cm0plus.h **** 
 630:e:\liteos\liteos\targets\cloud_fm33a0xx\device\include\core_cm0plus.h **** #define MPU_CTRL_HFNMIENA_Pos               1U                                            /*!< MPU 
 631:e:\liteos\liteos\targets\cloud_fm33a0xx\device\include\core_cm0plus.h **** #define MPU_CTRL_HFNMIENA_Msk              (1UL << MPU_CTRL_HFNMIENA_Pos)                 /*!< MPU 
 632:e:\liteos\liteos\targets\cloud_fm33a0xx\device\include\core_cm0plus.h **** 
 633:e:\liteos\liteos\targets\cloud_fm33a0xx\device\include\core_cm0plus.h **** #define MPU_CTRL_ENABLE_Pos                 0U                                            /*!< MPU 
 634:e:\liteos\liteos\targets\cloud_fm33a0xx\device\include\core_cm0plus.h **** #define MPU_CTRL_ENABLE_Msk                (1UL /*<< MPU_CTRL_ENABLE_Pos*/)               /*!< MPU 
 635:e:\liteos\liteos\targets\cloud_fm33a0xx\device\include\core_cm0plus.h **** 
 636:e:\liteos\liteos\targets\cloud_fm33a0xx\device\include\core_cm0plus.h **** /* MPU Region Number Register Definitions */
 637:e:\liteos\liteos\targets\cloud_fm33a0xx\device\include\core_cm0plus.h **** #define MPU_RNR_REGION_Pos                  0U                                            /*!< MPU 
 638:e:\liteos\liteos\targets\cloud_fm33a0xx\device\include\core_cm0plus.h **** #define MPU_RNR_REGION_Msk                 (0xFFUL /*<< MPU_RNR_REGION_Pos*/)             /*!< MPU 
 639:e:\liteos\liteos\targets\cloud_fm33a0xx\device\include\core_cm0plus.h **** 
 640:e:\liteos\liteos\targets\cloud_fm33a0xx\device\include\core_cm0plus.h **** /* MPU Region Base Address Register Definitions */
 641:e:\liteos\liteos\targets\cloud_fm33a0xx\device\include\core_cm0plus.h **** #define MPU_RBAR_ADDR_Pos                   8U                                            /*!< MPU 
 642:e:\liteos\liteos\targets\cloud_fm33a0xx\device\include\core_cm0plus.h **** #define MPU_RBAR_ADDR_Msk                  (0xFFFFFFUL << MPU_RBAR_ADDR_Pos)              /*!< MPU 
 643:e:\liteos\liteos\targets\cloud_fm33a0xx\device\include\core_cm0plus.h **** 
 644:e:\liteos\liteos\targets\cloud_fm33a0xx\device\include\core_cm0plus.h **** #define MPU_RBAR_VALID_Pos                  4U                                            /*!< MPU 
ARM GAS  C:\Users\WANGBI~1\AppData\Local\Temp\ccbZtvog.s 			page 13


 645:e:\liteos\liteos\targets\cloud_fm33a0xx\device\include\core_cm0plus.h **** #define MPU_RBAR_VALID_Msk                 (1UL << MPU_RBAR_VALID_Pos)                    /*!< MPU 
 646:e:\liteos\liteos\targets\cloud_fm33a0xx\device\include\core_cm0plus.h **** 
 647:e:\liteos\liteos\targets\cloud_fm33a0xx\device\include\core_cm0plus.h **** #define MPU_RBAR_REGION_Pos                 0U                                            /*!< MPU 
 648:e:\liteos\liteos\targets\cloud_fm33a0xx\device\include\core_cm0plus.h **** #define MPU_RBAR_REGION_Msk                (0xFUL /*<< MPU_RBAR_REGION_Pos*/)             /*!< MPU 
 649:e:\liteos\liteos\targets\cloud_fm33a0xx\device\include\core_cm0plus.h **** 
 650:e:\liteos\liteos\targets\cloud_fm33a0xx\device\include\core_cm0plus.h **** /* MPU Region Attribute and Size Register Definitions */
 651:e:\liteos\liteos\targets\cloud_fm33a0xx\device\include\core_cm0plus.h **** #define MPU_RASR_ATTRS_Pos                 16U                                            /*!< MPU 
 652:e:\liteos\liteos\targets\cloud_fm33a0xx\device\include\core_cm0plus.h **** #define MPU_RASR_ATTRS_Msk                 (0xFFFFUL << MPU_RASR_ATTRS_Pos)               /*!< MPU 
 653:e:\liteos\liteos\targets\cloud_fm33a0xx\device\include\core_cm0plus.h **** 
 654:e:\liteos\liteos\targets\cloud_fm33a0xx\device\include\core_cm0plus.h **** #define MPU_RASR_XN_Pos                    28U                                            /*!< MPU 
 655:e:\liteos\liteos\targets\cloud_fm33a0xx\device\include\core_cm0plus.h **** #define MPU_RASR_XN_Msk                    (1UL << MPU_RASR_XN_Pos)                       /*!< MPU 
 656:e:\liteos\liteos\targets\cloud_fm33a0xx\device\include\core_cm0plus.h **** 
 657:e:\liteos\liteos\targets\cloud_fm33a0xx\device\include\core_cm0plus.h **** #define MPU_RASR_AP_Pos                    24U                                            /*!< MPU 
 658:e:\liteos\liteos\targets\cloud_fm33a0xx\device\include\core_cm0plus.h **** #define MPU_RASR_AP_Msk                    (0x7UL << MPU_RASR_AP_Pos)                     /*!< MPU 
 659:e:\liteos\liteos\targets\cloud_fm33a0xx\device\include\core_cm0plus.h **** 
 660:e:\liteos\liteos\targets\cloud_fm33a0xx\device\include\core_cm0plus.h **** #define MPU_RASR_TEX_Pos                   19U                                            /*!< MPU 
 661:e:\liteos\liteos\targets\cloud_fm33a0xx\device\include\core_cm0plus.h **** #define MPU_RASR_TEX_Msk                   (0x7UL << MPU_RASR_TEX_Pos)                    /*!< MPU 
 662:e:\liteos\liteos\targets\cloud_fm33a0xx\device\include\core_cm0plus.h **** 
 663:e:\liteos\liteos\targets\cloud_fm33a0xx\device\include\core_cm0plus.h **** #define MPU_RASR_S_Pos                     18U                                            /*!< MPU 
 664:e:\liteos\liteos\targets\cloud_fm33a0xx\device\include\core_cm0plus.h **** #define MPU_RASR_S_Msk                     (1UL << MPU_RASR_S_Pos)                        /*!< MPU 
 665:e:\liteos\liteos\targets\cloud_fm33a0xx\device\include\core_cm0plus.h **** 
 666:e:\liteos\liteos\targets\cloud_fm33a0xx\device\include\core_cm0plus.h **** #define MPU_RASR_C_Pos                     17U                                            /*!< MPU 
 667:e:\liteos\liteos\targets\cloud_fm33a0xx\device\include\core_cm0plus.h **** #define MPU_RASR_C_Msk                     (1UL << MPU_RASR_C_Pos)                        /*!< MPU 
 668:e:\liteos\liteos\targets\cloud_fm33a0xx\device\include\core_cm0plus.h **** 
 669:e:\liteos\liteos\targets\cloud_fm33a0xx\device\include\core_cm0plus.h **** #define MPU_RASR_B_Pos                     16U                                            /*!< MPU 
 670:e:\liteos\liteos\targets\cloud_fm33a0xx\device\include\core_cm0plus.h **** #define MPU_RASR_B_Msk                     (1UL << MPU_RASR_B_Pos)                        /*!< MPU 
 671:e:\liteos\liteos\targets\cloud_fm33a0xx\device\include\core_cm0plus.h **** 
 672:e:\liteos\liteos\targets\cloud_fm33a0xx\device\include\core_cm0plus.h **** #define MPU_RASR_SRD_Pos                    8U                                            /*!< MPU 
 673:e:\liteos\liteos\targets\cloud_fm33a0xx\device\include\core_cm0plus.h **** #define MPU_RASR_SRD_Msk                   (0xFFUL << MPU_RASR_SRD_Pos)                   /*!< MPU 
 674:e:\liteos\liteos\targets\cloud_fm33a0xx\device\include\core_cm0plus.h **** 
 675:e:\liteos\liteos\targets\cloud_fm33a0xx\device\include\core_cm0plus.h **** #define MPU_RASR_SIZE_Pos                   1U                                            /*!< MPU 
 676:e:\liteos\liteos\targets\cloud_fm33a0xx\device\include\core_cm0plus.h **** #define MPU_RASR_SIZE_Msk                  (0x1FUL << MPU_RASR_SIZE_Pos)                  /*!< MPU 
 677:e:\liteos\liteos\targets\cloud_fm33a0xx\device\include\core_cm0plus.h **** 
 678:e:\liteos\liteos\targets\cloud_fm33a0xx\device\include\core_cm0plus.h **** #define MPU_RASR_ENABLE_Pos                 0U                                            /*!< MPU 
 679:e:\liteos\liteos\targets\cloud_fm33a0xx\device\include\core_cm0plus.h **** #define MPU_RASR_ENABLE_Msk                (1UL /*<< MPU_RASR_ENABLE_Pos*/)               /*!< MPU 
 680:e:\liteos\liteos\targets\cloud_fm33a0xx\device\include\core_cm0plus.h **** 
 681:e:\liteos\liteos\targets\cloud_fm33a0xx\device\include\core_cm0plus.h **** /*@} end of group CMSIS_MPU */
 682:e:\liteos\liteos\targets\cloud_fm33a0xx\device\include\core_cm0plus.h **** #endif
 683:e:\liteos\liteos\targets\cloud_fm33a0xx\device\include\core_cm0plus.h **** 
 684:e:\liteos\liteos\targets\cloud_fm33a0xx\device\include\core_cm0plus.h **** 
 685:e:\liteos\liteos\targets\cloud_fm33a0xx\device\include\core_cm0plus.h **** /**
 686:e:\liteos\liteos\targets\cloud_fm33a0xx\device\include\core_cm0plus.h ****   \ingroup  CMSIS_core_register
 687:e:\liteos\liteos\targets\cloud_fm33a0xx\device\include\core_cm0plus.h ****   \defgroup CMSIS_CoreDebug       Core Debug Registers (CoreDebug)
 688:e:\liteos\liteos\targets\cloud_fm33a0xx\device\include\core_cm0plus.h ****   \brief    Cortex-M0+ Core Debug Registers (DCB registers, SHCSR, and DFSR) are only accessible ov
 689:e:\liteos\liteos\targets\cloud_fm33a0xx\device\include\core_cm0plus.h ****             Therefore they are not covered by the Cortex-M0+ header file.
 690:e:\liteos\liteos\targets\cloud_fm33a0xx\device\include\core_cm0plus.h ****   @{
 691:e:\liteos\liteos\targets\cloud_fm33a0xx\device\include\core_cm0plus.h ****  */
 692:e:\liteos\liteos\targets\cloud_fm33a0xx\device\include\core_cm0plus.h **** /*@} end of group CMSIS_CoreDebug */
 693:e:\liteos\liteos\targets\cloud_fm33a0xx\device\include\core_cm0plus.h **** 
 694:e:\liteos\liteos\targets\cloud_fm33a0xx\device\include\core_cm0plus.h **** 
 695:e:\liteos\liteos\targets\cloud_fm33a0xx\device\include\core_cm0plus.h **** /**
 696:e:\liteos\liteos\targets\cloud_fm33a0xx\device\include\core_cm0plus.h ****   \ingroup    CMSIS_core_register
 697:e:\liteos\liteos\targets\cloud_fm33a0xx\device\include\core_cm0plus.h ****   \defgroup   CMSIS_core_bitfield     Core register bit field macros
 698:e:\liteos\liteos\targets\cloud_fm33a0xx\device\include\core_cm0plus.h ****   \brief      Macros for use with bit field definitions (xxx_Pos, xxx_Msk).
 699:e:\liteos\liteos\targets\cloud_fm33a0xx\device\include\core_cm0plus.h ****   @{
 700:e:\liteos\liteos\targets\cloud_fm33a0xx\device\include\core_cm0plus.h ****  */
 701:e:\liteos\liteos\targets\cloud_fm33a0xx\device\include\core_cm0plus.h **** 
ARM GAS  C:\Users\WANGBI~1\AppData\Local\Temp\ccbZtvog.s 			page 14


 702:e:\liteos\liteos\targets\cloud_fm33a0xx\device\include\core_cm0plus.h **** /**
 703:e:\liteos\liteos\targets\cloud_fm33a0xx\device\include\core_cm0plus.h ****   \brief   Mask and shift a bit field value for use in a register bit range.
 704:e:\liteos\liteos\targets\cloud_fm33a0xx\device\include\core_cm0plus.h ****   \param[in] field  Name of the register bit field.
 705:e:\liteos\liteos\targets\cloud_fm33a0xx\device\include\core_cm0plus.h ****   \param[in] value  Value of the bit field. This parameter is interpreted as an uint32_t type.
 706:e:\liteos\liteos\targets\cloud_fm33a0xx\device\include\core_cm0plus.h ****   \return           Masked and shifted value.
 707:e:\liteos\liteos\targets\cloud_fm33a0xx\device\include\core_cm0plus.h **** */
 708:e:\liteos\liteos\targets\cloud_fm33a0xx\device\include\core_cm0plus.h **** #define _VAL2FLD(field, value)    (((uint32_t)(value) << field ## _Pos) & field ## _Msk)
 709:e:\liteos\liteos\targets\cloud_fm33a0xx\device\include\core_cm0plus.h **** 
 710:e:\liteos\liteos\targets\cloud_fm33a0xx\device\include\core_cm0plus.h **** /**
 711:e:\liteos\liteos\targets\cloud_fm33a0xx\device\include\core_cm0plus.h ****   \brief     Mask and shift a register value to extract a bit filed value.
 712:e:\liteos\liteos\targets\cloud_fm33a0xx\device\include\core_cm0plus.h ****   \param[in] field  Name of the register bit field.
 713:e:\liteos\liteos\targets\cloud_fm33a0xx\device\include\core_cm0plus.h ****   \param[in] value  Value of register. This parameter is interpreted as an uint32_t type.
 714:e:\liteos\liteos\targets\cloud_fm33a0xx\device\include\core_cm0plus.h ****   \return           Masked and shifted bit field value.
 715:e:\liteos\liteos\targets\cloud_fm33a0xx\device\include\core_cm0plus.h **** */
 716:e:\liteos\liteos\targets\cloud_fm33a0xx\device\include\core_cm0plus.h **** #define _FLD2VAL(field, value)    (((uint32_t)(value) & field ## _Msk) >> field ## _Pos)
 717:e:\liteos\liteos\targets\cloud_fm33a0xx\device\include\core_cm0plus.h **** 
 718:e:\liteos\liteos\targets\cloud_fm33a0xx\device\include\core_cm0plus.h **** /*@} end of group CMSIS_core_bitfield */
 719:e:\liteos\liteos\targets\cloud_fm33a0xx\device\include\core_cm0plus.h **** 
 720:e:\liteos\liteos\targets\cloud_fm33a0xx\device\include\core_cm0plus.h **** 
 721:e:\liteos\liteos\targets\cloud_fm33a0xx\device\include\core_cm0plus.h **** /**
 722:e:\liteos\liteos\targets\cloud_fm33a0xx\device\include\core_cm0plus.h ****   \ingroup    CMSIS_core_register
 723:e:\liteos\liteos\targets\cloud_fm33a0xx\device\include\core_cm0plus.h ****   \defgroup   CMSIS_core_base     Core Definitions
 724:e:\liteos\liteos\targets\cloud_fm33a0xx\device\include\core_cm0plus.h ****   \brief      Definitions for base addresses, unions, and structures.
 725:e:\liteos\liteos\targets\cloud_fm33a0xx\device\include\core_cm0plus.h ****   @{
 726:e:\liteos\liteos\targets\cloud_fm33a0xx\device\include\core_cm0plus.h ****  */
 727:e:\liteos\liteos\targets\cloud_fm33a0xx\device\include\core_cm0plus.h **** 
 728:e:\liteos\liteos\targets\cloud_fm33a0xx\device\include\core_cm0plus.h **** /* Memory mapping of Cortex-M0+ Hardware */
 729:e:\liteos\liteos\targets\cloud_fm33a0xx\device\include\core_cm0plus.h **** #define SCS_BASE            (0xE000E000UL)                            /*!< System Control Space Bas
 730:e:\liteos\liteos\targets\cloud_fm33a0xx\device\include\core_cm0plus.h **** #define SysTick_BASE        (SCS_BASE +  0x0010UL)                    /*!< SysTick Base Address */
 731:e:\liteos\liteos\targets\cloud_fm33a0xx\device\include\core_cm0plus.h **** #define NVIC_BASE           (SCS_BASE +  0x0100UL)                    /*!< NVIC Base Address */
 732:e:\liteos\liteos\targets\cloud_fm33a0xx\device\include\core_cm0plus.h **** #define SCB_BASE            (SCS_BASE +  0x0D00UL)                    /*!< System Control Block Bas
 733:e:\liteos\liteos\targets\cloud_fm33a0xx\device\include\core_cm0plus.h **** 
 734:e:\liteos\liteos\targets\cloud_fm33a0xx\device\include\core_cm0plus.h **** #define SCB                 ((SCB_Type       *)     SCB_BASE      )   /*!< SCB configuration struct
 735:e:\liteos\liteos\targets\cloud_fm33a0xx\device\include\core_cm0plus.h **** #define SysTick             ((SysTick_Type   *)     SysTick_BASE  )   /*!< SysTick configuration st
 736:e:\liteos\liteos\targets\cloud_fm33a0xx\device\include\core_cm0plus.h **** #define NVIC                ((NVIC_Type      *)     NVIC_BASE     )   /*!< NVIC configuration struc
 737:e:\liteos\liteos\targets\cloud_fm33a0xx\device\include\core_cm0plus.h **** 
 738:e:\liteos\liteos\targets\cloud_fm33a0xx\device\include\core_cm0plus.h **** #if defined (__MPU_PRESENT) && (__MPU_PRESENT == 1U)
 739:e:\liteos\liteos\targets\cloud_fm33a0xx\device\include\core_cm0plus.h ****   #define MPU_BASE          (SCS_BASE +  0x0D90UL)                    /*!< Memory Protection Unit *
 740:e:\liteos\liteos\targets\cloud_fm33a0xx\device\include\core_cm0plus.h ****   #define MPU               ((MPU_Type       *)     MPU_BASE      )   /*!< Memory Protection Unit *
 741:e:\liteos\liteos\targets\cloud_fm33a0xx\device\include\core_cm0plus.h **** #endif
 742:e:\liteos\liteos\targets\cloud_fm33a0xx\device\include\core_cm0plus.h **** 
 743:e:\liteos\liteos\targets\cloud_fm33a0xx\device\include\core_cm0plus.h **** /*@} */
 744:e:\liteos\liteos\targets\cloud_fm33a0xx\device\include\core_cm0plus.h **** 
 745:e:\liteos\liteos\targets\cloud_fm33a0xx\device\include\core_cm0plus.h **** 
 746:e:\liteos\liteos\targets\cloud_fm33a0xx\device\include\core_cm0plus.h **** 
 747:e:\liteos\liteos\targets\cloud_fm33a0xx\device\include\core_cm0plus.h **** /*******************************************************************************
 748:e:\liteos\liteos\targets\cloud_fm33a0xx\device\include\core_cm0plus.h ****  *                Hardware Abstraction Layer
 749:e:\liteos\liteos\targets\cloud_fm33a0xx\device\include\core_cm0plus.h ****   Core Function Interface contains:
 750:e:\liteos\liteos\targets\cloud_fm33a0xx\device\include\core_cm0plus.h ****   - Core NVIC Functions
 751:e:\liteos\liteos\targets\cloud_fm33a0xx\device\include\core_cm0plus.h ****   - Core SysTick Functions
 752:e:\liteos\liteos\targets\cloud_fm33a0xx\device\include\core_cm0plus.h ****   - Core Register Access Functions
 753:e:\liteos\liteos\targets\cloud_fm33a0xx\device\include\core_cm0plus.h ****  ******************************************************************************/
 754:e:\liteos\liteos\targets\cloud_fm33a0xx\device\include\core_cm0plus.h **** /**
 755:e:\liteos\liteos\targets\cloud_fm33a0xx\device\include\core_cm0plus.h ****   \defgroup CMSIS_Core_FunctionInterface Functions and Instructions Reference
 756:e:\liteos\liteos\targets\cloud_fm33a0xx\device\include\core_cm0plus.h **** */
 757:e:\liteos\liteos\targets\cloud_fm33a0xx\device\include\core_cm0plus.h **** 
 758:e:\liteos\liteos\targets\cloud_fm33a0xx\device\include\core_cm0plus.h **** 
ARM GAS  C:\Users\WANGBI~1\AppData\Local\Temp\ccbZtvog.s 			page 15


 759:e:\liteos\liteos\targets\cloud_fm33a0xx\device\include\core_cm0plus.h **** 
 760:e:\liteos\liteos\targets\cloud_fm33a0xx\device\include\core_cm0plus.h **** /* ##########################   NVIC functions  #################################### */
 761:e:\liteos\liteos\targets\cloud_fm33a0xx\device\include\core_cm0plus.h **** /**
 762:e:\liteos\liteos\targets\cloud_fm33a0xx\device\include\core_cm0plus.h ****   \ingroup  CMSIS_Core_FunctionInterface
 763:e:\liteos\liteos\targets\cloud_fm33a0xx\device\include\core_cm0plus.h ****   \defgroup CMSIS_Core_NVICFunctions NVIC Functions
 764:e:\liteos\liteos\targets\cloud_fm33a0xx\device\include\core_cm0plus.h ****   \brief    Functions that manage interrupts and exceptions via the NVIC.
 765:e:\liteos\liteos\targets\cloud_fm33a0xx\device\include\core_cm0plus.h ****   @{
 766:e:\liteos\liteos\targets\cloud_fm33a0xx\device\include\core_cm0plus.h ****  */
 767:e:\liteos\liteos\targets\cloud_fm33a0xx\device\include\core_cm0plus.h **** 
 768:e:\liteos\liteos\targets\cloud_fm33a0xx\device\include\core_cm0plus.h **** /* Interrupt Priorities are WORD accessible only under ARMv6M                   */
 769:e:\liteos\liteos\targets\cloud_fm33a0xx\device\include\core_cm0plus.h **** /* The following MACROS handle generation of the register offset and byte masks */
 770:e:\liteos\liteos\targets\cloud_fm33a0xx\device\include\core_cm0plus.h **** #define _BIT_SHIFT(IRQn)         (  ((((uint32_t)(int32_t)(IRQn))         )      &  0x03UL) * 8UL)
 771:e:\liteos\liteos\targets\cloud_fm33a0xx\device\include\core_cm0plus.h **** #define _SHP_IDX(IRQn)           ( (((((uint32_t)(int32_t)(IRQn)) & 0x0FUL)-8UL) >>    2UL)      )
 772:e:\liteos\liteos\targets\cloud_fm33a0xx\device\include\core_cm0plus.h **** #define _IP_IDX(IRQn)            (   (((uint32_t)(int32_t)(IRQn))                >>    2UL)      )
 773:e:\liteos\liteos\targets\cloud_fm33a0xx\device\include\core_cm0plus.h **** 
 774:e:\liteos\liteos\targets\cloud_fm33a0xx\device\include\core_cm0plus.h **** 
 775:e:\liteos\liteos\targets\cloud_fm33a0xx\device\include\core_cm0plus.h **** /**
 776:e:\liteos\liteos\targets\cloud_fm33a0xx\device\include\core_cm0plus.h ****   \brief   Enable Interrupt
 777:e:\liteos\liteos\targets\cloud_fm33a0xx\device\include\core_cm0plus.h ****   \details Enables a device specific interrupt in the NVIC interrupt controller.
 778:e:\liteos\liteos\targets\cloud_fm33a0xx\device\include\core_cm0plus.h ****   \param [in]      IRQn  Device specific interrupt number.
 779:e:\liteos\liteos\targets\cloud_fm33a0xx\device\include\core_cm0plus.h ****   \note    IRQn must not be nagative.
 780:e:\liteos\liteos\targets\cloud_fm33a0xx\device\include\core_cm0plus.h ****  */
 781:e:\liteos\liteos\targets\cloud_fm33a0xx\device\include\core_cm0plus.h **** __STATIC_INLINE void NVIC_EnableIRQ(IRQn_Type IRQn)
 782:e:\liteos\liteos\targets\cloud_fm33a0xx\device\include\core_cm0plus.h **** {
 783:e:\liteos\liteos\targets\cloud_fm33a0xx\device\include\core_cm0plus.h ****   if ((int32_t)(IRQn) >= 0)
 784:e:\liteos\liteos\targets\cloud_fm33a0xx\device\include\core_cm0plus.h ****   {
 785:e:\liteos\liteos\targets\cloud_fm33a0xx\device\include\core_cm0plus.h ****     NVIC->ISER[0U] = (uint32_t)(1UL << (((uint32_t)(int32_t)IRQn) & 0x1FUL));
 786:e:\liteos\liteos\targets\cloud_fm33a0xx\device\include\core_cm0plus.h ****   }
 787:e:\liteos\liteos\targets\cloud_fm33a0xx\device\include\core_cm0plus.h **** }
 788:e:\liteos\liteos\targets\cloud_fm33a0xx\device\include\core_cm0plus.h **** 
 789:e:\liteos\liteos\targets\cloud_fm33a0xx\device\include\core_cm0plus.h **** 
 790:e:\liteos\liteos\targets\cloud_fm33a0xx\device\include\core_cm0plus.h **** /**
 791:e:\liteos\liteos\targets\cloud_fm33a0xx\device\include\core_cm0plus.h ****   \brief   Disable Interrupt
 792:e:\liteos\liteos\targets\cloud_fm33a0xx\device\include\core_cm0plus.h ****   \details Disables a device specific interrupt in the NVIC interrupt controller.
 793:e:\liteos\liteos\targets\cloud_fm33a0xx\device\include\core_cm0plus.h ****   \param [in]      IRQn  Device specific interrupt number.
 794:e:\liteos\liteos\targets\cloud_fm33a0xx\device\include\core_cm0plus.h ****   \note    IRQn must not be nagative.
 795:e:\liteos\liteos\targets\cloud_fm33a0xx\device\include\core_cm0plus.h ****  */
 796:e:\liteos\liteos\targets\cloud_fm33a0xx\device\include\core_cm0plus.h **** __STATIC_INLINE void NVIC_DisableIRQ(IRQn_Type IRQn)
 797:e:\liteos\liteos\targets\cloud_fm33a0xx\device\include\core_cm0plus.h **** {
 798:e:\liteos\liteos\targets\cloud_fm33a0xx\device\include\core_cm0plus.h ****   if ((int32_t)(IRQn) >= 0)
 799:e:\liteos\liteos\targets\cloud_fm33a0xx\device\include\core_cm0plus.h ****   {
 800:e:\liteos\liteos\targets\cloud_fm33a0xx\device\include\core_cm0plus.h ****     NVIC->ICER[0U] = (uint32_t)(1UL << (((uint32_t)(int32_t)IRQn) & 0x1FUL));
 801:e:\liteos\liteos\targets\cloud_fm33a0xx\device\include\core_cm0plus.h ****   }
 802:e:\liteos\liteos\targets\cloud_fm33a0xx\device\include\core_cm0plus.h **** }
 803:e:\liteos\liteos\targets\cloud_fm33a0xx\device\include\core_cm0plus.h **** 
 804:e:\liteos\liteos\targets\cloud_fm33a0xx\device\include\core_cm0plus.h **** 
 805:e:\liteos\liteos\targets\cloud_fm33a0xx\device\include\core_cm0plus.h **** /**
 806:e:\liteos\liteos\targets\cloud_fm33a0xx\device\include\core_cm0plus.h ****   \brief   Get Pending Interrupt
 807:e:\liteos\liteos\targets\cloud_fm33a0xx\device\include\core_cm0plus.h ****   \details Reads the NVIC pending register and returns the pending bit for the specified device spe
 808:e:\liteos\liteos\targets\cloud_fm33a0xx\device\include\core_cm0plus.h ****   \param [in]      IRQn  Device specific interrupt number.
 809:e:\liteos\liteos\targets\cloud_fm33a0xx\device\include\core_cm0plus.h ****   \return             0  Interrupt status is not pending.
 810:e:\liteos\liteos\targets\cloud_fm33a0xx\device\include\core_cm0plus.h ****   \return             1  Interrupt status is pending.
 811:e:\liteos\liteos\targets\cloud_fm33a0xx\device\include\core_cm0plus.h ****   \note    IRQn must not be nagative.
 812:e:\liteos\liteos\targets\cloud_fm33a0xx\device\include\core_cm0plus.h ****  */
 813:e:\liteos\liteos\targets\cloud_fm33a0xx\device\include\core_cm0plus.h **** __STATIC_INLINE uint32_t NVIC_GetPendingIRQ(IRQn_Type IRQn)
 814:e:\liteos\liteos\targets\cloud_fm33a0xx\device\include\core_cm0plus.h **** {
 815:e:\liteos\liteos\targets\cloud_fm33a0xx\device\include\core_cm0plus.h ****   if ((int32_t)(IRQn) >= 0)
ARM GAS  C:\Users\WANGBI~1\AppData\Local\Temp\ccbZtvog.s 			page 16


 816:e:\liteos\liteos\targets\cloud_fm33a0xx\device\include\core_cm0plus.h ****   {
 817:e:\liteos\liteos\targets\cloud_fm33a0xx\device\include\core_cm0plus.h ****     return((uint32_t)(((NVIC->ISPR[0U] & (1UL << (((uint32_t)(int32_t)IRQn) & 0x1FUL))) != 0UL) ? 1
 818:e:\liteos\liteos\targets\cloud_fm33a0xx\device\include\core_cm0plus.h ****   }
 819:e:\liteos\liteos\targets\cloud_fm33a0xx\device\include\core_cm0plus.h ****   else
 820:e:\liteos\liteos\targets\cloud_fm33a0xx\device\include\core_cm0plus.h ****   {
 821:e:\liteos\liteos\targets\cloud_fm33a0xx\device\include\core_cm0plus.h ****     return(0U);
 822:e:\liteos\liteos\targets\cloud_fm33a0xx\device\include\core_cm0plus.h ****   }
 823:e:\liteos\liteos\targets\cloud_fm33a0xx\device\include\core_cm0plus.h **** }
 824:e:\liteos\liteos\targets\cloud_fm33a0xx\device\include\core_cm0plus.h **** 
 825:e:\liteos\liteos\targets\cloud_fm33a0xx\device\include\core_cm0plus.h **** 
 826:e:\liteos\liteos\targets\cloud_fm33a0xx\device\include\core_cm0plus.h **** /**
 827:e:\liteos\liteos\targets\cloud_fm33a0xx\device\include\core_cm0plus.h ****   \brief   Set Pending Interrupt
 828:e:\liteos\liteos\targets\cloud_fm33a0xx\device\include\core_cm0plus.h ****   \details Sets the pending bit of a device specific interrupt in the NVIC pending register.
 829:e:\liteos\liteos\targets\cloud_fm33a0xx\device\include\core_cm0plus.h ****   \param [in]      IRQn  Device specific interrupt number.
 830:e:\liteos\liteos\targets\cloud_fm33a0xx\device\include\core_cm0plus.h ****   \note    IRQn must not be nagative.
 831:e:\liteos\liteos\targets\cloud_fm33a0xx\device\include\core_cm0plus.h ****  */
 832:e:\liteos\liteos\targets\cloud_fm33a0xx\device\include\core_cm0plus.h **** __STATIC_INLINE void NVIC_SetPendingIRQ(IRQn_Type IRQn)
 833:e:\liteos\liteos\targets\cloud_fm33a0xx\device\include\core_cm0plus.h **** {
 834:e:\liteos\liteos\targets\cloud_fm33a0xx\device\include\core_cm0plus.h ****   if ((int32_t)(IRQn) >= 0)
 835:e:\liteos\liteos\targets\cloud_fm33a0xx\device\include\core_cm0plus.h ****   {
 836:e:\liteos\liteos\targets\cloud_fm33a0xx\device\include\core_cm0plus.h ****     NVIC->ISPR[0U] = (uint32_t)(1UL << (((uint32_t)(int32_t)IRQn) & 0x1FUL));
 837:e:\liteos\liteos\targets\cloud_fm33a0xx\device\include\core_cm0plus.h ****   }
 838:e:\liteos\liteos\targets\cloud_fm33a0xx\device\include\core_cm0plus.h **** }
 839:e:\liteos\liteos\targets\cloud_fm33a0xx\device\include\core_cm0plus.h **** 
 840:e:\liteos\liteos\targets\cloud_fm33a0xx\device\include\core_cm0plus.h **** 
 841:e:\liteos\liteos\targets\cloud_fm33a0xx\device\include\core_cm0plus.h **** /**
 842:e:\liteos\liteos\targets\cloud_fm33a0xx\device\include\core_cm0plus.h ****   \brief   Clear Pending Interrupt
 843:e:\liteos\liteos\targets\cloud_fm33a0xx\device\include\core_cm0plus.h ****   \details Clears the pending bit of a device specific interrupt in the NVIC pending register.
 844:e:\liteos\liteos\targets\cloud_fm33a0xx\device\include\core_cm0plus.h ****   \param [in]      IRQn  Device specific interrupt number.
 845:e:\liteos\liteos\targets\cloud_fm33a0xx\device\include\core_cm0plus.h ****   \note    IRQn must not be nagative.
 846:e:\liteos\liteos\targets\cloud_fm33a0xx\device\include\core_cm0plus.h ****  */
 847:e:\liteos\liteos\targets\cloud_fm33a0xx\device\include\core_cm0plus.h **** __STATIC_INLINE void NVIC_ClearPendingIRQ(IRQn_Type IRQn)
 848:e:\liteos\liteos\targets\cloud_fm33a0xx\device\include\core_cm0plus.h **** {
 849:e:\liteos\liteos\targets\cloud_fm33a0xx\device\include\core_cm0plus.h ****   if ((int32_t)(IRQn) >= 0)
 850:e:\liteos\liteos\targets\cloud_fm33a0xx\device\include\core_cm0plus.h ****   {
 851:e:\liteos\liteos\targets\cloud_fm33a0xx\device\include\core_cm0plus.h ****     NVIC->ICPR[0U] = (uint32_t)(1UL << (((uint32_t)(int32_t)IRQn) & 0x1FUL));
 852:e:\liteos\liteos\targets\cloud_fm33a0xx\device\include\core_cm0plus.h ****   }
 853:e:\liteos\liteos\targets\cloud_fm33a0xx\device\include\core_cm0plus.h **** }
 854:e:\liteos\liteos\targets\cloud_fm33a0xx\device\include\core_cm0plus.h **** 
 855:e:\liteos\liteos\targets\cloud_fm33a0xx\device\include\core_cm0plus.h **** 
 856:e:\liteos\liteos\targets\cloud_fm33a0xx\device\include\core_cm0plus.h **** /**
 857:e:\liteos\liteos\targets\cloud_fm33a0xx\device\include\core_cm0plus.h ****   \brief   Set Interrupt Priority
 858:e:\liteos\liteos\targets\cloud_fm33a0xx\device\include\core_cm0plus.h ****   \details Sets the priority of a device specific interrupt or a processor exception.
 859:e:\liteos\liteos\targets\cloud_fm33a0xx\device\include\core_cm0plus.h ****            The interrupt number can be positive to specify a device specific interrupt,
 860:e:\liteos\liteos\targets\cloud_fm33a0xx\device\include\core_cm0plus.h ****            or negative to specify a processor exception.
 861:e:\liteos\liteos\targets\cloud_fm33a0xx\device\include\core_cm0plus.h ****   \param [in]      IRQn  Interrupt number.
 862:e:\liteos\liteos\targets\cloud_fm33a0xx\device\include\core_cm0plus.h ****   \param [in]  priority  Priority to set.
 863:e:\liteos\liteos\targets\cloud_fm33a0xx\device\include\core_cm0plus.h ****   \note    The priority cannot be set for every processor exception.
 864:e:\liteos\liteos\targets\cloud_fm33a0xx\device\include\core_cm0plus.h ****  */
 865:e:\liteos\liteos\targets\cloud_fm33a0xx\device\include\core_cm0plus.h **** __STATIC_INLINE void NVIC_SetPriority(IRQn_Type IRQn, uint32_t priority)
 866:e:\liteos\liteos\targets\cloud_fm33a0xx\device\include\core_cm0plus.h **** {
 867:e:\liteos\liteos\targets\cloud_fm33a0xx\device\include\core_cm0plus.h ****   if ((int32_t)(IRQn) >= 0)
 868:e:\liteos\liteos\targets\cloud_fm33a0xx\device\include\core_cm0plus.h ****   {
 869:e:\liteos\liteos\targets\cloud_fm33a0xx\device\include\core_cm0plus.h ****     NVIC->IP[_IP_IDX(IRQn)]  = ((uint32_t)(NVIC->IP[_IP_IDX(IRQn)]  & ~(0xFFUL << _BIT_SHIFT(IRQn))
 870:e:\liteos\liteos\targets\cloud_fm33a0xx\device\include\core_cm0plus.h ****        (((priority << (8U - __NVIC_PRIO_BITS)) & (uint32_t)0xFFUL) << _BIT_SHIFT(IRQn)));
 871:e:\liteos\liteos\targets\cloud_fm33a0xx\device\include\core_cm0plus.h ****   }
 872:e:\liteos\liteos\targets\cloud_fm33a0xx\device\include\core_cm0plus.h ****   else
ARM GAS  C:\Users\WANGBI~1\AppData\Local\Temp\ccbZtvog.s 			page 17


 873:e:\liteos\liteos\targets\cloud_fm33a0xx\device\include\core_cm0plus.h ****   {
 874:e:\liteos\liteos\targets\cloud_fm33a0xx\device\include\core_cm0plus.h ****     SCB->SHP[_SHP_IDX(IRQn)] = ((uint32_t)(SCB->SHP[_SHP_IDX(IRQn)] & ~(0xFFUL << _BIT_SHIFT(IRQn))
 875:e:\liteos\liteos\targets\cloud_fm33a0xx\device\include\core_cm0plus.h ****        (((priority << (8U - __NVIC_PRIO_BITS)) & (uint32_t)0xFFUL) << _BIT_SHIFT(IRQn)));
 876:e:\liteos\liteos\targets\cloud_fm33a0xx\device\include\core_cm0plus.h ****   }
 877:e:\liteos\liteos\targets\cloud_fm33a0xx\device\include\core_cm0plus.h **** }
 878:e:\liteos\liteos\targets\cloud_fm33a0xx\device\include\core_cm0plus.h **** 
 879:e:\liteos\liteos\targets\cloud_fm33a0xx\device\include\core_cm0plus.h **** 
 880:e:\liteos\liteos\targets\cloud_fm33a0xx\device\include\core_cm0plus.h **** /**
 881:e:\liteos\liteos\targets\cloud_fm33a0xx\device\include\core_cm0plus.h ****   \brief   Get Interrupt Priority
 882:e:\liteos\liteos\targets\cloud_fm33a0xx\device\include\core_cm0plus.h ****   \details Reads the priority of a device specific interrupt or a processor exception.
 883:e:\liteos\liteos\targets\cloud_fm33a0xx\device\include\core_cm0plus.h ****            The interrupt number can be positive to specify a device specific interrupt,
 884:e:\liteos\liteos\targets\cloud_fm33a0xx\device\include\core_cm0plus.h ****            or negative to specify a processor exception.
 885:e:\liteos\liteos\targets\cloud_fm33a0xx\device\include\core_cm0plus.h ****   \param [in]   IRQn  Interrupt number.
 886:e:\liteos\liteos\targets\cloud_fm33a0xx\device\include\core_cm0plus.h ****   \return             Interrupt Priority.
 887:e:\liteos\liteos\targets\cloud_fm33a0xx\device\include\core_cm0plus.h ****                       Value is aligned automatically to the implemented priority bits of the microc
 888:e:\liteos\liteos\targets\cloud_fm33a0xx\device\include\core_cm0plus.h ****  */
 889:e:\liteos\liteos\targets\cloud_fm33a0xx\device\include\core_cm0plus.h **** __STATIC_INLINE uint32_t NVIC_GetPriority(IRQn_Type IRQn)
 890:e:\liteos\liteos\targets\cloud_fm33a0xx\device\include\core_cm0plus.h **** {
 891:e:\liteos\liteos\targets\cloud_fm33a0xx\device\include\core_cm0plus.h **** 
 892:e:\liteos\liteos\targets\cloud_fm33a0xx\device\include\core_cm0plus.h ****   if ((int32_t)(IRQn) >= 0)
 893:e:\liteos\liteos\targets\cloud_fm33a0xx\device\include\core_cm0plus.h ****   {
 894:e:\liteos\liteos\targets\cloud_fm33a0xx\device\include\core_cm0plus.h ****     return((uint32_t)(((NVIC->IP[ _IP_IDX(IRQn)] >> _BIT_SHIFT(IRQn) ) & (uint32_t)0xFFUL) >> (8U -
 895:e:\liteos\liteos\targets\cloud_fm33a0xx\device\include\core_cm0plus.h ****   }
 896:e:\liteos\liteos\targets\cloud_fm33a0xx\device\include\core_cm0plus.h ****   else
 897:e:\liteos\liteos\targets\cloud_fm33a0xx\device\include\core_cm0plus.h ****   {
 898:e:\liteos\liteos\targets\cloud_fm33a0xx\device\include\core_cm0plus.h ****     return((uint32_t)(((SCB->SHP[_SHP_IDX(IRQn)] >> _BIT_SHIFT(IRQn) ) & (uint32_t)0xFFUL) >> (8U -
 899:e:\liteos\liteos\targets\cloud_fm33a0xx\device\include\core_cm0plus.h ****   }
 900:e:\liteos\liteos\targets\cloud_fm33a0xx\device\include\core_cm0plus.h **** }
 901:e:\liteos\liteos\targets\cloud_fm33a0xx\device\include\core_cm0plus.h **** 
 902:e:\liteos\liteos\targets\cloud_fm33a0xx\device\include\core_cm0plus.h **** 
 903:e:\liteos\liteos\targets\cloud_fm33a0xx\device\include\core_cm0plus.h **** /**
 904:e:\liteos\liteos\targets\cloud_fm33a0xx\device\include\core_cm0plus.h ****   \brief   System Reset
 905:e:\liteos\liteos\targets\cloud_fm33a0xx\device\include\core_cm0plus.h ****   \details Initiates a system reset request to reset the MCU.
 906:e:\liteos\liteos\targets\cloud_fm33a0xx\device\include\core_cm0plus.h ****  */
 907:e:\liteos\liteos\targets\cloud_fm33a0xx\device\include\core_cm0plus.h **** __STATIC_INLINE void NVIC_SystemReset(void)
 908:e:\liteos\liteos\targets\cloud_fm33a0xx\device\include\core_cm0plus.h **** {
 909:e:\liteos\liteos\targets\cloud_fm33a0xx\device\include\core_cm0plus.h ****   __DSB();                                                          /* Ensure all outstanding memor
 910:e:\liteos\liteos\targets\cloud_fm33a0xx\device\include\core_cm0plus.h ****                                                                        buffered write are completed
 911:e:\liteos\liteos\targets\cloud_fm33a0xx\device\include\core_cm0plus.h ****   SCB->AIRCR  = ((0x5FAUL << SCB_AIRCR_VECTKEY_Pos) |
 912:e:\liteos\liteos\targets\cloud_fm33a0xx\device\include\core_cm0plus.h ****                  SCB_AIRCR_SYSRESETREQ_Msk);
 913:e:\liteos\liteos\targets\cloud_fm33a0xx\device\include\core_cm0plus.h ****   __DSB();                                                          /* Ensure completion of memory 
 914:e:\liteos\liteos\targets\cloud_fm33a0xx\device\include\core_cm0plus.h **** 
 915:e:\liteos\liteos\targets\cloud_fm33a0xx\device\include\core_cm0plus.h ****   for(;;)                                                           /* wait until reset */
 916:e:\liteos\liteos\targets\cloud_fm33a0xx\device\include\core_cm0plus.h ****   {
 917:e:\liteos\liteos\targets\cloud_fm33a0xx\device\include\core_cm0plus.h ****     __NOP();
 918:e:\liteos\liteos\targets\cloud_fm33a0xx\device\include\core_cm0plus.h ****   }
 919:e:\liteos\liteos\targets\cloud_fm33a0xx\device\include\core_cm0plus.h **** }
 920:e:\liteos\liteos\targets\cloud_fm33a0xx\device\include\core_cm0plus.h **** 
 921:e:\liteos\liteos\targets\cloud_fm33a0xx\device\include\core_cm0plus.h **** /*@} end of CMSIS_Core_NVICFunctions */
 922:e:\liteos\liteos\targets\cloud_fm33a0xx\device\include\core_cm0plus.h **** 
 923:e:\liteos\liteos\targets\cloud_fm33a0xx\device\include\core_cm0plus.h **** 
 924:e:\liteos\liteos\targets\cloud_fm33a0xx\device\include\core_cm0plus.h **** /* ##########################  FPU functions  #################################### */
 925:e:\liteos\liteos\targets\cloud_fm33a0xx\device\include\core_cm0plus.h **** /**
 926:e:\liteos\liteos\targets\cloud_fm33a0xx\device\include\core_cm0plus.h ****   \ingroup  CMSIS_Core_FunctionInterface
 927:e:\liteos\liteos\targets\cloud_fm33a0xx\device\include\core_cm0plus.h ****   \defgroup CMSIS_Core_FpuFunctions FPU Functions
 928:e:\liteos\liteos\targets\cloud_fm33a0xx\device\include\core_cm0plus.h ****   \brief    Function that provides FPU type.
 929:e:\liteos\liteos\targets\cloud_fm33a0xx\device\include\core_cm0plus.h ****   @{
ARM GAS  C:\Users\WANGBI~1\AppData\Local\Temp\ccbZtvog.s 			page 18


 930:e:\liteos\liteos\targets\cloud_fm33a0xx\device\include\core_cm0plus.h ****  */
 931:e:\liteos\liteos\targets\cloud_fm33a0xx\device\include\core_cm0plus.h **** 
 932:e:\liteos\liteos\targets\cloud_fm33a0xx\device\include\core_cm0plus.h **** /**
 933:e:\liteos\liteos\targets\cloud_fm33a0xx\device\include\core_cm0plus.h ****   \brief   get FPU type
 934:e:\liteos\liteos\targets\cloud_fm33a0xx\device\include\core_cm0plus.h ****   \details returns the FPU type
 935:e:\liteos\liteos\targets\cloud_fm33a0xx\device\include\core_cm0plus.h ****   \returns
 936:e:\liteos\liteos\targets\cloud_fm33a0xx\device\include\core_cm0plus.h ****    - \b  0: No FPU
 937:e:\liteos\liteos\targets\cloud_fm33a0xx\device\include\core_cm0plus.h ****    - \b  1: Single precision FPU
 938:e:\liteos\liteos\targets\cloud_fm33a0xx\device\include\core_cm0plus.h ****    - \b  2: Double + Single precision FPU
 939:e:\liteos\liteos\targets\cloud_fm33a0xx\device\include\core_cm0plus.h ****  */
 940:e:\liteos\liteos\targets\cloud_fm33a0xx\device\include\core_cm0plus.h **** __STATIC_INLINE uint32_t SCB_GetFPUType(void)
 941:e:\liteos\liteos\targets\cloud_fm33a0xx\device\include\core_cm0plus.h **** {
 942:e:\liteos\liteos\targets\cloud_fm33a0xx\device\include\core_cm0plus.h ****     return 0U;           /* No FPU */
 943:e:\liteos\liteos\targets\cloud_fm33a0xx\device\include\core_cm0plus.h **** }
 944:e:\liteos\liteos\targets\cloud_fm33a0xx\device\include\core_cm0plus.h **** 
 945:e:\liteos\liteos\targets\cloud_fm33a0xx\device\include\core_cm0plus.h **** 
 946:e:\liteos\liteos\targets\cloud_fm33a0xx\device\include\core_cm0plus.h **** /*@} end of CMSIS_Core_FpuFunctions */
 947:e:\liteos\liteos\targets\cloud_fm33a0xx\device\include\core_cm0plus.h **** 
 948:e:\liteos\liteos\targets\cloud_fm33a0xx\device\include\core_cm0plus.h **** 
 949:e:\liteos\liteos\targets\cloud_fm33a0xx\device\include\core_cm0plus.h **** 
 950:e:\liteos\liteos\targets\cloud_fm33a0xx\device\include\core_cm0plus.h **** /* ##################################    SysTick function  ########################################
 951:e:\liteos\liteos\targets\cloud_fm33a0xx\device\include\core_cm0plus.h **** /**
 952:e:\liteos\liteos\targets\cloud_fm33a0xx\device\include\core_cm0plus.h ****   \ingroup  CMSIS_Core_FunctionInterface
 953:e:\liteos\liteos\targets\cloud_fm33a0xx\device\include\core_cm0plus.h ****   \defgroup CMSIS_Core_SysTickFunctions SysTick Functions
 954:e:\liteos\liteos\targets\cloud_fm33a0xx\device\include\core_cm0plus.h ****   \brief    Functions that configure the System.
 955:e:\liteos\liteos\targets\cloud_fm33a0xx\device\include\core_cm0plus.h ****   @{
 956:e:\liteos\liteos\targets\cloud_fm33a0xx\device\include\core_cm0plus.h ****  */
 957:e:\liteos\liteos\targets\cloud_fm33a0xx\device\include\core_cm0plus.h **** 
 958:e:\liteos\liteos\targets\cloud_fm33a0xx\device\include\core_cm0plus.h **** #if defined (__Vendor_SysTickConfig) && (__Vendor_SysTickConfig == 0U)
 959:e:\liteos\liteos\targets\cloud_fm33a0xx\device\include\core_cm0plus.h **** 
 960:e:\liteos\liteos\targets\cloud_fm33a0xx\device\include\core_cm0plus.h **** /**
 961:e:\liteos\liteos\targets\cloud_fm33a0xx\device\include\core_cm0plus.h ****   \brief   System Tick Configuration
 962:e:\liteos\liteos\targets\cloud_fm33a0xx\device\include\core_cm0plus.h ****   \details Initializes the System Timer and its interrupt, and starts the System Tick Timer.
 963:e:\liteos\liteos\targets\cloud_fm33a0xx\device\include\core_cm0plus.h ****            Counter is in free running mode to generate periodic interrupts.
 964:e:\liteos\liteos\targets\cloud_fm33a0xx\device\include\core_cm0plus.h ****   \param [in]  ticks  Number of ticks between two interrupts.
 965:e:\liteos\liteos\targets\cloud_fm33a0xx\device\include\core_cm0plus.h ****   \return          0  Function succeeded.
 966:e:\liteos\liteos\targets\cloud_fm33a0xx\device\include\core_cm0plus.h ****   \return          1  Function failed.
 967:e:\liteos\liteos\targets\cloud_fm33a0xx\device\include\core_cm0plus.h ****   \note    When the variable <b>__Vendor_SysTickConfig</b> is set to 1, then the
 968:e:\liteos\liteos\targets\cloud_fm33a0xx\device\include\core_cm0plus.h ****            function <b>SysTick_Config</b> is not included. In this case, the file <b><i>device</i>.
 969:e:\liteos\liteos\targets\cloud_fm33a0xx\device\include\core_cm0plus.h ****            must contain a vendor-specific implementation of this function.
 970:e:\liteos\liteos\targets\cloud_fm33a0xx\device\include\core_cm0plus.h ****  */
 971:e:\liteos\liteos\targets\cloud_fm33a0xx\device\include\core_cm0plus.h **** __STATIC_INLINE uint32_t SysTick_Config(uint32_t ticks)
 972:e:\liteos\liteos\targets\cloud_fm33a0xx\device\include\core_cm0plus.h **** {
 973:e:\liteos\liteos\targets\cloud_fm33a0xx\device\include\core_cm0plus.h ****   if ((ticks - 1UL) > SysTick_LOAD_RELOAD_Msk)
 974:e:\liteos\liteos\targets\cloud_fm33a0xx\device\include\core_cm0plus.h ****   {
 975:e:\liteos\liteos\targets\cloud_fm33a0xx\device\include\core_cm0plus.h ****     return (1UL);                                                   /* Reload value impossible */
 976:e:\liteos\liteos\targets\cloud_fm33a0xx\device\include\core_cm0plus.h ****   }
 977:e:\liteos\liteos\targets\cloud_fm33a0xx\device\include\core_cm0plus.h **** 
 978:e:\liteos\liteos\targets\cloud_fm33a0xx\device\include\core_cm0plus.h ****   SysTick->LOAD  = (uint32_t)(ticks - 1UL);                         /* set reload register */
  37              		.loc 2 978 0
  38 0000 084A     		ldr	r2, .L2
  39 0002 094B     		ldr	r3, .L2+4
  40 0004 5360     		str	r3, [r2, #4]
  41              	.LVL1:
  42              	.LBB14:
  43              	.LBB15:
 874:e:\liteos\liteos\targets\cloud_fm33a0xx\device\include\core_cm0plus.h ****        (((priority << (8U - __NVIC_PRIO_BITS)) & (uint32_t)0xFFUL) << _BIT_SHIFT(IRQn)));
ARM GAS  C:\Users\WANGBI~1\AppData\Local\Temp\ccbZtvog.s 			page 19


  44              		.loc 2 874 0
  45 0006 0949     		ldr	r1, .L2+8
  46 0008 0B6A     		ldr	r3, [r1, #32]
  47 000a 1B02     		lsls	r3, r3, #8
  48 000c 1B0A     		lsrs	r3, r3, #8
  49 000e C020     		movs	r0, #192
  50 0010 0006     		lsls	r0, r0, #24
  51 0012 0343     		orrs	r3, r0
  52 0014 0B62     		str	r3, [r1, #32]
  53              	.LVL2:
  54              	.LBE15:
  55              	.LBE14:
 979:e:\liteos\liteos\targets\cloud_fm33a0xx\device\include\core_cm0plus.h ****   NVIC_SetPriority (SysTick_IRQn, (1UL << __NVIC_PRIO_BITS) - 1UL); /* set Priority for Systick Int
 980:e:\liteos\liteos\targets\cloud_fm33a0xx\device\include\core_cm0plus.h ****   SysTick->VAL   = 0UL;                                             /* Load the SysTick Counter Val
  56              		.loc 2 980 0
  57 0016 0023     		movs	r3, #0
  58 0018 9360     		str	r3, [r2, #8]
 981:e:\liteos\liteos\targets\cloud_fm33a0xx\device\include\core_cm0plus.h ****   SysTick->CTRL  = SysTick_CTRL_CLKSOURCE_Msk |
  59              		.loc 2 981 0
  60 001a 0733     		adds	r3, r3, #7
  61 001c 1360     		str	r3, [r2]
  62              	.LVL3:
  63              	.LBE13:
  64              	.LBE12:
   6:e:/LiteOS/LiteOS/targets/Cloud_FM33A0XX/GCC/../../../targets/Cloud_FM33A0XX/UserCode\user_init.c ****     SysTick_Config(0x1000000UL);
   7:e:/LiteOS/LiteOS/targets/Cloud_FM33A0XX/GCC/../../../targets/Cloud_FM33A0XX/UserCode\user_init.c ****     SysTick->CTRL  = SysTick_CTRL_CLKSOURCE_Msk |//关闭中断
  65              		.loc 1 7 0
  66 001e 023B     		subs	r3, r3, #2
  67 0020 1360     		str	r3, [r2]
   8:e:/LiteOS/LiteOS/targets/Cloud_FM33A0XX/GCC/../../../targets/Cloud_FM33A0XX/UserCode\user_init.c ****                     //SysTick_CTRL_TICKINT_Msk |
   9:e:/LiteOS/LiteOS/targets/Cloud_FM33A0XX/GCC/../../../targets/Cloud_FM33A0XX/UserCode\user_init.c ****                     SysTick_CTRL_ENABLE_Msk;
  10:e:/LiteOS/LiteOS/targets/Cloud_FM33A0XX/GCC/../../../targets/Cloud_FM33A0XX/UserCode\user_init.c **** }
  68              		.loc 1 10 0
  69              		@ sp needed
  70 0022 7047     		bx	lr
  71              	.L3:
  72              		.align	2
  73              	.L2:
  74 0024 10E000E0 		.word	-536813552
  75 0028 FFFFFF00 		.word	16777215
  76 002c 00ED00E0 		.word	-536810240
  77              		.cfi_endproc
  78              	.LFE43:
  80              		.section	.text.TicksDelay,"ax",%progbits
  81              		.align	2
  82              		.global	TicksDelay
  83              		.code	16
  84              		.thumb_func
  86              	TicksDelay:
  87              	.LFB44:
  11:e:/LiteOS/LiteOS/targets/Cloud_FM33A0XX/GCC/../../../targets/Cloud_FM33A0XX/UserCode\user_init.c **** //调用软件延时前必须先配置SysTick
  12:e:/LiteOS/LiteOS/targets/Cloud_FM33A0XX/GCC/../../../targets/Cloud_FM33A0XX/UserCode\user_init.c **** void TicksDelay(uint32_t ClkNum)
  13:e:/LiteOS/LiteOS/targets/Cloud_FM33A0XX/GCC/../../../targets/Cloud_FM33A0XX/UserCode\user_init.c **** {
  88              		.loc 1 13 0
  89              		.cfi_startproc
  90              		@ args = 0, pretend = 0, frame = 0
  91              		@ frame_needed = 0, uses_anonymous_args = 0
ARM GAS  C:\Users\WANGBI~1\AppData\Local\Temp\ccbZtvog.s 			page 20


  92              		@ link register save eliminated.
  93              	.LVL4:
  14:e:/LiteOS/LiteOS/targets/Cloud_FM33A0XX/GCC/../../../targets/Cloud_FM33A0XX/UserCode\user_init.c ****     uint32_t last = SysTick->VAL;
  94              		.loc 1 14 0
  95 0000 074B     		ldr	r3, .L8
  96 0002 9A68     		ldr	r2, [r3, #8]
  97              	.LVL5:
  15:e:/LiteOS/LiteOS/targets/Cloud_FM33A0XX/GCC/../../../targets/Cloud_FM33A0XX/UserCode\user_init.c ****     
  16:e:/LiteOS/LiteOS/targets/Cloud_FM33A0XX/GCC/../../../targets/Cloud_FM33A0XX/UserCode\user_init.c ****     ClkNum = ClkNum*clkmode;//适应不同主频，8M时最大定时2ms，32M时最大定时0.5ms
  17:e:/LiteOS/LiteOS/targets/Cloud_FM33A0XX/GCC/../../../targets/Cloud_FM33A0XX/UserCode\user_init.c ****     if(ClkNum>0xF00000)
  98              		.loc 1 17 0
  99 0004 F023     		movs	r3, #240
 100 0006 1B04     		lsls	r3, r3, #16
 101 0008 9842     		cmp	r0, r3
 102 000a 00D9     		bls	.L6
  18:e:/LiteOS/LiteOS/targets/Cloud_FM33A0XX/GCC/../../../targets/Cloud_FM33A0XX/UserCode\user_init.c ****     {
  19:e:/LiteOS/LiteOS/targets/Cloud_FM33A0XX/GCC/../../../targets/Cloud_FM33A0XX/UserCode\user_init.c ****         ClkNum = 0xF00000;
 103              		.loc 1 19 0
 104 000c 1800     		movs	r0, r3
 105              	.LVL6:
 106              	.L6:
  20:e:/LiteOS/LiteOS/targets/Cloud_FM33A0XX/GCC/../../../targets/Cloud_FM33A0XX/UserCode\user_init.c ****     }
  21:e:/LiteOS/LiteOS/targets/Cloud_FM33A0XX/GCC/../../../targets/Cloud_FM33A0XX/UserCode\user_init.c ****     while(((last - SysTick->VAL)&0xFFFFFFUL ) < ClkNum);
 107              		.loc 1 21 0 discriminator 1
 108 000e 044B     		ldr	r3, .L8
 109 0010 9B68     		ldr	r3, [r3, #8]
 110 0012 D31A     		subs	r3, r2, r3
 111 0014 1B02     		lsls	r3, r3, #8
 112 0016 1B0A     		lsrs	r3, r3, #8
 113 0018 9842     		cmp	r0, r3
 114 001a F8D8     		bhi	.L6
  22:e:/LiteOS/LiteOS/targets/Cloud_FM33A0XX/GCC/../../../targets/Cloud_FM33A0XX/UserCode\user_init.c **** }
 115              		.loc 1 22 0
 116              		@ sp needed
 117 001c 7047     		bx	lr
 118              	.L9:
 119 001e C046     		.align	2
 120              	.L8:
 121 0020 10E000E0 		.word	-536813552
 122              		.cfi_endproc
 123              	.LFE44:
 125              		.section	.text.TicksDelayMs,"ax",%progbits
 126              		.align	2
 127              		.global	TicksDelayMs
 128              		.code	16
 129              		.thumb_func
 131              	TicksDelayMs:
 132              	.LFB45:
  23:e:/LiteOS/LiteOS/targets/Cloud_FM33A0XX/GCC/../../../targets/Cloud_FM33A0XX/UserCode\user_init.c **** //ms软件延时
  24:e:/LiteOS/LiteOS/targets/Cloud_FM33A0XX/GCC/../../../targets/Cloud_FM33A0XX/UserCode\user_init.c **** void TicksDelayMs(uint32_t ms , ConditionHook Hook)
  25:e:/LiteOS/LiteOS/targets/Cloud_FM33A0XX/GCC/../../../targets/Cloud_FM33A0XX/UserCode\user_init.c **** {
 133              		.loc 1 25 0
 134              		.cfi_startproc
 135              		@ args = 0, pretend = 0, frame = 0
 136              		@ frame_needed = 0, uses_anonymous_args = 0
 137              	.LVL7:
 138 0000 70B5     		push	{r4, r5, r6, lr}
ARM GAS  C:\Users\WANGBI~1\AppData\Local\Temp\ccbZtvog.s 			page 21


 139              	.LCFI0:
 140              		.cfi_def_cfa_offset 16
 141              		.cfi_offset 4, -16
 142              		.cfi_offset 5, -12
 143              		.cfi_offset 6, -8
 144              		.cfi_offset 14, -4
 145 0002 0400     		movs	r4, r0
 146 0004 0D00     		movs	r5, r1
 147              	.LVL8:
  26:e:/LiteOS/LiteOS/targets/Cloud_FM33A0XX/GCC/../../../targets/Cloud_FM33A0XX/UserCode\user_init.c ****     uint32_t ClkNum;
  27:e:/LiteOS/LiteOS/targets/Cloud_FM33A0XX/GCC/../../../targets/Cloud_FM33A0XX/UserCode\user_init.c ****     
  28:e:/LiteOS/LiteOS/targets/Cloud_FM33A0XX/GCC/../../../targets/Cloud_FM33A0XX/UserCode\user_init.c ****     ClkNum = (__SYSTEM_CLOCK/1000) ;
  29:e:/LiteOS/LiteOS/targets/Cloud_FM33A0XX/GCC/../../../targets/Cloud_FM33A0XX/UserCode\user_init.c ****     for(;ms>0;ms--)
 148              		.loc 1 29 0
 149 0006 09E0     		b	.L11
 150              	.LVL9:
 151              	.L14:
  30:e:/LiteOS/LiteOS/targets/Cloud_FM33A0XX/GCC/../../../targets/Cloud_FM33A0XX/UserCode\user_init.c ****     {
  31:e:/LiteOS/LiteOS/targets/Cloud_FM33A0XX/GCC/../../../targets/Cloud_FM33A0XX/UserCode\user_init.c ****         if(Hook!=NULL)
 152              		.loc 1 31 0
 153 0008 002D     		cmp	r5, #0
 154 000a 02D0     		beq	.L12
  32:e:/LiteOS/LiteOS/targets/Cloud_FM33A0XX/GCC/../../../targets/Cloud_FM33A0XX/UserCode\user_init.c ****         {
  33:e:/LiteOS/LiteOS/targets/Cloud_FM33A0XX/GCC/../../../targets/Cloud_FM33A0XX/UserCode\user_init.c ****             if(Hook()) return ;
 155              		.loc 1 33 0
 156 000c A847     		blx	r5
 157              	.LVL10:
 158 000e 0028     		cmp	r0, #0
 159 0010 06D1     		bne	.L10
 160              	.L12:
  34:e:/LiteOS/LiteOS/targets/Cloud_FM33A0XX/GCC/../../../targets/Cloud_FM33A0XX/UserCode\user_init.c ****         }
  35:e:/LiteOS/LiteOS/targets/Cloud_FM33A0XX/GCC/../../../targets/Cloud_FM33A0XX/UserCode\user_init.c ****         TicksDelay(ClkNum);
 161              		.loc 1 35 0
 162 0012 FA20     		movs	r0, #250
 163 0014 4001     		lsls	r0, r0, #5
 164 0016 FFF7FEFF 		bl	TicksDelay
 165              	.LVL11:
  29:e:/LiteOS/LiteOS/targets/Cloud_FM33A0XX/GCC/../../../targets/Cloud_FM33A0XX/UserCode\user_init.c ****     {
 166              		.loc 1 29 0
 167 001a 013C     		subs	r4, r4, #1
 168              	.LVL12:
 169              	.L11:
  29:e:/LiteOS/LiteOS/targets/Cloud_FM33A0XX/GCC/../../../targets/Cloud_FM33A0XX/UserCode\user_init.c ****     {
 170              		.loc 1 29 0 is_stmt 0 discriminator 1
 171 001c 002C     		cmp	r4, #0
 172 001e F3D1     		bne	.L14
 173              	.L10:
  36:e:/LiteOS/LiteOS/targets/Cloud_FM33A0XX/GCC/../../../targets/Cloud_FM33A0XX/UserCode\user_init.c ****     }
  37:e:/LiteOS/LiteOS/targets/Cloud_FM33A0XX/GCC/../../../targets/Cloud_FM33A0XX/UserCode\user_init.c **** }
 174              		.loc 1 37 0 is_stmt 1
 175              		@ sp needed
 176              	.LVL13:
 177              	.LVL14:
 178 0020 70BD     		pop	{r4, r5, r6, pc}
 179              		.cfi_endproc
 180              	.LFE45:
 182 0022 C046     		.section	.text.TicksDelayUs,"ax",%progbits
ARM GAS  C:\Users\WANGBI~1\AppData\Local\Temp\ccbZtvog.s 			page 22


 183              		.align	2
 184              		.global	TicksDelayUs
 185              		.code	16
 186              		.thumb_func
 188              	TicksDelayUs:
 189              	.LFB46:
  38:e:/LiteOS/LiteOS/targets/Cloud_FM33A0XX/GCC/../../../targets/Cloud_FM33A0XX/UserCode\user_init.c **** //us软件延时
  39:e:/LiteOS/LiteOS/targets/Cloud_FM33A0XX/GCC/../../../targets/Cloud_FM33A0XX/UserCode\user_init.c **** void TicksDelayUs(uint32_t us)
  40:e:/LiteOS/LiteOS/targets/Cloud_FM33A0XX/GCC/../../../targets/Cloud_FM33A0XX/UserCode\user_init.c **** {
 190              		.loc 1 40 0
 191              		.cfi_startproc
 192              		@ args = 0, pretend = 0, frame = 0
 193              		@ frame_needed = 0, uses_anonymous_args = 0
 194              	.LVL15:
 195 0000 10B5     		push	{r4, lr}
 196              	.LCFI1:
 197              		.cfi_def_cfa_offset 8
 198              		.cfi_offset 4, -8
 199              		.cfi_offset 14, -4
  41:e:/LiteOS/LiteOS/targets/Cloud_FM33A0XX/GCC/../../../targets/Cloud_FM33A0XX/UserCode\user_init.c ****     uint32_t ClkNum;
  42:e:/LiteOS/LiteOS/targets/Cloud_FM33A0XX/GCC/../../../targets/Cloud_FM33A0XX/UserCode\user_init.c ****     
  43:e:/LiteOS/LiteOS/targets/Cloud_FM33A0XX/GCC/../../../targets/Cloud_FM33A0XX/UserCode\user_init.c ****     if(us>100000)//不大于100ms
 200              		.loc 1 43 0
 201 0002 044B     		ldr	r3, .L18
 202 0004 9842     		cmp	r0, r3
 203 0006 00D9     		bls	.L16
  44:e:/LiteOS/LiteOS/targets/Cloud_FM33A0XX/GCC/../../../targets/Cloud_FM33A0XX/UserCode\user_init.c ****     {
  45:e:/LiteOS/LiteOS/targets/Cloud_FM33A0XX/GCC/../../../targets/Cloud_FM33A0XX/UserCode\user_init.c ****         us = 100000;
 204              		.loc 1 45 0
 205 0008 1800     		movs	r0, r3
 206              	.LVL16:
 207              	.L16:
  46:e:/LiteOS/LiteOS/targets/Cloud_FM33A0XX/GCC/../../../targets/Cloud_FM33A0XX/UserCode\user_init.c ****     }
  47:e:/LiteOS/LiteOS/targets/Cloud_FM33A0XX/GCC/../../../targets/Cloud_FM33A0XX/UserCode\user_init.c ****     ClkNum = us*(__SYSTEM_CLOCK/1000000) ;
 208              		.loc 1 47 0
 209 000a C000     		lsls	r0, r0, #3
 210              	.LVL17:
  48:e:/LiteOS/LiteOS/targets/Cloud_FM33A0XX/GCC/../../../targets/Cloud_FM33A0XX/UserCode\user_init.c ****     TicksDelay(ClkNum);
 211              		.loc 1 48 0
 212 000c FFF7FEFF 		bl	TicksDelay
 213              	.LVL18:
  49:e:/LiteOS/LiteOS/targets/Cloud_FM33A0XX/GCC/../../../targets/Cloud_FM33A0XX/UserCode\user_init.c **** }
 214              		.loc 1 49 0
 215              		@ sp needed
 216 0010 10BD     		pop	{r4, pc}
 217              	.L19:
 218 0012 C046     		.align	2
 219              	.L18:
 220 0014 A0860100 		.word	100000
 221              		.cfi_endproc
 222              	.LFE46:
 224              		.section	.text.CheckSysReg,"ax",%progbits
 225              		.align	2
 226              		.global	CheckSysReg
 227              		.code	16
 228              		.thumb_func
 230              	CheckSysReg:
ARM GAS  C:\Users\WANGBI~1\AppData\Local\Temp\ccbZtvog.s 			page 23


 231              	.LFB47:
  50:e:/LiteOS/LiteOS/targets/Cloud_FM33A0XX/GCC/../../../targets/Cloud_FM33A0XX/UserCode\user_init.c **** 
  51:e:/LiteOS/LiteOS/targets/Cloud_FM33A0XX/GCC/../../../targets/Cloud_FM33A0XX/UserCode\user_init.c **** //校验寄存器
  52:e:/LiteOS/LiteOS/targets/Cloud_FM33A0XX/GCC/../../../targets/Cloud_FM33A0XX/UserCode\user_init.c **** unsigned char CheckSysReg( __IO uint32_t *RegAddr, uint32_t Value )
  53:e:/LiteOS/LiteOS/targets/Cloud_FM33A0XX/GCC/../../../targets/Cloud_FM33A0XX/UserCode\user_init.c **** {
 232              		.loc 1 53 0
 233              		.cfi_startproc
 234              		@ args = 0, pretend = 0, frame = 0
 235              		@ frame_needed = 0, uses_anonymous_args = 0
 236              		@ link register save eliminated.
 237              	.LVL19:
  54:e:/LiteOS/LiteOS/targets/Cloud_FM33A0XX/GCC/../../../targets/Cloud_FM33A0XX/UserCode\user_init.c **** 	if( *RegAddr != Value ) 
 238              		.loc 1 54 0
 239 0000 0368     		ldr	r3, [r0]
 240 0002 8B42     		cmp	r3, r1
 241 0004 02D0     		beq	.L22
  55:e:/LiteOS/LiteOS/targets/Cloud_FM33A0XX/GCC/../../../targets/Cloud_FM33A0XX/UserCode\user_init.c **** 	{
  56:e:/LiteOS/LiteOS/targets/Cloud_FM33A0XX/GCC/../../../targets/Cloud_FM33A0XX/UserCode\user_init.c **** 		*RegAddr = Value;
 242              		.loc 1 56 0
 243 0006 0160     		str	r1, [r0]
  57:e:/LiteOS/LiteOS/targets/Cloud_FM33A0XX/GCC/../../../targets/Cloud_FM33A0XX/UserCode\user_init.c **** 		return 1;
 244              		.loc 1 57 0
 245 0008 0120     		movs	r0, #1
 246              	.LVL20:
 247 000a 00E0     		b	.L21
 248              	.LVL21:
 249              	.L22:
  58:e:/LiteOS/LiteOS/targets/Cloud_FM33A0XX/GCC/../../../targets/Cloud_FM33A0XX/UserCode\user_init.c **** 	}
  59:e:/LiteOS/LiteOS/targets/Cloud_FM33A0XX/GCC/../../../targets/Cloud_FM33A0XX/UserCode\user_init.c **** 	else
  60:e:/LiteOS/LiteOS/targets/Cloud_FM33A0XX/GCC/../../../targets/Cloud_FM33A0XX/UserCode\user_init.c **** 	{
  61:e:/LiteOS/LiteOS/targets/Cloud_FM33A0XX/GCC/../../../targets/Cloud_FM33A0XX/UserCode\user_init.c **** 		return 0;
 250              		.loc 1 61 0
 251 000c 0020     		movs	r0, #0
 252              	.LVL22:
 253              	.L21:
  62:e:/LiteOS/LiteOS/targets/Cloud_FM33A0XX/GCC/../../../targets/Cloud_FM33A0XX/UserCode\user_init.c **** 	}
  63:e:/LiteOS/LiteOS/targets/Cloud_FM33A0XX/GCC/../../../targets/Cloud_FM33A0XX/UserCode\user_init.c **** }
 254              		.loc 1 63 0
 255              		@ sp needed
 256 000e 7047     		bx	lr
 257              		.cfi_endproc
 258              	.LFE47:
 260              		.section	.text.CheckNvicIrqEn,"ax",%progbits
 261              		.align	2
 262              		.global	CheckNvicIrqEn
 263              		.code	16
 264              		.thumb_func
 266              	CheckNvicIrqEn:
 267              	.LFB48:
  64:e:/LiteOS/LiteOS/targets/Cloud_FM33A0XX/GCC/../../../targets/Cloud_FM33A0XX/UserCode\user_init.c **** 
  65:e:/LiteOS/LiteOS/targets/Cloud_FM33A0XX/GCC/../../../targets/Cloud_FM33A0XX/UserCode\user_init.c **** //查询NVIC寄存器对应向量号中断是否打开
  66:e:/LiteOS/LiteOS/targets/Cloud_FM33A0XX/GCC/../../../targets/Cloud_FM33A0XX/UserCode\user_init.c **** //1 打开
  67:e:/LiteOS/LiteOS/targets/Cloud_FM33A0XX/GCC/../../../targets/Cloud_FM33A0XX/UserCode\user_init.c **** //0 关闭
  68:e:/LiteOS/LiteOS/targets/Cloud_FM33A0XX/GCC/../../../targets/Cloud_FM33A0XX/UserCode\user_init.c **** unsigned char CheckNvicIrqEn( IRQn_Type IRQn )
  69:e:/LiteOS/LiteOS/targets/Cloud_FM33A0XX/GCC/../../../targets/Cloud_FM33A0XX/UserCode\user_init.c **** {
 268              		.loc 1 69 0
 269              		.cfi_startproc
ARM GAS  C:\Users\WANGBI~1\AppData\Local\Temp\ccbZtvog.s 			page 24


 270              		@ args = 0, pretend = 0, frame = 0
 271              		@ frame_needed = 0, uses_anonymous_args = 0
 272              		@ link register save eliminated.
 273              	.LVL23:
  70:e:/LiteOS/LiteOS/targets/Cloud_FM33A0XX/GCC/../../../targets/Cloud_FM33A0XX/UserCode\user_init.c **** 	if( 0 == ( NVIC->ISER[0U] & ((uint32_t)(1UL << (((uint32_t)(int32_t)IRQn) & 0x1FUL)))) )
 274              		.loc 1 70 0
 275 0000 054B     		ldr	r3, .L26
 276 0002 1B68     		ldr	r3, [r3]
 277 0004 1F22     		movs	r2, #31
 278 0006 1040     		ands	r0, r2
 279              	.LVL24:
 280 0008 C340     		lsrs	r3, r3, r0
 281 000a DB07     		lsls	r3, r3, #31
 282 000c 01D4     		bmi	.L25
  71:e:/LiteOS/LiteOS/targets/Cloud_FM33A0XX/GCC/../../../targets/Cloud_FM33A0XX/UserCode\user_init.c **** 		return 0;
 283              		.loc 1 71 0
 284 000e 0020     		movs	r0, #0
 285 0010 00E0     		b	.L24
 286              	.L25:
  72:e:/LiteOS/LiteOS/targets/Cloud_FM33A0XX/GCC/../../../targets/Cloud_FM33A0XX/UserCode\user_init.c **** 	else
  73:e:/LiteOS/LiteOS/targets/Cloud_FM33A0XX/GCC/../../../targets/Cloud_FM33A0XX/UserCode\user_init.c **** 		return 1;
 287              		.loc 1 73 0
 288 0012 0120     		movs	r0, #1
 289              	.L24:
  74:e:/LiteOS/LiteOS/targets/Cloud_FM33A0XX/GCC/../../../targets/Cloud_FM33A0XX/UserCode\user_init.c **** }
 290              		.loc 1 74 0
 291              		@ sp needed
 292 0014 7047     		bx	lr
 293              	.L27:
 294 0016 C046     		.align	2
 295              	.L26:
 296 0018 00E100E0 		.word	-536813312
 297              		.cfi_endproc
 298              	.LFE48:
 300              		.section	.text.AnalogIO,"ax",%progbits
 301              		.align	2
 302              		.global	AnalogIO
 303              		.code	16
 304              		.thumb_func
 306              	AnalogIO:
 307              	.LFB49:
  75:e:/LiteOS/LiteOS/targets/Cloud_FM33A0XX/GCC/../../../targets/Cloud_FM33A0XX/UserCode\user_init.c **** 
  76:e:/LiteOS/LiteOS/targets/Cloud_FM33A0XX/GCC/../../../targets/Cloud_FM33A0XX/UserCode\user_init.c **** //IO模拟功能配置:LCD/ADC
  77:e:/LiteOS/LiteOS/targets/Cloud_FM33A0XX/GCC/../../../targets/Cloud_FM33A0XX/UserCode\user_init.c **** void AnalogIO( GPIOx_Type* GPIOx, uint32_t PinNum )
  78:e:/LiteOS/LiteOS/targets/Cloud_FM33A0XX/GCC/../../../targets/Cloud_FM33A0XX/UserCode\user_init.c **** {
 308              		.loc 1 78 0
 309              		.cfi_startproc
 310              		@ args = 0, pretend = 0, frame = 16
 311              		@ frame_needed = 0, uses_anonymous_args = 0
 312              	.LVL25:
 313 0000 30B5     		push	{r4, r5, lr}
 314              	.LCFI2:
 315              		.cfi_def_cfa_offset 12
 316              		.cfi_offset 4, -12
 317              		.cfi_offset 5, -8
 318              		.cfi_offset 14, -4
 319 0002 85B0     		sub	sp, sp, #20
ARM GAS  C:\Users\WANGBI~1\AppData\Local\Temp\ccbZtvog.s 			page 25


 320              	.LCFI3:
 321              		.cfi_def_cfa_offset 32
 322 0004 0500     		movs	r5, r0
 323 0006 0C00     		movs	r4, r1
  79:e:/LiteOS/LiteOS/targets/Cloud_FM33A0XX/GCC/../../../targets/Cloud_FM33A0XX/UserCode\user_init.c **** 	GPIO_InitTypeDef  GPIO_InitStructure;
  80:e:/LiteOS/LiteOS/targets/Cloud_FM33A0XX/GCC/../../../targets/Cloud_FM33A0XX/UserCode\user_init.c **** 	GPIO_InitTypeDef  GPIO_InitStructureRun;
  81:e:/LiteOS/LiteOS/targets/Cloud_FM33A0XX/GCC/../../../targets/Cloud_FM33A0XX/UserCode\user_init.c **** 	
  82:e:/LiteOS/LiteOS/targets/Cloud_FM33A0XX/GCC/../../../targets/Cloud_FM33A0XX/UserCode\user_init.c **** 	GPIO_Get_InitPara(GPIOx, PinNum, &GPIO_InitStructureRun);
 324              		.loc 1 82 0
 325 0008 6A46     		mov	r2, sp
 326 000a FFF7FEFF 		bl	GPIO_Get_InitPara
 327              	.LVL26:
  83:e:/LiteOS/LiteOS/targets/Cloud_FM33A0XX/GCC/../../../targets/Cloud_FM33A0XX/UserCode\user_init.c **** 	
  84:e:/LiteOS/LiteOS/targets/Cloud_FM33A0XX/GCC/../../../targets/Cloud_FM33A0XX/UserCode\user_init.c **** 	if( (GPIO_InitStructureRun.Pin		!= PinNum) ||
 328              		.loc 1 84 0
 329 000e 009B     		ldr	r3, [sp]
 330 0010 9C42     		cmp	r4, r3
 331 0012 04D1     		bne	.L29
  85:e:/LiteOS/LiteOS/targets/Cloud_FM33A0XX/GCC/../../../targets/Cloud_FM33A0XX/UserCode\user_init.c **** 		(GPIO_InitStructureRun.PxINEN	!= GPIO_IN_Dis) ||
  86:e:/LiteOS/LiteOS/targets/Cloud_FM33A0XX/GCC/../../../targets/Cloud_FM33A0XX/UserCode\user_init.c **** 		(GPIO_InitStructureRun.PxODEN	!= GPIO_OD_En) ||
  87:e:/LiteOS/LiteOS/targets/Cloud_FM33A0XX/GCC/../../../targets/Cloud_FM33A0XX/UserCode\user_init.c **** 		(GPIO_InitStructureRun.PxPUEN	!= GPIO_PU_Dis) ||
 332              		.loc 1 87 0
 333 0014 0423     		movs	r3, #4
 334 0016 FF33     		adds	r3, r3, #255
 335 0018 019A     		ldr	r2, [sp, #4]
 336 001a 9A42     		cmp	r2, r3
 337 001c 0BD0     		beq	.L28
 338              	.L29:
  88:e:/LiteOS/LiteOS/targets/Cloud_FM33A0XX/GCC/../../../targets/Cloud_FM33A0XX/UserCode\user_init.c **** 		(GPIO_InitStructureRun.PxFCR	!= GPIO_FCR_ANA) )
  89:e:/LiteOS/LiteOS/targets/Cloud_FM33A0XX/GCC/../../../targets/Cloud_FM33A0XX/UserCode\user_init.c **** 	{
  90:e:/LiteOS/LiteOS/targets/Cloud_FM33A0XX/GCC/../../../targets/Cloud_FM33A0XX/UserCode\user_init.c **** 		GPIO_InitStructure.Pin = PinNum;
 339              		.loc 1 90 0
 340 001e 02A9     		add	r1, sp, #8
 341 0020 0294     		str	r4, [sp, #8]
  91:e:/LiteOS/LiteOS/targets/Cloud_FM33A0XX/GCC/../../../targets/Cloud_FM33A0XX/UserCode\user_init.c **** 		GPIO_InitStructure.PxINEN = GPIO_IN_Dis;
 342              		.loc 1 91 0
 343 0022 0023     		movs	r3, #0
 344 0024 CB71     		strb	r3, [r1, #7]
  92:e:/LiteOS/LiteOS/targets/Cloud_FM33A0XX/GCC/../../../targets/Cloud_FM33A0XX/UserCode\user_init.c **** 		GPIO_InitStructure.PxODEN = GPIO_OD_En;
 345              		.loc 1 92 0
 346 0026 0122     		movs	r2, #1
 347 0028 4A71     		strb	r2, [r1, #5]
  93:e:/LiteOS/LiteOS/targets/Cloud_FM33A0XX/GCC/../../../targets/Cloud_FM33A0XX/UserCode\user_init.c **** 		GPIO_InitStructure.PxPUEN = GPIO_PU_Dis;
 348              		.loc 1 93 0
 349 002a 8B71     		strb	r3, [r1, #6]
  94:e:/LiteOS/LiteOS/targets/Cloud_FM33A0XX/GCC/../../../targets/Cloud_FM33A0XX/UserCode\user_init.c **** 		GPIO_InitStructure.PxFCR = GPIO_FCR_ANA;
 350              		.loc 1 94 0
 351 002c 0333     		adds	r3, r3, #3
 352 002e 0B71     		strb	r3, [r1, #4]
  95:e:/LiteOS/LiteOS/targets/Cloud_FM33A0XX/GCC/../../../targets/Cloud_FM33A0XX/UserCode\user_init.c **** 		
  96:e:/LiteOS/LiteOS/targets/Cloud_FM33A0XX/GCC/../../../targets/Cloud_FM33A0XX/UserCode\user_init.c **** 		GPIO_Init(GPIOx, &GPIO_InitStructure);		
 353              		.loc 1 96 0
 354 0030 2800     		movs	r0, r5
 355 0032 FFF7FEFF 		bl	GPIO_Init
 356              	.LVL27:
 357              	.L28:
  97:e:/LiteOS/LiteOS/targets/Cloud_FM33A0XX/GCC/../../../targets/Cloud_FM33A0XX/UserCode\user_init.c **** 	}	
ARM GAS  C:\Users\WANGBI~1\AppData\Local\Temp\ccbZtvog.s 			page 26


  98:e:/LiteOS/LiteOS/targets/Cloud_FM33A0XX/GCC/../../../targets/Cloud_FM33A0XX/UserCode\user_init.c **** }
 358              		.loc 1 98 0
 359 0036 05B0     		add	sp, sp, #20
 360              		@ sp needed
 361              	.LVL28:
 362              	.LVL29:
 363 0038 30BD     		pop	{r4, r5, pc}
 364              		.cfi_endproc
 365              	.LFE49:
 367 003a C046     		.section	.text.InputtIO,"ax",%progbits
 368              		.align	2
 369              		.global	InputtIO
 370              		.code	16
 371              		.thumb_func
 373              	InputtIO:
 374              	.LFB50:
  99:e:/LiteOS/LiteOS/targets/Cloud_FM33A0XX/GCC/../../../targets/Cloud_FM33A0XX/UserCode\user_init.c **** 
 100:e:/LiteOS/LiteOS/targets/Cloud_FM33A0XX/GCC/../../../targets/Cloud_FM33A0XX/UserCode\user_init.c **** //IO输入口配置 
 101:e:/LiteOS/LiteOS/targets/Cloud_FM33A0XX/GCC/../../../targets/Cloud_FM33A0XX/UserCode\user_init.c **** //type 0 = 普通 
 102:e:/LiteOS/LiteOS/targets/Cloud_FM33A0XX/GCC/../../../targets/Cloud_FM33A0XX/UserCode\user_init.c **** //type 1 = 上拉
 103:e:/LiteOS/LiteOS/targets/Cloud_FM33A0XX/GCC/../../../targets/Cloud_FM33A0XX/UserCode\user_init.c **** //#define IN_NORMAL	0
 104:e:/LiteOS/LiteOS/targets/Cloud_FM33A0XX/GCC/../../../targets/Cloud_FM33A0XX/UserCode\user_init.c **** //#define IN_PULLUP	1
 105:e:/LiteOS/LiteOS/targets/Cloud_FM33A0XX/GCC/../../../targets/Cloud_FM33A0XX/UserCode\user_init.c **** void InputtIO( GPIOx_Type* GPIOx, uint32_t PinNum, uint8_t Type )
 106:e:/LiteOS/LiteOS/targets/Cloud_FM33A0XX/GCC/../../../targets/Cloud_FM33A0XX/UserCode\user_init.c **** {
 375              		.loc 1 106 0
 376              		.cfi_startproc
 377              		@ args = 0, pretend = 0, frame = 16
 378              		@ frame_needed = 0, uses_anonymous_args = 0
 379              	.LVL30:
 380 0000 70B5     		push	{r4, r5, r6, lr}
 381              	.LCFI4:
 382              		.cfi_def_cfa_offset 16
 383              		.cfi_offset 4, -16
 384              		.cfi_offset 5, -12
 385              		.cfi_offset 6, -8
 386              		.cfi_offset 14, -4
 387 0002 84B0     		sub	sp, sp, #16
 388              	.LCFI5:
 389              		.cfi_def_cfa_offset 32
 390 0004 0500     		movs	r5, r0
 391 0006 0C00     		movs	r4, r1
 392 0008 1600     		movs	r6, r2
 107:e:/LiteOS/LiteOS/targets/Cloud_FM33A0XX/GCC/../../../targets/Cloud_FM33A0XX/UserCode\user_init.c **** 	GPIO_InitTypeDef  GPIO_InitStructure;
 108:e:/LiteOS/LiteOS/targets/Cloud_FM33A0XX/GCC/../../../targets/Cloud_FM33A0XX/UserCode\user_init.c **** 	GPIO_InitTypeDef  GPIO_InitStructureRun;
 109:e:/LiteOS/LiteOS/targets/Cloud_FM33A0XX/GCC/../../../targets/Cloud_FM33A0XX/UserCode\user_init.c **** 	
 110:e:/LiteOS/LiteOS/targets/Cloud_FM33A0XX/GCC/../../../targets/Cloud_FM33A0XX/UserCode\user_init.c **** 	GPIO_Get_InitPara(GPIOx, PinNum, &GPIO_InitStructureRun);
 393              		.loc 1 110 0
 394 000a 6A46     		mov	r2, sp
 395              	.LVL31:
 396 000c FFF7FEFF 		bl	GPIO_Get_InitPara
 397              	.LVL32:
 111:e:/LiteOS/LiteOS/targets/Cloud_FM33A0XX/GCC/../../../targets/Cloud_FM33A0XX/UserCode\user_init.c **** 		
 112:e:/LiteOS/LiteOS/targets/Cloud_FM33A0XX/GCC/../../../targets/Cloud_FM33A0XX/UserCode\user_init.c **** 	if( (GPIO_InitStructureRun.Pin		!= PinNum) ||
 398              		.loc 1 112 0
 399 0010 009B     		ldr	r3, [sp]
 400 0012 9C42     		cmp	r4, r3
 401 0014 15D1     		bne	.L32
ARM GAS  C:\Users\WANGBI~1\AppData\Local\Temp\ccbZtvog.s 			page 27


 113:e:/LiteOS/LiteOS/targets/Cloud_FM33A0XX/GCC/../../../targets/Cloud_FM33A0XX/UserCode\user_init.c **** 		(GPIO_InitStructureRun.PxINEN	!= GPIO_IN_En) ||
 402              		.loc 1 113 0
 403 0016 154B     		ldr	r3, .L38
 404 0018 019A     		ldr	r2, [sp, #4]
 405 001a 1340     		ands	r3, r2
 406 001c 144A     		ldr	r2, .L38+4
 407 001e 9342     		cmp	r3, r2
 408 0020 0FD1     		bne	.L32
 114:e:/LiteOS/LiteOS/targets/Cloud_FM33A0XX/GCC/../../../targets/Cloud_FM33A0XX/UserCode\user_init.c **** 		(GPIO_InitStructureRun.PxODEN	!= GPIO_OD_En) ||
 409              		.loc 1 114 0
 410 0022 002E     		cmp	r6, #0
 411 0024 03D1     		bne	.L33
 115:e:/LiteOS/LiteOS/targets/Cloud_FM33A0XX/GCC/../../../targets/Cloud_FM33A0XX/UserCode\user_init.c **** 		((Type == IN_NORMAL)&&(GPIO_InitStructureRun.PxPUEN != GPIO_PU_Dis)) ||
 412              		.loc 1 115 0
 413 0026 6B46     		mov	r3, sp
 414 0028 9B79     		ldrb	r3, [r3, #6]
 415 002a 002B     		cmp	r3, #0
 416 002c 09D1     		bne	.L32
 417              	.L33:
 418              		.loc 1 115 0 is_stmt 0 discriminator 1
 419 002e 012E     		cmp	r6, #1
 420 0030 03D1     		bne	.L34
 116:e:/LiteOS/LiteOS/targets/Cloud_FM33A0XX/GCC/../../../targets/Cloud_FM33A0XX/UserCode\user_init.c **** 		((Type == IN_PULLUP)&&(GPIO_InitStructureRun.PxPUEN != GPIO_PU_En)) ||
 421              		.loc 1 116 0 is_stmt 1
 422 0032 6B46     		mov	r3, sp
 423 0034 9B79     		ldrb	r3, [r3, #6]
 424 0036 012B     		cmp	r3, #1
 425 0038 03D1     		bne	.L32
 426              	.L34:
 117:e:/LiteOS/LiteOS/targets/Cloud_FM33A0XX/GCC/../../../targets/Cloud_FM33A0XX/UserCode\user_init.c **** 		(GPIO_InitStructureRun.PxFCR	!= GPIO_FCR_IN) )
 427              		.loc 1 117 0 discriminator 1
 428 003a 6B46     		mov	r3, sp
 429 003c 1B79     		ldrb	r3, [r3, #4]
 116:e:/LiteOS/LiteOS/targets/Cloud_FM33A0XX/GCC/../../../targets/Cloud_FM33A0XX/UserCode\user_init.c **** 		((Type == IN_PULLUP)&&(GPIO_InitStructureRun.PxPUEN != GPIO_PU_En)) ||
 430              		.loc 1 116 0 discriminator 1
 431 003e 002B     		cmp	r3, #0
 432 0040 12D0     		beq	.L31
 433              	.L32:
 118:e:/LiteOS/LiteOS/targets/Cloud_FM33A0XX/GCC/../../../targets/Cloud_FM33A0XX/UserCode\user_init.c **** 	{
 119:e:/LiteOS/LiteOS/targets/Cloud_FM33A0XX/GCC/../../../targets/Cloud_FM33A0XX/UserCode\user_init.c **** 		GPIO_InitStructure.Pin = PinNum;	
 434              		.loc 1 119 0
 435 0042 02AB     		add	r3, sp, #8
 436 0044 0294     		str	r4, [sp, #8]
 120:e:/LiteOS/LiteOS/targets/Cloud_FM33A0XX/GCC/../../../targets/Cloud_FM33A0XX/UserCode\user_init.c **** 		GPIO_InitStructure.PxINEN = GPIO_IN_En;
 437              		.loc 1 120 0
 438 0046 0122     		movs	r2, #1
 439 0048 DA71     		strb	r2, [r3, #7]
 121:e:/LiteOS/LiteOS/targets/Cloud_FM33A0XX/GCC/../../../targets/Cloud_FM33A0XX/UserCode\user_init.c **** 		GPIO_InitStructure.PxODEN = GPIO_OD_En;
 440              		.loc 1 121 0
 441 004a 5A71     		strb	r2, [r3, #5]
 122:e:/LiteOS/LiteOS/targets/Cloud_FM33A0XX/GCC/../../../targets/Cloud_FM33A0XX/UserCode\user_init.c **** 		if(Type == IN_NORMAL)		GPIO_InitStructure.PxPUEN = GPIO_PU_Dis;
 442              		.loc 1 122 0
 443 004c 002E     		cmp	r6, #0
 444 004e 02D1     		bne	.L36
 445              		.loc 1 122 0 is_stmt 0 discriminator 1
 446 0050 0022     		movs	r2, #0
 447 0052 9A71     		strb	r2, [r3, #6]
ARM GAS  C:\Users\WANGBI~1\AppData\Local\Temp\ccbZtvog.s 			page 28


 448 0054 02E0     		b	.L37
 449              	.L36:
 123:e:/LiteOS/LiteOS/targets/Cloud_FM33A0XX/GCC/../../../targets/Cloud_FM33A0XX/UserCode\user_init.c **** 		else						GPIO_InitStructure.PxPUEN = GPIO_PU_En;	
 450              		.loc 1 123 0 is_stmt 1
 451 0056 0122     		movs	r2, #1
 452 0058 02AB     		add	r3, sp, #8
 453 005a 9A71     		strb	r2, [r3, #6]
 454              	.L37:
 124:e:/LiteOS/LiteOS/targets/Cloud_FM33A0XX/GCC/../../../targets/Cloud_FM33A0XX/UserCode\user_init.c **** 		GPIO_InitStructure.PxFCR = GPIO_FCR_IN;
 455              		.loc 1 124 0
 456 005c 02A9     		add	r1, sp, #8
 457 005e 0023     		movs	r3, #0
 458 0060 0B71     		strb	r3, [r1, #4]
 125:e:/LiteOS/LiteOS/targets/Cloud_FM33A0XX/GCC/../../../targets/Cloud_FM33A0XX/UserCode\user_init.c **** 		
 126:e:/LiteOS/LiteOS/targets/Cloud_FM33A0XX/GCC/../../../targets/Cloud_FM33A0XX/UserCode\user_init.c **** 		GPIO_Init(GPIOx, &GPIO_InitStructure);	
 459              		.loc 1 126 0
 460 0062 2800     		movs	r0, r5
 461 0064 FFF7FEFF 		bl	GPIO_Init
 462              	.LVL33:
 463              	.L31:
 127:e:/LiteOS/LiteOS/targets/Cloud_FM33A0XX/GCC/../../../targets/Cloud_FM33A0XX/UserCode\user_init.c **** 	}
 128:e:/LiteOS/LiteOS/targets/Cloud_FM33A0XX/GCC/../../../targets/Cloud_FM33A0XX/UserCode\user_init.c **** }
 464              		.loc 1 128 0
 465 0068 04B0     		add	sp, sp, #16
 466              		@ sp needed
 467              	.LVL34:
 468              	.LVL35:
 469 006a 70BD     		pop	{r4, r5, r6, pc}
 470              	.L39:
 471              		.align	2
 472              	.L38:
 473 006c 00FF00FF 		.word	-16711936
 474 0070 00010001 		.word	16777472
 475              		.cfi_endproc
 476              	.LFE50:
 478              		.section	.text.OutputIO,"ax",%progbits
 479              		.align	2
 480              		.global	OutputIO
 481              		.code	16
 482              		.thumb_func
 484              	OutputIO:
 485              	.LFB51:
 129:e:/LiteOS/LiteOS/targets/Cloud_FM33A0XX/GCC/../../../targets/Cloud_FM33A0XX/UserCode\user_init.c **** 
 130:e:/LiteOS/LiteOS/targets/Cloud_FM33A0XX/GCC/../../../targets/Cloud_FM33A0XX/UserCode\user_init.c **** //IO输出口配置 
 131:e:/LiteOS/LiteOS/targets/Cloud_FM33A0XX/GCC/../../../targets/Cloud_FM33A0XX/UserCode\user_init.c **** //type 0 = 普通 
 132:e:/LiteOS/LiteOS/targets/Cloud_FM33A0XX/GCC/../../../targets/Cloud_FM33A0XX/UserCode\user_init.c **** //type 1 = OD
 133:e:/LiteOS/LiteOS/targets/Cloud_FM33A0XX/GCC/../../../targets/Cloud_FM33A0XX/UserCode\user_init.c **** //#define OUT_PUSHPULL	0
 134:e:/LiteOS/LiteOS/targets/Cloud_FM33A0XX/GCC/../../../targets/Cloud_FM33A0XX/UserCode\user_init.c **** //#define OUT_OPENDRAIN	1
 135:e:/LiteOS/LiteOS/targets/Cloud_FM33A0XX/GCC/../../../targets/Cloud_FM33A0XX/UserCode\user_init.c **** void OutputIO( GPIOx_Type* GPIOx, uint32_t PinNum, uint8_t Type )
 136:e:/LiteOS/LiteOS/targets/Cloud_FM33A0XX/GCC/../../../targets/Cloud_FM33A0XX/UserCode\user_init.c **** {
 486              		.loc 1 136 0
 487              		.cfi_startproc
 488              		@ args = 0, pretend = 0, frame = 16
 489              		@ frame_needed = 0, uses_anonymous_args = 0
 490              	.LVL36:
 491 0000 70B5     		push	{r4, r5, r6, lr}
 492              	.LCFI6:
ARM GAS  C:\Users\WANGBI~1\AppData\Local\Temp\ccbZtvog.s 			page 29


 493              		.cfi_def_cfa_offset 16
 494              		.cfi_offset 4, -16
 495              		.cfi_offset 5, -12
 496              		.cfi_offset 6, -8
 497              		.cfi_offset 14, -4
 498 0002 84B0     		sub	sp, sp, #16
 499              	.LCFI7:
 500              		.cfi_def_cfa_offset 32
 501 0004 0500     		movs	r5, r0
 502 0006 0C00     		movs	r4, r1
 503 0008 1600     		movs	r6, r2
 137:e:/LiteOS/LiteOS/targets/Cloud_FM33A0XX/GCC/../../../targets/Cloud_FM33A0XX/UserCode\user_init.c **** 	GPIO_InitTypeDef  GPIO_InitStructure;
 138:e:/LiteOS/LiteOS/targets/Cloud_FM33A0XX/GCC/../../../targets/Cloud_FM33A0XX/UserCode\user_init.c **** 	GPIO_InitTypeDef  GPIO_InitStructureRun;
 139:e:/LiteOS/LiteOS/targets/Cloud_FM33A0XX/GCC/../../../targets/Cloud_FM33A0XX/UserCode\user_init.c **** 	
 140:e:/LiteOS/LiteOS/targets/Cloud_FM33A0XX/GCC/../../../targets/Cloud_FM33A0XX/UserCode\user_init.c **** 	GPIO_Get_InitPara(GPIOx, PinNum, &GPIO_InitStructureRun);
 504              		.loc 1 140 0
 505 000a 6A46     		mov	r2, sp
 506              	.LVL37:
 507 000c FFF7FEFF 		bl	GPIO_Get_InitPara
 508              	.LVL38:
 141:e:/LiteOS/LiteOS/targets/Cloud_FM33A0XX/GCC/../../../targets/Cloud_FM33A0XX/UserCode\user_init.c **** 	
 142:e:/LiteOS/LiteOS/targets/Cloud_FM33A0XX/GCC/../../../targets/Cloud_FM33A0XX/UserCode\user_init.c **** 	if( (GPIO_InitStructureRun.Pin		!= PinNum) ||
 509              		.loc 1 142 0
 510 0010 009B     		ldr	r3, [sp]
 511 0012 9C42     		cmp	r4, r3
 512 0014 14D1     		bne	.L41
 143:e:/LiteOS/LiteOS/targets/Cloud_FM33A0XX/GCC/../../../targets/Cloud_FM33A0XX/UserCode\user_init.c **** 		(GPIO_InitStructureRun.PxINEN	!= GPIO_IN_Dis) ||
 513              		.loc 1 143 0 discriminator 1
 514 0016 6B46     		mov	r3, sp
 515 0018 DB79     		ldrb	r3, [r3, #7]
 142:e:/LiteOS/LiteOS/targets/Cloud_FM33A0XX/GCC/../../../targets/Cloud_FM33A0XX/UserCode\user_init.c **** 		(GPIO_InitStructureRun.PxINEN	!= GPIO_IN_Dis) ||
 516              		.loc 1 142 0 discriminator 1
 517 001a 002B     		cmp	r3, #0
 518 001c 10D1     		bne	.L41
 519              		.loc 1 143 0
 520 001e 002E     		cmp	r6, #0
 521 0020 03D1     		bne	.L42
 144:e:/LiteOS/LiteOS/targets/Cloud_FM33A0XX/GCC/../../../targets/Cloud_FM33A0XX/UserCode\user_init.c **** 		((Type == OUT_PUSHPULL)&&(GPIO_InitStructureRun.PxODEN	!= GPIO_OD_Dis)) ||
 522              		.loc 1 144 0
 523 0022 6B46     		mov	r3, sp
 524 0024 5B79     		ldrb	r3, [r3, #5]
 525 0026 002B     		cmp	r3, #0
 526 0028 0AD1     		bne	.L41
 527              	.L42:
 528              		.loc 1 144 0 is_stmt 0 discriminator 1
 529 002a 012E     		cmp	r6, #1
 530 002c 03D1     		bne	.L43
 145:e:/LiteOS/LiteOS/targets/Cloud_FM33A0XX/GCC/../../../targets/Cloud_FM33A0XX/UserCode\user_init.c **** 		((Type == OUT_OPENDRAIN)&&(GPIO_InitStructureRun.PxODEN	!= GPIO_OD_En)) ||
 531              		.loc 1 145 0 is_stmt 1
 532 002e 6B46     		mov	r3, sp
 533 0030 5B79     		ldrb	r3, [r3, #5]
 534 0032 012B     		cmp	r3, #1
 535 0034 04D1     		bne	.L41
 536              	.L43:
 146:e:/LiteOS/LiteOS/targets/Cloud_FM33A0XX/GCC/../../../targets/Cloud_FM33A0XX/UserCode\user_init.c **** 		(GPIO_InitStructureRun.PxPUEN	!= GPIO_PU_Dis) ||
 537              		.loc 1 146 0
 538 0036 0D4B     		ldr	r3, .L47
ARM GAS  C:\Users\WANGBI~1\AppData\Local\Temp\ccbZtvog.s 			page 30


 539 0038 019A     		ldr	r2, [sp, #4]
 540 003a 1340     		ands	r3, r2
 541 003c 012B     		cmp	r3, #1
 542 003e 12D0     		beq	.L40
 543              	.L41:
 147:e:/LiteOS/LiteOS/targets/Cloud_FM33A0XX/GCC/../../../targets/Cloud_FM33A0XX/UserCode\user_init.c **** 		(GPIO_InitStructureRun.PxFCR	!= GPIO_FCR_OUT) )
 148:e:/LiteOS/LiteOS/targets/Cloud_FM33A0XX/GCC/../../../targets/Cloud_FM33A0XX/UserCode\user_init.c **** 	{
 149:e:/LiteOS/LiteOS/targets/Cloud_FM33A0XX/GCC/../../../targets/Cloud_FM33A0XX/UserCode\user_init.c **** 		GPIO_InitStructure.Pin = PinNum;
 544              		.loc 1 149 0
 545 0040 0294     		str	r4, [sp, #8]
 150:e:/LiteOS/LiteOS/targets/Cloud_FM33A0XX/GCC/../../../targets/Cloud_FM33A0XX/UserCode\user_init.c **** 		GPIO_InitStructure.PxINEN = GPIO_IN_Dis;
 546              		.loc 1 150 0
 547 0042 0022     		movs	r2, #0
 548 0044 02AB     		add	r3, sp, #8
 549 0046 DA71     		strb	r2, [r3, #7]
 151:e:/LiteOS/LiteOS/targets/Cloud_FM33A0XX/GCC/../../../targets/Cloud_FM33A0XX/UserCode\user_init.c **** 		if(Type == OUT_PUSHPULL)	GPIO_InitStructure.PxODEN = GPIO_OD_Dis;
 550              		.loc 1 151 0
 551 0048 002E     		cmp	r6, #0
 552 004a 01D1     		bne	.L45
 553              		.loc 1 151 0 is_stmt 0 discriminator 1
 554 004c 5A71     		strb	r2, [r3, #5]
 555 004e 02E0     		b	.L46
 556              	.L45:
 152:e:/LiteOS/LiteOS/targets/Cloud_FM33A0XX/GCC/../../../targets/Cloud_FM33A0XX/UserCode\user_init.c **** 		else						GPIO_InitStructure.PxODEN = GPIO_OD_En;
 557              		.loc 1 152 0 is_stmt 1
 558 0050 0122     		movs	r2, #1
 559 0052 02AB     		add	r3, sp, #8
 560 0054 5A71     		strb	r2, [r3, #5]
 561              	.L46:
 153:e:/LiteOS/LiteOS/targets/Cloud_FM33A0XX/GCC/../../../targets/Cloud_FM33A0XX/UserCode\user_init.c **** 		GPIO_InitStructure.PxPUEN = GPIO_PU_Dis;
 562              		.loc 1 153 0
 563 0056 02A9     		add	r1, sp, #8
 564 0058 0023     		movs	r3, #0
 565 005a 8B71     		strb	r3, [r1, #6]
 154:e:/LiteOS/LiteOS/targets/Cloud_FM33A0XX/GCC/../../../targets/Cloud_FM33A0XX/UserCode\user_init.c **** 		GPIO_InitStructure.PxFCR = GPIO_FCR_OUT;
 566              		.loc 1 154 0
 567 005c 0133     		adds	r3, r3, #1
 568 005e 0B71     		strb	r3, [r1, #4]
 155:e:/LiteOS/LiteOS/targets/Cloud_FM33A0XX/GCC/../../../targets/Cloud_FM33A0XX/UserCode\user_init.c **** 		 
 156:e:/LiteOS/LiteOS/targets/Cloud_FM33A0XX/GCC/../../../targets/Cloud_FM33A0XX/UserCode\user_init.c **** 		GPIO_Init(GPIOx, &GPIO_InitStructure);		
 569              		.loc 1 156 0
 570 0060 2800     		movs	r0, r5
 571 0062 FFF7FEFF 		bl	GPIO_Init
 572              	.LVL39:
 573              	.L40:
 157:e:/LiteOS/LiteOS/targets/Cloud_FM33A0XX/GCC/../../../targets/Cloud_FM33A0XX/UserCode\user_init.c **** 	}
 158:e:/LiteOS/LiteOS/targets/Cloud_FM33A0XX/GCC/../../../targets/Cloud_FM33A0XX/UserCode\user_init.c **** }
 574              		.loc 1 158 0
 575 0066 04B0     		add	sp, sp, #16
 576              		@ sp needed
 577              	.LVL40:
 578              	.LVL41:
 579 0068 70BD     		pop	{r4, r5, r6, pc}
 580              	.L48:
 581 006a C046     		.align	2
 582              	.L47:
 583 006c FF00FF00 		.word	16711935
ARM GAS  C:\Users\WANGBI~1\AppData\Local\Temp\ccbZtvog.s 			page 31


 584              		.cfi_endproc
 585              	.LFE51:
 587              		.section	.text.AltFunIO,"ax",%progbits
 588              		.align	2
 589              		.global	AltFunIO
 590              		.code	16
 591              		.thumb_func
 593              	AltFunIO:
 594              	.LFB52:
 159:e:/LiteOS/LiteOS/targets/Cloud_FM33A0XX/GCC/../../../targets/Cloud_FM33A0XX/UserCode\user_init.c **** //IO数字特殊功能口 
 160:e:/LiteOS/LiteOS/targets/Cloud_FM33A0XX/GCC/../../../targets/Cloud_FM33A0XX/UserCode\user_init.c **** //type 0 = 普通 
 161:e:/LiteOS/LiteOS/targets/Cloud_FM33A0XX/GCC/../../../targets/Cloud_FM33A0XX/UserCode\user_init.c **** //type 1 = OD (OD功能仅部分特殊功能支持)
 162:e:/LiteOS/LiteOS/targets/Cloud_FM33A0XX/GCC/../../../targets/Cloud_FM33A0XX/UserCode\user_init.c **** //type 2 = 普通+上拉 
 163:e:/LiteOS/LiteOS/targets/Cloud_FM33A0XX/GCC/../../../targets/Cloud_FM33A0XX/UserCode\user_init.c **** //type 3 = OD+上拉
 164:e:/LiteOS/LiteOS/targets/Cloud_FM33A0XX/GCC/../../../targets/Cloud_FM33A0XX/UserCode\user_init.c **** //#define ALTFUN_NORMAL				0
 165:e:/LiteOS/LiteOS/targets/Cloud_FM33A0XX/GCC/../../../targets/Cloud_FM33A0XX/UserCode\user_init.c **** //#define ALTFUN_OPENDRAIN			1
 166:e:/LiteOS/LiteOS/targets/Cloud_FM33A0XX/GCC/../../../targets/Cloud_FM33A0XX/UserCode\user_init.c **** //#define ALTFUN_PULLUP				2
 167:e:/LiteOS/LiteOS/targets/Cloud_FM33A0XX/GCC/../../../targets/Cloud_FM33A0XX/UserCode\user_init.c **** //#define ALTFUN_OPENDRAIN_PULLUP	3
 168:e:/LiteOS/LiteOS/targets/Cloud_FM33A0XX/GCC/../../../targets/Cloud_FM33A0XX/UserCode\user_init.c **** void AltFunIO( GPIOx_Type* GPIOx, uint32_t PinNum, uint8_t Type  )
 169:e:/LiteOS/LiteOS/targets/Cloud_FM33A0XX/GCC/../../../targets/Cloud_FM33A0XX/UserCode\user_init.c **** {																
 595              		.loc 1 169 0
 596              		.cfi_startproc
 597              		@ args = 0, pretend = 0, frame = 16
 598              		@ frame_needed = 0, uses_anonymous_args = 0
 599              	.LVL42:
 600 0000 70B5     		push	{r4, r5, r6, lr}
 601              	.LCFI8:
 602              		.cfi_def_cfa_offset 16
 603              		.cfi_offset 4, -16
 604              		.cfi_offset 5, -12
 605              		.cfi_offset 6, -8
 606              		.cfi_offset 14, -4
 607 0002 84B0     		sub	sp, sp, #16
 608              	.LCFI9:
 609              		.cfi_def_cfa_offset 32
 610 0004 0600     		movs	r6, r0
 611 0006 0C00     		movs	r4, r1
 612 0008 1500     		movs	r5, r2
 170:e:/LiteOS/LiteOS/targets/Cloud_FM33A0XX/GCC/../../../targets/Cloud_FM33A0XX/UserCode\user_init.c **** 	GPIO_InitTypeDef  GPIO_InitStructure;
 171:e:/LiteOS/LiteOS/targets/Cloud_FM33A0XX/GCC/../../../targets/Cloud_FM33A0XX/UserCode\user_init.c **** 	GPIO_InitTypeDef  GPIO_InitStructureRun;
 172:e:/LiteOS/LiteOS/targets/Cloud_FM33A0XX/GCC/../../../targets/Cloud_FM33A0XX/UserCode\user_init.c **** 	
 173:e:/LiteOS/LiteOS/targets/Cloud_FM33A0XX/GCC/../../../targets/Cloud_FM33A0XX/UserCode\user_init.c **** 	GPIO_Get_InitPara(GPIOx, PinNum, &GPIO_InitStructureRun);
 613              		.loc 1 173 0
 614 000a 6A46     		mov	r2, sp
 615              	.LVL43:
 616 000c FFF7FEFF 		bl	GPIO_Get_InitPara
 617              	.LVL44:
 174:e:/LiteOS/LiteOS/targets/Cloud_FM33A0XX/GCC/../../../targets/Cloud_FM33A0XX/UserCode\user_init.c **** 	
 175:e:/LiteOS/LiteOS/targets/Cloud_FM33A0XX/GCC/../../../targets/Cloud_FM33A0XX/UserCode\user_init.c **** 	if( (GPIO_InitStructureRun.Pin		!= PinNum) ||
 618              		.loc 1 175 0
 619 0010 009B     		ldr	r3, [sp]
 620 0012 9C42     		cmp	r4, r3
 621 0014 21D1     		bne	.L50
 176:e:/LiteOS/LiteOS/targets/Cloud_FM33A0XX/GCC/../../../targets/Cloud_FM33A0XX/UserCode\user_init.c **** 		(GPIO_InitStructureRun.PxINEN	!= GPIO_IN_Dis) ||
 622              		.loc 1 176 0 discriminator 1
 623 0016 6B46     		mov	r3, sp
 624 0018 DB79     		ldrb	r3, [r3, #7]
ARM GAS  C:\Users\WANGBI~1\AppData\Local\Temp\ccbZtvog.s 			page 32


 175:e:/LiteOS/LiteOS/targets/Cloud_FM33A0XX/GCC/../../../targets/Cloud_FM33A0XX/UserCode\user_init.c **** 		(GPIO_InitStructureRun.PxINEN	!= GPIO_IN_Dis) ||
 625              		.loc 1 175 0 discriminator 1
 626 001a 002B     		cmp	r3, #0
 627 001c 1DD1     		bne	.L50
 628 001e 0133     		adds	r3, r3, #1
 629 0020 2B40     		ands	r3, r5
 630              		.loc 1 176 0
 631 0022 03D1     		bne	.L51
 177:e:/LiteOS/LiteOS/targets/Cloud_FM33A0XX/GCC/../../../targets/Cloud_FM33A0XX/UserCode\user_init.c **** 		(((Type & 0x01) == 0)&&(GPIO_InitStructureRun.PxODEN	!= GPIO_OD_Dis)) ||
 632              		.loc 1 177 0
 633 0024 6A46     		mov	r2, sp
 634 0026 5279     		ldrb	r2, [r2, #5]
 635 0028 002A     		cmp	r2, #0
 636 002a 16D1     		bne	.L50
 637              	.L51:
 638              		.loc 1 177 0 is_stmt 0 discriminator 1
 639 002c 002B     		cmp	r3, #0
 640 002e 03D0     		beq	.L52
 178:e:/LiteOS/LiteOS/targets/Cloud_FM33A0XX/GCC/../../../targets/Cloud_FM33A0XX/UserCode\user_init.c **** 		(((Type & 0x01) != 0)&&(GPIO_InitStructureRun.PxODEN	!= GPIO_OD_En)) ||
 641              		.loc 1 178 0 is_stmt 1
 642 0030 6B46     		mov	r3, sp
 643 0032 5B79     		ldrb	r3, [r3, #5]
 644 0034 012B     		cmp	r3, #1
 645 0036 10D1     		bne	.L50
 646              	.L52:
 647 0038 0223     		movs	r3, #2
 648 003a 2B40     		ands	r3, r5
 649              		.loc 1 178 0 is_stmt 0 discriminator 1
 650 003c 03D1     		bne	.L53
 179:e:/LiteOS/LiteOS/targets/Cloud_FM33A0XX/GCC/../../../targets/Cloud_FM33A0XX/UserCode\user_init.c **** 		(((Type & 0x02) == 0)&&(GPIO_InitStructureRun.PxPUEN	!= GPIO_PU_Dis)) ||
 651              		.loc 1 179 0 is_stmt 1
 652 003e 6A46     		mov	r2, sp
 653 0040 9279     		ldrb	r2, [r2, #6]
 654 0042 002A     		cmp	r2, #0
 655 0044 09D1     		bne	.L50
 656              	.L53:
 657              		.loc 1 179 0 is_stmt 0 discriminator 1
 658 0046 002B     		cmp	r3, #0
 659 0048 03D0     		beq	.L54
 180:e:/LiteOS/LiteOS/targets/Cloud_FM33A0XX/GCC/../../../targets/Cloud_FM33A0XX/UserCode\user_init.c **** 		(((Type & 0x02) != 0)&&(GPIO_InitStructureRun.PxPUEN	!= GPIO_PU_En)) ||
 660              		.loc 1 180 0 is_stmt 1
 661 004a 6B46     		mov	r3, sp
 662 004c 9B79     		ldrb	r3, [r3, #6]
 663 004e 012B     		cmp	r3, #1
 664 0050 03D1     		bne	.L50
 665              	.L54:
 181:e:/LiteOS/LiteOS/targets/Cloud_FM33A0XX/GCC/../../../targets/Cloud_FM33A0XX/UserCode\user_init.c **** 		(GPIO_InitStructureRun.PxFCR	!= GPIO_FCR_DIG) )
 666              		.loc 1 181 0 discriminator 1
 667 0052 6B46     		mov	r3, sp
 668 0054 1B79     		ldrb	r3, [r3, #4]
 180:e:/LiteOS/LiteOS/targets/Cloud_FM33A0XX/GCC/../../../targets/Cloud_FM33A0XX/UserCode\user_init.c **** 		(((Type & 0x02) != 0)&&(GPIO_InitStructureRun.PxPUEN	!= GPIO_PU_En)) ||
 669              		.loc 1 180 0 discriminator 1
 670 0056 022B     		cmp	r3, #2
 671 0058 1AD0     		beq	.L49
 672              	.L50:
 182:e:/LiteOS/LiteOS/targets/Cloud_FM33A0XX/GCC/../../../targets/Cloud_FM33A0XX/UserCode\user_init.c **** 	{
 183:e:/LiteOS/LiteOS/targets/Cloud_FM33A0XX/GCC/../../../targets/Cloud_FM33A0XX/UserCode\user_init.c **** 		GPIO_InitStructure.Pin = PinNum;
ARM GAS  C:\Users\WANGBI~1\AppData\Local\Temp\ccbZtvog.s 			page 33


 673              		.loc 1 183 0
 674 005a 0294     		str	r4, [sp, #8]
 184:e:/LiteOS/LiteOS/targets/Cloud_FM33A0XX/GCC/../../../targets/Cloud_FM33A0XX/UserCode\user_init.c **** 		GPIO_InitStructure.PxINEN = GPIO_IN_Dis;
 675              		.loc 1 184 0
 676 005c 0022     		movs	r2, #0
 677 005e 02AB     		add	r3, sp, #8
 678 0060 DA71     		strb	r2, [r3, #7]
 185:e:/LiteOS/LiteOS/targets/Cloud_FM33A0XX/GCC/../../../targets/Cloud_FM33A0XX/UserCode\user_init.c **** 		if( (Type & 0x01) == 0 )	GPIO_InitStructure.PxODEN = GPIO_OD_Dis;
 679              		.loc 1 185 0
 680 0062 EB07     		lsls	r3, r5, #31
 681 0064 02D4     		bmi	.L56
 682              		.loc 1 185 0 is_stmt 0 discriminator 1
 683 0066 02AB     		add	r3, sp, #8
 684 0068 5A71     		strb	r2, [r3, #5]
 685 006a 02E0     		b	.L57
 686              	.L56:
 186:e:/LiteOS/LiteOS/targets/Cloud_FM33A0XX/GCC/../../../targets/Cloud_FM33A0XX/UserCode\user_init.c **** 		else						GPIO_InitStructure.PxODEN = GPIO_OD_En;
 687              		.loc 1 186 0 is_stmt 1
 688 006c 0122     		movs	r2, #1
 689 006e 02AB     		add	r3, sp, #8
 690 0070 5A71     		strb	r2, [r3, #5]
 691              	.L57:
 187:e:/LiteOS/LiteOS/targets/Cloud_FM33A0XX/GCC/../../../targets/Cloud_FM33A0XX/UserCode\user_init.c **** 		if( (Type & 0x02) == 0 )	GPIO_InitStructure.PxPUEN = GPIO_PU_Dis;
 692              		.loc 1 187 0
 693 0072 AB07     		lsls	r3, r5, #30
 694 0074 03D4     		bmi	.L58
 695              		.loc 1 187 0 is_stmt 0 discriminator 1
 696 0076 0022     		movs	r2, #0
 697 0078 02AB     		add	r3, sp, #8
 698 007a 9A71     		strb	r2, [r3, #6]
 699 007c 02E0     		b	.L59
 700              	.L58:
 188:e:/LiteOS/LiteOS/targets/Cloud_FM33A0XX/GCC/../../../targets/Cloud_FM33A0XX/UserCode\user_init.c **** 		else						GPIO_InitStructure.PxPUEN = GPIO_PU_En;	
 701              		.loc 1 188 0 is_stmt 1
 702 007e 0122     		movs	r2, #1
 703 0080 02AB     		add	r3, sp, #8
 704 0082 9A71     		strb	r2, [r3, #6]
 705              	.L59:
 189:e:/LiteOS/LiteOS/targets/Cloud_FM33A0XX/GCC/../../../targets/Cloud_FM33A0XX/UserCode\user_init.c **** 		GPIO_InitStructure.PxFCR = GPIO_FCR_DIG;
 706              		.loc 1 189 0
 707 0084 02A9     		add	r1, sp, #8
 708 0086 0223     		movs	r3, #2
 709 0088 0B71     		strb	r3, [r1, #4]
 190:e:/LiteOS/LiteOS/targets/Cloud_FM33A0XX/GCC/../../../targets/Cloud_FM33A0XX/UserCode\user_init.c **** 		 
 191:e:/LiteOS/LiteOS/targets/Cloud_FM33A0XX/GCC/../../../targets/Cloud_FM33A0XX/UserCode\user_init.c **** 		GPIO_Init(GPIOx, &GPIO_InitStructure);		
 710              		.loc 1 191 0
 711 008a 3000     		movs	r0, r6
 712 008c FFF7FEFF 		bl	GPIO_Init
 713              	.LVL45:
 714              	.L49:
 192:e:/LiteOS/LiteOS/targets/Cloud_FM33A0XX/GCC/../../../targets/Cloud_FM33A0XX/UserCode\user_init.c **** 	}
 193:e:/LiteOS/LiteOS/targets/Cloud_FM33A0XX/GCC/../../../targets/Cloud_FM33A0XX/UserCode\user_init.c **** }
 715              		.loc 1 193 0
 716 0090 04B0     		add	sp, sp, #16
 717              		@ sp needed
 718              	.LVL46:
 719              	.LVL47:
ARM GAS  C:\Users\WANGBI~1\AppData\Local\Temp\ccbZtvog.s 			page 34


 720 0092 70BD     		pop	{r4, r5, r6, pc}
 721              		.cfi_endproc
 722              	.LFE52:
 724              		.section	.text.CloseeIO,"ax",%progbits
 725              		.align	2
 726              		.global	CloseeIO
 727              		.code	16
 728              		.thumb_func
 730              	CloseeIO:
 731              	.LFB53:
 194:e:/LiteOS/LiteOS/targets/Cloud_FM33A0XX/GCC/../../../targets/Cloud_FM33A0XX/UserCode\user_init.c **** 
 195:e:/LiteOS/LiteOS/targets/Cloud_FM33A0XX/GCC/../../../targets/Cloud_FM33A0XX/UserCode\user_init.c **** //IO关闭（od输出高）
 196:e:/LiteOS/LiteOS/targets/Cloud_FM33A0XX/GCC/../../../targets/Cloud_FM33A0XX/UserCode\user_init.c **** //当输入使能有效时，如果外部信号浮空，也可能导致FM385管脚漏电；
 197:e:/LiteOS/LiteOS/targets/Cloud_FM33A0XX/GCC/../../../targets/Cloud_FM33A0XX/UserCode\user_init.c **** //可以将FCR配置为01（GPIO输出），ODEN配置为1，即伪开漏输出，关闭上拉使能，并将输出数据设为1
 198:e:/LiteOS/LiteOS/targets/Cloud_FM33A0XX/GCC/../../../targets/Cloud_FM33A0XX/UserCode\user_init.c **** //注意SWD接口的PG8,9如果程序改变它们的配置将无法仿真
 199:e:/LiteOS/LiteOS/targets/Cloud_FM33A0XX/GCC/../../../targets/Cloud_FM33A0XX/UserCode\user_init.c **** void CloseeIO( GPIOx_Type* GPIOx, uint32_t PinNum )
 200:e:/LiteOS/LiteOS/targets/Cloud_FM33A0XX/GCC/../../../targets/Cloud_FM33A0XX/UserCode\user_init.c **** {
 732              		.loc 1 200 0
 733              		.cfi_startproc
 734              		@ args = 0, pretend = 0, frame = 8
 735              		@ frame_needed = 0, uses_anonymous_args = 0
 736              	.LVL48:
 737 0000 30B5     		push	{r4, r5, lr}
 738              	.LCFI10:
 739              		.cfi_def_cfa_offset 12
 740              		.cfi_offset 4, -12
 741              		.cfi_offset 5, -8
 742              		.cfi_offset 14, -4
 743 0002 83B0     		sub	sp, sp, #12
 744              	.LCFI11:
 745              		.cfi_def_cfa_offset 24
 746 0004 0400     		movs	r4, r0
 747 0006 0D00     		movs	r5, r1
 201:e:/LiteOS/LiteOS/targets/Cloud_FM33A0XX/GCC/../../../targets/Cloud_FM33A0XX/UserCode\user_init.c **** 	GPIO_InitTypeDef  GPIO_InitStructureRun;
 202:e:/LiteOS/LiteOS/targets/Cloud_FM33A0XX/GCC/../../../targets/Cloud_FM33A0XX/UserCode\user_init.c **** 	
 203:e:/LiteOS/LiteOS/targets/Cloud_FM33A0XX/GCC/../../../targets/Cloud_FM33A0XX/UserCode\user_init.c **** 	GPIO_Get_InitPara(GPIOx, PinNum, &GPIO_InitStructureRun);
 748              		.loc 1 203 0
 749 0008 6A46     		mov	r2, sp
 750 000a FFF7FEFF 		bl	GPIO_Get_InitPara
 751              	.LVL49:
 204:e:/LiteOS/LiteOS/targets/Cloud_FM33A0XX/GCC/../../../targets/Cloud_FM33A0XX/UserCode\user_init.c **** 		
 205:e:/LiteOS/LiteOS/targets/Cloud_FM33A0XX/GCC/../../../targets/Cloud_FM33A0XX/UserCode\user_init.c **** 	if((GPIO_InitStructureRun.PxFCR	!= GPIO_FCR_OUT))
 752              		.loc 1 205 0
 753 000e 6B46     		mov	r3, sp
 754 0010 1B79     		ldrb	r3, [r3, #4]
 755 0012 012B     		cmp	r3, #1
 756 0014 09D0     		beq	.L61
 206:e:/LiteOS/LiteOS/targets/Cloud_FM33A0XX/GCC/../../../targets/Cloud_FM33A0XX/UserCode\user_init.c **** 	{
 207:e:/LiteOS/LiteOS/targets/Cloud_FM33A0XX/GCC/../../../targets/Cloud_FM33A0XX/UserCode\user_init.c **** 		GPIO_SetBits(GPIOx, PinNum);
 757              		.loc 1 207 0
 758 0016 2900     		movs	r1, r5
 759 0018 2000     		movs	r0, r4
 760 001a FFF7FEFF 		bl	GPIO_SetBits
 761              	.LVL50:
 208:e:/LiteOS/LiteOS/targets/Cloud_FM33A0XX/GCC/../../../targets/Cloud_FM33A0XX/UserCode\user_init.c **** 		OutputIO( GPIOx, PinNum, OUT_OPENDRAIN );
 762              		.loc 1 208 0
 763 001e 0122     		movs	r2, #1
ARM GAS  C:\Users\WANGBI~1\AppData\Local\Temp\ccbZtvog.s 			page 35


 764 0020 2900     		movs	r1, r5
 765 0022 2000     		movs	r0, r4
 766 0024 FFF7FEFF 		bl	OutputIO
 767              	.LVL51:
 768 0028 08E0     		b	.L60
 769              	.L61:
 209:e:/LiteOS/LiteOS/targets/Cloud_FM33A0XX/GCC/../../../targets/Cloud_FM33A0XX/UserCode\user_init.c **** 	}
 210:e:/LiteOS/LiteOS/targets/Cloud_FM33A0XX/GCC/../../../targets/Cloud_FM33A0XX/UserCode\user_init.c **** 	else
 211:e:/LiteOS/LiteOS/targets/Cloud_FM33A0XX/GCC/../../../targets/Cloud_FM33A0XX/UserCode\user_init.c **** 	{
 212:e:/LiteOS/LiteOS/targets/Cloud_FM33A0XX/GCC/../../../targets/Cloud_FM33A0XX/UserCode\user_init.c **** 		OutputIO( GPIOx, PinNum, OUT_OPENDRAIN );
 770              		.loc 1 212 0
 771 002a 0122     		movs	r2, #1
 772 002c 2900     		movs	r1, r5
 773 002e 2000     		movs	r0, r4
 774 0030 FFF7FEFF 		bl	OutputIO
 775              	.LVL52:
 213:e:/LiteOS/LiteOS/targets/Cloud_FM33A0XX/GCC/../../../targets/Cloud_FM33A0XX/UserCode\user_init.c **** 		GPIO_SetBits(GPIOx, PinNum);		
 776              		.loc 1 213 0
 777 0034 2900     		movs	r1, r5
 778 0036 2000     		movs	r0, r4
 779 0038 FFF7FEFF 		bl	GPIO_SetBits
 780              	.LVL53:
 781              	.L60:
 214:e:/LiteOS/LiteOS/targets/Cloud_FM33A0XX/GCC/../../../targets/Cloud_FM33A0XX/UserCode\user_init.c **** 	}
 215:e:/LiteOS/LiteOS/targets/Cloud_FM33A0XX/GCC/../../../targets/Cloud_FM33A0XX/UserCode\user_init.c **** }
 782              		.loc 1 215 0
 783 003c 03B0     		add	sp, sp, #12
 784              		@ sp needed
 785              	.LVL54:
 786              	.LVL55:
 787 003e 30BD     		pop	{r4, r5, pc}
 788              		.cfi_endproc
 789              	.LFE53:
 791              		.section	.text.Init_Pad_Io,"ax",%progbits
 792              		.align	2
 793              		.global	Init_Pad_Io
 794              		.code	16
 795              		.thumb_func
 797              	Init_Pad_Io:
 798              	.LFB54:
 216:e:/LiteOS/LiteOS/targets/Cloud_FM33A0XX/GCC/../../../targets/Cloud_FM33A0XX/UserCode\user_init.c **** 
 217:e:/LiteOS/LiteOS/targets/Cloud_FM33A0XX/GCC/../../../targets/Cloud_FM33A0XX/UserCode\user_init.c **** //IO口初始输出状态配置
 218:e:/LiteOS/LiteOS/targets/Cloud_FM33A0XX/GCC/../../../targets/Cloud_FM33A0XX/UserCode\user_init.c **** void Init_Pad_Io(void)
 219:e:/LiteOS/LiteOS/targets/Cloud_FM33A0XX/GCC/../../../targets/Cloud_FM33A0XX/UserCode\user_init.c **** {	
 799              		.loc 1 219 0
 800              		.cfi_startproc
 801              		@ args = 0, pretend = 0, frame = 0
 802              		@ frame_needed = 0, uses_anonymous_args = 0
 803 0000 10B5     		push	{r4, lr}
 804              	.LCFI12:
 805              		.cfi_def_cfa_offset 8
 806              		.cfi_offset 4, -8
 807              		.cfi_offset 14, -4
 220:e:/LiteOS/LiteOS/targets/Cloud_FM33A0XX/GCC/../../../targets/Cloud_FM33A0XX/UserCode\user_init.c **** 	GPIOx_DO_Write(GPIOA, 0x0000);	//
 808              		.loc 1 220 0
 809 0002 0021     		movs	r1, #0
 810 0004 0D48     		ldr	r0, .L64
ARM GAS  C:\Users\WANGBI~1\AppData\Local\Temp\ccbZtvog.s 			page 36


 811 0006 FFF7FEFF 		bl	GPIOx_DO_Write
 812              	.LVL56:
 221:e:/LiteOS/LiteOS/targets/Cloud_FM33A0XX/GCC/../../../targets/Cloud_FM33A0XX/UserCode\user_init.c **** 	GPIOx_DO_Write(GPIOB, 0x0000);	//
 813              		.loc 1 221 0
 814 000a 0021     		movs	r1, #0
 815 000c 0C48     		ldr	r0, .L64+4
 816 000e FFF7FEFF 		bl	GPIOx_DO_Write
 817              	.LVL57:
 222:e:/LiteOS/LiteOS/targets/Cloud_FM33A0XX/GCC/../../../targets/Cloud_FM33A0XX/UserCode\user_init.c **** 	GPIOx_DO_Write(GPIOC, 0x0000);	//
 818              		.loc 1 222 0
 819 0012 0021     		movs	r1, #0
 820 0014 0B48     		ldr	r0, .L64+8
 821 0016 FFF7FEFF 		bl	GPIOx_DO_Write
 822              	.LVL58:
 223:e:/LiteOS/LiteOS/targets/Cloud_FM33A0XX/GCC/../../../targets/Cloud_FM33A0XX/UserCode\user_init.c **** 	GPIOx_DO_Write(GPIOD, 0x0000);	//
 823              		.loc 1 223 0
 824 001a 0021     		movs	r1, #0
 825 001c 0A48     		ldr	r0, .L64+12
 826 001e FFF7FEFF 		bl	GPIOx_DO_Write
 827              	.LVL59:
 224:e:/LiteOS/LiteOS/targets/Cloud_FM33A0XX/GCC/../../../targets/Cloud_FM33A0XX/UserCode\user_init.c **** 	GPIOx_DO_Write(GPIOE, 0x0000);	//
 828              		.loc 1 224 0
 829 0022 0021     		movs	r1, #0
 830 0024 0948     		ldr	r0, .L64+16
 831 0026 FFF7FEFF 		bl	GPIOx_DO_Write
 832              	.LVL60:
 225:e:/LiteOS/LiteOS/targets/Cloud_FM33A0XX/GCC/../../../targets/Cloud_FM33A0XX/UserCode\user_init.c **** 	GPIOx_DO_Write(GPIOF, 0x0000);	//
 833              		.loc 1 225 0
 834 002a 0021     		movs	r1, #0
 835 002c 0848     		ldr	r0, .L64+20
 836 002e FFF7FEFF 		bl	GPIOx_DO_Write
 837              	.LVL61:
 226:e:/LiteOS/LiteOS/targets/Cloud_FM33A0XX/GCC/../../../targets/Cloud_FM33A0XX/UserCode\user_init.c **** 	GPIOx_DO_Write(GPIOG, 0x0000);	//
 838              		.loc 1 226 0
 839 0032 0021     		movs	r1, #0
 840 0034 0748     		ldr	r0, .L64+24
 841 0036 FFF7FEFF 		bl	GPIOx_DO_Write
 842              	.LVL62:
 227:e:/LiteOS/LiteOS/targets/Cloud_FM33A0XX/GCC/../../../targets/Cloud_FM33A0XX/UserCode\user_init.c **** }
 843              		.loc 1 227 0
 844              		@ sp needed
 845 003a 10BD     		pop	{r4, pc}
 846              	.L65:
 847              		.align	2
 848              	.L64:
 849 003c 000C0040 		.word	1073744896
 850 0040 200C0040 		.word	1073744928
 851 0044 400C0040 		.word	1073744960
 852 0048 600C0040 		.word	1073744992
 853 004c 800C0040 		.word	1073745024
 854 0050 A00C0040 		.word	1073745056
 855 0054 C00C0040 		.word	1073745088
 856              		.cfi_endproc
 857              	.LFE54:
 859              		.section	.text.Close_None_GPIO_80pin,"ax",%progbits
 860              		.align	2
 861              		.global	Close_None_GPIO_80pin
ARM GAS  C:\Users\WANGBI~1\AppData\Local\Temp\ccbZtvog.s 			page 37


 862              		.code	16
 863              		.thumb_func
 865              	Close_None_GPIO_80pin:
 866              	.LFB55:
 228:e:/LiteOS/LiteOS/targets/Cloud_FM33A0XX/GCC/../../../targets/Cloud_FM33A0XX/UserCode\user_init.c **** 
 229:e:/LiteOS/LiteOS/targets/Cloud_FM33A0XX/GCC/../../../targets/Cloud_FM33A0XX/UserCode\user_init.c **** //关闭80脚芯片不可使用的IO
 230:e:/LiteOS/LiteOS/targets/Cloud_FM33A0XX/GCC/../../../targets/Cloud_FM33A0XX/UserCode\user_init.c **** void Close_None_GPIO_80pin(void)
 231:e:/LiteOS/LiteOS/targets/Cloud_FM33A0XX/GCC/../../../targets/Cloud_FM33A0XX/UserCode\user_init.c **** {
 867              		.loc 1 231 0
 868              		.cfi_startproc
 869              		@ args = 0, pretend = 0, frame = 0
 870              		@ frame_needed = 0, uses_anonymous_args = 0
 871 0000 F8B5     		push	{r3, r4, r5, r6, r7, lr}
 872              	.LCFI13:
 873              		.cfi_def_cfa_offset 24
 874              		.cfi_offset 3, -24
 875              		.cfi_offset 4, -20
 876              		.cfi_offset 5, -16
 877              		.cfi_offset 6, -12
 878              		.cfi_offset 7, -8
 879              		.cfi_offset 14, -4
 232:e:/LiteOS/LiteOS/targets/Cloud_FM33A0XX/GCC/../../../targets/Cloud_FM33A0XX/UserCode\user_init.c **** 	CloseeIO( GPIOC, GPIO_Pin_0 );
 880              		.loc 1 232 0
 881 0002 5D4C     		ldr	r4, .L67
 882 0004 0121     		movs	r1, #1
 883 0006 2000     		movs	r0, r4
 884 0008 FFF7FEFF 		bl	CloseeIO
 885              	.LVL63:
 233:e:/LiteOS/LiteOS/targets/Cloud_FM33A0XX/GCC/../../../targets/Cloud_FM33A0XX/UserCode\user_init.c **** 	CloseeIO( GPIOC, GPIO_Pin_1 );
 886              		.loc 1 233 0
 887 000c 0221     		movs	r1, #2
 888 000e 2000     		movs	r0, r4
 889 0010 FFF7FEFF 		bl	CloseeIO
 890              	.LVL64:
 234:e:/LiteOS/LiteOS/targets/Cloud_FM33A0XX/GCC/../../../targets/Cloud_FM33A0XX/UserCode\user_init.c **** 
 235:e:/LiteOS/LiteOS/targets/Cloud_FM33A0XX/GCC/../../../targets/Cloud_FM33A0XX/UserCode\user_init.c **** 	CloseeIO( GPIOD, GPIO_Pin_8);
 891              		.loc 1 235 0
 892 0014 8027     		movs	r7, #128
 893 0016 7F00     		lsls	r7, r7, #1
 894 0018 584C     		ldr	r4, .L67+4
 895 001a 3900     		movs	r1, r7
 896 001c 2000     		movs	r0, r4
 897 001e FFF7FEFF 		bl	CloseeIO
 898              	.LVL65:
 236:e:/LiteOS/LiteOS/targets/Cloud_FM33A0XX/GCC/../../../targets/Cloud_FM33A0XX/UserCode\user_init.c **** 	CloseeIO( GPIOD, GPIO_Pin_9 );
 899              		.loc 1 236 0
 900 0022 8026     		movs	r6, #128
 901 0024 B600     		lsls	r6, r6, #2
 902 0026 3100     		movs	r1, r6
 903 0028 2000     		movs	r0, r4
 904 002a FFF7FEFF 		bl	CloseeIO
 905              	.LVL66:
 237:e:/LiteOS/LiteOS/targets/Cloud_FM33A0XX/GCC/../../../targets/Cloud_FM33A0XX/UserCode\user_init.c **** 	CloseeIO( GPIOD, GPIO_Pin_10 );	
 906              		.loc 1 237 0
 907 002e 8025     		movs	r5, #128
 908 0030 ED00     		lsls	r5, r5, #3
 909 0032 2900     		movs	r1, r5
ARM GAS  C:\Users\WANGBI~1\AppData\Local\Temp\ccbZtvog.s 			page 38


 910 0034 2000     		movs	r0, r4
 911 0036 FFF7FEFF 		bl	CloseeIO
 912              	.LVL67:
 238:e:/LiteOS/LiteOS/targets/Cloud_FM33A0XX/GCC/../../../targets/Cloud_FM33A0XX/UserCode\user_init.c **** 	CloseeIO( GPIOD, GPIO_Pin_11 );	
 913              		.loc 1 238 0
 914 003a 8021     		movs	r1, #128
 915 003c 0901     		lsls	r1, r1, #4
 916 003e 2000     		movs	r0, r4
 917 0040 FFF7FEFF 		bl	CloseeIO
 918              	.LVL68:
 239:e:/LiteOS/LiteOS/targets/Cloud_FM33A0XX/GCC/../../../targets/Cloud_FM33A0XX/UserCode\user_init.c **** 	CloseeIO( GPIOD, GPIO_Pin_12 );	
 919              		.loc 1 239 0
 920 0044 8021     		movs	r1, #128
 921 0046 4901     		lsls	r1, r1, #5
 922 0048 2000     		movs	r0, r4
 923 004a FFF7FEFF 		bl	CloseeIO
 924              	.LVL69:
 240:e:/LiteOS/LiteOS/targets/Cloud_FM33A0XX/GCC/../../../targets/Cloud_FM33A0XX/UserCode\user_init.c **** 	CloseeIO( GPIOD, GPIO_Pin_13 );	
 925              		.loc 1 240 0
 926 004e 8021     		movs	r1, #128
 927 0050 8901     		lsls	r1, r1, #6
 928 0052 2000     		movs	r0, r4
 929 0054 FFF7FEFF 		bl	CloseeIO
 930              	.LVL70:
 241:e:/LiteOS/LiteOS/targets/Cloud_FM33A0XX/GCC/../../../targets/Cloud_FM33A0XX/UserCode\user_init.c **** 	CloseeIO( GPIOD, GPIO_Pin_14 );	
 931              		.loc 1 241 0
 932 0058 8021     		movs	r1, #128
 933 005a C901     		lsls	r1, r1, #7
 934 005c 2000     		movs	r0, r4
 935 005e FFF7FEFF 		bl	CloseeIO
 936              	.LVL71:
 242:e:/LiteOS/LiteOS/targets/Cloud_FM33A0XX/GCC/../../../targets/Cloud_FM33A0XX/UserCode\user_init.c **** 	CloseeIO( GPIOD, GPIO_Pin_15 );	
 937              		.loc 1 242 0
 938 0062 8021     		movs	r1, #128
 939 0064 0902     		lsls	r1, r1, #8
 940 0066 2000     		movs	r0, r4
 941 0068 FFF7FEFF 		bl	CloseeIO
 942              	.LVL72:
 243:e:/LiteOS/LiteOS/targets/Cloud_FM33A0XX/GCC/../../../targets/Cloud_FM33A0XX/UserCode\user_init.c **** 
 244:e:/LiteOS/LiteOS/targets/Cloud_FM33A0XX/GCC/../../../targets/Cloud_FM33A0XX/UserCode\user_init.c **** 	CloseeIO( GPIOE, GPIO_Pin_0 );
 943              		.loc 1 244 0
 944 006c 444C     		ldr	r4, .L67+8
 945 006e 0121     		movs	r1, #1
 946 0070 2000     		movs	r0, r4
 947 0072 FFF7FEFF 		bl	CloseeIO
 948              	.LVL73:
 245:e:/LiteOS/LiteOS/targets/Cloud_FM33A0XX/GCC/../../../targets/Cloud_FM33A0XX/UserCode\user_init.c **** 	CloseeIO( GPIOE, GPIO_Pin_1 );
 949              		.loc 1 245 0
 950 0076 0221     		movs	r1, #2
 951 0078 2000     		movs	r0, r4
 952 007a FFF7FEFF 		bl	CloseeIO
 953              	.LVL74:
 246:e:/LiteOS/LiteOS/targets/Cloud_FM33A0XX/GCC/../../../targets/Cloud_FM33A0XX/UserCode\user_init.c **** 	CloseeIO( GPIOE, GPIO_Pin_5 );
 954              		.loc 1 246 0
 955 007e 2021     		movs	r1, #32
 956 0080 2000     		movs	r0, r4
 957 0082 FFF7FEFF 		bl	CloseeIO
ARM GAS  C:\Users\WANGBI~1\AppData\Local\Temp\ccbZtvog.s 			page 39


 958              	.LVL75:
 247:e:/LiteOS/LiteOS/targets/Cloud_FM33A0XX/GCC/../../../targets/Cloud_FM33A0XX/UserCode\user_init.c **** 	CloseeIO( GPIOE, GPIO_Pin_6 );
 959              		.loc 1 247 0
 960 0086 4021     		movs	r1, #64
 961 0088 2000     		movs	r0, r4
 962 008a FFF7FEFF 		bl	CloseeIO
 963              	.LVL76:
 248:e:/LiteOS/LiteOS/targets/Cloud_FM33A0XX/GCC/../../../targets/Cloud_FM33A0XX/UserCode\user_init.c **** 	CloseeIO( GPIOE, GPIO_Pin_7 );
 964              		.loc 1 248 0
 965 008e 8021     		movs	r1, #128
 966 0090 2000     		movs	r0, r4
 967 0092 FFF7FEFF 		bl	CloseeIO
 968              	.LVL77:
 249:e:/LiteOS/LiteOS/targets/Cloud_FM33A0XX/GCC/../../../targets/Cloud_FM33A0XX/UserCode\user_init.c **** 	CloseeIO( GPIOE, GPIO_Pin_8 );
 969              		.loc 1 249 0
 970 0096 3900     		movs	r1, r7
 971 0098 2000     		movs	r0, r4
 972 009a FFF7FEFF 		bl	CloseeIO
 973              	.LVL78:
 250:e:/LiteOS/LiteOS/targets/Cloud_FM33A0XX/GCC/../../../targets/Cloud_FM33A0XX/UserCode\user_init.c **** 	CloseeIO( GPIOE, GPIO_Pin_9 );
 974              		.loc 1 250 0
 975 009e 3100     		movs	r1, r6
 976 00a0 2000     		movs	r0, r4
 977 00a2 FFF7FEFF 		bl	CloseeIO
 978              	.LVL79:
 251:e:/LiteOS/LiteOS/targets/Cloud_FM33A0XX/GCC/../../../targets/Cloud_FM33A0XX/UserCode\user_init.c **** 	CloseeIO( GPIOE, GPIO_Pin_10 );
 979              		.loc 1 251 0
 980 00a6 2900     		movs	r1, r5
 981 00a8 2000     		movs	r0, r4
 982 00aa FFF7FEFF 		bl	CloseeIO
 983              	.LVL80:
 252:e:/LiteOS/LiteOS/targets/Cloud_FM33A0XX/GCC/../../../targets/Cloud_FM33A0XX/UserCode\user_init.c **** 	CloseeIO( GPIOE, GPIO_Pin_11 );
 984              		.loc 1 252 0
 985 00ae 8021     		movs	r1, #128
 986 00b0 0901     		lsls	r1, r1, #4
 987 00b2 2000     		movs	r0, r4
 988 00b4 FFF7FEFF 		bl	CloseeIO
 989              	.LVL81:
 253:e:/LiteOS/LiteOS/targets/Cloud_FM33A0XX/GCC/../../../targets/Cloud_FM33A0XX/UserCode\user_init.c **** 	CloseeIO( GPIOE, GPIO_Pin_12 );
 990              		.loc 1 253 0
 991 00b8 8021     		movs	r1, #128
 992 00ba 4901     		lsls	r1, r1, #5
 993 00bc 2000     		movs	r0, r4
 994 00be FFF7FEFF 		bl	CloseeIO
 995              	.LVL82:
 254:e:/LiteOS/LiteOS/targets/Cloud_FM33A0XX/GCC/../../../targets/Cloud_FM33A0XX/UserCode\user_init.c **** 	CloseeIO( GPIOE, GPIO_Pin_13 );
 996              		.loc 1 254 0
 997 00c2 8021     		movs	r1, #128
 998 00c4 8901     		lsls	r1, r1, #6
 999 00c6 2000     		movs	r0, r4
 1000 00c8 FFF7FEFF 		bl	CloseeIO
 1001              	.LVL83:
 255:e:/LiteOS/LiteOS/targets/Cloud_FM33A0XX/GCC/../../../targets/Cloud_FM33A0XX/UserCode\user_init.c **** 	CloseeIO( GPIOE, GPIO_Pin_14 );
 1002              		.loc 1 255 0
 1003 00cc 8021     		movs	r1, #128
 1004 00ce C901     		lsls	r1, r1, #7
 1005 00d0 2000     		movs	r0, r4
ARM GAS  C:\Users\WANGBI~1\AppData\Local\Temp\ccbZtvog.s 			page 40


 1006 00d2 FFF7FEFF 		bl	CloseeIO
 1007              	.LVL84:
 256:e:/LiteOS/LiteOS/targets/Cloud_FM33A0XX/GCC/../../../targets/Cloud_FM33A0XX/UserCode\user_init.c **** 	CloseeIO( GPIOE, GPIO_Pin_15 );
 1008              		.loc 1 256 0
 1009 00d6 8021     		movs	r1, #128
 1010 00d8 0902     		lsls	r1, r1, #8
 1011 00da 2000     		movs	r0, r4
 1012 00dc FFF7FEFF 		bl	CloseeIO
 1013              	.LVL85:
 257:e:/LiteOS/LiteOS/targets/Cloud_FM33A0XX/GCC/../../../targets/Cloud_FM33A0XX/UserCode\user_init.c **** 
 258:e:/LiteOS/LiteOS/targets/Cloud_FM33A0XX/GCC/../../../targets/Cloud_FM33A0XX/UserCode\user_init.c **** 	CloseeIO( GPIOF, GPIO_Pin_0 );
 1014              		.loc 1 258 0
 1015 00e0 284C     		ldr	r4, .L67+12
 1016 00e2 0121     		movs	r1, #1
 1017 00e4 2000     		movs	r0, r4
 1018 00e6 FFF7FEFF 		bl	CloseeIO
 1019              	.LVL86:
 259:e:/LiteOS/LiteOS/targets/Cloud_FM33A0XX/GCC/../../../targets/Cloud_FM33A0XX/UserCode\user_init.c **** 	CloseeIO( GPIOF, GPIO_Pin_1 );
 1020              		.loc 1 259 0
 1021 00ea 0221     		movs	r1, #2
 1022 00ec 2000     		movs	r0, r4
 1023 00ee FFF7FEFF 		bl	CloseeIO
 1024              	.LVL87:
 260:e:/LiteOS/LiteOS/targets/Cloud_FM33A0XX/GCC/../../../targets/Cloud_FM33A0XX/UserCode\user_init.c **** 	CloseeIO( GPIOF, GPIO_Pin_2 );
 1025              		.loc 1 260 0
 1026 00f2 0421     		movs	r1, #4
 1027 00f4 2000     		movs	r0, r4
 1028 00f6 FFF7FEFF 		bl	CloseeIO
 1029              	.LVL88:
 261:e:/LiteOS/LiteOS/targets/Cloud_FM33A0XX/GCC/../../../targets/Cloud_FM33A0XX/UserCode\user_init.c **** 	CloseeIO( GPIOF, GPIO_Pin_7 );
 1030              		.loc 1 261 0
 1031 00fa 8021     		movs	r1, #128
 1032 00fc 2000     		movs	r0, r4
 1033 00fe FFF7FEFF 		bl	CloseeIO
 1034              	.LVL89:
 262:e:/LiteOS/LiteOS/targets/Cloud_FM33A0XX/GCC/../../../targets/Cloud_FM33A0XX/UserCode\user_init.c **** 	CloseeIO( GPIOF, GPIO_Pin_8 );
 1035              		.loc 1 262 0
 1036 0102 3900     		movs	r1, r7
 1037 0104 2000     		movs	r0, r4
 1038 0106 FFF7FEFF 		bl	CloseeIO
 1039              	.LVL90:
 263:e:/LiteOS/LiteOS/targets/Cloud_FM33A0XX/GCC/../../../targets/Cloud_FM33A0XX/UserCode\user_init.c **** 	CloseeIO( GPIOF, GPIO_Pin_9 );
 1040              		.loc 1 263 0
 1041 010a 3100     		movs	r1, r6
 1042 010c 2000     		movs	r0, r4
 1043 010e FFF7FEFF 		bl	CloseeIO
 1044              	.LVL91:
 264:e:/LiteOS/LiteOS/targets/Cloud_FM33A0XX/GCC/../../../targets/Cloud_FM33A0XX/UserCode\user_init.c **** 	CloseeIO( GPIOF, GPIO_Pin_10 );
 1045              		.loc 1 264 0
 1046 0112 2900     		movs	r1, r5
 1047 0114 2000     		movs	r0, r4
 1048 0116 FFF7FEFF 		bl	CloseeIO
 1049              	.LVL92:
 265:e:/LiteOS/LiteOS/targets/Cloud_FM33A0XX/GCC/../../../targets/Cloud_FM33A0XX/UserCode\user_init.c **** 
 266:e:/LiteOS/LiteOS/targets/Cloud_FM33A0XX/GCC/../../../targets/Cloud_FM33A0XX/UserCode\user_init.c **** 	CloseeIO( GPIOG, GPIO_Pin_0 );
 1050              		.loc 1 266 0
 1051 011a 1B4C     		ldr	r4, .L67+16
ARM GAS  C:\Users\WANGBI~1\AppData\Local\Temp\ccbZtvog.s 			page 41


 1052 011c 0121     		movs	r1, #1
 1053 011e 2000     		movs	r0, r4
 1054 0120 FFF7FEFF 		bl	CloseeIO
 1055              	.LVL93:
 267:e:/LiteOS/LiteOS/targets/Cloud_FM33A0XX/GCC/../../../targets/Cloud_FM33A0XX/UserCode\user_init.c **** 	CloseeIO( GPIOG, GPIO_Pin_1 );
 1056              		.loc 1 267 0
 1057 0124 0221     		movs	r1, #2
 1058 0126 2000     		movs	r0, r4
 1059 0128 FFF7FEFF 		bl	CloseeIO
 1060              	.LVL94:
 268:e:/LiteOS/LiteOS/targets/Cloud_FM33A0XX/GCC/../../../targets/Cloud_FM33A0XX/UserCode\user_init.c **** 	CloseeIO( GPIOG, GPIO_Pin_4 );
 1061              		.loc 1 268 0
 1062 012c 1021     		movs	r1, #16
 1063 012e 2000     		movs	r0, r4
 1064 0130 FFF7FEFF 		bl	CloseeIO
 1065              	.LVL95:
 269:e:/LiteOS/LiteOS/targets/Cloud_FM33A0XX/GCC/../../../targets/Cloud_FM33A0XX/UserCode\user_init.c **** 	CloseeIO( GPIOG, GPIO_Pin_5 );
 1066              		.loc 1 269 0
 1067 0134 2021     		movs	r1, #32
 1068 0136 2000     		movs	r0, r4
 1069 0138 FFF7FEFF 		bl	CloseeIO
 1070              	.LVL96:
 270:e:/LiteOS/LiteOS/targets/Cloud_FM33A0XX/GCC/../../../targets/Cloud_FM33A0XX/UserCode\user_init.c **** 	CloseeIO( GPIOG, GPIO_Pin_10 );
 1071              		.loc 1 270 0
 1072 013c 2900     		movs	r1, r5
 1073 013e 2000     		movs	r0, r4
 1074 0140 FFF7FEFF 		bl	CloseeIO
 1075              	.LVL97:
 271:e:/LiteOS/LiteOS/targets/Cloud_FM33A0XX/GCC/../../../targets/Cloud_FM33A0XX/UserCode\user_init.c **** 	CloseeIO( GPIOG, GPIO_Pin_11 );
 1076              		.loc 1 271 0
 1077 0144 8021     		movs	r1, #128
 1078 0146 0901     		lsls	r1, r1, #4
 1079 0148 2000     		movs	r0, r4
 1080 014a FFF7FEFF 		bl	CloseeIO
 1081              	.LVL98:
 272:e:/LiteOS/LiteOS/targets/Cloud_FM33A0XX/GCC/../../../targets/Cloud_FM33A0XX/UserCode\user_init.c **** 	CloseeIO( GPIOG, GPIO_Pin_12 );
 1082              		.loc 1 272 0
 1083 014e 8021     		movs	r1, #128
 1084 0150 4901     		lsls	r1, r1, #5
 1085 0152 2000     		movs	r0, r4
 1086 0154 FFF7FEFF 		bl	CloseeIO
 1087              	.LVL99:
 273:e:/LiteOS/LiteOS/targets/Cloud_FM33A0XX/GCC/../../../targets/Cloud_FM33A0XX/UserCode\user_init.c **** 	CloseeIO( GPIOG, GPIO_Pin_13 );
 1088              		.loc 1 273 0
 1089 0158 8021     		movs	r1, #128
 1090 015a 8901     		lsls	r1, r1, #6
 1091 015c 2000     		movs	r0, r4
 1092 015e FFF7FEFF 		bl	CloseeIO
 1093              	.LVL100:
 274:e:/LiteOS/LiteOS/targets/Cloud_FM33A0XX/GCC/../../../targets/Cloud_FM33A0XX/UserCode\user_init.c **** 	CloseeIO( GPIOG, GPIO_Pin_14 );
 1094              		.loc 1 274 0
 1095 0162 8021     		movs	r1, #128
 1096 0164 C901     		lsls	r1, r1, #7
 1097 0166 2000     		movs	r0, r4
 1098 0168 FFF7FEFF 		bl	CloseeIO
 1099              	.LVL101:
 275:e:/LiteOS/LiteOS/targets/Cloud_FM33A0XX/GCC/../../../targets/Cloud_FM33A0XX/UserCode\user_init.c **** 	CloseeIO( GPIOG, GPIO_Pin_15 );
ARM GAS  C:\Users\WANGBI~1\AppData\Local\Temp\ccbZtvog.s 			page 42


 1100              		.loc 1 275 0
 1101 016c 8021     		movs	r1, #128
 1102 016e 0902     		lsls	r1, r1, #8
 1103 0170 2000     		movs	r0, r4
 1104 0172 FFF7FEFF 		bl	CloseeIO
 1105              	.LVL102:
 276:e:/LiteOS/LiteOS/targets/Cloud_FM33A0XX/GCC/../../../targets/Cloud_FM33A0XX/UserCode\user_init.c **** }
 1106              		.loc 1 276 0
 1107              		@ sp needed
 1108 0176 F8BD     		pop	{r3, r4, r5, r6, r7, pc}
 1109              	.L68:
 1110              		.align	2
 1111              	.L67:
 1112 0178 400C0040 		.word	1073744960
 1113 017c 600C0040 		.word	1073744992
 1114 0180 800C0040 		.word	1073745024
 1115 0184 A00C0040 		.word	1073745056
 1116 0188 C00C0040 		.word	1073745088
 1117              		.cfi_endproc
 1118              	.LFE55:
 1120              		.section	.text.Close_AllIOEXTI,"ax",%progbits
 1121              		.align	2
 1122              		.global	Close_AllIOEXTI
 1123              		.code	16
 1124              		.thumb_func
 1126              	Close_AllIOEXTI:
 1127              	.LFB56:
 277:e:/LiteOS/LiteOS/targets/Cloud_FM33A0XX/GCC/../../../targets/Cloud_FM33A0XX/UserCode\user_init.c **** 
 278:e:/LiteOS/LiteOS/targets/Cloud_FM33A0XX/GCC/../../../targets/Cloud_FM33A0XX/UserCode\user_init.c **** void Close_AllIOEXTI(void)
 279:e:/LiteOS/LiteOS/targets/Cloud_FM33A0XX/GCC/../../../targets/Cloud_FM33A0XX/UserCode\user_init.c **** {
 1128              		.loc 1 279 0
 1129              		.cfi_startproc
 1130              		@ args = 0, pretend = 0, frame = 0
 1131              		@ frame_needed = 0, uses_anonymous_args = 0
 1132 0000 10B5     		push	{r4, lr}
 1133              	.LCFI14:
 1134              		.cfi_def_cfa_offset 8
 1135              		.cfi_offset 4, -8
 1136              		.cfi_offset 14, -4
 280:e:/LiteOS/LiteOS/targets/Cloud_FM33A0XX/GCC/../../../targets/Cloud_FM33A0XX/UserCode\user_init.c **** 	CheckSysReg( &GPIO->EXTI0_SEL	, 0xFFFF0000 );
 1137              		.loc 1 280 0
 1138 0002 074C     		ldr	r4, .L70
 1139 0004 2100     		movs	r1, r4
 1140 0006 0748     		ldr	r0, .L70+4
 1141 0008 FFF7FEFF 		bl	CheckSysReg
 1142              	.LVL103:
 281:e:/LiteOS/LiteOS/targets/Cloud_FM33A0XX/GCC/../../../targets/Cloud_FM33A0XX/UserCode\user_init.c **** 	CheckSysReg( &GPIO->EXTI1_SEL	, 0xFFFF0000 );
 1143              		.loc 1 281 0
 1144 000c 2100     		movs	r1, r4
 1145 000e 0648     		ldr	r0, .L70+8
 1146 0010 FFF7FEFF 		bl	CheckSysReg
 1147              	.LVL104:
 282:e:/LiteOS/LiteOS/targets/Cloud_FM33A0XX/GCC/../../../targets/Cloud_FM33A0XX/UserCode\user_init.c **** 	CheckSysReg( &GPIO->EXTI2_SEL	, 0xFFFF0000 );
 1148              		.loc 1 282 0
 1149 0014 2100     		movs	r1, r4
 1150 0016 0548     		ldr	r0, .L70+12
 1151 0018 FFF7FEFF 		bl	CheckSysReg
ARM GAS  C:\Users\WANGBI~1\AppData\Local\Temp\ccbZtvog.s 			page 43


 1152              	.LVL105:
 283:e:/LiteOS/LiteOS/targets/Cloud_FM33A0XX/GCC/../../../targets/Cloud_FM33A0XX/UserCode\user_init.c **** }
 1153              		.loc 1 283 0
 1154              		@ sp needed
 1155 001c 10BD     		pop	{r4, pc}
 1156              	.L71:
 1157 001e C046     		.align	2
 1158              	.L70:
 1159 0020 0000FFFF 		.word	-65536
 1160 0024 E00C0040 		.word	1073745120
 1161 0028 E40C0040 		.word	1073745124
 1162 002c E80C0040 		.word	1073745128
 1163              		.cfi_endproc
 1164              	.LFE56:
 1166              		.section	.text.IO_AnalogFunSet,"ax",%progbits
 1167              		.align	2
 1168              		.global	IO_AnalogFunSet
 1169              		.code	16
 1170              		.thumb_func
 1172              	IO_AnalogFunSet:
 1173              	.LFB57:
 284:e:/LiteOS/LiteOS/targets/Cloud_FM33A0XX/GCC/../../../targets/Cloud_FM33A0XX/UserCode\user_init.c **** 
 285:e:/LiteOS/LiteOS/targets/Cloud_FM33A0XX/GCC/../../../targets/Cloud_FM33A0XX/UserCode\user_init.c **** void IO_AnalogFunSet(void)
 286:e:/LiteOS/LiteOS/targets/Cloud_FM33A0XX/GCC/../../../targets/Cloud_FM33A0XX/UserCode\user_init.c **** {
 1174              		.loc 1 286 0
 1175              		.cfi_startproc
 1176              		@ args = 0, pretend = 0, frame = 0
 1177              		@ frame_needed = 0, uses_anonymous_args = 0
 1178 0000 10B5     		push	{r4, lr}
 1179              	.LCFI15:
 1180              		.cfi_def_cfa_offset 8
 1181              		.cfi_offset 4, -8
 1182              		.cfi_offset 14, -4
 287:e:/LiteOS/LiteOS/targets/Cloud_FM33A0XX/GCC/../../../targets/Cloud_FM33A0XX/UserCode\user_init.c **** 	/* PE4模拟功能选择 */
 288:e:/LiteOS/LiteOS/targets/Cloud_FM33A0XX/GCC/../../../targets/Cloud_FM33A0XX/UserCode\user_init.c **** 	GPIO_ANASEL_PE4ANS_Set(GPIO_ANASEL_PE4ANS_ACMP1_INP1);
 1183              		.loc 1 288 0
 1184 0002 0020     		movs	r0, #0
 1185 0004 FFF7FEFF 		bl	GPIO_ANASEL_PE4ANS_Set
 1186              	.LVL106:
 289:e:/LiteOS/LiteOS/targets/Cloud_FM33A0XX/GCC/../../../targets/Cloud_FM33A0XX/UserCode\user_init.c **** 
 290:e:/LiteOS/LiteOS/targets/Cloud_FM33A0XX/GCC/../../../targets/Cloud_FM33A0XX/UserCode\user_init.c **** 	/* PE3模拟功能选择 */
 291:e:/LiteOS/LiteOS/targets/Cloud_FM33A0XX/GCC/../../../targets/Cloud_FM33A0XX/UserCode\user_init.c **** 	GPIO_ANASEL_PE3ANS_Set(GPIO_ANASEL_PE3ANS_ACMP1_INN1);
 1187              		.loc 1 291 0
 1188 0008 0020     		movs	r0, #0
 1189 000a FFF7FEFF 		bl	GPIO_ANASEL_PE3ANS_Set
 1190              	.LVL107:
 292:e:/LiteOS/LiteOS/targets/Cloud_FM33A0XX/GCC/../../../targets/Cloud_FM33A0XX/UserCode\user_init.c **** 
 293:e:/LiteOS/LiteOS/targets/Cloud_FM33A0XX/GCC/../../../targets/Cloud_FM33A0XX/UserCode\user_init.c **** 	/* PC15模拟功能选择 */
 294:e:/LiteOS/LiteOS/targets/Cloud_FM33A0XX/GCC/../../../targets/Cloud_FM33A0XX/UserCode\user_init.c **** 	GPIO_ANASEL_PC15ANS_Set(GPIO_ANASEL_PC15ANS_ACMP1_INP0);
 1191              		.loc 1 294 0
 1192 000e 0020     		movs	r0, #0
 1193 0010 FFF7FEFF 		bl	GPIO_ANASEL_PC15ANS_Set
 1194              	.LVL108:
 295:e:/LiteOS/LiteOS/targets/Cloud_FM33A0XX/GCC/../../../targets/Cloud_FM33A0XX/UserCode\user_init.c **** 
 296:e:/LiteOS/LiteOS/targets/Cloud_FM33A0XX/GCC/../../../targets/Cloud_FM33A0XX/UserCode\user_init.c **** 	/* PC14模拟功能选择 */
 297:e:/LiteOS/LiteOS/targets/Cloud_FM33A0XX/GCC/../../../targets/Cloud_FM33A0XX/UserCode\user_init.c **** 	GPIO_ANASEL_PC14ANS_Set(GPIO_ANASEL_PC14ANS_ACMP1_INN0);
 1195              		.loc 1 297 0
ARM GAS  C:\Users\WANGBI~1\AppData\Local\Temp\ccbZtvog.s 			page 44


 1196 0014 0020     		movs	r0, #0
 1197 0016 FFF7FEFF 		bl	GPIO_ANASEL_PC14ANS_Set
 1198              	.LVL109:
 298:e:/LiteOS/LiteOS/targets/Cloud_FM33A0XX/GCC/../../../targets/Cloud_FM33A0XX/UserCode\user_init.c **** 
 299:e:/LiteOS/LiteOS/targets/Cloud_FM33A0XX/GCC/../../../targets/Cloud_FM33A0XX/UserCode\user_init.c **** 	/* PC13模拟功能选择 */
 300:e:/LiteOS/LiteOS/targets/Cloud_FM33A0XX/GCC/../../../targets/Cloud_FM33A0XX/UserCode\user_init.c **** 	GPIO_ANASEL_PC13ANS_Set(GPIO_ANASEL_PC13ANS_ADC_IN2);
 1199              		.loc 1 300 0
 1200 001a 0020     		movs	r0, #0
 1201 001c FFF7FEFF 		bl	GPIO_ANASEL_PC13ANS_Set
 1202              	.LVL110:
 301:e:/LiteOS/LiteOS/targets/Cloud_FM33A0XX/GCC/../../../targets/Cloud_FM33A0XX/UserCode\user_init.c **** 
 302:e:/LiteOS/LiteOS/targets/Cloud_FM33A0XX/GCC/../../../targets/Cloud_FM33A0XX/UserCode\user_init.c **** 	/* PC12模拟功能选择 */
 303:e:/LiteOS/LiteOS/targets/Cloud_FM33A0XX/GCC/../../../targets/Cloud_FM33A0XX/UserCode\user_init.c **** 	GPIO_ANASEL_PC12ANS_Set(GPIO_ANASEL_PC12ANS_ADC_IN1);
 1203              		.loc 1 303 0
 1204 0020 0020     		movs	r0, #0
 1205 0022 FFF7FEFF 		bl	GPIO_ANASEL_PC12ANS_Set
 1206              	.LVL111:
 304:e:/LiteOS/LiteOS/targets/Cloud_FM33A0XX/GCC/../../../targets/Cloud_FM33A0XX/UserCode\user_init.c **** }
 1207              		.loc 1 304 0
 1208              		@ sp needed
 1209 0026 10BD     		pop	{r4, pc}
 1210              		.cfi_endproc
 1211              	.LFE57:
 1213              		.section	.text.IO_DFFunSet,"ax",%progbits
 1214              		.align	2
 1215              		.global	IO_DFFunSet
 1216              		.code	16
 1217              		.thumb_func
 1219              	IO_DFFunSet:
 1220              	.LFB58:
 305:e:/LiteOS/LiteOS/targets/Cloud_FM33A0XX/GCC/../../../targets/Cloud_FM33A0XX/UserCode\user_init.c **** 
 306:e:/LiteOS/LiteOS/targets/Cloud_FM33A0XX/GCC/../../../targets/Cloud_FM33A0XX/UserCode\user_init.c **** void IO_DFFunSet(void)
 307:e:/LiteOS/LiteOS/targets/Cloud_FM33A0XX/GCC/../../../targets/Cloud_FM33A0XX/UserCode\user_init.c **** {
 1221              		.loc 1 307 0
 1222              		.cfi_startproc
 1223              		@ args = 0, pretend = 0, frame = 0
 1224              		@ frame_needed = 0, uses_anonymous_args = 0
 1225 0000 10B5     		push	{r4, lr}
 1226              	.LCFI16:
 1227              		.cfi_def_cfa_offset 8
 1228              		.cfi_offset 4, -8
 1229              		.cfi_offset 14, -4
 308:e:/LiteOS/LiteOS/targets/Cloud_FM33A0XX/GCC/../../../targets/Cloud_FM33A0XX/UserCode\user_init.c **** 	GPIO_IODF_SetableEx(IODF_PF3	, DISABLE);
 1230              		.loc 1 308 0
 1231 0002 0021     		movs	r1, #0
 1232 0004 8020     		movs	r0, #128
 1233 0006 0004     		lsls	r0, r0, #16
 1234 0008 FFF7FEFF 		bl	GPIO_IODF_SetableEx
 1235              	.LVL112:
 309:e:/LiteOS/LiteOS/targets/Cloud_FM33A0XX/GCC/../../../targets/Cloud_FM33A0XX/UserCode\user_init.c **** 	GPIO_IODF_SetableEx(IODF_PF2	, DISABLE);
 1236              		.loc 1 309 0
 1237 000c 0021     		movs	r1, #0
 1238 000e 8020     		movs	r0, #128
 1239 0010 C003     		lsls	r0, r0, #15
 1240 0012 FFF7FEFF 		bl	GPIO_IODF_SetableEx
 1241              	.LVL113:
 310:e:/LiteOS/LiteOS/targets/Cloud_FM33A0XX/GCC/../../../targets/Cloud_FM33A0XX/UserCode\user_init.c **** 	GPIO_IODF_SetableEx(IODF_PF1	, DISABLE);
ARM GAS  C:\Users\WANGBI~1\AppData\Local\Temp\ccbZtvog.s 			page 45


 1242              		.loc 1 310 0
 1243 0016 0021     		movs	r1, #0
 1244 0018 8020     		movs	r0, #128
 1245 001a 8003     		lsls	r0, r0, #14
 1246 001c FFF7FEFF 		bl	GPIO_IODF_SetableEx
 1247              	.LVL114:
 311:e:/LiteOS/LiteOS/targets/Cloud_FM33A0XX/GCC/../../../targets/Cloud_FM33A0XX/UserCode\user_init.c **** 	GPIO_IODF_SetableEx(IODF_PE9	, DISABLE);
 1248              		.loc 1 311 0
 1249 0020 0021     		movs	r1, #0
 1250 0022 8020     		movs	r0, #128
 1251 0024 4003     		lsls	r0, r0, #13
 1252 0026 FFF7FEFF 		bl	GPIO_IODF_SetableEx
 1253              	.LVL115:
 312:e:/LiteOS/LiteOS/targets/Cloud_FM33A0XX/GCC/../../../targets/Cloud_FM33A0XX/UserCode\user_init.c **** 	GPIO_IODF_SetableEx(IODF_PE8	, DISABLE);
 1254              		.loc 1 312 0
 1255 002a 0021     		movs	r1, #0
 1256 002c 8020     		movs	r0, #128
 1257 002e 0003     		lsls	r0, r0, #12
 1258 0030 FFF7FEFF 		bl	GPIO_IODF_SetableEx
 1259              	.LVL116:
 313:e:/LiteOS/LiteOS/targets/Cloud_FM33A0XX/GCC/../../../targets/Cloud_FM33A0XX/UserCode\user_init.c **** 	GPIO_IODF_SetableEx(IODF_PE7	, DISABLE);
 1260              		.loc 1 313 0
 1261 0034 0021     		movs	r1, #0
 1262 0036 8020     		movs	r0, #128
 1263 0038 C002     		lsls	r0, r0, #11
 1264 003a FFF7FEFF 		bl	GPIO_IODF_SetableEx
 1265              	.LVL117:
 314:e:/LiteOS/LiteOS/targets/Cloud_FM33A0XX/GCC/../../../targets/Cloud_FM33A0XX/UserCode\user_init.c **** 	GPIO_IODF_SetableEx(IODF_PE6	, DISABLE);
 1266              		.loc 1 314 0
 1267 003e 0021     		movs	r1, #0
 1268 0040 8020     		movs	r0, #128
 1269 0042 8002     		lsls	r0, r0, #10
 1270 0044 FFF7FEFF 		bl	GPIO_IODF_SetableEx
 1271              	.LVL118:
 315:e:/LiteOS/LiteOS/targets/Cloud_FM33A0XX/GCC/../../../targets/Cloud_FM33A0XX/UserCode\user_init.c **** 	GPIO_IODF_SetableEx(IODF_PE2	, DISABLE);
 1272              		.loc 1 315 0
 1273 0048 0021     		movs	r1, #0
 1274 004a 8020     		movs	r0, #128
 1275 004c 4002     		lsls	r0, r0, #9
 1276 004e FFF7FEFF 		bl	GPIO_IODF_SetableEx
 1277              	.LVL119:
 316:e:/LiteOS/LiteOS/targets/Cloud_FM33A0XX/GCC/../../../targets/Cloud_FM33A0XX/UserCode\user_init.c **** 	GPIO_IODF_SetableEx(IODF_PD3	, DISABLE);
 1278              		.loc 1 316 0
 1279 0052 0021     		movs	r1, #0
 1280 0054 8020     		movs	r0, #128
 1281 0056 0002     		lsls	r0, r0, #8
 1282 0058 FFF7FEFF 		bl	GPIO_IODF_SetableEx
 1283              	.LVL120:
 317:e:/LiteOS/LiteOS/targets/Cloud_FM33A0XX/GCC/../../../targets/Cloud_FM33A0XX/UserCode\user_init.c **** 	GPIO_IODF_SetableEx(IODF_PD2	, DISABLE);
 1284              		.loc 1 317 0
 1285 005c 0021     		movs	r1, #0
 1286 005e 8020     		movs	r0, #128
 1287 0060 C001     		lsls	r0, r0, #7
 1288 0062 FFF7FEFF 		bl	GPIO_IODF_SetableEx
 1289              	.LVL121:
 318:e:/LiteOS/LiteOS/targets/Cloud_FM33A0XX/GCC/../../../targets/Cloud_FM33A0XX/UserCode\user_init.c **** 	GPIO_IODF_SetableEx(IODF_PD1	, DISABLE);
 1290              		.loc 1 318 0
ARM GAS  C:\Users\WANGBI~1\AppData\Local\Temp\ccbZtvog.s 			page 46


 1291 0066 0021     		movs	r1, #0
 1292 0068 8020     		movs	r0, #128
 1293 006a 8001     		lsls	r0, r0, #6
 1294 006c FFF7FEFF 		bl	GPIO_IODF_SetableEx
 1295              	.LVL122:
 319:e:/LiteOS/LiteOS/targets/Cloud_FM33A0XX/GCC/../../../targets/Cloud_FM33A0XX/UserCode\user_init.c **** 	GPIO_IODF_SetableEx(IODF_PD0	, DISABLE);
 1296              		.loc 1 319 0
 1297 0070 0021     		movs	r1, #0
 1298 0072 8020     		movs	r0, #128
 1299 0074 4001     		lsls	r0, r0, #5
 1300 0076 FFF7FEFF 		bl	GPIO_IODF_SetableEx
 1301              	.LVL123:
 320:e:/LiteOS/LiteOS/targets/Cloud_FM33A0XX/GCC/../../../targets/Cloud_FM33A0XX/UserCode\user_init.c **** 	GPIO_IODF_SetableEx(IODF_PC15	, DISABLE);
 1302              		.loc 1 320 0
 1303 007a 0021     		movs	r1, #0
 1304 007c 8020     		movs	r0, #128
 1305 007e 0001     		lsls	r0, r0, #4
 1306 0080 FFF7FEFF 		bl	GPIO_IODF_SetableEx
 1307              	.LVL124:
 321:e:/LiteOS/LiteOS/targets/Cloud_FM33A0XX/GCC/../../../targets/Cloud_FM33A0XX/UserCode\user_init.c **** 	GPIO_IODF_SetableEx(IODF_PC14	, DISABLE);
 1308              		.loc 1 321 0
 1309 0084 0021     		movs	r1, #0
 1310 0086 8020     		movs	r0, #128
 1311 0088 C000     		lsls	r0, r0, #3
 1312 008a FFF7FEFF 		bl	GPIO_IODF_SetableEx
 1313              	.LVL125:
 322:e:/LiteOS/LiteOS/targets/Cloud_FM33A0XX/GCC/../../../targets/Cloud_FM33A0XX/UserCode\user_init.c **** 	GPIO_IODF_SetableEx(IODF_PC13	, DISABLE);
 1314              		.loc 1 322 0
 1315 008e 0021     		movs	r1, #0
 1316 0090 8020     		movs	r0, #128
 1317 0092 8000     		lsls	r0, r0, #2
 1318 0094 FFF7FEFF 		bl	GPIO_IODF_SetableEx
 1319              	.LVL126:
 323:e:/LiteOS/LiteOS/targets/Cloud_FM33A0XX/GCC/../../../targets/Cloud_FM33A0XX/UserCode\user_init.c **** 	GPIO_IODF_SetableEx(IODF_PC12	, DISABLE);
 1320              		.loc 1 323 0
 1321 0098 0021     		movs	r1, #0
 1322 009a 8020     		movs	r0, #128
 1323 009c 4000     		lsls	r0, r0, #1
 1324 009e FFF7FEFF 		bl	GPIO_IODF_SetableEx
 1325              	.LVL127:
 324:e:/LiteOS/LiteOS/targets/Cloud_FM33A0XX/GCC/../../../targets/Cloud_FM33A0XX/UserCode\user_init.c **** 	GPIO_IODF_SetableEx(IODF_PB7	, DISABLE);
 1326              		.loc 1 324 0
 1327 00a2 0021     		movs	r1, #0
 1328 00a4 8020     		movs	r0, #128
 1329 00a6 FFF7FEFF 		bl	GPIO_IODF_SetableEx
 1330              	.LVL128:
 325:e:/LiteOS/LiteOS/targets/Cloud_FM33A0XX/GCC/../../../targets/Cloud_FM33A0XX/UserCode\user_init.c **** 	GPIO_IODF_SetableEx(IODF_PB6	, DISABLE);
 1331              		.loc 1 325 0
 1332 00aa 0021     		movs	r1, #0
 1333 00ac 4020     		movs	r0, #64
 1334 00ae FFF7FEFF 		bl	GPIO_IODF_SetableEx
 1335              	.LVL129:
 326:e:/LiteOS/LiteOS/targets/Cloud_FM33A0XX/GCC/../../../targets/Cloud_FM33A0XX/UserCode\user_init.c **** 	GPIO_IODF_SetableEx(IODF_PB5	, DISABLE);
 1336              		.loc 1 326 0
 1337 00b2 0021     		movs	r1, #0
 1338 00b4 2020     		movs	r0, #32
 1339 00b6 FFF7FEFF 		bl	GPIO_IODF_SetableEx
ARM GAS  C:\Users\WANGBI~1\AppData\Local\Temp\ccbZtvog.s 			page 47


 1340              	.LVL130:
 327:e:/LiteOS/LiteOS/targets/Cloud_FM33A0XX/GCC/../../../targets/Cloud_FM33A0XX/UserCode\user_init.c **** 	GPIO_IODF_SetableEx(IODF_PB4	, DISABLE);
 1341              		.loc 1 327 0
 1342 00ba 0021     		movs	r1, #0
 1343 00bc 1020     		movs	r0, #16
 1344 00be FFF7FEFF 		bl	GPIO_IODF_SetableEx
 1345              	.LVL131:
 328:e:/LiteOS/LiteOS/targets/Cloud_FM33A0XX/GCC/../../../targets/Cloud_FM33A0XX/UserCode\user_init.c **** 	GPIO_IODF_SetableEx(IODF_PA11	, DISABLE);
 1346              		.loc 1 328 0
 1347 00c2 0021     		movs	r1, #0
 1348 00c4 0820     		movs	r0, #8
 1349 00c6 FFF7FEFF 		bl	GPIO_IODF_SetableEx
 1350              	.LVL132:
 329:e:/LiteOS/LiteOS/targets/Cloud_FM33A0XX/GCC/../../../targets/Cloud_FM33A0XX/UserCode\user_init.c **** 	GPIO_IODF_SetableEx(IODF_PA10	, DISABLE);
 1351              		.loc 1 329 0
 1352 00ca 0021     		movs	r1, #0
 1353 00cc 0420     		movs	r0, #4
 1354 00ce FFF7FEFF 		bl	GPIO_IODF_SetableEx
 1355              	.LVL133:
 330:e:/LiteOS/LiteOS/targets/Cloud_FM33A0XX/GCC/../../../targets/Cloud_FM33A0XX/UserCode\user_init.c **** 	GPIO_IODF_SetableEx(IODF_PA9	, DISABLE);
 1356              		.loc 1 330 0
 1357 00d2 0021     		movs	r1, #0
 1358 00d4 0220     		movs	r0, #2
 1359 00d6 FFF7FEFF 		bl	GPIO_IODF_SetableEx
 1360              	.LVL134:
 331:e:/LiteOS/LiteOS/targets/Cloud_FM33A0XX/GCC/../../../targets/Cloud_FM33A0XX/UserCode\user_init.c **** 	GPIO_IODF_SetableEx(IODF_PA8	, DISABLE);
 1361              		.loc 1 331 0
 1362 00da 0021     		movs	r1, #0
 1363 00dc 0120     		movs	r0, #1
 1364 00de FFF7FEFF 		bl	GPIO_IODF_SetableEx
 1365              	.LVL135:
 332:e:/LiteOS/LiteOS/targets/Cloud_FM33A0XX/GCC/../../../targets/Cloud_FM33A0XX/UserCode\user_init.c **** }
 1366              		.loc 1 332 0
 1367              		@ sp needed
 1368 00e2 10BD     		pop	{r4, pc}
 1369              		.cfi_endproc
 1370              	.LFE58:
 1372              		.section	.text.IO_WKENFunSet,"ax",%progbits
 1373              		.align	2
 1374              		.global	IO_WKENFunSet
 1375              		.code	16
 1376              		.thumb_func
 1378              	IO_WKENFunSet:
 1379              	.LFB59:
 333:e:/LiteOS/LiteOS/targets/Cloud_FM33A0XX/GCC/../../../targets/Cloud_FM33A0XX/UserCode\user_init.c **** 
 334:e:/LiteOS/LiteOS/targets/Cloud_FM33A0XX/GCC/../../../targets/Cloud_FM33A0XX/UserCode\user_init.c **** void IO_WKENFunSet(void)
 335:e:/LiteOS/LiteOS/targets/Cloud_FM33A0XX/GCC/../../../targets/Cloud_FM33A0XX/UserCode\user_init.c **** {
 1380              		.loc 1 335 0
 1381              		.cfi_startproc
 1382              		@ args = 0, pretend = 0, frame = 0
 1383              		@ frame_needed = 0, uses_anonymous_args = 0
 1384 0000 10B5     		push	{r4, lr}
 1385              	.LCFI17:
 1386              		.cfi_def_cfa_offset 8
 1387              		.cfi_offset 4, -8
 1388              		.cfi_offset 14, -4
 336:e:/LiteOS/LiteOS/targets/Cloud_FM33A0XX/GCC/../../../targets/Cloud_FM33A0XX/UserCode\user_init.c **** 	GPIO_PINWKEN_SetableEx(PINWKEN_PD6	, DISABLE);
ARM GAS  C:\Users\WANGBI~1\AppData\Local\Temp\ccbZtvog.s 			page 48


 1389              		.loc 1 336 0
 1390 0002 0021     		movs	r1, #0
 1391 0004 8020     		movs	r0, #128
 1392 0006 FFF7FEFF 		bl	GPIO_PINWKEN_SetableEx
 1393              	.LVL136:
 337:e:/LiteOS/LiteOS/targets/Cloud_FM33A0XX/GCC/../../../targets/Cloud_FM33A0XX/UserCode\user_init.c **** 	GPIO_PINWKEN_SetableEx(PINWKEN_PE9	, DISABLE);
 1394              		.loc 1 337 0
 1395 000a 0021     		movs	r1, #0
 1396 000c 4020     		movs	r0, #64
 1397 000e FFF7FEFF 		bl	GPIO_PINWKEN_SetableEx
 1398              	.LVL137:
 338:e:/LiteOS/LiteOS/targets/Cloud_FM33A0XX/GCC/../../../targets/Cloud_FM33A0XX/UserCode\user_init.c **** 	GPIO_PINWKEN_SetableEx(PINWKEN_PE2	, DISABLE);
 1399              		.loc 1 338 0
 1400 0012 0021     		movs	r1, #0
 1401 0014 2020     		movs	r0, #32
 1402 0016 FFF7FEFF 		bl	GPIO_PINWKEN_SetableEx
 1403              	.LVL138:
 339:e:/LiteOS/LiteOS/targets/Cloud_FM33A0XX/GCC/../../../targets/Cloud_FM33A0XX/UserCode\user_init.c **** 	GPIO_PINWKEN_SetableEx(PINWKEN_PA13	, DISABLE);
 1404              		.loc 1 339 0
 1405 001a 0021     		movs	r1, #0
 1406 001c 1020     		movs	r0, #16
 1407 001e FFF7FEFF 		bl	GPIO_PINWKEN_SetableEx
 1408              	.LVL139:
 340:e:/LiteOS/LiteOS/targets/Cloud_FM33A0XX/GCC/../../../targets/Cloud_FM33A0XX/UserCode\user_init.c **** 	GPIO_PINWKEN_SetableEx(PINWKEN_PG7	, DISABLE);
 1409              		.loc 1 340 0
 1410 0022 0021     		movs	r1, #0
 1411 0024 0820     		movs	r0, #8
 1412 0026 FFF7FEFF 		bl	GPIO_PINWKEN_SetableEx
 1413              	.LVL140:
 341:e:/LiteOS/LiteOS/targets/Cloud_FM33A0XX/GCC/../../../targets/Cloud_FM33A0XX/UserCode\user_init.c **** 	GPIO_PINWKEN_SetableEx(PINWKEN_PC13	, DISABLE);
 1414              		.loc 1 341 0
 1415 002a 0021     		movs	r1, #0
 1416 002c 0420     		movs	r0, #4
 1417 002e FFF7FEFF 		bl	GPIO_PINWKEN_SetableEx
 1418              	.LVL141:
 342:e:/LiteOS/LiteOS/targets/Cloud_FM33A0XX/GCC/../../../targets/Cloud_FM33A0XX/UserCode\user_init.c **** 	GPIO_PINWKEN_SetableEx(PINWKEN_PB0	, DISABLE);
 1419              		.loc 1 342 0
 1420 0032 0021     		movs	r1, #0
 1421 0034 0220     		movs	r0, #2
 1422 0036 FFF7FEFF 		bl	GPIO_PINWKEN_SetableEx
 1423              	.LVL142:
 343:e:/LiteOS/LiteOS/targets/Cloud_FM33A0XX/GCC/../../../targets/Cloud_FM33A0XX/UserCode\user_init.c **** 	GPIO_PINWKEN_SetableEx(PINWKEN_PF5	, DISABLE);
 1424              		.loc 1 343 0
 1425 003a 0021     		movs	r1, #0
 1426 003c 0120     		movs	r0, #1
 1427 003e FFF7FEFF 		bl	GPIO_PINWKEN_SetableEx
 1428              	.LVL143:
 344:e:/LiteOS/LiteOS/targets/Cloud_FM33A0XX/GCC/../../../targets/Cloud_FM33A0XX/UserCode\user_init.c **** }
 1429              		.loc 1 344 0
 1430              		@ sp needed
 1431 0042 10BD     		pop	{r4, pc}
 1432              		.cfi_endproc
 1433              	.LFE59:
 1435              		.section	.text.Close_AllIO_GPIO_80pin,"ax",%progbits
 1436              		.align	2
 1437              		.global	Close_AllIO_GPIO_80pin
 1438              		.code	16
ARM GAS  C:\Users\WANGBI~1\AppData\Local\Temp\ccbZtvog.s 			page 49


 1439              		.thumb_func
 1441              	Close_AllIO_GPIO_80pin:
 1442              	.LFB60:
 345:e:/LiteOS/LiteOS/targets/Cloud_FM33A0XX/GCC/../../../targets/Cloud_FM33A0XX/UserCode\user_init.c **** 
 346:e:/LiteOS/LiteOS/targets/Cloud_FM33A0XX/GCC/../../../targets/Cloud_FM33A0XX/UserCode\user_init.c **** //关闭80脚芯片可使用的全部IO(SWD口除外，关闭后不能仿真)
 347:e:/LiteOS/LiteOS/targets/Cloud_FM33A0XX/GCC/../../../targets/Cloud_FM33A0XX/UserCode\user_init.c **** void Close_AllIO_GPIO_80pin( void )
 348:e:/LiteOS/LiteOS/targets/Cloud_FM33A0XX/GCC/../../../targets/Cloud_FM33A0XX/UserCode\user_init.c **** {	
 1443              		.loc 1 348 0
 1444              		.cfi_startproc
 1445              		@ args = 0, pretend = 0, frame = 0
 1446              		@ frame_needed = 0, uses_anonymous_args = 0
 1447 0000 F8B5     		push	{r3, r4, r5, r6, r7, lr}
 1448              	.LCFI18:
 1449              		.cfi_def_cfa_offset 24
 1450              		.cfi_offset 3, -24
 1451              		.cfi_offset 4, -20
 1452              		.cfi_offset 5, -16
 1453              		.cfi_offset 6, -12
 1454              		.cfi_offset 7, -8
 1455              		.cfi_offset 14, -4
 349:e:/LiteOS/LiteOS/targets/Cloud_FM33A0XX/GCC/../../../targets/Cloud_FM33A0XX/UserCode\user_init.c **** 	//关闭所有IO的中断功能
 350:e:/LiteOS/LiteOS/targets/Cloud_FM33A0XX/GCC/../../../targets/Cloud_FM33A0XX/UserCode\user_init.c **** 	Close_AllIOEXTI();
 1456              		.loc 1 350 0
 1457 0002 FFF7FEFF 		bl	Close_AllIOEXTI
 1458              	.LVL144:
 351:e:/LiteOS/LiteOS/targets/Cloud_FM33A0XX/GCC/../../../targets/Cloud_FM33A0XX/UserCode\user_init.c **** 	
 352:e:/LiteOS/LiteOS/targets/Cloud_FM33A0XX/GCC/../../../targets/Cloud_FM33A0XX/UserCode\user_init.c **** 	//强驱动关闭
 353:e:/LiteOS/LiteOS/targets/Cloud_FM33A0XX/GCC/../../../targets/Cloud_FM33A0XX/UserCode\user_init.c **** 	GPIO_HDSEL_PE2HDEN_Setable(DISABLE);
 1459              		.loc 1 353 0
 1460 0006 0020     		movs	r0, #0
 1461 0008 FFF7FEFF 		bl	GPIO_HDSEL_PE2HDEN_Setable
 1462              	.LVL145:
 354:e:/LiteOS/LiteOS/targets/Cloud_FM33A0XX/GCC/../../../targets/Cloud_FM33A0XX/UserCode\user_init.c **** 	GPIO_HDSEL_PG6HDEN_Setable(DISABLE);
 1463              		.loc 1 354 0
 1464 000c 0020     		movs	r0, #0
 1465 000e FFF7FEFF 		bl	GPIO_HDSEL_PG6HDEN_Setable
 1466              	.LVL146:
 355:e:/LiteOS/LiteOS/targets/Cloud_FM33A0XX/GCC/../../../targets/Cloud_FM33A0XX/UserCode\user_init.c **** 	
 356:e:/LiteOS/LiteOS/targets/Cloud_FM33A0XX/GCC/../../../targets/Cloud_FM33A0XX/UserCode\user_init.c **** 	//FOUT输出信号选择
 357:e:/LiteOS/LiteOS/targets/Cloud_FM33A0XX/GCC/../../../targets/Cloud_FM33A0XX/UserCode\user_init.c **** 	GPIO_FOUTSEL_FOUTSEL_Set(GPIO_FOUTSEL_FOUTSEL_LSCLK);
 1467              		.loc 1 357 0
 1468 0012 0320     		movs	r0, #3
 1469 0014 FFF7FEFF 		bl	GPIO_FOUTSEL_FOUTSEL_Set
 1470              	.LVL147:
 358:e:/LiteOS/LiteOS/targets/Cloud_FM33A0XX/GCC/../../../targets/Cloud_FM33A0XX/UserCode\user_init.c **** 	
 359:e:/LiteOS/LiteOS/targets/Cloud_FM33A0XX/GCC/../../../targets/Cloud_FM33A0XX/UserCode\user_init.c **** 	//模拟口液晶、AD功能选择	
 360:e:/LiteOS/LiteOS/targets/Cloud_FM33A0XX/GCC/../../../targets/Cloud_FM33A0XX/UserCode\user_init.c **** 	IO_AnalogFunSet();
 1471              		.loc 1 360 0
 1472 0018 FFF7FEFF 		bl	IO_AnalogFunSet
 1473              	.LVL148:
 361:e:/LiteOS/LiteOS/targets/Cloud_FM33A0XX/GCC/../../../targets/Cloud_FM33A0XX/UserCode\user_init.c **** 	
 362:e:/LiteOS/LiteOS/targets/Cloud_FM33A0XX/GCC/../../../targets/Cloud_FM33A0XX/UserCode\user_init.c **** 	//部分IO输入口数字滤波功能
 363:e:/LiteOS/LiteOS/targets/Cloud_FM33A0XX/GCC/../../../targets/Cloud_FM33A0XX/UserCode\user_init.c **** 	IO_DFFunSet();
 1474              		.loc 1 363 0
 1475 001c FFF7FEFF 		bl	IO_DFFunSet
 1476              	.LVL149:
 364:e:/LiteOS/LiteOS/targets/Cloud_FM33A0XX/GCC/../../../targets/Cloud_FM33A0XX/UserCode\user_init.c **** 	
ARM GAS  C:\Users\WANGBI~1\AppData\Local\Temp\ccbZtvog.s 			page 50


 365:e:/LiteOS/LiteOS/targets/Cloud_FM33A0XX/GCC/../../../targets/Cloud_FM33A0XX/UserCode\user_init.c **** 	//关闭NWKUP
 366:e:/LiteOS/LiteOS/targets/Cloud_FM33A0XX/GCC/../../../targets/Cloud_FM33A0XX/UserCode\user_init.c **** 	IO_WKENFunSet();
 1477              		.loc 1 366 0
 1478 0020 FFF7FEFF 		bl	IO_WKENFunSet
 1479              	.LVL150:
 367:e:/LiteOS/LiteOS/targets/Cloud_FM33A0XX/GCC/../../../targets/Cloud_FM33A0XX/UserCode\user_init.c **** 	
 368:e:/LiteOS/LiteOS/targets/Cloud_FM33A0XX/GCC/../../../targets/Cloud_FM33A0XX/UserCode\user_init.c **** 	CloseeIO( GPIOA, GPIO_Pin_0 );	//PA0; //
 1480              		.loc 1 368 0
 1481 0024 A14C     		ldr	r4, .L76
 1482 0026 0121     		movs	r1, #1
 1483 0028 2000     		movs	r0, r4
 1484 002a FFF7FEFF 		bl	CloseeIO
 1485              	.LVL151:
 369:e:/LiteOS/LiteOS/targets/Cloud_FM33A0XX/GCC/../../../targets/Cloud_FM33A0XX/UserCode\user_init.c **** 	CloseeIO( GPIOA, GPIO_Pin_1 );	//PA1; //
 1486              		.loc 1 369 0
 1487 002e 0221     		movs	r1, #2
 1488 0030 2000     		movs	r0, r4
 1489 0032 FFF7FEFF 		bl	CloseeIO
 1490              	.LVL152:
 370:e:/LiteOS/LiteOS/targets/Cloud_FM33A0XX/GCC/../../../targets/Cloud_FM33A0XX/UserCode\user_init.c **** 	CloseeIO( GPIOA, GPIO_Pin_2 );	//PA2; //
 1491              		.loc 1 370 0
 1492 0036 0421     		movs	r1, #4
 1493 0038 2000     		movs	r0, r4
 1494 003a FFF7FEFF 		bl	CloseeIO
 1495              	.LVL153:
 371:e:/LiteOS/LiteOS/targets/Cloud_FM33A0XX/GCC/../../../targets/Cloud_FM33A0XX/UserCode\user_init.c **** 	CloseeIO( GPIOA, GPIO_Pin_3 );	//PA3; //
 1496              		.loc 1 371 0
 1497 003e 0821     		movs	r1, #8
 1498 0040 2000     		movs	r0, r4
 1499 0042 FFF7FEFF 		bl	CloseeIO
 1500              	.LVL154:
 372:e:/LiteOS/LiteOS/targets/Cloud_FM33A0XX/GCC/../../../targets/Cloud_FM33A0XX/UserCode\user_init.c **** 	CloseeIO( GPIOA, GPIO_Pin_4 );	//PA4; //
 1501              		.loc 1 372 0
 1502 0046 1021     		movs	r1, #16
 1503 0048 2000     		movs	r0, r4
 1504 004a FFF7FEFF 		bl	CloseeIO
 1505              	.LVL155:
 373:e:/LiteOS/LiteOS/targets/Cloud_FM33A0XX/GCC/../../../targets/Cloud_FM33A0XX/UserCode\user_init.c **** 	CloseeIO( GPIOA, GPIO_Pin_5 );	//PA5; //
 1506              		.loc 1 373 0
 1507 004e 2021     		movs	r1, #32
 1508 0050 2000     		movs	r0, r4
 1509 0052 FFF7FEFF 		bl	CloseeIO
 1510              	.LVL156:
 374:e:/LiteOS/LiteOS/targets/Cloud_FM33A0XX/GCC/../../../targets/Cloud_FM33A0XX/UserCode\user_init.c **** 	CloseeIO( GPIOA, GPIO_Pin_6 );	//PA6; //
 1511              		.loc 1 374 0
 1512 0056 4021     		movs	r1, #64
 1513 0058 2000     		movs	r0, r4
 1514 005a FFF7FEFF 		bl	CloseeIO
 1515              	.LVL157:
 375:e:/LiteOS/LiteOS/targets/Cloud_FM33A0XX/GCC/../../../targets/Cloud_FM33A0XX/UserCode\user_init.c **** 	CloseeIO( GPIOA, GPIO_Pin_7 );	//PA7; //
 1516              		.loc 1 375 0
 1517 005e 8021     		movs	r1, #128
 1518 0060 2000     		movs	r0, r4
 1519 0062 FFF7FEFF 		bl	CloseeIO
 1520              	.LVL158:
 376:e:/LiteOS/LiteOS/targets/Cloud_FM33A0XX/GCC/../../../targets/Cloud_FM33A0XX/UserCode\user_init.c **** 	CloseeIO( GPIOA, GPIO_Pin_8 );	//PA8; //
 1521              		.loc 1 376 0
ARM GAS  C:\Users\WANGBI~1\AppData\Local\Temp\ccbZtvog.s 			page 51


 1522 0066 8021     		movs	r1, #128
 1523 0068 4900     		lsls	r1, r1, #1
 1524 006a 2000     		movs	r0, r4
 1525 006c FFF7FEFF 		bl	CloseeIO
 1526              	.LVL159:
 377:e:/LiteOS/LiteOS/targets/Cloud_FM33A0XX/GCC/../../../targets/Cloud_FM33A0XX/UserCode\user_init.c **** 	CloseeIO( GPIOA, GPIO_Pin_9 );	//PA9; //
 1527              		.loc 1 377 0
 1528 0070 8021     		movs	r1, #128
 1529 0072 8900     		lsls	r1, r1, #2
 1530 0074 2000     		movs	r0, r4
 1531 0076 FFF7FEFF 		bl	CloseeIO
 1532              	.LVL160:
 378:e:/LiteOS/LiteOS/targets/Cloud_FM33A0XX/GCC/../../../targets/Cloud_FM33A0XX/UserCode\user_init.c **** 	CloseeIO( GPIOA, GPIO_Pin_10 );	//PA10;//
 1533              		.loc 1 378 0
 1534 007a 8021     		movs	r1, #128
 1535 007c C900     		lsls	r1, r1, #3
 1536 007e 2000     		movs	r0, r4
 1537 0080 FFF7FEFF 		bl	CloseeIO
 1538              	.LVL161:
 379:e:/LiteOS/LiteOS/targets/Cloud_FM33A0XX/GCC/../../../targets/Cloud_FM33A0XX/UserCode\user_init.c **** 	CloseeIO( GPIOA, GPIO_Pin_11 );	//PA11;//
 1539              		.loc 1 379 0
 1540 0084 8027     		movs	r7, #128
 1541 0086 3F01     		lsls	r7, r7, #4
 1542 0088 3900     		movs	r1, r7
 1543 008a 2000     		movs	r0, r4
 1544 008c FFF7FEFF 		bl	CloseeIO
 1545              	.LVL162:
 380:e:/LiteOS/LiteOS/targets/Cloud_FM33A0XX/GCC/../../../targets/Cloud_FM33A0XX/UserCode\user_init.c **** 	CloseeIO( GPIOA, GPIO_Pin_12 );	//PA12;//
 1546              		.loc 1 380 0
 1547 0090 8026     		movs	r6, #128
 1548 0092 7601     		lsls	r6, r6, #5
 1549 0094 3100     		movs	r1, r6
 1550 0096 2000     		movs	r0, r4
 1551 0098 FFF7FEFF 		bl	CloseeIO
 1552              	.LVL163:
 381:e:/LiteOS/LiteOS/targets/Cloud_FM33A0XX/GCC/../../../targets/Cloud_FM33A0XX/UserCode\user_init.c **** 	CloseeIO( GPIOA, GPIO_Pin_13 );	//PA13;//
 1553              		.loc 1 381 0
 1554 009c 8025     		movs	r5, #128
 1555 009e AD01     		lsls	r5, r5, #6
 1556 00a0 2900     		movs	r1, r5
 1557 00a2 2000     		movs	r0, r4
 1558 00a4 FFF7FEFF 		bl	CloseeIO
 1559              	.LVL164:
 382:e:/LiteOS/LiteOS/targets/Cloud_FM33A0XX/GCC/../../../targets/Cloud_FM33A0XX/UserCode\user_init.c **** 	CloseeIO( GPIOA, GPIO_Pin_14 );	//PA14;//
 1560              		.loc 1 382 0
 1561 00a8 8021     		movs	r1, #128
 1562 00aa C901     		lsls	r1, r1, #7
 1563 00ac 2000     		movs	r0, r4
 1564 00ae FFF7FEFF 		bl	CloseeIO
 1565              	.LVL165:
 383:e:/LiteOS/LiteOS/targets/Cloud_FM33A0XX/GCC/../../../targets/Cloud_FM33A0XX/UserCode\user_init.c **** 	CloseeIO( GPIOA, GPIO_Pin_15 );	//PA15;//
 1566              		.loc 1 383 0
 1567 00b2 8021     		movs	r1, #128
 1568 00b4 0902     		lsls	r1, r1, #8
 1569 00b6 2000     		movs	r0, r4
 1570 00b8 FFF7FEFF 		bl	CloseeIO
 1571              	.LVL166:
ARM GAS  C:\Users\WANGBI~1\AppData\Local\Temp\ccbZtvog.s 			page 52


 384:e:/LiteOS/LiteOS/targets/Cloud_FM33A0XX/GCC/../../../targets/Cloud_FM33A0XX/UserCode\user_init.c **** 
 385:e:/LiteOS/LiteOS/targets/Cloud_FM33A0XX/GCC/../../../targets/Cloud_FM33A0XX/UserCode\user_init.c **** 	CloseeIO( GPIOB, GPIO_Pin_0 );	//PB0; //
 1572              		.loc 1 385 0
 1573 00bc 7C4C     		ldr	r4, .L76+4
 1574 00be 0121     		movs	r1, #1
 1575 00c0 2000     		movs	r0, r4
 1576 00c2 FFF7FEFF 		bl	CloseeIO
 1577              	.LVL167:
 386:e:/LiteOS/LiteOS/targets/Cloud_FM33A0XX/GCC/../../../targets/Cloud_FM33A0XX/UserCode\user_init.c **** 	CloseeIO( GPIOB, GPIO_Pin_1 );	//PB1; //
 1578              		.loc 1 386 0
 1579 00c6 0221     		movs	r1, #2
 1580 00c8 2000     		movs	r0, r4
 1581 00ca FFF7FEFF 		bl	CloseeIO
 1582              	.LVL168:
 387:e:/LiteOS/LiteOS/targets/Cloud_FM33A0XX/GCC/../../../targets/Cloud_FM33A0XX/UserCode\user_init.c **** 	CloseeIO( GPIOB, GPIO_Pin_2 );	//PB2; //
 1583              		.loc 1 387 0
 1584 00ce 0421     		movs	r1, #4
 1585 00d0 2000     		movs	r0, r4
 1586 00d2 FFF7FEFF 		bl	CloseeIO
 1587              	.LVL169:
 388:e:/LiteOS/LiteOS/targets/Cloud_FM33A0XX/GCC/../../../targets/Cloud_FM33A0XX/UserCode\user_init.c **** 	CloseeIO( GPIOB, GPIO_Pin_3 );	//PB3; //
 1588              		.loc 1 388 0
 1589 00d6 0821     		movs	r1, #8
 1590 00d8 2000     		movs	r0, r4
 1591 00da FFF7FEFF 		bl	CloseeIO
 1592              	.LVL170:
 389:e:/LiteOS/LiteOS/targets/Cloud_FM33A0XX/GCC/../../../targets/Cloud_FM33A0XX/UserCode\user_init.c **** 	CloseeIO( GPIOB, GPIO_Pin_4 );	//PB4; //
 1593              		.loc 1 389 0
 1594 00de 1021     		movs	r1, #16
 1595 00e0 2000     		movs	r0, r4
 1596 00e2 FFF7FEFF 		bl	CloseeIO
 1597              	.LVL171:
 390:e:/LiteOS/LiteOS/targets/Cloud_FM33A0XX/GCC/../../../targets/Cloud_FM33A0XX/UserCode\user_init.c **** 	CloseeIO( GPIOB, GPIO_Pin_5 );	//PB5; //
 1598              		.loc 1 390 0
 1599 00e6 2021     		movs	r1, #32
 1600 00e8 2000     		movs	r0, r4
 1601 00ea FFF7FEFF 		bl	CloseeIO
 1602              	.LVL172:
 391:e:/LiteOS/LiteOS/targets/Cloud_FM33A0XX/GCC/../../../targets/Cloud_FM33A0XX/UserCode\user_init.c **** 	CloseeIO( GPIOB, GPIO_Pin_6 );	//PB6; //
 1603              		.loc 1 391 0
 1604 00ee 4021     		movs	r1, #64
 1605 00f0 2000     		movs	r0, r4
 1606 00f2 FFF7FEFF 		bl	CloseeIO
 1607              	.LVL173:
 392:e:/LiteOS/LiteOS/targets/Cloud_FM33A0XX/GCC/../../../targets/Cloud_FM33A0XX/UserCode\user_init.c **** 	CloseeIO( GPIOB, GPIO_Pin_7 );	//PB7; //
 1608              		.loc 1 392 0
 1609 00f6 8021     		movs	r1, #128
 1610 00f8 2000     		movs	r0, r4
 1611 00fa FFF7FEFF 		bl	CloseeIO
 1612              	.LVL174:
 393:e:/LiteOS/LiteOS/targets/Cloud_FM33A0XX/GCC/../../../targets/Cloud_FM33A0XX/UserCode\user_init.c **** 	CloseeIO( GPIOB, GPIO_Pin_8 );	//PB8; //
 1613              		.loc 1 393 0
 1614 00fe 8021     		movs	r1, #128
 1615 0100 4900     		lsls	r1, r1, #1
 1616 0102 2000     		movs	r0, r4
 1617 0104 FFF7FEFF 		bl	CloseeIO
 1618              	.LVL175:
ARM GAS  C:\Users\WANGBI~1\AppData\Local\Temp\ccbZtvog.s 			page 53


 394:e:/LiteOS/LiteOS/targets/Cloud_FM33A0XX/GCC/../../../targets/Cloud_FM33A0XX/UserCode\user_init.c **** 	CloseeIO( GPIOB, GPIO_Pin_9 );	//PB9; //
 1619              		.loc 1 394 0
 1620 0108 8021     		movs	r1, #128
 1621 010a 8900     		lsls	r1, r1, #2
 1622 010c 2000     		movs	r0, r4
 1623 010e FFF7FEFF 		bl	CloseeIO
 1624              	.LVL176:
 395:e:/LiteOS/LiteOS/targets/Cloud_FM33A0XX/GCC/../../../targets/Cloud_FM33A0XX/UserCode\user_init.c **** 	CloseeIO( GPIOB, GPIO_Pin_10 );	//PB10;//
 1625              		.loc 1 395 0
 1626 0112 8021     		movs	r1, #128
 1627 0114 C900     		lsls	r1, r1, #3
 1628 0116 2000     		movs	r0, r4
 1629 0118 FFF7FEFF 		bl	CloseeIO
 1630              	.LVL177:
 396:e:/LiteOS/LiteOS/targets/Cloud_FM33A0XX/GCC/../../../targets/Cloud_FM33A0XX/UserCode\user_init.c **** 	CloseeIO( GPIOB, GPIO_Pin_11 );	//PB11;//
 1631              		.loc 1 396 0
 1632 011c 3900     		movs	r1, r7
 1633 011e 2000     		movs	r0, r4
 1634 0120 FFF7FEFF 		bl	CloseeIO
 1635              	.LVL178:
 397:e:/LiteOS/LiteOS/targets/Cloud_FM33A0XX/GCC/../../../targets/Cloud_FM33A0XX/UserCode\user_init.c **** 	CloseeIO( GPIOB, GPIO_Pin_12 );	//PB12;//
 1636              		.loc 1 397 0
 1637 0124 3100     		movs	r1, r6
 1638 0126 2000     		movs	r0, r4
 1639 0128 FFF7FEFF 		bl	CloseeIO
 1640              	.LVL179:
 398:e:/LiteOS/LiteOS/targets/Cloud_FM33A0XX/GCC/../../../targets/Cloud_FM33A0XX/UserCode\user_init.c **** 	CloseeIO( GPIOB, GPIO_Pin_13 );	//PB13;//
 1641              		.loc 1 398 0
 1642 012c 2900     		movs	r1, r5
 1643 012e 2000     		movs	r0, r4
 1644 0130 FFF7FEFF 		bl	CloseeIO
 1645              	.LVL180:
 399:e:/LiteOS/LiteOS/targets/Cloud_FM33A0XX/GCC/../../../targets/Cloud_FM33A0XX/UserCode\user_init.c **** 	CloseeIO( GPIOB, GPIO_Pin_14 );	//PB14;//
 1646              		.loc 1 399 0
 1647 0134 8021     		movs	r1, #128
 1648 0136 C901     		lsls	r1, r1, #7
 1649 0138 2000     		movs	r0, r4
 1650 013a FFF7FEFF 		bl	CloseeIO
 1651              	.LVL181:
 400:e:/LiteOS/LiteOS/targets/Cloud_FM33A0XX/GCC/../../../targets/Cloud_FM33A0XX/UserCode\user_init.c **** 	CloseeIO( GPIOB, GPIO_Pin_15 );	//PB15;//
 1652              		.loc 1 400 0
 1653 013e 8021     		movs	r1, #128
 1654 0140 0902     		lsls	r1, r1, #8
 1655 0142 2000     		movs	r0, r4
 1656 0144 FFF7FEFF 		bl	CloseeIO
 1657              	.LVL182:
 401:e:/LiteOS/LiteOS/targets/Cloud_FM33A0XX/GCC/../../../targets/Cloud_FM33A0XX/UserCode\user_init.c **** 	
 402:e:/LiteOS/LiteOS/targets/Cloud_FM33A0XX/GCC/../../../targets/Cloud_FM33A0XX/UserCode\user_init.c **** 	CloseeIO( GPIOC, GPIO_Pin_2 );	//PC2; //
 1658              		.loc 1 402 0
 1659 0148 5A4C     		ldr	r4, .L76+8
 1660 014a 0421     		movs	r1, #4
 1661 014c 2000     		movs	r0, r4
 1662 014e FFF7FEFF 		bl	CloseeIO
 1663              	.LVL183:
 403:e:/LiteOS/LiteOS/targets/Cloud_FM33A0XX/GCC/../../../targets/Cloud_FM33A0XX/UserCode\user_init.c **** 	CloseeIO( GPIOC, GPIO_Pin_3 );	//PC3; //
 1664              		.loc 1 403 0
 1665 0152 0821     		movs	r1, #8
ARM GAS  C:\Users\WANGBI~1\AppData\Local\Temp\ccbZtvog.s 			page 54


 1666 0154 2000     		movs	r0, r4
 1667 0156 FFF7FEFF 		bl	CloseeIO
 1668              	.LVL184:
 404:e:/LiteOS/LiteOS/targets/Cloud_FM33A0XX/GCC/../../../targets/Cloud_FM33A0XX/UserCode\user_init.c **** 	CloseeIO( GPIOC, GPIO_Pin_4 );	//PC4; //
 1669              		.loc 1 404 0
 1670 015a 1021     		movs	r1, #16
 1671 015c 2000     		movs	r0, r4
 1672 015e FFF7FEFF 		bl	CloseeIO
 1673              	.LVL185:
 405:e:/LiteOS/LiteOS/targets/Cloud_FM33A0XX/GCC/../../../targets/Cloud_FM33A0XX/UserCode\user_init.c **** 	CloseeIO( GPIOC, GPIO_Pin_5 );	//PC5; //
 1674              		.loc 1 405 0
 1675 0162 2021     		movs	r1, #32
 1676 0164 2000     		movs	r0, r4
 1677 0166 FFF7FEFF 		bl	CloseeIO
 1678              	.LVL186:
 406:e:/LiteOS/LiteOS/targets/Cloud_FM33A0XX/GCC/../../../targets/Cloud_FM33A0XX/UserCode\user_init.c **** 	CloseeIO( GPIOC, GPIO_Pin_6 );	//PC6; //
 1679              		.loc 1 406 0
 1680 016a 4021     		movs	r1, #64
 1681 016c 2000     		movs	r0, r4
 1682 016e FFF7FEFF 		bl	CloseeIO
 1683              	.LVL187:
 407:e:/LiteOS/LiteOS/targets/Cloud_FM33A0XX/GCC/../../../targets/Cloud_FM33A0XX/UserCode\user_init.c **** 	CloseeIO( GPIOC, GPIO_Pin_7 );	//PC7; //
 1684              		.loc 1 407 0
 1685 0172 8021     		movs	r1, #128
 1686 0174 2000     		movs	r0, r4
 1687 0176 FFF7FEFF 		bl	CloseeIO
 1688              	.LVL188:
 408:e:/LiteOS/LiteOS/targets/Cloud_FM33A0XX/GCC/../../../targets/Cloud_FM33A0XX/UserCode\user_init.c **** 	CloseeIO( GPIOC, GPIO_Pin_8 );	//PC8; //
 1689              		.loc 1 408 0
 1690 017a 8021     		movs	r1, #128
 1691 017c 4900     		lsls	r1, r1, #1
 1692 017e 2000     		movs	r0, r4
 1693 0180 FFF7FEFF 		bl	CloseeIO
 1694              	.LVL189:
 409:e:/LiteOS/LiteOS/targets/Cloud_FM33A0XX/GCC/../../../targets/Cloud_FM33A0XX/UserCode\user_init.c **** 	CloseeIO( GPIOC, GPIO_Pin_9 );	//PC9; //
 1695              		.loc 1 409 0
 1696 0184 8021     		movs	r1, #128
 1697 0186 8900     		lsls	r1, r1, #2
 1698 0188 2000     		movs	r0, r4
 1699 018a FFF7FEFF 		bl	CloseeIO
 1700              	.LVL190:
 410:e:/LiteOS/LiteOS/targets/Cloud_FM33A0XX/GCC/../../../targets/Cloud_FM33A0XX/UserCode\user_init.c **** 	CloseeIO( GPIOC, GPIO_Pin_10 );	//PC10;//
 1701              		.loc 1 410 0
 1702 018e 8021     		movs	r1, #128
 1703 0190 C900     		lsls	r1, r1, #3
 1704 0192 2000     		movs	r0, r4
 1705 0194 FFF7FEFF 		bl	CloseeIO
 1706              	.LVL191:
 411:e:/LiteOS/LiteOS/targets/Cloud_FM33A0XX/GCC/../../../targets/Cloud_FM33A0XX/UserCode\user_init.c **** 	CloseeIO( GPIOC, GPIO_Pin_11 );	//PC11;//
 1707              		.loc 1 411 0
 1708 0198 3900     		movs	r1, r7
 1709 019a 2000     		movs	r0, r4
 1710 019c FFF7FEFF 		bl	CloseeIO
 1711              	.LVL192:
 412:e:/LiteOS/LiteOS/targets/Cloud_FM33A0XX/GCC/../../../targets/Cloud_FM33A0XX/UserCode\user_init.c **** 	CloseeIO( GPIOC, GPIO_Pin_12 );	//PC12;//
 1712              		.loc 1 412 0
 1713 01a0 3100     		movs	r1, r6
ARM GAS  C:\Users\WANGBI~1\AppData\Local\Temp\ccbZtvog.s 			page 55


 1714 01a2 2000     		movs	r0, r4
 1715 01a4 FFF7FEFF 		bl	CloseeIO
 1716              	.LVL193:
 413:e:/LiteOS/LiteOS/targets/Cloud_FM33A0XX/GCC/../../../targets/Cloud_FM33A0XX/UserCode\user_init.c **** 	CloseeIO( GPIOC, GPIO_Pin_13 );	//PC13;//
 1717              		.loc 1 413 0
 1718 01a8 2900     		movs	r1, r5
 1719 01aa 2000     		movs	r0, r4
 1720 01ac FFF7FEFF 		bl	CloseeIO
 1721              	.LVL194:
 414:e:/LiteOS/LiteOS/targets/Cloud_FM33A0XX/GCC/../../../targets/Cloud_FM33A0XX/UserCode\user_init.c **** 	CloseeIO( GPIOC, GPIO_Pin_14 );	//PC14;//
 1722              		.loc 1 414 0
 1723 01b0 8021     		movs	r1, #128
 1724 01b2 C901     		lsls	r1, r1, #7
 1725 01b4 2000     		movs	r0, r4
 1726 01b6 FFF7FEFF 		bl	CloseeIO
 1727              	.LVL195:
 415:e:/LiteOS/LiteOS/targets/Cloud_FM33A0XX/GCC/../../../targets/Cloud_FM33A0XX/UserCode\user_init.c **** 	CloseeIO( GPIOC, GPIO_Pin_15 );	//PC15;//
 1728              		.loc 1 415 0
 1729 01ba 8021     		movs	r1, #128
 1730 01bc 0902     		lsls	r1, r1, #8
 1731 01be 2000     		movs	r0, r4
 1732 01c0 FFF7FEFF 		bl	CloseeIO
 1733              	.LVL196:
 416:e:/LiteOS/LiteOS/targets/Cloud_FM33A0XX/GCC/../../../targets/Cloud_FM33A0XX/UserCode\user_init.c **** 	
 417:e:/LiteOS/LiteOS/targets/Cloud_FM33A0XX/GCC/../../../targets/Cloud_FM33A0XX/UserCode\user_init.c **** 	CloseeIO( GPIOD, GPIO_Pin_0 );	//PD0;//
 1734              		.loc 1 417 0
 1735 01c4 3C4C     		ldr	r4, .L76+12
 1736 01c6 0121     		movs	r1, #1
 1737 01c8 2000     		movs	r0, r4
 1738 01ca FFF7FEFF 		bl	CloseeIO
 1739              	.LVL197:
 418:e:/LiteOS/LiteOS/targets/Cloud_FM33A0XX/GCC/../../../targets/Cloud_FM33A0XX/UserCode\user_init.c **** 	CloseeIO( GPIOD, GPIO_Pin_1 );	//PD1;//
 1740              		.loc 1 418 0
 1741 01ce 0221     		movs	r1, #2
 1742 01d0 2000     		movs	r0, r4
 1743 01d2 FFF7FEFF 		bl	CloseeIO
 1744              	.LVL198:
 419:e:/LiteOS/LiteOS/targets/Cloud_FM33A0XX/GCC/../../../targets/Cloud_FM33A0XX/UserCode\user_init.c **** 	CloseeIO( GPIOD, GPIO_Pin_2 );	//PD2;//
 1745              		.loc 1 419 0
 1746 01d6 0421     		movs	r1, #4
 1747 01d8 2000     		movs	r0, r4
 1748 01da FFF7FEFF 		bl	CloseeIO
 1749              	.LVL199:
 420:e:/LiteOS/LiteOS/targets/Cloud_FM33A0XX/GCC/../../../targets/Cloud_FM33A0XX/UserCode\user_init.c **** 	CloseeIO( GPIOD, GPIO_Pin_3 );	//PD3;//
 1750              		.loc 1 420 0
 1751 01de 0821     		movs	r1, #8
 1752 01e0 2000     		movs	r0, r4
 1753 01e2 FFF7FEFF 		bl	CloseeIO
 1754              	.LVL200:
 421:e:/LiteOS/LiteOS/targets/Cloud_FM33A0XX/GCC/../../../targets/Cloud_FM33A0XX/UserCode\user_init.c **** 	CloseeIO( GPIOD, GPIO_Pin_4 );	//PD4;//
 1755              		.loc 1 421 0
 1756 01e6 1021     		movs	r1, #16
 1757 01e8 2000     		movs	r0, r4
 1758 01ea FFF7FEFF 		bl	CloseeIO
 1759              	.LVL201:
 422:e:/LiteOS/LiteOS/targets/Cloud_FM33A0XX/GCC/../../../targets/Cloud_FM33A0XX/UserCode\user_init.c **** 	CloseeIO( GPIOD, GPIO_Pin_5 );	//PD5;//
 1760              		.loc 1 422 0
ARM GAS  C:\Users\WANGBI~1\AppData\Local\Temp\ccbZtvog.s 			page 56


 1761 01ee 2021     		movs	r1, #32
 1762 01f0 2000     		movs	r0, r4
 1763 01f2 FFF7FEFF 		bl	CloseeIO
 1764              	.LVL202:
 423:e:/LiteOS/LiteOS/targets/Cloud_FM33A0XX/GCC/../../../targets/Cloud_FM33A0XX/UserCode\user_init.c **** 	CloseeIO( GPIOD, GPIO_Pin_6 );	//PD6;//
 1765              		.loc 1 423 0
 1766 01f6 4021     		movs	r1, #64
 1767 01f8 2000     		movs	r0, r4
 1768 01fa FFF7FEFF 		bl	CloseeIO
 1769              	.LVL203:
 424:e:/LiteOS/LiteOS/targets/Cloud_FM33A0XX/GCC/../../../targets/Cloud_FM33A0XX/UserCode\user_init.c **** 	CloseeIO( GPIOD, GPIO_Pin_7 );	//PD7;//
 1770              		.loc 1 424 0
 1771 01fe 8021     		movs	r1, #128
 1772 0200 2000     		movs	r0, r4
 1773 0202 FFF7FEFF 		bl	CloseeIO
 1774              	.LVL204:
 425:e:/LiteOS/LiteOS/targets/Cloud_FM33A0XX/GCC/../../../targets/Cloud_FM33A0XX/UserCode\user_init.c **** 	
 426:e:/LiteOS/LiteOS/targets/Cloud_FM33A0XX/GCC/../../../targets/Cloud_FM33A0XX/UserCode\user_init.c **** 	CloseeIO( GPIOE, GPIO_Pin_2 );	//PE2;//
 1775              		.loc 1 426 0
 1776 0206 2D4C     		ldr	r4, .L76+16
 1777 0208 0421     		movs	r1, #4
 1778 020a 2000     		movs	r0, r4
 1779 020c FFF7FEFF 		bl	CloseeIO
 1780              	.LVL205:
 427:e:/LiteOS/LiteOS/targets/Cloud_FM33A0XX/GCC/../../../targets/Cloud_FM33A0XX/UserCode\user_init.c **** 	CloseeIO( GPIOE, GPIO_Pin_3 );	//PE3;//
 1781              		.loc 1 427 0
 1782 0210 0821     		movs	r1, #8
 1783 0212 2000     		movs	r0, r4
 1784 0214 FFF7FEFF 		bl	CloseeIO
 1785              	.LVL206:
 428:e:/LiteOS/LiteOS/targets/Cloud_FM33A0XX/GCC/../../../targets/Cloud_FM33A0XX/UserCode\user_init.c **** 	CloseeIO( GPIOE, GPIO_Pin_4 );	//PE4;//
 1786              		.loc 1 428 0
 1787 0218 1021     		movs	r1, #16
 1788 021a 2000     		movs	r0, r4
 1789 021c FFF7FEFF 		bl	CloseeIO
 1790              	.LVL207:
 429:e:/LiteOS/LiteOS/targets/Cloud_FM33A0XX/GCC/../../../targets/Cloud_FM33A0XX/UserCode\user_init.c **** 
 430:e:/LiteOS/LiteOS/targets/Cloud_FM33A0XX/GCC/../../../targets/Cloud_FM33A0XX/UserCode\user_init.c **** 	CloseeIO( GPIOF, GPIO_Pin_3 );	//PF3; //
 1791              		.loc 1 430 0
 1792 0220 274C     		ldr	r4, .L76+20
 1793 0222 0821     		movs	r1, #8
 1794 0224 2000     		movs	r0, r4
 1795 0226 FFF7FEFF 		bl	CloseeIO
 1796              	.LVL208:
 431:e:/LiteOS/LiteOS/targets/Cloud_FM33A0XX/GCC/../../../targets/Cloud_FM33A0XX/UserCode\user_init.c **** 	CloseeIO( GPIOF, GPIO_Pin_4 );	//PF4; //
 1797              		.loc 1 431 0
 1798 022a 1021     		movs	r1, #16
 1799 022c 2000     		movs	r0, r4
 1800 022e FFF7FEFF 		bl	CloseeIO
 1801              	.LVL209:
 432:e:/LiteOS/LiteOS/targets/Cloud_FM33A0XX/GCC/../../../targets/Cloud_FM33A0XX/UserCode\user_init.c **** 	CloseeIO( GPIOF, GPIO_Pin_5 );	//PF5; //
 1802              		.loc 1 432 0
 1803 0232 2021     		movs	r1, #32
 1804 0234 2000     		movs	r0, r4
 1805 0236 FFF7FEFF 		bl	CloseeIO
 1806              	.LVL210:
 433:e:/LiteOS/LiteOS/targets/Cloud_FM33A0XX/GCC/../../../targets/Cloud_FM33A0XX/UserCode\user_init.c **** 	CloseeIO( GPIOF, GPIO_Pin_6 );	//PF6; //
ARM GAS  C:\Users\WANGBI~1\AppData\Local\Temp\ccbZtvog.s 			page 57


 1807              		.loc 1 433 0
 1808 023a 4021     		movs	r1, #64
 1809 023c 2000     		movs	r0, r4
 1810 023e FFF7FEFF 		bl	CloseeIO
 1811              	.LVL211:
 434:e:/LiteOS/LiteOS/targets/Cloud_FM33A0XX/GCC/../../../targets/Cloud_FM33A0XX/UserCode\user_init.c **** 	CloseeIO( GPIOF, GPIO_Pin_11 );	//PF11;//
 1812              		.loc 1 434 0
 1813 0242 3900     		movs	r1, r7
 1814 0244 2000     		movs	r0, r4
 1815 0246 FFF7FEFF 		bl	CloseeIO
 1816              	.LVL212:
 435:e:/LiteOS/LiteOS/targets/Cloud_FM33A0XX/GCC/../../../targets/Cloud_FM33A0XX/UserCode\user_init.c **** 	CloseeIO( GPIOF, GPIO_Pin_12 );	//PF12;//
 1817              		.loc 1 435 0
 1818 024a 3100     		movs	r1, r6
 1819 024c 2000     		movs	r0, r4
 1820 024e FFF7FEFF 		bl	CloseeIO
 1821              	.LVL213:
 436:e:/LiteOS/LiteOS/targets/Cloud_FM33A0XX/GCC/../../../targets/Cloud_FM33A0XX/UserCode\user_init.c **** 	CloseeIO( GPIOF, GPIO_Pin_13 );	//PF13;//
 1822              		.loc 1 436 0
 1823 0252 2900     		movs	r1, r5
 1824 0254 2000     		movs	r0, r4
 1825 0256 FFF7FEFF 		bl	CloseeIO
 1826              	.LVL214:
 437:e:/LiteOS/LiteOS/targets/Cloud_FM33A0XX/GCC/../../../targets/Cloud_FM33A0XX/UserCode\user_init.c **** 	CloseeIO( GPIOF, GPIO_Pin_14 );	//PF14;//
 1827              		.loc 1 437 0
 1828 025a 8021     		movs	r1, #128
 1829 025c C901     		lsls	r1, r1, #7
 1830 025e 2000     		movs	r0, r4
 1831 0260 FFF7FEFF 		bl	CloseeIO
 1832              	.LVL215:
 438:e:/LiteOS/LiteOS/targets/Cloud_FM33A0XX/GCC/../../../targets/Cloud_FM33A0XX/UserCode\user_init.c **** 	CloseeIO( GPIOF, GPIO_Pin_15 );	//PF15;//
 1833              		.loc 1 438 0
 1834 0264 8021     		movs	r1, #128
 1835 0266 0902     		lsls	r1, r1, #8
 1836 0268 2000     		movs	r0, r4
 1837 026a FFF7FEFF 		bl	CloseeIO
 1838              	.LVL216:
 439:e:/LiteOS/LiteOS/targets/Cloud_FM33A0XX/GCC/../../../targets/Cloud_FM33A0XX/UserCode\user_init.c **** 	
 440:e:/LiteOS/LiteOS/targets/Cloud_FM33A0XX/GCC/../../../targets/Cloud_FM33A0XX/UserCode\user_init.c **** 	CloseeIO( GPIOG, GPIO_Pin_2 );	//PG2;//
 1839              		.loc 1 440 0
 1840 026e 154C     		ldr	r4, .L76+24
 1841 0270 0421     		movs	r1, #4
 1842 0272 2000     		movs	r0, r4
 1843 0274 FFF7FEFF 		bl	CloseeIO
 1844              	.LVL217:
 441:e:/LiteOS/LiteOS/targets/Cloud_FM33A0XX/GCC/../../../targets/Cloud_FM33A0XX/UserCode\user_init.c **** 	CloseeIO( GPIOG, GPIO_Pin_3 );	//PG3;//
 1845              		.loc 1 441 0
 1846 0278 0821     		movs	r1, #8
 1847 027a 2000     		movs	r0, r4
 1848 027c FFF7FEFF 		bl	CloseeIO
 1849              	.LVL218:
 442:e:/LiteOS/LiteOS/targets/Cloud_FM33A0XX/GCC/../../../targets/Cloud_FM33A0XX/UserCode\user_init.c **** 	CloseeIO( GPIOG, GPIO_Pin_6 );	//PG6;//
 1850              		.loc 1 442 0
 1851 0280 4021     		movs	r1, #64
 1852 0282 2000     		movs	r0, r4
 1853 0284 FFF7FEFF 		bl	CloseeIO
 1854              	.LVL219:
ARM GAS  C:\Users\WANGBI~1\AppData\Local\Temp\ccbZtvog.s 			page 58


 443:e:/LiteOS/LiteOS/targets/Cloud_FM33A0XX/GCC/../../../targets/Cloud_FM33A0XX/UserCode\user_init.c **** 	CloseeIO( GPIOG, GPIO_Pin_7 );	//PG7;//
 1855              		.loc 1 443 0
 1856 0288 8021     		movs	r1, #128
 1857 028a 2000     		movs	r0, r4
 1858 028c FFF7FEFF 		bl	CloseeIO
 1859              	.LVL220:
 444:e:/LiteOS/LiteOS/targets/Cloud_FM33A0XX/GCC/../../../targets/Cloud_FM33A0XX/UserCode\user_init.c **** 	//注意SWD接口的PG8,9如果程序改变它们的配置将无法仿真
 445:e:/LiteOS/LiteOS/targets/Cloud_FM33A0XX/GCC/../../../targets/Cloud_FM33A0XX/UserCode\user_init.c **** 	AltFunIO( GPIOG, GPIO_Pin_8, ALTFUN_NORMAL );	//PG8;//SWDTCK
 1860              		.loc 1 445 0
 1861 0290 0022     		movs	r2, #0
 1862 0292 8021     		movs	r1, #128
 1863 0294 4900     		lsls	r1, r1, #1
 1864 0296 2000     		movs	r0, r4
 1865 0298 FFF7FEFF 		bl	AltFunIO
 1866              	.LVL221:
 446:e:/LiteOS/LiteOS/targets/Cloud_FM33A0XX/GCC/../../../targets/Cloud_FM33A0XX/UserCode\user_init.c **** 	AltFunIO( GPIOG, GPIO_Pin_9, ALTFUN_NORMAL );	//PG9;//SWDTDO	
 1867              		.loc 1 446 0
 1868 029c 0022     		movs	r2, #0
 1869 029e 8021     		movs	r1, #128
 1870 02a0 8900     		lsls	r1, r1, #2
 1871 02a2 2000     		movs	r0, r4
 1872 02a4 FFF7FEFF 		bl	AltFunIO
 1873              	.LVL222:
 447:e:/LiteOS/LiteOS/targets/Cloud_FM33A0XX/GCC/../../../targets/Cloud_FM33A0XX/UserCode\user_init.c **** }
 1874              		.loc 1 447 0
 1875              		@ sp needed
 1876 02a8 F8BD     		pop	{r3, r4, r5, r6, r7, pc}
 1877              	.L77:
 1878 02aa C046     		.align	2
 1879              	.L76:
 1880 02ac 000C0040 		.word	1073744896
 1881 02b0 200C0040 		.word	1073744928
 1882 02b4 400C0040 		.word	1073744960
 1883 02b8 600C0040 		.word	1073744992
 1884 02bc 800C0040 		.word	1073745024
 1885 02c0 A00C0040 		.word	1073745056
 1886 02c4 C00C0040 		.word	1073745088
 1887              		.cfi_endproc
 1888              	.LFE60:
 1890              		.section	.text.Init_RCC_PERIPH_clk,"ax",%progbits
 1891              		.align	2
 1892              		.global	Init_RCC_PERIPH_clk
 1893              		.code	16
 1894              		.thumb_func
 1896              	Init_RCC_PERIPH_clk:
 1897              	.LFB61:
 448:e:/LiteOS/LiteOS/targets/Cloud_FM33A0XX/GCC/../../../targets/Cloud_FM33A0XX/UserCode\user_init.c **** 
 449:e:/LiteOS/LiteOS/targets/Cloud_FM33A0XX/GCC/../../../targets/Cloud_FM33A0XX/UserCode\user_init.c **** //默认开启大部分外设时钟，用户可按需求关闭不需要的时钟
 450:e:/LiteOS/LiteOS/targets/Cloud_FM33A0XX/GCC/../../../targets/Cloud_FM33A0XX/UserCode\user_init.c **** //时钟开启关闭对功耗影响不大
 451:e:/LiteOS/LiteOS/targets/Cloud_FM33A0XX/GCC/../../../targets/Cloud_FM33A0XX/UserCode\user_init.c **** void Init_RCC_PERIPH_clk(void)
 452:e:/LiteOS/LiteOS/targets/Cloud_FM33A0XX/GCC/../../../targets/Cloud_FM33A0XX/UserCode\user_init.c **** {
 1898              		.loc 1 452 0
 1899              		.cfi_startproc
 1900              		@ args = 0, pretend = 0, frame = 0
 1901              		@ frame_needed = 0, uses_anonymous_args = 0
 1902 0000 10B5     		push	{r4, lr}
 1903              	.LCFI19:
ARM GAS  C:\Users\WANGBI~1\AppData\Local\Temp\ccbZtvog.s 			page 59


 1904              		.cfi_def_cfa_offset 8
 1905              		.cfi_offset 4, -8
 1906              		.cfi_offset 14, -4
 453:e:/LiteOS/LiteOS/targets/Cloud_FM33A0XX/GCC/../../../targets/Cloud_FM33A0XX/UserCode\user_init.c **** 	//PERCLKCON1
 454:e:/LiteOS/LiteOS/targets/Cloud_FM33A0XX/GCC/../../../targets/Cloud_FM33A0XX/UserCode\user_init.c **** 	RCC_PERCLK_SetableEx( DCUCLK, 		ENABLE );		//debug contro时钟使能，建议打开
 1907              		.loc 1 454 0
 1908 0002 0121     		movs	r1, #1
 1909 0004 5148     		ldr	r0, .L79
 1910 0006 FFF7FEFF 		bl	RCC_PERCLK_SetableEx
 1911              	.LVL223:
 455:e:/LiteOS/LiteOS/targets/Cloud_FM33A0XX/GCC/../../../targets/Cloud_FM33A0XX/UserCode\user_init.c **** 	RCC_PERCLK_SetableEx( EXTI2CLK, 	ENABLE );		//EXTI外部引脚中断采样时钟，IO数字滤波时钟使能
 1912              		.loc 1 455 0
 1913 000a 0121     		movs	r1, #1
 1914 000c 5048     		ldr	r0, .L79+4
 1915 000e FFF7FEFF 		bl	RCC_PERCLK_SetableEx
 1916              	.LVL224:
 456:e:/LiteOS/LiteOS/targets/Cloud_FM33A0XX/GCC/../../../targets/Cloud_FM33A0XX/UserCode\user_init.c **** 	RCC_PERCLK_SetableEx( EXTI1CLK, 	ENABLE );		//EXTI外部引脚中断采样时钟，IO数字滤波时钟使能
 1917              		.loc 1 456 0
 1918 0012 0121     		movs	r1, #1
 1919 0014 4F48     		ldr	r0, .L79+8
 1920 0016 FFF7FEFF 		bl	RCC_PERCLK_SetableEx
 1921              	.LVL225:
 457:e:/LiteOS/LiteOS/targets/Cloud_FM33A0XX/GCC/../../../targets/Cloud_FM33A0XX/UserCode\user_init.c **** 	RCC_PERCLK_SetableEx( EXTI0CLK, 	ENABLE );		//EXTI外部引脚中断采样时钟，IO数字滤波时钟使能
 1922              		.loc 1 457 0
 1923 001a 0121     		movs	r1, #1
 1924 001c 4E48     		ldr	r0, .L79+12
 1925 001e FFF7FEFF 		bl	RCC_PERCLK_SetableEx
 1926              	.LVL226:
 458:e:/LiteOS/LiteOS/targets/Cloud_FM33A0XX/GCC/../../../targets/Cloud_FM33A0XX/UserCode\user_init.c **** 	RCC_PERCLK_SetableEx( PDCCLK, 		ENABLE );		//IO控制时钟寄存器使能
 1927              		.loc 1 458 0
 1928 0022 0121     		movs	r1, #1
 1929 0024 4D48     		ldr	r0, .L79+16
 1930 0026 FFF7FEFF 		bl	RCC_PERCLK_SetableEx
 1931              	.LVL227:
 459:e:/LiteOS/LiteOS/targets/Cloud_FM33A0XX/GCC/../../../targets/Cloud_FM33A0XX/UserCode\user_init.c **** 	RCC_PERCLK_SetableEx( ANACCLK, 		ENABLE );		//模拟电路总线时钟使能
 1932              		.loc 1 459 0
 1933 002a 0121     		movs	r1, #1
 1934 002c 4C48     		ldr	r0, .L79+20
 1935 002e FFF7FEFF 		bl	RCC_PERCLK_SetableEx
 1936              	.LVL228:
 460:e:/LiteOS/LiteOS/targets/Cloud_FM33A0XX/GCC/../../../targets/Cloud_FM33A0XX/UserCode\user_init.c **** 	RCC_PERCLK_SetableEx( IWDTCLK, 		ENABLE );		//IWDT总线时钟使能
 1937              		.loc 1 460 0
 1938 0032 0121     		movs	r1, #1
 1939 0034 4B48     		ldr	r0, .L79+24
 1940 0036 FFF7FEFF 		bl	RCC_PERCLK_SetableEx
 1941              	.LVL229:
 461:e:/LiteOS/LiteOS/targets/Cloud_FM33A0XX/GCC/../../../targets/Cloud_FM33A0XX/UserCode\user_init.c **** 	RCC_PERCLK_SetableEx( SCUCLK, 		ENABLE );		//system control时钟使能，建议打开
 1942              		.loc 1 461 0
 1943 003a 0121     		movs	r1, #1
 1944 003c 4A48     		ldr	r0, .L79+28
 1945 003e FFF7FEFF 		bl	RCC_PERCLK_SetableEx
 1946              	.LVL230:
 462:e:/LiteOS/LiteOS/targets/Cloud_FM33A0XX/GCC/../../../targets/Cloud_FM33A0XX/UserCode\user_init.c **** 	RCC_PERCLK_SetableEx( PMUCLK, 		ENABLE );		//电源管理模块时钟使能
 1947              		.loc 1 462 0
 1948 0042 0121     		movs	r1, #1
 1949 0044 4948     		ldr	r0, .L79+32
 1950 0046 FFF7FEFF 		bl	RCC_PERCLK_SetableEx
ARM GAS  C:\Users\WANGBI~1\AppData\Local\Temp\ccbZtvog.s 			page 60


 1951              	.LVL231:
 463:e:/LiteOS/LiteOS/targets/Cloud_FM33A0XX/GCC/../../../targets/Cloud_FM33A0XX/UserCode\user_init.c **** 	RCC_PERCLK_SetableEx( RTCCLK, 		ENABLE );		//RTC总线时钟使能
 1952              		.loc 1 463 0
 1953 004a 0121     		movs	r1, #1
 1954 004c 4848     		ldr	r0, .L79+36
 1955 004e FFF7FEFF 		bl	RCC_PERCLK_SetableEx
 1956              	.LVL232:
 464:e:/LiteOS/LiteOS/targets/Cloud_FM33A0XX/GCC/../../../targets/Cloud_FM33A0XX/UserCode\user_init.c **** 	RCC_PERCLK_SetableEx( LPTFCLK, 		ENABLE );		//LPTIM功能时钟使能
 1957              		.loc 1 464 0
 1958 0052 0121     		movs	r1, #1
 1959 0054 4748     		ldr	r0, .L79+40
 1960 0056 FFF7FEFF 		bl	RCC_PERCLK_SetableEx
 1961              	.LVL233:
 465:e:/LiteOS/LiteOS/targets/Cloud_FM33A0XX/GCC/../../../targets/Cloud_FM33A0XX/UserCode\user_init.c **** 	RCC_PERCLK_SetableEx( LPTRCLK, 		ENABLE );		//LPTIM总线时钟使能
 1962              		.loc 1 465 0
 1963 005a 0121     		movs	r1, #1
 1964 005c 8020     		movs	r0, #128
 1965 005e 4004     		lsls	r0, r0, #17
 1966 0060 FFF7FEFF 		bl	RCC_PERCLK_SetableEx
 1967              	.LVL234:
 466:e:/LiteOS/LiteOS/targets/Cloud_FM33A0XX/GCC/../../../targets/Cloud_FM33A0XX/UserCode\user_init.c **** 				
 467:e:/LiteOS/LiteOS/targets/Cloud_FM33A0XX/GCC/../../../targets/Cloud_FM33A0XX/UserCode\user_init.c ****     //PERCLKCON2 SETTING
 468:e:/LiteOS/LiteOS/targets/Cloud_FM33A0XX/GCC/../../../targets/Cloud_FM33A0XX/UserCode\user_init.c **** 	RCC_PERCLK_SetableEx( ADCCLK, 		ENABLE );		//ADC时钟使能
 1968              		.loc 1 468 0
 1969 0064 0121     		movs	r1, #1
 1970 0066 4448     		ldr	r0, .L79+44
 1971 0068 FFF7FEFF 		bl	RCC_PERCLK_SetableEx
 1972              	.LVL235:
 469:e:/LiteOS/LiteOS/targets/Cloud_FM33A0XX/GCC/../../../targets/Cloud_FM33A0XX/UserCode\user_init.c **** 	RCC_PERCLK_SetableEx( WWDTCLK, 		ENABLE );		//WWDT时钟使能
 1973              		.loc 1 469 0
 1974 006c 0121     		movs	r1, #1
 1975 006e 4348     		ldr	r0, .L79+48
 1976 0070 FFF7FEFF 		bl	RCC_PERCLK_SetableEx
 1977              	.LVL236:
 470:e:/LiteOS/LiteOS/targets/Cloud_FM33A0XX/GCC/../../../targets/Cloud_FM33A0XX/UserCode\user_init.c **** 	RCC_PERCLK_SetableEx( RAMBISTCLK, 	DISABLE );		//RAMBIST时钟使能，建议关闭
 1978              		.loc 1 470 0
 1979 0074 0021     		movs	r1, #0
 1980 0076 4248     		ldr	r0, .L79+52
 1981 0078 FFF7FEFF 		bl	RCC_PERCLK_SetableEx
 1982              	.LVL237:
 471:e:/LiteOS/LiteOS/targets/Cloud_FM33A0XX/GCC/../../../targets/Cloud_FM33A0XX/UserCode\user_init.c **** 	RCC_PERCLK_SetableEx( FLSEPCLK, 	DISABLE );		//Flash擦写控制器时钟使能，用完就关
 1983              		.loc 1 471 0
 1984 007c 0021     		movs	r1, #0
 1985 007e 4148     		ldr	r0, .L79+56
 1986 0080 FFF7FEFF 		bl	RCC_PERCLK_SetableEx
 1987              	.LVL238:
 472:e:/LiteOS/LiteOS/targets/Cloud_FM33A0XX/GCC/../../../targets/Cloud_FM33A0XX/UserCode\user_init.c **** 	RCC_PERCLK_SetableEx( DMACLK, 		ENABLE );		//DMA时钟使能
 1988              		.loc 1 472 0
 1989 0084 0121     		movs	r1, #1
 1990 0086 4048     		ldr	r0, .L79+60
 1991 0088 FFF7FEFF 		bl	RCC_PERCLK_SetableEx
 1992              	.LVL239:
 473:e:/LiteOS/LiteOS/targets/Cloud_FM33A0XX/GCC/../../../targets/Cloud_FM33A0XX/UserCode\user_init.c **** 	RCC_PERCLK_SetableEx( LCDCLK, 		ENABLE );		//LCD时钟使能
 1993              		.loc 1 473 0
 1994 008c 0121     		movs	r1, #1
 1995 008e 3F48     		ldr	r0, .L79+64
 1996 0090 FFF7FEFF 		bl	RCC_PERCLK_SetableEx
ARM GAS  C:\Users\WANGBI~1\AppData\Local\Temp\ccbZtvog.s 			page 61


 1997              	.LVL240:
 474:e:/LiteOS/LiteOS/targets/Cloud_FM33A0XX/GCC/../../../targets/Cloud_FM33A0XX/UserCode\user_init.c **** 	RCC_PERCLK_SetableEx( AESCLK, 		ENABLE );		//AES时钟使能
 1998              		.loc 1 474 0
 1999 0094 0121     		movs	r1, #1
 2000 0096 3E48     		ldr	r0, .L79+68
 2001 0098 FFF7FEFF 		bl	RCC_PERCLK_SetableEx
 2002              	.LVL241:
 475:e:/LiteOS/LiteOS/targets/Cloud_FM33A0XX/GCC/../../../targets/Cloud_FM33A0XX/UserCode\user_init.c **** 	RCC_PERCLK_SetableEx( TRNGCLK, 		ENABLE );		//TRNG时钟使能
 2003              		.loc 1 475 0
 2004 009c 0121     		movs	r1, #1
 2005 009e 3D48     		ldr	r0, .L79+72
 2006 00a0 FFF7FEFF 		bl	RCC_PERCLK_SetableEx
 2007              	.LVL242:
 476:e:/LiteOS/LiteOS/targets/Cloud_FM33A0XX/GCC/../../../targets/Cloud_FM33A0XX/UserCode\user_init.c **** 	RCC_PERCLK_SetableEx( CRCCLK, 		ENABLE );		//CRC时钟使能
 2008              		.loc 1 476 0
 2009 00a4 0121     		movs	r1, #1
 2010 00a6 8020     		movs	r0, #128
 2011 00a8 8004     		lsls	r0, r0, #18
 2012 00aa FFF7FEFF 		bl	RCC_PERCLK_SetableEx
 2013              	.LVL243:
 477:e:/LiteOS/LiteOS/targets/Cloud_FM33A0XX/GCC/../../../targets/Cloud_FM33A0XX/UserCode\user_init.c **** 
 478:e:/LiteOS/LiteOS/targets/Cloud_FM33A0XX/GCC/../../../targets/Cloud_FM33A0XX/UserCode\user_init.c ****     //PERCLKCON3 SETTING
 479:e:/LiteOS/LiteOS/targets/Cloud_FM33A0XX/GCC/../../../targets/Cloud_FM33A0XX/UserCode\user_init.c **** 	RCC_PERCLK_SetableEx( I2CCLK, 		ENABLE );		//I2C时钟使能
 2014              		.loc 1 479 0
 2015 00ae 0121     		movs	r1, #1
 2016 00b0 3948     		ldr	r0, .L79+76
 2017 00b2 FFF7FEFF 		bl	RCC_PERCLK_SetableEx
 2018              	.LVL244:
 480:e:/LiteOS/LiteOS/targets/Cloud_FM33A0XX/GCC/../../../targets/Cloud_FM33A0XX/UserCode\user_init.c **** 	RCC_PERCLK_SetableEx( U7816CLK1, 	ENABLE );		//78161时钟使能
 2019              		.loc 1 480 0
 2020 00b6 0121     		movs	r1, #1
 2021 00b8 3848     		ldr	r0, .L79+80
 2022 00ba FFF7FEFF 		bl	RCC_PERCLK_SetableEx
 2023              	.LVL245:
 481:e:/LiteOS/LiteOS/targets/Cloud_FM33A0XX/GCC/../../../targets/Cloud_FM33A0XX/UserCode\user_init.c **** 	RCC_PERCLK_SetableEx( U7816CLK0, 	ENABLE );		//78160时钟使能
 2024              		.loc 1 481 0
 2025 00be 0121     		movs	r1, #1
 2026 00c0 3748     		ldr	r0, .L79+84
 2027 00c2 FFF7FEFF 		bl	RCC_PERCLK_SetableEx
 2028              	.LVL246:
 482:e:/LiteOS/LiteOS/targets/Cloud_FM33A0XX/GCC/../../../targets/Cloud_FM33A0XX/UserCode\user_init.c **** 	RCC_PERCLK_SetableEx( UARTCOMCLK, 	ENABLE );		//UART0~5共享寄存器时钟使能
 2029              		.loc 1 482 0
 2030 00c6 0121     		movs	r1, #1
 2031 00c8 3648     		ldr	r0, .L79+88
 2032 00ca FFF7FEFF 		bl	RCC_PERCLK_SetableEx
 2033              	.LVL247:
 483:e:/LiteOS/LiteOS/targets/Cloud_FM33A0XX/GCC/../../../targets/Cloud_FM33A0XX/UserCode\user_init.c **** 	RCC_PERCLK_SetableEx( UART5CLK, 	ENABLE );		//UART5时钟使能
 2034              		.loc 1 483 0
 2035 00ce 0121     		movs	r1, #1
 2036 00d0 3548     		ldr	r0, .L79+92
 2037 00d2 FFF7FEFF 		bl	RCC_PERCLK_SetableEx
 2038              	.LVL248:
 484:e:/LiteOS/LiteOS/targets/Cloud_FM33A0XX/GCC/../../../targets/Cloud_FM33A0XX/UserCode\user_init.c **** 	RCC_PERCLK_SetableEx( UART4CLK, 	ENABLE );		//UART4时钟使能
 2039              		.loc 1 484 0
 2040 00d6 0121     		movs	r1, #1
 2041 00d8 3448     		ldr	r0, .L79+96
 2042 00da FFF7FEFF 		bl	RCC_PERCLK_SetableEx
ARM GAS  C:\Users\WANGBI~1\AppData\Local\Temp\ccbZtvog.s 			page 62


 2043              	.LVL249:
 485:e:/LiteOS/LiteOS/targets/Cloud_FM33A0XX/GCC/../../../targets/Cloud_FM33A0XX/UserCode\user_init.c **** 	RCC_PERCLK_SetableEx( UART3CLK, 	ENABLE );		//UART3时钟使能
 2044              		.loc 1 485 0
 2045 00de 0121     		movs	r1, #1
 2046 00e0 3348     		ldr	r0, .L79+100
 2047 00e2 FFF7FEFF 		bl	RCC_PERCLK_SetableEx
 2048              	.LVL250:
 486:e:/LiteOS/LiteOS/targets/Cloud_FM33A0XX/GCC/../../../targets/Cloud_FM33A0XX/UserCode\user_init.c **** 	RCC_PERCLK_SetableEx( UART2CLK, 	ENABLE );		//UART2时钟使能
 2049              		.loc 1 486 0
 2050 00e6 0121     		movs	r1, #1
 2051 00e8 3248     		ldr	r0, .L79+104
 2052 00ea FFF7FEFF 		bl	RCC_PERCLK_SetableEx
 2053              	.LVL251:
 487:e:/LiteOS/LiteOS/targets/Cloud_FM33A0XX/GCC/../../../targets/Cloud_FM33A0XX/UserCode\user_init.c **** 	RCC_PERCLK_SetableEx( UART1CLK, 	ENABLE );		//UART1时钟使能
 2054              		.loc 1 487 0
 2055 00ee 0121     		movs	r1, #1
 2056 00f0 3148     		ldr	r0, .L79+108
 2057 00f2 FFF7FEFF 		bl	RCC_PERCLK_SetableEx
 2058              	.LVL252:
 488:e:/LiteOS/LiteOS/targets/Cloud_FM33A0XX/GCC/../../../targets/Cloud_FM33A0XX/UserCode\user_init.c **** 	RCC_PERCLK_SetableEx( UART0CLK, 	ENABLE );		//UART0时钟使能
 2059              		.loc 1 488 0
 2060 00f6 0121     		movs	r1, #1
 2061 00f8 3048     		ldr	r0, .L79+112
 2062 00fa FFF7FEFF 		bl	RCC_PERCLK_SetableEx
 2063              	.LVL253:
 489:e:/LiteOS/LiteOS/targets/Cloud_FM33A0XX/GCC/../../../targets/Cloud_FM33A0XX/UserCode\user_init.c **** 	RCC_PERCLK_SetableEx( HSPICLK, 		ENABLE );		//HSPI时钟使能
 2064              		.loc 1 489 0
 2065 00fe 0121     		movs	r1, #1
 2066 0100 2F48     		ldr	r0, .L79+116
 2067 0102 FFF7FEFF 		bl	RCC_PERCLK_SetableEx
 2068              	.LVL254:
 490:e:/LiteOS/LiteOS/targets/Cloud_FM33A0XX/GCC/../../../targets/Cloud_FM33A0XX/UserCode\user_init.c **** 	RCC_PERCLK_SetableEx( SPI2CLK, 		ENABLE );		//SPI2时钟使能
 2069              		.loc 1 490 0
 2070 0106 0121     		movs	r1, #1
 2071 0108 2E48     		ldr	r0, .L79+120
 2072 010a FFF7FEFF 		bl	RCC_PERCLK_SetableEx
 2073              	.LVL255:
 491:e:/LiteOS/LiteOS/targets/Cloud_FM33A0XX/GCC/../../../targets/Cloud_FM33A0XX/UserCode\user_init.c **** 	RCC_PERCLK_SetableEx( SPI1CLK, 		ENABLE );		//SPI1时钟使能
 2074              		.loc 1 491 0
 2075 010e 0121     		movs	r1, #1
 2076 0110 C020     		movs	r0, #192
 2077 0112 8004     		lsls	r0, r0, #18
 2078 0114 FFF7FEFF 		bl	RCC_PERCLK_SetableEx
 2079              	.LVL256:
 492:e:/LiteOS/LiteOS/targets/Cloud_FM33A0XX/GCC/../../../targets/Cloud_FM33A0XX/UserCode\user_init.c **** 
 493:e:/LiteOS/LiteOS/targets/Cloud_FM33A0XX/GCC/../../../targets/Cloud_FM33A0XX/UserCode\user_init.c ****     //PERCLKCON4 SETTING
 494:e:/LiteOS/LiteOS/targets/Cloud_FM33A0XX/GCC/../../../targets/Cloud_FM33A0XX/UserCode\user_init.c **** 	RCC_PERCLK_SetableEx( ET4CLK, 		ENABLE );		//ET4时钟使能
 2080              		.loc 1 494 0
 2081 0118 0121     		movs	r1, #1
 2082 011a 2B48     		ldr	r0, .L79+124
 2083 011c FFF7FEFF 		bl	RCC_PERCLK_SetableEx
 2084              	.LVL257:
 495:e:/LiteOS/LiteOS/targets/Cloud_FM33A0XX/GCC/../../../targets/Cloud_FM33A0XX/UserCode\user_init.c **** 	RCC_PERCLK_SetableEx( ET3CLK, 		ENABLE );		//ET3时钟使能
 2085              		.loc 1 495 0
 2086 0120 0121     		movs	r1, #1
 2087 0122 2A48     		ldr	r0, .L79+128
 2088 0124 FFF7FEFF 		bl	RCC_PERCLK_SetableEx
ARM GAS  C:\Users\WANGBI~1\AppData\Local\Temp\ccbZtvog.s 			page 63


 2089              	.LVL258:
 496:e:/LiteOS/LiteOS/targets/Cloud_FM33A0XX/GCC/../../../targets/Cloud_FM33A0XX/UserCode\user_init.c **** 	RCC_PERCLK_SetableEx( ET2CLK, 		ENABLE );		//ET2时钟使能
 2090              		.loc 1 496 0
 2091 0128 0121     		movs	r1, #1
 2092 012a 2948     		ldr	r0, .L79+132
 2093 012c FFF7FEFF 		bl	RCC_PERCLK_SetableEx
 2094              	.LVL259:
 497:e:/LiteOS/LiteOS/targets/Cloud_FM33A0XX/GCC/../../../targets/Cloud_FM33A0XX/UserCode\user_init.c **** 	RCC_PERCLK_SetableEx( ET1CLK, 		ENABLE );		//ET1时钟使能
 2095              		.loc 1 497 0
 2096 0130 0121     		movs	r1, #1
 2097 0132 2848     		ldr	r0, .L79+136
 2098 0134 FFF7FEFF 		bl	RCC_PERCLK_SetableEx
 2099              	.LVL260:
 498:e:/LiteOS/LiteOS/targets/Cloud_FM33A0XX/GCC/../../../targets/Cloud_FM33A0XX/UserCode\user_init.c **** 	RCC_PERCLK_SetableEx( BT2CLK, 		ENABLE );		//BT2时钟使能
 2100              		.loc 1 498 0
 2101 0138 0121     		movs	r1, #1
 2102 013a 2748     		ldr	r0, .L79+140
 2103 013c FFF7FEFF 		bl	RCC_PERCLK_SetableEx
 2104              	.LVL261:
 499:e:/LiteOS/LiteOS/targets/Cloud_FM33A0XX/GCC/../../../targets/Cloud_FM33A0XX/UserCode\user_init.c **** 	RCC_PERCLK_SetableEx( BT1CLK, 		ENABLE );		//BT1时钟使能
 2105              		.loc 1 499 0
 2106 0140 0121     		movs	r1, #1
 2107 0142 8020     		movs	r0, #128
 2108 0144 C004     		lsls	r0, r0, #19
 2109 0146 FFF7FEFF 		bl	RCC_PERCLK_SetableEx
 2110              	.LVL262:
 500:e:/LiteOS/LiteOS/targets/Cloud_FM33A0XX/GCC/../../../targets/Cloud_FM33A0XX/UserCode\user_init.c **** }
 2111              		.loc 1 500 0
 2112              		@ sp needed
 2113 014a 10BD     		pop	{r4, pc}
 2114              	.L80:
 2115              		.align	2
 2116              	.L79:
 2117 014c 1F000001 		.word	16777247
 2118 0150 0A000001 		.word	16777226
 2119 0154 09000001 		.word	16777225
 2120 0158 08000001 		.word	16777224
 2121 015c 07000001 		.word	16777223
 2122 0160 06000001 		.word	16777222
 2123 0164 05000001 		.word	16777221
 2124 0168 04000001 		.word	16777220
 2125 016c 03000001 		.word	16777219
 2126 0170 02000001 		.word	16777218
 2127 0174 01000001 		.word	16777217
 2128 0178 08000002 		.word	33554440
 2129 017c 07000002 		.word	33554439
 2130 0180 06000002 		.word	33554438
 2131 0184 05000002 		.word	33554437
 2132 0188 04000002 		.word	33554436
 2133 018c 03000002 		.word	33554435
 2134 0190 02000002 		.word	33554434
 2135 0194 01000002 		.word	33554433
 2136 0198 18000003 		.word	50331672
 2137 019c 11000003 		.word	50331665
 2138 01a0 10000003 		.word	50331664
 2139 01a4 0E000003 		.word	50331662
 2140 01a8 0D000003 		.word	50331661
ARM GAS  C:\Users\WANGBI~1\AppData\Local\Temp\ccbZtvog.s 			page 64


 2141 01ac 0C000003 		.word	50331660
 2142 01b0 0B000003 		.word	50331659
 2143 01b4 0A000003 		.word	50331658
 2144 01b8 09000003 		.word	50331657
 2145 01bc 08000003 		.word	50331656
 2146 01c0 02000003 		.word	50331650
 2147 01c4 01000003 		.word	50331649
 2148 01c8 05000004 		.word	67108869
 2149 01cc 04000004 		.word	67108868
 2150 01d0 03000004 		.word	67108867
 2151 01d4 02000004 		.word	67108866
 2152 01d8 01000004 		.word	67108865
 2153              		.cfi_endproc
 2154              	.LFE61:
 2156              		.section	.text.Init_PLL,"ax",%progbits
 2157              		.align	2
 2158              		.global	Init_PLL
 2159              		.code	16
 2160              		.thumb_func
 2162              	Init_PLL:
 2163              	.LFB62:
 501:e:/LiteOS/LiteOS/targets/Cloud_FM33A0XX/GCC/../../../targets/Cloud_FM33A0XX/UserCode\user_init.c **** 
 502:e:/LiteOS/LiteOS/targets/Cloud_FM33A0XX/GCC/../../../targets/Cloud_FM33A0XX/UserCode\user_init.c **** void Init_PLL(void)
 503:e:/LiteOS/LiteOS/targets/Cloud_FM33A0XX/GCC/../../../targets/Cloud_FM33A0XX/UserCode\user_init.c **** {
 2164              		.loc 1 503 0
 2165              		.cfi_startproc
 2166              		@ args = 0, pretend = 0, frame = 16
 2167              		@ frame_needed = 0, uses_anonymous_args = 0
 2168 0000 00B5     		push	{lr}
 2169              	.LCFI20:
 2170              		.cfi_def_cfa_offset 4
 2171              		.cfi_offset 14, -4
 2172 0002 85B0     		sub	sp, sp, #20
 2173              	.LCFI21:
 2174              		.cfi_def_cfa_offset 24
 504:e:/LiteOS/LiteOS/targets/Cloud_FM33A0XX/GCC/../../../targets/Cloud_FM33A0XX/UserCode\user_init.c **** 	RCC_PLL_InitTypeDef PLL_InitStruct;
 505:e:/LiteOS/LiteOS/targets/Cloud_FM33A0XX/GCC/../../../targets/Cloud_FM33A0XX/UserCode\user_init.c ****     
 506:e:/LiteOS/LiteOS/targets/Cloud_FM33A0XX/GCC/../../../targets/Cloud_FM33A0XX/UserCode\user_init.c **** 	PLL_InitStruct.PLLDB = 499;	//pll倍频数 = PLLDB + 1
 2175              		.loc 1 506 0
 2176 0004 F423     		movs	r3, #244
 2177 0006 FF33     		adds	r3, r3, #255
 2178 0008 0093     		str	r3, [sp]
 507:e:/LiteOS/LiteOS/targets/Cloud_FM33A0XX/GCC/../../../targets/Cloud_FM33A0XX/UserCode\user_init.c **** 	PLL_InitStruct.PLLINSEL = RCC_PLLCON_PLLINSEL_XTLF;	//PLL时钟源选择XTLF
 2179              		.loc 1 507 0
 2180 000a 0023     		movs	r3, #0
 2181 000c 0293     		str	r3, [sp, #8]
 508:e:/LiteOS/LiteOS/targets/Cloud_FM33A0XX/GCC/../../../targets/Cloud_FM33A0XX/UserCode\user_init.c **** 	PLL_InitStruct.PLLOSEL = RCC_PLLCON_PLLOSEL_MUL1;	//默认选择1倍输出，当超出PLLDB的1023时，可使用2
 2182              		.loc 1 508 0
 2183 000e 0193     		str	r3, [sp, #4]
 509:e:/LiteOS/LiteOS/targets/Cloud_FM33A0XX/GCC/../../../targets/Cloud_FM33A0XX/UserCode\user_init.c **** 	PLL_InitStruct.PLLEN = DISABLE;	//默认关闭PLL
 2184              		.loc 1 509 0
 2185 0010 6A46     		mov	r2, sp
 2186 0012 1373     		strb	r3, [r2, #12]
 510:e:/LiteOS/LiteOS/targets/Cloud_FM33A0XX/GCC/../../../targets/Cloud_FM33A0XX/UserCode\user_init.c **** 	
 511:e:/LiteOS/LiteOS/targets/Cloud_FM33A0XX/GCC/../../../targets/Cloud_FM33A0XX/UserCode\user_init.c **** 	RCC_PLL_Init(&PLL_InitStruct);
 2187              		.loc 1 511 0
 2188 0014 6846     		mov	r0, sp
ARM GAS  C:\Users\WANGBI~1\AppData\Local\Temp\ccbZtvog.s 			page 65


 2189 0016 FFF7FEFF 		bl	RCC_PLL_Init
 2190              	.LVL263:
 512:e:/LiteOS/LiteOS/targets/Cloud_FM33A0XX/GCC/../../../targets/Cloud_FM33A0XX/UserCode\user_init.c **** 	RCC_PLLCON_PLLEN_Setable(DISABLE);//关闭PLL
 2191              		.loc 1 512 0
 2192 001a 0020     		movs	r0, #0
 2193 001c FFF7FEFF 		bl	RCC_PLLCON_PLLEN_Setable
 2194              	.LVL264:
 513:e:/LiteOS/LiteOS/targets/Cloud_FM33A0XX/GCC/../../../targets/Cloud_FM33A0XX/UserCode\user_init.c **** }
 2195              		.loc 1 513 0
 2196 0020 05B0     		add	sp, sp, #20
 2197              		@ sp needed
 2198 0022 00BD     		pop	{pc}
 2199              		.cfi_endproc
 2200              	.LFE62:
 2202              		.section	.text.Init_SysClk,"ax",%progbits
 2203              		.align	2
 2204              		.global	Init_SysClk
 2205              		.code	16
 2206              		.thumb_func
 2208              	Init_SysClk:
 2209              	.LFB63:
 514:e:/LiteOS/LiteOS/targets/Cloud_FM33A0XX/GCC/../../../targets/Cloud_FM33A0XX/UserCode\user_init.c **** 
 515:e:/LiteOS/LiteOS/targets/Cloud_FM33A0XX/GCC/../../../targets/Cloud_FM33A0XX/UserCode\user_init.c **** //系统时钟配置
 516:e:/LiteOS/LiteOS/targets/Cloud_FM33A0XX/GCC/../../../targets/Cloud_FM33A0XX/UserCode\user_init.c **** //使用RCHF做主时钟,define_all.h 中SYSCLKdef宏控制系统时钟频率
 517:e:/LiteOS/LiteOS/targets/Cloud_FM33A0XX/GCC/../../../targets/Cloud_FM33A0XX/UserCode\user_init.c **** void Init_SysClk(void)
 518:e:/LiteOS/LiteOS/targets/Cloud_FM33A0XX/GCC/../../../targets/Cloud_FM33A0XX/UserCode\user_init.c **** {
 2210              		.loc 1 518 0
 2211              		.cfi_startproc
 2212              		@ args = 0, pretend = 0, frame = 32
 2213              		@ frame_needed = 0, uses_anonymous_args = 0
 2214 0000 30B5     		push	{r4, r5, lr}
 2215              	.LCFI22:
 2216              		.cfi_def_cfa_offset 12
 2217              		.cfi_offset 4, -12
 2218              		.cfi_offset 5, -8
 2219              		.cfi_offset 14, -4
 2220 0002 89B0     		sub	sp, sp, #36
 2221              	.LCFI23:
 2222              		.cfi_def_cfa_offset 48
 519:e:/LiteOS/LiteOS/targets/Cloud_FM33A0XX/GCC/../../../targets/Cloud_FM33A0XX/UserCode\user_init.c **** 	RCC_RCHF_InitTypeDef RCHF_InitStruct;
 520:e:/LiteOS/LiteOS/targets/Cloud_FM33A0XX/GCC/../../../targets/Cloud_FM33A0XX/UserCode\user_init.c **** 	RCC_SYSCLK_InitTypeDef SYSCLK_InitStruct;
 521:e:/LiteOS/LiteOS/targets/Cloud_FM33A0XX/GCC/../../../targets/Cloud_FM33A0XX/UserCode\user_init.c **** 	
 522:e:/LiteOS/LiteOS/targets/Cloud_FM33A0XX/GCC/../../../targets/Cloud_FM33A0XX/UserCode\user_init.c **** 	RCHF_InitStruct.FSEL = SYSCLKdef;//define_all.h 中SYSCLKdef宏控制系统时钟频率
 2223              		.loc 1 522 0
 2224 0004 06A8     		add	r0, sp, #24
 2225 0006 0024     		movs	r4, #0
 2226 0008 0694     		str	r4, [sp, #24]
 523:e:/LiteOS/LiteOS/targets/Cloud_FM33A0XX/GCC/../../../targets/Cloud_FM33A0XX/UserCode\user_init.c **** 	RCHF_InitStruct.RCHFEN = ENABLE;//打开RCHF
 2227              		.loc 1 523 0
 2228 000a 0125     		movs	r5, #1
 2229 000c 0571     		strb	r5, [r0, #4]
 524:e:/LiteOS/LiteOS/targets/Cloud_FM33A0XX/GCC/../../../targets/Cloud_FM33A0XX/UserCode\user_init.c **** 	
 525:e:/LiteOS/LiteOS/targets/Cloud_FM33A0XX/GCC/../../../targets/Cloud_FM33A0XX/UserCode\user_init.c **** 	RCC_RCHF_Init(&RCHF_InitStruct);
 2230              		.loc 1 525 0
 2231 000e FFF7FEFF 		bl	RCC_RCHF_Init
 2232              	.LVL265:
 526:e:/LiteOS/LiteOS/targets/Cloud_FM33A0XX/GCC/../../../targets/Cloud_FM33A0XX/UserCode\user_init.c **** 	
ARM GAS  C:\Users\WANGBI~1\AppData\Local\Temp\ccbZtvog.s 			page 66


 527:e:/LiteOS/LiteOS/targets/Cloud_FM33A0XX/GCC/../../../targets/Cloud_FM33A0XX/UserCode\user_init.c **** 	SYSCLK_InitStruct.SYSCLKSEL = RCC_SYSCLKSEL_SYSCLKSEL_RCHF;	//选择RCHF做主时钟
 2233              		.loc 1 527 0
 2234 0012 01A8     		add	r0, sp, #4
 2235 0014 0194     		str	r4, [sp, #4]
 528:e:/LiteOS/LiteOS/targets/Cloud_FM33A0XX/GCC/../../../targets/Cloud_FM33A0XX/UserCode\user_init.c **** 	SYSCLK_InitStruct.AHBPRES = RCC_SYSCLKSEL_AHBPRES_DIV1;		//AHB不分频
 2236              		.loc 1 528 0
 2237 0016 4460     		str	r4, [r0, #4]
 529:e:/LiteOS/LiteOS/targets/Cloud_FM33A0XX/GCC/../../../targets/Cloud_FM33A0XX/UserCode\user_init.c **** 	SYSCLK_InitStruct.APBPRES = RCC_SYSCLKSEL_APBPRES_DIV1;		//APB不分频
 2238              		.loc 1 529 0
 2239 0018 8460     		str	r4, [r0, #8]
 530:e:/LiteOS/LiteOS/targets/Cloud_FM33A0XX/GCC/../../../targets/Cloud_FM33A0XX/UserCode\user_init.c **** 	SYSCLK_InitStruct.EXTICKSEL = RCC_SYSCLKSEL_EXTICKSEL_AHBCLK;	//EXTI,数字滤波时钟使用AHB时钟
 2240              		.loc 1 530 0
 2241 001a C460     		str	r4, [r0, #12]
 531:e:/LiteOS/LiteOS/targets/Cloud_FM33A0XX/GCC/../../../targets/Cloud_FM33A0XX/UserCode\user_init.c **** 	SYSCLK_InitStruct.SLP_ENEXTI = ENABLE;//休眠模式使能外部中断采样
 2242              		.loc 1 531 0
 2243 001c 0574     		strb	r5, [r0, #16]
 532:e:/LiteOS/LiteOS/targets/Cloud_FM33A0XX/GCC/../../../targets/Cloud_FM33A0XX/UserCode\user_init.c **** 	SYSCLK_InitStruct.LPM_RCLP_OFF = DISABLE;//休眠模式下开启RCLP	
 2244              		.loc 1 532 0
 2245 001e 4474     		strb	r4, [r0, #17]
 533:e:/LiteOS/LiteOS/targets/Cloud_FM33A0XX/GCC/../../../targets/Cloud_FM33A0XX/UserCode\user_init.c **** 	
 534:e:/LiteOS/LiteOS/targets/Cloud_FM33A0XX/GCC/../../../targets/Cloud_FM33A0XX/UserCode\user_init.c **** 	RCC_SysClk_Init(&SYSCLK_InitStruct);
 2246              		.loc 1 534 0
 2247 0020 FFF7FEFF 		bl	RCC_SysClk_Init
 2248              	.LVL266:
 535:e:/LiteOS/LiteOS/targets/Cloud_FM33A0XX/GCC/../../../targets/Cloud_FM33A0XX/UserCode\user_init.c **** }
 2249              		.loc 1 535 0
 2250 0024 09B0     		add	sp, sp, #36
 2251              		@ sp needed
 2252 0026 30BD     		pop	{r4, r5, pc}
 2253              		.cfi_endproc
 2254              	.LFE63:
 2256              		.section	.text.SCU_Init,"ax",%progbits
 2257              		.align	2
 2258              		.global	SCU_Init
 2259              		.code	16
 2260              		.thumb_func
 2262              	SCU_Init:
 2263              	.LFB64:
 536:e:/LiteOS/LiteOS/targets/Cloud_FM33A0XX/GCC/../../../targets/Cloud_FM33A0XX/UserCode\user_init.c **** 
 537:e:/LiteOS/LiteOS/targets/Cloud_FM33A0XX/GCC/../../../targets/Cloud_FM33A0XX/UserCode\user_init.c **** //Mode:0 仿真模式下运行看门狗，运行所有定时器
 538:e:/LiteOS/LiteOS/targets/Cloud_FM33A0XX/GCC/../../../targets/Cloud_FM33A0XX/UserCode\user_init.c **** //Mode:1 仿真模式关闭看门狗，运行所有定时器
 539:e:/LiteOS/LiteOS/targets/Cloud_FM33A0XX/GCC/../../../targets/Cloud_FM33A0XX/UserCode\user_init.c **** void SCU_Init(uint08 Mode)
 540:e:/LiteOS/LiteOS/targets/Cloud_FM33A0XX/GCC/../../../targets/Cloud_FM33A0XX/UserCode\user_init.c **** {
 2264              		.loc 1 540 0
 2265              		.cfi_startproc
 2266              		@ args = 0, pretend = 0, frame = 0
 2267              		@ frame_needed = 0, uses_anonymous_args = 0
 2268              	.LVL267:
 2269 0000 10B5     		push	{r4, lr}
 2270              	.LCFI24:
 2271              		.cfi_def_cfa_offset 8
 2272              		.cfi_offset 4, -8
 2273              		.cfi_offset 14, -4
 541:e:/LiteOS/LiteOS/targets/Cloud_FM33A0XX/GCC/../../../targets/Cloud_FM33A0XX/UserCode\user_init.c **** 	if(Mode == 1)//debug
 2274              		.loc 1 541 0
 2275 0002 0128     		cmp	r0, #1
 2276 0004 05D1     		bne	.L84
ARM GAS  C:\Users\WANGBI~1\AppData\Local\Temp\ccbZtvog.s 			page 67


 542:e:/LiteOS/LiteOS/targets/Cloud_FM33A0XX/GCC/../../../targets/Cloud_FM33A0XX/UserCode\user_init.c **** 	{
 543:e:/LiteOS/LiteOS/targets/Cloud_FM33A0XX/GCC/../../../targets/Cloud_FM33A0XX/UserCode\user_init.c **** 		SCU_MCUDBGCR_DBG_WWDT_STOP_Setable(ENABLE);//仿真模式下关闭WWDT
 2277              		.loc 1 543 0
 2278 0006 FFF7FEFF 		bl	SCU_MCUDBGCR_DBG_WWDT_STOP_Setable
 2279              	.LVL268:
 544:e:/LiteOS/LiteOS/targets/Cloud_FM33A0XX/GCC/../../../targets/Cloud_FM33A0XX/UserCode\user_init.c **** 		SCU_MCUDBGCR_DBG_IWDT_STOP_Setable(ENABLE);//仿真模式下关闭IWDT
 2280              		.loc 1 544 0
 2281 000a 0120     		movs	r0, #1
 2282 000c FFF7FEFF 		bl	SCU_MCUDBGCR_DBG_IWDT_STOP_Setable
 2283              	.LVL269:
 2284 0010 05E0     		b	.L85
 2285              	.LVL270:
 2286              	.L84:
 545:e:/LiteOS/LiteOS/targets/Cloud_FM33A0XX/GCC/../../../targets/Cloud_FM33A0XX/UserCode\user_init.c **** 	}
 546:e:/LiteOS/LiteOS/targets/Cloud_FM33A0XX/GCC/../../../targets/Cloud_FM33A0XX/UserCode\user_init.c **** 	else//release
 547:e:/LiteOS/LiteOS/targets/Cloud_FM33A0XX/GCC/../../../targets/Cloud_FM33A0XX/UserCode\user_init.c **** 	{
 548:e:/LiteOS/LiteOS/targets/Cloud_FM33A0XX/GCC/../../../targets/Cloud_FM33A0XX/UserCode\user_init.c **** 		SCU_MCUDBGCR_DBG_WWDT_STOP_Setable(DISABLE);//仿真模式下运行WWDT
 2287              		.loc 1 548 0
 2288 0012 0020     		movs	r0, #0
 2289              	.LVL271:
 2290 0014 FFF7FEFF 		bl	SCU_MCUDBGCR_DBG_WWDT_STOP_Setable
 2291              	.LVL272:
 549:e:/LiteOS/LiteOS/targets/Cloud_FM33A0XX/GCC/../../../targets/Cloud_FM33A0XX/UserCode\user_init.c **** 		SCU_MCUDBGCR_DBG_IWDT_STOP_Setable(DISABLE);//仿真模式下运行IWDT
 2292              		.loc 1 549 0
 2293 0018 0020     		movs	r0, #0
 2294 001a FFF7FEFF 		bl	SCU_MCUDBGCR_DBG_IWDT_STOP_Setable
 2295              	.LVL273:
 2296              	.L85:
 550:e:/LiteOS/LiteOS/targets/Cloud_FM33A0XX/GCC/../../../targets/Cloud_FM33A0XX/UserCode\user_init.c **** 	}
 551:e:/LiteOS/LiteOS/targets/Cloud_FM33A0XX/GCC/../../../targets/Cloud_FM33A0XX/UserCode\user_init.c **** 	
 552:e:/LiteOS/LiteOS/targets/Cloud_FM33A0XX/GCC/../../../targets/Cloud_FM33A0XX/UserCode\user_init.c **** 	SCU_MCUDBGCR_DBG_ET4_STOP_Setable(DISABLE);//仿真模式下运行ET4
 2297              		.loc 1 552 0
 2298 001e 0020     		movs	r0, #0
 2299 0020 FFF7FEFF 		bl	SCU_MCUDBGCR_DBG_ET4_STOP_Setable
 2300              	.LVL274:
 553:e:/LiteOS/LiteOS/targets/Cloud_FM33A0XX/GCC/../../../targets/Cloud_FM33A0XX/UserCode\user_init.c **** 	SCU_MCUDBGCR_DBG_ET3_STOP_Setable(DISABLE);//仿真模式下运行ET3
 2301              		.loc 1 553 0
 2302 0024 0020     		movs	r0, #0
 2303 0026 FFF7FEFF 		bl	SCU_MCUDBGCR_DBG_ET3_STOP_Setable
 2304              	.LVL275:
 554:e:/LiteOS/LiteOS/targets/Cloud_FM33A0XX/GCC/../../../targets/Cloud_FM33A0XX/UserCode\user_init.c **** 	SCU_MCUDBGCR_DBG_ET2_STOP_Setable(DISABLE);//仿真模式下运行ET2
 2305              		.loc 1 554 0
 2306 002a 0020     		movs	r0, #0
 2307 002c FFF7FEFF 		bl	SCU_MCUDBGCR_DBG_ET2_STOP_Setable
 2308              	.LVL276:
 555:e:/LiteOS/LiteOS/targets/Cloud_FM33A0XX/GCC/../../../targets/Cloud_FM33A0XX/UserCode\user_init.c **** 	SCU_MCUDBGCR_DBG_ET1_STOP_Setable(DISABLE);//仿真模式下运行ET1
 2309              		.loc 1 555 0
 2310 0030 0020     		movs	r0, #0
 2311 0032 FFF7FEFF 		bl	SCU_MCUDBGCR_DBG_ET1_STOP_Setable
 2312              	.LVL277:
 556:e:/LiteOS/LiteOS/targets/Cloud_FM33A0XX/GCC/../../../targets/Cloud_FM33A0XX/UserCode\user_init.c **** 	SCU_MCUDBGCR_DBG_BT2_STOP_Setable(DISABLE);//仿真模式下运行BT2
 2313              		.loc 1 556 0
 2314 0036 0020     		movs	r0, #0
 2315 0038 FFF7FEFF 		bl	SCU_MCUDBGCR_DBG_BT2_STOP_Setable
 2316              	.LVL278:
 557:e:/LiteOS/LiteOS/targets/Cloud_FM33A0XX/GCC/../../../targets/Cloud_FM33A0XX/UserCode\user_init.c **** 	SCU_MCUDBGCR_DBG_BT1_STOP_Setable(DISABLE);//仿真模式下运行BT1
 2317              		.loc 1 557 0
ARM GAS  C:\Users\WANGBI~1\AppData\Local\Temp\ccbZtvog.s 			page 68


 2318 003c 0020     		movs	r0, #0
 2319 003e FFF7FEFF 		bl	SCU_MCUDBGCR_DBG_BT1_STOP_Setable
 2320              	.LVL279:
 558:e:/LiteOS/LiteOS/targets/Cloud_FM33A0XX/GCC/../../../targets/Cloud_FM33A0XX/UserCode\user_init.c **** }
 2321              		.loc 1 558 0
 2322              		@ sp needed
 2323 0042 10BD     		pop	{r4, pc}
 2324              		.cfi_endproc
 2325              	.LFE64:
 2327              		.section	.text.Init_SysClk_Gen,"ax",%progbits
 2328              		.align	2
 2329              		.global	Init_SysClk_Gen
 2330              		.code	16
 2331              		.thumb_func
 2333              	Init_SysClk_Gen:
 2334              	.LFB65:
 559:e:/LiteOS/LiteOS/targets/Cloud_FM33A0XX/GCC/../../../targets/Cloud_FM33A0XX/UserCode\user_init.c **** 
 560:e:/LiteOS/LiteOS/targets/Cloud_FM33A0XX/GCC/../../../targets/Cloud_FM33A0XX/UserCode\user_init.c **** void Init_SysClk_Gen( void )				//时钟选择相关
 561:e:/LiteOS/LiteOS/targets/Cloud_FM33A0XX/GCC/../../../targets/Cloud_FM33A0XX/UserCode\user_init.c **** {	
 2335              		.loc 1 561 0
 2336              		.cfi_startproc
 2337              		@ args = 0, pretend = 0, frame = 0
 2338              		@ frame_needed = 0, uses_anonymous_args = 0
 2339 0000 10B5     		push	{r4, lr}
 2340              	.LCFI25:
 2341              		.cfi_def_cfa_offset 8
 2342              		.cfi_offset 4, -8
 2343              		.cfi_offset 14, -4
 562:e:/LiteOS/LiteOS/targets/Cloud_FM33A0XX/GCC/../../../targets/Cloud_FM33A0XX/UserCode\user_init.c **** 	
 563:e:/LiteOS/LiteOS/targets/Cloud_FM33A0XX/GCC/../../../targets/Cloud_FM33A0XX/UserCode\user_init.c **** 	/*系统时钟超过24M后需要打开wait1*/
 564:e:/LiteOS/LiteOS/targets/Cloud_FM33A0XX/GCC/../../../targets/Cloud_FM33A0XX/UserCode\user_init.c **** 	if( RCHFCLKCFG >= 24 ) FLASH_FLSRDCON_WAIT_Set(FLASH_FLSRDCON_WAIT_1CYCLE);
 565:e:/LiteOS/LiteOS/targets/Cloud_FM33A0XX/GCC/../../../targets/Cloud_FM33A0XX/UserCode\user_init.c **** 	else FLASH_FLSRDCON_WAIT_Set(FLASH_FLSRDCON_WAIT_0CYCLE);	
 2344              		.loc 1 565 0
 2345 0002 0020     		movs	r0, #0
 2346 0004 FFF7FEFF 		bl	FLASH_FLSRDCON_WAIT_Set
 2347              	.LVL280:
 566:e:/LiteOS/LiteOS/targets/Cloud_FM33A0XX/GCC/../../../targets/Cloud_FM33A0XX/UserCode\user_init.c **** 	
 567:e:/LiteOS/LiteOS/targets/Cloud_FM33A0XX/GCC/../../../targets/Cloud_FM33A0XX/UserCode\user_init.c **** 	/*PLL配置*/
 568:e:/LiteOS/LiteOS/targets/Cloud_FM33A0XX/GCC/../../../targets/Cloud_FM33A0XX/UserCode\user_init.c **** 	Init_PLL();	//默认关闭PLL
 2348              		.loc 1 568 0
 2349 0008 FFF7FEFF 		bl	Init_PLL
 2350              	.LVL281:
 569:e:/LiteOS/LiteOS/targets/Cloud_FM33A0XX/GCC/../../../targets/Cloud_FM33A0XX/UserCode\user_init.c **** 	
 570:e:/LiteOS/LiteOS/targets/Cloud_FM33A0XX/GCC/../../../targets/Cloud_FM33A0XX/UserCode\user_init.c **** 	/*系统时钟配置*/
 571:e:/LiteOS/LiteOS/targets/Cloud_FM33A0XX/GCC/../../../targets/Cloud_FM33A0XX/UserCode\user_init.c **** 	Init_SysClk();	//默认使用RCHF做主时钟
 2351              		.loc 1 571 0
 2352 000c FFF7FEFF 		bl	Init_SysClk
 2353              	.LVL282:
 572:e:/LiteOS/LiteOS/targets/Cloud_FM33A0XX/GCC/../../../targets/Cloud_FM33A0XX/UserCode\user_init.c **** 	
 573:e:/LiteOS/LiteOS/targets/Cloud_FM33A0XX/GCC/../../../targets/Cloud_FM33A0XX/UserCode\user_init.c **** 	/*外设时钟使能配置*/	
 574:e:/LiteOS/LiteOS/targets/Cloud_FM33A0XX/GCC/../../../targets/Cloud_FM33A0XX/UserCode\user_init.c **** 	Init_RCC_PERIPH_clk();	//默认开启大部分外设时钟
 2354              		.loc 1 574 0
 2355 0010 FFF7FEFF 		bl	Init_RCC_PERIPH_clk
 2356              	.LVL283:
 575:e:/LiteOS/LiteOS/targets/Cloud_FM33A0XX/GCC/../../../targets/Cloud_FM33A0XX/UserCode\user_init.c **** 	
 576:e:/LiteOS/LiteOS/targets/Cloud_FM33A0XX/GCC/../../../targets/Cloud_FM33A0XX/UserCode\user_init.c **** 	/*DMA访问RAM优先级配置*/
 577:e:/LiteOS/LiteOS/targets/Cloud_FM33A0XX/GCC/../../../targets/Cloud_FM33A0XX/UserCode\user_init.c **** 	RCC_MPRIL_MPRIL_Set(RCC_MPRIL_MPRIL_DMA);	//默认AHB Master优先级配置DMA优先
ARM GAS  C:\Users\WANGBI~1\AppData\Local\Temp\ccbZtvog.s 			page 69


 2357              		.loc 1 577 0
 2358 0014 0020     		movs	r0, #0
 2359 0016 FFF7FEFF 		bl	RCC_MPRIL_MPRIL_Set
 2360              	.LVL284:
 578:e:/LiteOS/LiteOS/targets/Cloud_FM33A0XX/GCC/../../../targets/Cloud_FM33A0XX/UserCode\user_init.c **** 	
 579:e:/LiteOS/LiteOS/targets/Cloud_FM33A0XX/GCC/../../../targets/Cloud_FM33A0XX/UserCode\user_init.c **** 	
 580:e:/LiteOS/LiteOS/targets/Cloud_FM33A0XX/GCC/../../../targets/Cloud_FM33A0XX/UserCode\user_init.c **** 	/*下电复位配置*/
 581:e:/LiteOS/LiteOS/targets/Cloud_FM33A0XX/GCC/../../../targets/Cloud_FM33A0XX/UserCode\user_init.c **** 	//pdr和bor两个下电复位至少要打开一个
 582:e:/LiteOS/LiteOS/targets/Cloud_FM33A0XX/GCC/../../../targets/Cloud_FM33A0XX/UserCode\user_init.c **** 	//当电源电压低于下电复位电压时，芯片会被复位住		
 583:e:/LiteOS/LiteOS/targets/Cloud_FM33A0XX/GCC/../../../targets/Cloud_FM33A0XX/UserCode\user_init.c **** 	//pdr电压档位不准但是功耗极低（几乎无法测量）
 584:e:/LiteOS/LiteOS/targets/Cloud_FM33A0XX/GCC/../../../targets/Cloud_FM33A0XX/UserCode\user_init.c **** 	//bor电压档位准确但是需要增加2uA功耗
 585:e:/LiteOS/LiteOS/targets/Cloud_FM33A0XX/GCC/../../../targets/Cloud_FM33A0XX/UserCode\user_init.c **** 	ANAC_PDRCON_PDRCFG_Set(ENABLE);		//打开PDR
 2361              		.loc 1 585 0
 2362 001a 0120     		movs	r0, #1
 2363 001c FFF7FEFF 		bl	ANAC_PDRCON_PDRCFG_Set
 2364              	.LVL285:
 586:e:/LiteOS/LiteOS/targets/Cloud_FM33A0XX/GCC/../../../targets/Cloud_FM33A0XX/UserCode\user_init.c **** 	ANAC_PDRCON_PDREN_Setable(ENABLE);	//打开BOR
 2365              		.loc 1 586 0
 2366 0020 0120     		movs	r0, #1
 2367 0022 FFF7FEFF 		bl	ANAC_PDRCON_PDREN_Setable
 2368              	.LVL286:
 587:e:/LiteOS/LiteOS/targets/Cloud_FM33A0XX/GCC/../../../targets/Cloud_FM33A0XX/UserCode\user_init.c **** 	
 588:e:/LiteOS/LiteOS/targets/Cloud_FM33A0XX/GCC/../../../targets/Cloud_FM33A0XX/UserCode\user_init.c **** 	/*仿真控制寄存器配置*/
 589:e:/LiteOS/LiteOS/targets/Cloud_FM33A0XX/GCC/../../../targets/Cloud_FM33A0XX/UserCode\user_init.c **** 	#ifdef __DEBUG
 590:e:/LiteOS/LiteOS/targets/Cloud_FM33A0XX/GCC/../../../targets/Cloud_FM33A0XX/UserCode\user_init.c **** 	SCU_Init(1);//仿真时运行定时器,关闭看门狗
 591:e:/LiteOS/LiteOS/targets/Cloud_FM33A0XX/GCC/../../../targets/Cloud_FM33A0XX/UserCode\user_init.c **** 	#else
 592:e:/LiteOS/LiteOS/targets/Cloud_FM33A0XX/GCC/../../../targets/Cloud_FM33A0XX/UserCode\user_init.c **** 	SCU_Init(0);
 2369              		.loc 1 592 0
 2370 0026 0020     		movs	r0, #0
 2371 0028 FFF7FEFF 		bl	SCU_Init
 2372              	.LVL287:
 593:e:/LiteOS/LiteOS/targets/Cloud_FM33A0XX/GCC/../../../targets/Cloud_FM33A0XX/UserCode\user_init.c **** 	#endif
 594:e:/LiteOS/LiteOS/targets/Cloud_FM33A0XX/GCC/../../../targets/Cloud_FM33A0XX/UserCode\user_init.c **** }
 2373              		.loc 1 594 0
 2374              		@ sp needed
 2375 002c 10BD     		pop	{r4, pc}
 2376              		.cfi_endproc
 2377              	.LFE65:
 2379 002e C046     		.section	.text.IWDT_Init,"ax",%progbits
 2380              		.align	2
 2381              		.global	IWDT_Init
 2382              		.code	16
 2383              		.thumb_func
 2385              	IWDT_Init:
 2386              	.LFB66:
 595:e:/LiteOS/LiteOS/targets/Cloud_FM33A0XX/GCC/../../../targets/Cloud_FM33A0XX/UserCode\user_init.c **** 
 596:e:/LiteOS/LiteOS/targets/Cloud_FM33A0XX/GCC/../../../targets/Cloud_FM33A0XX/UserCode\user_init.c **** void IWDT_Init(void)
 597:e:/LiteOS/LiteOS/targets/Cloud_FM33A0XX/GCC/../../../targets/Cloud_FM33A0XX/UserCode\user_init.c **** {
 2387              		.loc 1 597 0
 2388              		.cfi_startproc
 2389              		@ args = 0, pretend = 0, frame = 0
 2390              		@ frame_needed = 0, uses_anonymous_args = 0
 2391 0000 10B5     		push	{r4, lr}
 2392              	.LCFI26:
 2393              		.cfi_def_cfa_offset 8
 2394              		.cfi_offset 4, -8
 2395              		.cfi_offset 14, -4
ARM GAS  C:\Users\WANGBI~1\AppData\Local\Temp\ccbZtvog.s 			page 70


 598:e:/LiteOS/LiteOS/targets/Cloud_FM33A0XX/GCC/../../../targets/Cloud_FM33A0XX/UserCode\user_init.c **** 	RCC_PERCLK_SetableEx(IWDTCLK, ENABLE);		//IWDT总线时钟使能
 2396              		.loc 1 598 0
 2397 0002 0121     		movs	r1, #1
 2398 0004 0548     		ldr	r0, .L88
 2399 0006 FFF7FEFF 		bl	RCC_PERCLK_SetableEx
 2400              	.LVL288:
 599:e:/LiteOS/LiteOS/targets/Cloud_FM33A0XX/GCC/../../../targets/Cloud_FM33A0XX/UserCode\user_init.c **** 	IWDT_Clr();									//清IWDT
 2401              		.loc 1 599 0
 2402 000a FFF7FEFF 		bl	IWDT_Clr
 2403              	.LVL289:
 600:e:/LiteOS/LiteOS/targets/Cloud_FM33A0XX/GCC/../../../targets/Cloud_FM33A0XX/UserCode\user_init.c **** 	IWDT_IWDTCFG_IWDTOVP_Set(IWDT_IWDTCFG_IWDTOVP_2s);//配置IWDT溢出周期
 2404              		.loc 1 600 0
 2405 000e 0220     		movs	r0, #2
 2406 0010 FFF7FEFF 		bl	IWDT_IWDTCFG_IWDTOVP_Set
 2407              	.LVL290:
 601:e:/LiteOS/LiteOS/targets/Cloud_FM33A0XX/GCC/../../../targets/Cloud_FM33A0XX/UserCode\user_init.c **** 	IWDT_IWDTCFG_IWDTSLP4096S_Setable(DISABLE);	//配置休眠时是否启用4096s长周期
 2408              		.loc 1 601 0
 2409 0014 0020     		movs	r0, #0
 2410 0016 FFF7FEFF 		bl	IWDT_IWDTCFG_IWDTSLP4096S_Setable
 2411              	.LVL291:
 602:e:/LiteOS/LiteOS/targets/Cloud_FM33A0XX/GCC/../../../targets/Cloud_FM33A0XX/UserCode\user_init.c **** }
 2412              		.loc 1 602 0
 2413              		@ sp needed
 2414 001a 10BD     		pop	{r4, pc}
 2415              	.L89:
 2416              		.align	2
 2417              	.L88:
 2418 001c 05000001 		.word	16777221
 2419              		.cfi_endproc
 2420              	.LFE66:
 2422              		.section	.text.Init_IO,"ax",%progbits
 2423              		.align	2
 2424              		.global	Init_IO
 2425              		.code	16
 2426              		.thumb_func
 2428              	Init_IO:
 2429              	.LFB67:
 603:e:/LiteOS/LiteOS/targets/Cloud_FM33A0XX/GCC/../../../targets/Cloud_FM33A0XX/UserCode\user_init.c **** 
 604:e:/LiteOS/LiteOS/targets/Cloud_FM33A0XX/GCC/../../../targets/Cloud_FM33A0XX/UserCode\user_init.c **** void Init_IO(void)
 605:e:/LiteOS/LiteOS/targets/Cloud_FM33A0XX/GCC/../../../targets/Cloud_FM33A0XX/UserCode\user_init.c **** {
 2430              		.loc 1 605 0
 2431              		.cfi_startproc
 2432              		@ args = 0, pretend = 0, frame = 0
 2433              		@ frame_needed = 0, uses_anonymous_args = 0
 2434 0000 10B5     		push	{r4, lr}
 2435              	.LCFI27:
 2436              		.cfi_def_cfa_offset 8
 2437              		.cfi_offset 4, -8
 2438              		.cfi_offset 14, -4
 606:e:/LiteOS/LiteOS/targets/Cloud_FM33A0XX/GCC/../../../targets/Cloud_FM33A0XX/UserCode\user_init.c **** 	LED0_OFF;
 2439              		.loc 1 606 0
 2440 0002 054C     		ldr	r4, .L91
 2441 0004 1021     		movs	r1, #16
 2442 0006 2000     		movs	r0, r4
 2443 0008 FFF7FEFF 		bl	GPIO_SetBits
 2444              	.LVL292:
 607:e:/LiteOS/LiteOS/targets/Cloud_FM33A0XX/GCC/../../../targets/Cloud_FM33A0XX/UserCode\user_init.c **** 
ARM GAS  C:\Users\WANGBI~1\AppData\Local\Temp\ccbZtvog.s 			page 71


 608:e:/LiteOS/LiteOS/targets/Cloud_FM33A0XX/GCC/../../../targets/Cloud_FM33A0XX/UserCode\user_init.c **** 	OutputIO( LED0_GPIO, LED0_PIN, 0 );	 //led0
 2445              		.loc 1 608 0
 2446 000c 0022     		movs	r2, #0
 2447 000e 1021     		movs	r1, #16
 2448 0010 2000     		movs	r0, r4
 2449 0012 FFF7FEFF 		bl	OutputIO
 2450              	.LVL293:
 609:e:/LiteOS/LiteOS/targets/Cloud_FM33A0XX/GCC/../../../targets/Cloud_FM33A0XX/UserCode\user_init.c **** 	
 610:e:/LiteOS/LiteOS/targets/Cloud_FM33A0XX/GCC/../../../targets/Cloud_FM33A0XX/UserCode\user_init.c **** 	//fout 输出系统时钟64分频
 611:e:/LiteOS/LiteOS/targets/Cloud_FM33A0XX/GCC/../../../targets/Cloud_FM33A0XX/UserCode\user_init.c **** //	GPIO_FOUTSEL_FOUTSEL_Set(GPIO_FOUTSEL_FOUTSEL_AHBCLKD64);
 612:e:/LiteOS/LiteOS/targets/Cloud_FM33A0XX/GCC/../../../targets/Cloud_FM33A0XX/UserCode\user_init.c **** //	AltFunIO( GPIOG, GPIO_Pin_6, ALTFUN_NORMAL );
 613:e:/LiteOS/LiteOS/targets/Cloud_FM33A0XX/GCC/../../../targets/Cloud_FM33A0XX/UserCode\user_init.c **** }
 2451              		.loc 1 613 0
 2452              		@ sp needed
 2453 0016 10BD     		pop	{r4, pc}
 2454              	.L92:
 2455              		.align	2
 2456              	.L91:
 2457 0018 000C0040 		.word	1073744896
 2458              		.cfi_endproc
 2459              	.LFE67:
 2461              		.section	.text.LED0_Flash,"ax",%progbits
 2462              		.align	2
 2463              		.global	LED0_Flash
 2464              		.code	16
 2465              		.thumb_func
 2467              	LED0_Flash:
 2468              	.LFB68:
 614:e:/LiteOS/LiteOS/targets/Cloud_FM33A0XX/GCC/../../../targets/Cloud_FM33A0XX/UserCode\user_init.c **** 
 615:e:/LiteOS/LiteOS/targets/Cloud_FM33A0XX/GCC/../../../targets/Cloud_FM33A0XX/UserCode\user_init.c **** void LED0_Flash(uint08 Times)
 616:e:/LiteOS/LiteOS/targets/Cloud_FM33A0XX/GCC/../../../targets/Cloud_FM33A0XX/UserCode\user_init.c **** {
 2469              		.loc 1 616 0
 2470              		.cfi_startproc
 2471              		@ args = 0, pretend = 0, frame = 0
 2472              		@ frame_needed = 0, uses_anonymous_args = 0
 2473              	.LVL294:
 2474 0000 70B5     		push	{r4, r5, r6, lr}
 2475              	.LCFI28:
 2476              		.cfi_def_cfa_offset 16
 2477              		.cfi_offset 4, -16
 2478              		.cfi_offset 5, -12
 2479              		.cfi_offset 6, -8
 2480              		.cfi_offset 14, -4
 2481 0002 0600     		movs	r6, r0
 2482              	.LVL295:
 617:e:/LiteOS/LiteOS/targets/Cloud_FM33A0XX/GCC/../../../targets/Cloud_FM33A0XX/UserCode\user_init.c **** 	uint08 i;
 618:e:/LiteOS/LiteOS/targets/Cloud_FM33A0XX/GCC/../../../targets/Cloud_FM33A0XX/UserCode\user_init.c **** 	
 619:e:/LiteOS/LiteOS/targets/Cloud_FM33A0XX/GCC/../../../targets/Cloud_FM33A0XX/UserCode\user_init.c **** 	for( i=0; i<Times; i++ )
 2483              		.loc 1 619 0
 2484 0004 0024     		movs	r4, #0
 2485 0006 12E0     		b	.L94
 2486              	.LVL296:
 2487              	.L95:
 620:e:/LiteOS/LiteOS/targets/Cloud_FM33A0XX/GCC/../../../targets/Cloud_FM33A0XX/UserCode\user_init.c **** 	{
 621:e:/LiteOS/LiteOS/targets/Cloud_FM33A0XX/GCC/../../../targets/Cloud_FM33A0XX/UserCode\user_init.c ****         LED0_ON;
 2488              		.loc 1 621 0 discriminator 3
 2489 0008 0C4D     		ldr	r5, .L96
ARM GAS  C:\Users\WANGBI~1\AppData\Local\Temp\ccbZtvog.s 			page 72


 2490 000a 1021     		movs	r1, #16
 2491 000c 2800     		movs	r0, r5
 2492 000e FFF7FEFF 		bl	GPIO_ResetBits
 2493              	.LVL297:
 622:e:/LiteOS/LiteOS/targets/Cloud_FM33A0XX/GCC/../../../targets/Cloud_FM33A0XX/UserCode\user_init.c **** 		TicksDelayMs( 100, NULL );		
 2494              		.loc 1 622 0 discriminator 3
 2495 0012 0021     		movs	r1, #0
 2496 0014 6420     		movs	r0, #100
 2497 0016 FFF7FEFF 		bl	TicksDelayMs
 2498              	.LVL298:
 623:e:/LiteOS/LiteOS/targets/Cloud_FM33A0XX/GCC/../../../targets/Cloud_FM33A0XX/UserCode\user_init.c **** 		LED0_OFF;
 2499              		.loc 1 623 0 discriminator 3
 2500 001a 1021     		movs	r1, #16
 2501 001c 2800     		movs	r0, r5
 2502 001e FFF7FEFF 		bl	GPIO_SetBits
 2503              	.LVL299:
 624:e:/LiteOS/LiteOS/targets/Cloud_FM33A0XX/GCC/../../../targets/Cloud_FM33A0XX/UserCode\user_init.c **** 		TicksDelayMs( 100, NULL );	
 2504              		.loc 1 624 0 discriminator 3
 2505 0022 0021     		movs	r1, #0
 2506 0024 6420     		movs	r0, #100
 2507 0026 FFF7FEFF 		bl	TicksDelayMs
 2508              	.LVL300:
 619:e:/LiteOS/LiteOS/targets/Cloud_FM33A0XX/GCC/../../../targets/Cloud_FM33A0XX/UserCode\user_init.c **** 	{
 2509              		.loc 1 619 0 discriminator 3
 2510 002a 0134     		adds	r4, r4, #1
 2511              	.LVL301:
 2512 002c E4B2     		uxtb	r4, r4
 2513              	.LVL302:
 2514              	.L94:
 619:e:/LiteOS/LiteOS/targets/Cloud_FM33A0XX/GCC/../../../targets/Cloud_FM33A0XX/UserCode\user_init.c **** 	{
 2515              		.loc 1 619 0 is_stmt 0 discriminator 1
 2516 002e B442     		cmp	r4, r6
 2517 0030 EAD3     		bcc	.L95
 625:e:/LiteOS/LiteOS/targets/Cloud_FM33A0XX/GCC/../../../targets/Cloud_FM33A0XX/UserCode\user_init.c **** 	}
 626:e:/LiteOS/LiteOS/targets/Cloud_FM33A0XX/GCC/../../../targets/Cloud_FM33A0XX/UserCode\user_init.c **** 			LED0_OFF;
 2518              		.loc 1 626 0 is_stmt 1
 2519 0032 1021     		movs	r1, #16
 2520 0034 0148     		ldr	r0, .L96
 2521 0036 FFF7FEFF 		bl	GPIO_SetBits
 2522              	.LVL303:
 627:e:/LiteOS/LiteOS/targets/Cloud_FM33A0XX/GCC/../../../targets/Cloud_FM33A0XX/UserCode\user_init.c **** 
 628:e:/LiteOS/LiteOS/targets/Cloud_FM33A0XX/GCC/../../../targets/Cloud_FM33A0XX/UserCode\user_init.c **** }
 2523              		.loc 1 628 0
 2524              		@ sp needed
 2525              	.LVL304:
 2526 003a 70BD     		pop	{r4, r5, r6, pc}
 2527              	.L97:
 2528              		.align	2
 2529              	.L96:
 2530 003c 000C0040 		.word	1073744896
 2531              		.cfi_endproc
 2532              	.LFE68:
 2534              		.section	.text.Init_System,"ax",%progbits
 2535              		.align	2
 2536              		.global	Init_System
 2537              		.code	16
 2538              		.thumb_func
ARM GAS  C:\Users\WANGBI~1\AppData\Local\Temp\ccbZtvog.s 			page 73


 2540              	Init_System:
 2541              	.LFB69:
 629:e:/LiteOS/LiteOS/targets/Cloud_FM33A0XX/GCC/../../../targets/Cloud_FM33A0XX/UserCode\user_init.c **** 
 630:e:/LiteOS/LiteOS/targets/Cloud_FM33A0XX/GCC/../../../targets/Cloud_FM33A0XX/UserCode\user_init.c **** void Init_System(void)
 631:e:/LiteOS/LiteOS/targets/Cloud_FM33A0XX/GCC/../../../targets/Cloud_FM33A0XX/UserCode\user_init.c **** {		
 2542              		.loc 1 631 0
 2543              		.cfi_startproc
 2544              		@ args = 0, pretend = 0, frame = 0
 2545              		@ frame_needed = 0, uses_anonymous_args = 0
 2546 0000 10B5     		push	{r4, lr}
 2547              	.LCFI29:
 2548              		.cfi_def_cfa_offset 8
 2549              		.cfi_offset 4, -8
 2550              		.cfi_offset 14, -4
 2551              	.LBB16:
 2552              	.LBB17:
 2553              		.file 3 "e:\\liteos\\liteos\\targets\\cloud_fm33a0xx\\device\\include\\core_cmfunc.h"
   1:e:\liteos\liteos\targets\cloud_fm33a0xx\device\include\core_cmfunc.h **** /**************************************************************************//**
   2:e:\liteos\liteos\targets\cloud_fm33a0xx\device\include\core_cmfunc.h ****  * @file     core_cmFunc.h
   3:e:\liteos\liteos\targets\cloud_fm33a0xx\device\include\core_cmfunc.h ****  * @brief    CMSIS Cortex-M Core Function Access Header File
   4:e:\liteos\liteos\targets\cloud_fm33a0xx\device\include\core_cmfunc.h ****  * @version  V4.10
   5:e:\liteos\liteos\targets\cloud_fm33a0xx\device\include\core_cmfunc.h ****  * @date     18. March 2015
   6:e:\liteos\liteos\targets\cloud_fm33a0xx\device\include\core_cmfunc.h ****  *
   7:e:\liteos\liteos\targets\cloud_fm33a0xx\device\include\core_cmfunc.h ****  * @note
   8:e:\liteos\liteos\targets\cloud_fm33a0xx\device\include\core_cmfunc.h ****  *
   9:e:\liteos\liteos\targets\cloud_fm33a0xx\device\include\core_cmfunc.h ****  ******************************************************************************/
  10:e:\liteos\liteos\targets\cloud_fm33a0xx\device\include\core_cmfunc.h **** /* Copyright (c) 2009 - 2015 ARM LIMITED
  11:e:\liteos\liteos\targets\cloud_fm33a0xx\device\include\core_cmfunc.h **** 
  12:e:\liteos\liteos\targets\cloud_fm33a0xx\device\include\core_cmfunc.h ****    All rights reserved.
  13:e:\liteos\liteos\targets\cloud_fm33a0xx\device\include\core_cmfunc.h ****    Redistribution and use in source and binary forms, with or without
  14:e:\liteos\liteos\targets\cloud_fm33a0xx\device\include\core_cmfunc.h ****    modification, are permitted provided that the following conditions are met:
  15:e:\liteos\liteos\targets\cloud_fm33a0xx\device\include\core_cmfunc.h ****    - Redistributions of source code must retain the above copyright
  16:e:\liteos\liteos\targets\cloud_fm33a0xx\device\include\core_cmfunc.h ****      notice, this list of conditions and the following disclaimer.
  17:e:\liteos\liteos\targets\cloud_fm33a0xx\device\include\core_cmfunc.h ****    - Redistributions in binary form must reproduce the above copyright
  18:e:\liteos\liteos\targets\cloud_fm33a0xx\device\include\core_cmfunc.h ****      notice, this list of conditions and the following disclaimer in the
  19:e:\liteos\liteos\targets\cloud_fm33a0xx\device\include\core_cmfunc.h ****      documentation and/or other materials provided with the distribution.
  20:e:\liteos\liteos\targets\cloud_fm33a0xx\device\include\core_cmfunc.h ****    - Neither the name of ARM nor the names of its contributors may be used
  21:e:\liteos\liteos\targets\cloud_fm33a0xx\device\include\core_cmfunc.h ****      to endorse or promote products derived from this software without
  22:e:\liteos\liteos\targets\cloud_fm33a0xx\device\include\core_cmfunc.h ****      specific prior written permission.
  23:e:\liteos\liteos\targets\cloud_fm33a0xx\device\include\core_cmfunc.h ****    *
  24:e:\liteos\liteos\targets\cloud_fm33a0xx\device\include\core_cmfunc.h ****    THIS SOFTWARE IS PROVIDED BY THE COPYRIGHT HOLDERS AND CONTRIBUTORS "AS IS"
  25:e:\liteos\liteos\targets\cloud_fm33a0xx\device\include\core_cmfunc.h ****    AND ANY EXPRESS OR IMPLIED WARRANTIES, INCLUDING, BUT NOT LIMITED TO, THE
  26:e:\liteos\liteos\targets\cloud_fm33a0xx\device\include\core_cmfunc.h ****    IMPLIED WARRANTIES OF MERCHANTABILITY AND FITNESS FOR A PARTICULAR PURPOSE
  27:e:\liteos\liteos\targets\cloud_fm33a0xx\device\include\core_cmfunc.h ****    ARE DISCLAIMED. IN NO EVENT SHALL COPYRIGHT HOLDERS AND CONTRIBUTORS BE
  28:e:\liteos\liteos\targets\cloud_fm33a0xx\device\include\core_cmfunc.h ****    LIABLE FOR ANY DIRECT, INDIRECT, INCIDENTAL, SPECIAL, EXEMPLARY, OR
  29:e:\liteos\liteos\targets\cloud_fm33a0xx\device\include\core_cmfunc.h ****    CONSEQUENTIAL DAMAGES (INCLUDING, BUT NOT LIMITED TO, PROCUREMENT OF
  30:e:\liteos\liteos\targets\cloud_fm33a0xx\device\include\core_cmfunc.h ****    SUBSTITUTE GOODS OR SERVICES; LOSS OF USE, DATA, OR PROFITS; OR BUSINESS
  31:e:\liteos\liteos\targets\cloud_fm33a0xx\device\include\core_cmfunc.h ****    INTERRUPTION) HOWEVER CAUSED AND ON ANY THEORY OF LIABILITY, WHETHER IN
  32:e:\liteos\liteos\targets\cloud_fm33a0xx\device\include\core_cmfunc.h ****    CONTRACT, STRICT LIABILITY, OR TORT (INCLUDING NEGLIGENCE OR OTHERWISE)
  33:e:\liteos\liteos\targets\cloud_fm33a0xx\device\include\core_cmfunc.h ****    ARISING IN ANY WAY OUT OF THE USE OF THIS SOFTWARE, EVEN IF ADVISED OF THE
  34:e:\liteos\liteos\targets\cloud_fm33a0xx\device\include\core_cmfunc.h ****    POSSIBILITY OF SUCH DAMAGE.
  35:e:\liteos\liteos\targets\cloud_fm33a0xx\device\include\core_cmfunc.h ****    ---------------------------------------------------------------------------*/
  36:e:\liteos\liteos\targets\cloud_fm33a0xx\device\include\core_cmfunc.h **** 
  37:e:\liteos\liteos\targets\cloud_fm33a0xx\device\include\core_cmfunc.h **** 
  38:e:\liteos\liteos\targets\cloud_fm33a0xx\device\include\core_cmfunc.h **** #ifndef __CORE_CMFUNC_H
  39:e:\liteos\liteos\targets\cloud_fm33a0xx\device\include\core_cmfunc.h **** #define __CORE_CMFUNC_H
  40:e:\liteos\liteos\targets\cloud_fm33a0xx\device\include\core_cmfunc.h **** 
ARM GAS  C:\Users\WANGBI~1\AppData\Local\Temp\ccbZtvog.s 			page 74


  41:e:\liteos\liteos\targets\cloud_fm33a0xx\device\include\core_cmfunc.h **** 
  42:e:\liteos\liteos\targets\cloud_fm33a0xx\device\include\core_cmfunc.h **** /* ###########################  Core Function Access  ########################### */
  43:e:\liteos\liteos\targets\cloud_fm33a0xx\device\include\core_cmfunc.h **** /** \ingroup  CMSIS_Core_FunctionInterface
  44:e:\liteos\liteos\targets\cloud_fm33a0xx\device\include\core_cmfunc.h ****     \defgroup CMSIS_Core_RegAccFunctions CMSIS Core Register Access Functions
  45:e:\liteos\liteos\targets\cloud_fm33a0xx\device\include\core_cmfunc.h ****   @{
  46:e:\liteos\liteos\targets\cloud_fm33a0xx\device\include\core_cmfunc.h ****  */
  47:e:\liteos\liteos\targets\cloud_fm33a0xx\device\include\core_cmfunc.h **** 
  48:e:\liteos\liteos\targets\cloud_fm33a0xx\device\include\core_cmfunc.h **** #if   defined ( __CC_ARM ) /*------------------RealView Compiler -----------------*/
  49:e:\liteos\liteos\targets\cloud_fm33a0xx\device\include\core_cmfunc.h **** /* ARM armcc specific functions */
  50:e:\liteos\liteos\targets\cloud_fm33a0xx\device\include\core_cmfunc.h **** 
  51:e:\liteos\liteos\targets\cloud_fm33a0xx\device\include\core_cmfunc.h **** #if (__ARMCC_VERSION < 400677)
  52:e:\liteos\liteos\targets\cloud_fm33a0xx\device\include\core_cmfunc.h ****   #error "Please use ARM Compiler Toolchain V4.0.677 or later!"
  53:e:\liteos\liteos\targets\cloud_fm33a0xx\device\include\core_cmfunc.h **** #endif
  54:e:\liteos\liteos\targets\cloud_fm33a0xx\device\include\core_cmfunc.h **** 
  55:e:\liteos\liteos\targets\cloud_fm33a0xx\device\include\core_cmfunc.h **** /* intrinsic void __enable_irq();     */
  56:e:\liteos\liteos\targets\cloud_fm33a0xx\device\include\core_cmfunc.h **** /* intrinsic void __disable_irq();    */
  57:e:\liteos\liteos\targets\cloud_fm33a0xx\device\include\core_cmfunc.h **** 
  58:e:\liteos\liteos\targets\cloud_fm33a0xx\device\include\core_cmfunc.h **** /** \brief  Get Control Register
  59:e:\liteos\liteos\targets\cloud_fm33a0xx\device\include\core_cmfunc.h **** 
  60:e:\liteos\liteos\targets\cloud_fm33a0xx\device\include\core_cmfunc.h ****     This function returns the content of the Control Register.
  61:e:\liteos\liteos\targets\cloud_fm33a0xx\device\include\core_cmfunc.h **** 
  62:e:\liteos\liteos\targets\cloud_fm33a0xx\device\include\core_cmfunc.h ****     \return               Control Register value
  63:e:\liteos\liteos\targets\cloud_fm33a0xx\device\include\core_cmfunc.h ****  */
  64:e:\liteos\liteos\targets\cloud_fm33a0xx\device\include\core_cmfunc.h **** __STATIC_INLINE uint32_t __get_CONTROL(void)
  65:e:\liteos\liteos\targets\cloud_fm33a0xx\device\include\core_cmfunc.h **** {
  66:e:\liteos\liteos\targets\cloud_fm33a0xx\device\include\core_cmfunc.h ****   register uint32_t __regControl         __ASM("control");
  67:e:\liteos\liteos\targets\cloud_fm33a0xx\device\include\core_cmfunc.h ****   return(__regControl);
  68:e:\liteos\liteos\targets\cloud_fm33a0xx\device\include\core_cmfunc.h **** }
  69:e:\liteos\liteos\targets\cloud_fm33a0xx\device\include\core_cmfunc.h **** 
  70:e:\liteos\liteos\targets\cloud_fm33a0xx\device\include\core_cmfunc.h **** 
  71:e:\liteos\liteos\targets\cloud_fm33a0xx\device\include\core_cmfunc.h **** /** \brief  Set Control Register
  72:e:\liteos\liteos\targets\cloud_fm33a0xx\device\include\core_cmfunc.h **** 
  73:e:\liteos\liteos\targets\cloud_fm33a0xx\device\include\core_cmfunc.h ****     This function writes the given value to the Control Register.
  74:e:\liteos\liteos\targets\cloud_fm33a0xx\device\include\core_cmfunc.h **** 
  75:e:\liteos\liteos\targets\cloud_fm33a0xx\device\include\core_cmfunc.h ****     \param [in]    control  Control Register value to set
  76:e:\liteos\liteos\targets\cloud_fm33a0xx\device\include\core_cmfunc.h ****  */
  77:e:\liteos\liteos\targets\cloud_fm33a0xx\device\include\core_cmfunc.h **** __STATIC_INLINE void __set_CONTROL(uint32_t control)
  78:e:\liteos\liteos\targets\cloud_fm33a0xx\device\include\core_cmfunc.h **** {
  79:e:\liteos\liteos\targets\cloud_fm33a0xx\device\include\core_cmfunc.h ****   register uint32_t __regControl         __ASM("control");
  80:e:\liteos\liteos\targets\cloud_fm33a0xx\device\include\core_cmfunc.h ****   __regControl = control;
  81:e:\liteos\liteos\targets\cloud_fm33a0xx\device\include\core_cmfunc.h **** }
  82:e:\liteos\liteos\targets\cloud_fm33a0xx\device\include\core_cmfunc.h **** 
  83:e:\liteos\liteos\targets\cloud_fm33a0xx\device\include\core_cmfunc.h **** 
  84:e:\liteos\liteos\targets\cloud_fm33a0xx\device\include\core_cmfunc.h **** /** \brief  Get IPSR Register
  85:e:\liteos\liteos\targets\cloud_fm33a0xx\device\include\core_cmfunc.h **** 
  86:e:\liteos\liteos\targets\cloud_fm33a0xx\device\include\core_cmfunc.h ****     This function returns the content of the IPSR Register.
  87:e:\liteos\liteos\targets\cloud_fm33a0xx\device\include\core_cmfunc.h **** 
  88:e:\liteos\liteos\targets\cloud_fm33a0xx\device\include\core_cmfunc.h ****     \return               IPSR Register value
  89:e:\liteos\liteos\targets\cloud_fm33a0xx\device\include\core_cmfunc.h ****  */
  90:e:\liteos\liteos\targets\cloud_fm33a0xx\device\include\core_cmfunc.h **** __STATIC_INLINE uint32_t __get_IPSR(void)
  91:e:\liteos\liteos\targets\cloud_fm33a0xx\device\include\core_cmfunc.h **** {
  92:e:\liteos\liteos\targets\cloud_fm33a0xx\device\include\core_cmfunc.h ****   register uint32_t __regIPSR          __ASM("ipsr");
  93:e:\liteos\liteos\targets\cloud_fm33a0xx\device\include\core_cmfunc.h ****   return(__regIPSR);
  94:e:\liteos\liteos\targets\cloud_fm33a0xx\device\include\core_cmfunc.h **** }
  95:e:\liteos\liteos\targets\cloud_fm33a0xx\device\include\core_cmfunc.h **** 
  96:e:\liteos\liteos\targets\cloud_fm33a0xx\device\include\core_cmfunc.h **** 
  97:e:\liteos\liteos\targets\cloud_fm33a0xx\device\include\core_cmfunc.h **** /** \brief  Get APSR Register
ARM GAS  C:\Users\WANGBI~1\AppData\Local\Temp\ccbZtvog.s 			page 75


  98:e:\liteos\liteos\targets\cloud_fm33a0xx\device\include\core_cmfunc.h **** 
  99:e:\liteos\liteos\targets\cloud_fm33a0xx\device\include\core_cmfunc.h ****     This function returns the content of the APSR Register.
 100:e:\liteos\liteos\targets\cloud_fm33a0xx\device\include\core_cmfunc.h **** 
 101:e:\liteos\liteos\targets\cloud_fm33a0xx\device\include\core_cmfunc.h ****     \return               APSR Register value
 102:e:\liteos\liteos\targets\cloud_fm33a0xx\device\include\core_cmfunc.h ****  */
 103:e:\liteos\liteos\targets\cloud_fm33a0xx\device\include\core_cmfunc.h **** __STATIC_INLINE uint32_t __get_APSR(void)
 104:e:\liteos\liteos\targets\cloud_fm33a0xx\device\include\core_cmfunc.h **** {
 105:e:\liteos\liteos\targets\cloud_fm33a0xx\device\include\core_cmfunc.h ****   register uint32_t __regAPSR          __ASM("apsr");
 106:e:\liteos\liteos\targets\cloud_fm33a0xx\device\include\core_cmfunc.h ****   return(__regAPSR);
 107:e:\liteos\liteos\targets\cloud_fm33a0xx\device\include\core_cmfunc.h **** }
 108:e:\liteos\liteos\targets\cloud_fm33a0xx\device\include\core_cmfunc.h **** 
 109:e:\liteos\liteos\targets\cloud_fm33a0xx\device\include\core_cmfunc.h **** 
 110:e:\liteos\liteos\targets\cloud_fm33a0xx\device\include\core_cmfunc.h **** /** \brief  Get xPSR Register
 111:e:\liteos\liteos\targets\cloud_fm33a0xx\device\include\core_cmfunc.h **** 
 112:e:\liteos\liteos\targets\cloud_fm33a0xx\device\include\core_cmfunc.h ****     This function returns the content of the xPSR Register.
 113:e:\liteos\liteos\targets\cloud_fm33a0xx\device\include\core_cmfunc.h **** 
 114:e:\liteos\liteos\targets\cloud_fm33a0xx\device\include\core_cmfunc.h ****     \return               xPSR Register value
 115:e:\liteos\liteos\targets\cloud_fm33a0xx\device\include\core_cmfunc.h ****  */
 116:e:\liteos\liteos\targets\cloud_fm33a0xx\device\include\core_cmfunc.h **** __STATIC_INLINE uint32_t __get_xPSR(void)
 117:e:\liteos\liteos\targets\cloud_fm33a0xx\device\include\core_cmfunc.h **** {
 118:e:\liteos\liteos\targets\cloud_fm33a0xx\device\include\core_cmfunc.h ****   register uint32_t __regXPSR          __ASM("xpsr");
 119:e:\liteos\liteos\targets\cloud_fm33a0xx\device\include\core_cmfunc.h ****   return(__regXPSR);
 120:e:\liteos\liteos\targets\cloud_fm33a0xx\device\include\core_cmfunc.h **** }
 121:e:\liteos\liteos\targets\cloud_fm33a0xx\device\include\core_cmfunc.h **** 
 122:e:\liteos\liteos\targets\cloud_fm33a0xx\device\include\core_cmfunc.h **** 
 123:e:\liteos\liteos\targets\cloud_fm33a0xx\device\include\core_cmfunc.h **** /** \brief  Get Process Stack Pointer
 124:e:\liteos\liteos\targets\cloud_fm33a0xx\device\include\core_cmfunc.h **** 
 125:e:\liteos\liteos\targets\cloud_fm33a0xx\device\include\core_cmfunc.h ****     This function returns the current value of the Process Stack Pointer (PSP).
 126:e:\liteos\liteos\targets\cloud_fm33a0xx\device\include\core_cmfunc.h **** 
 127:e:\liteos\liteos\targets\cloud_fm33a0xx\device\include\core_cmfunc.h ****     \return               PSP Register value
 128:e:\liteos\liteos\targets\cloud_fm33a0xx\device\include\core_cmfunc.h ****  */
 129:e:\liteos\liteos\targets\cloud_fm33a0xx\device\include\core_cmfunc.h **** __STATIC_INLINE uint32_t __get_PSP(void)
 130:e:\liteos\liteos\targets\cloud_fm33a0xx\device\include\core_cmfunc.h **** {
 131:e:\liteos\liteos\targets\cloud_fm33a0xx\device\include\core_cmfunc.h ****   register uint32_t __regProcessStackPointer  __ASM("psp");
 132:e:\liteos\liteos\targets\cloud_fm33a0xx\device\include\core_cmfunc.h ****   return(__regProcessStackPointer);
 133:e:\liteos\liteos\targets\cloud_fm33a0xx\device\include\core_cmfunc.h **** }
 134:e:\liteos\liteos\targets\cloud_fm33a0xx\device\include\core_cmfunc.h **** 
 135:e:\liteos\liteos\targets\cloud_fm33a0xx\device\include\core_cmfunc.h **** 
 136:e:\liteos\liteos\targets\cloud_fm33a0xx\device\include\core_cmfunc.h **** /** \brief  Set Process Stack Pointer
 137:e:\liteos\liteos\targets\cloud_fm33a0xx\device\include\core_cmfunc.h **** 
 138:e:\liteos\liteos\targets\cloud_fm33a0xx\device\include\core_cmfunc.h ****     This function assigns the given value to the Process Stack Pointer (PSP).
 139:e:\liteos\liteos\targets\cloud_fm33a0xx\device\include\core_cmfunc.h **** 
 140:e:\liteos\liteos\targets\cloud_fm33a0xx\device\include\core_cmfunc.h ****     \param [in]    topOfProcStack  Process Stack Pointer value to set
 141:e:\liteos\liteos\targets\cloud_fm33a0xx\device\include\core_cmfunc.h ****  */
 142:e:\liteos\liteos\targets\cloud_fm33a0xx\device\include\core_cmfunc.h **** __STATIC_INLINE void __set_PSP(uint32_t topOfProcStack)
 143:e:\liteos\liteos\targets\cloud_fm33a0xx\device\include\core_cmfunc.h **** {
 144:e:\liteos\liteos\targets\cloud_fm33a0xx\device\include\core_cmfunc.h ****   register uint32_t __regProcessStackPointer  __ASM("psp");
 145:e:\liteos\liteos\targets\cloud_fm33a0xx\device\include\core_cmfunc.h ****   __regProcessStackPointer = topOfProcStack;
 146:e:\liteos\liteos\targets\cloud_fm33a0xx\device\include\core_cmfunc.h **** }
 147:e:\liteos\liteos\targets\cloud_fm33a0xx\device\include\core_cmfunc.h **** 
 148:e:\liteos\liteos\targets\cloud_fm33a0xx\device\include\core_cmfunc.h **** 
 149:e:\liteos\liteos\targets\cloud_fm33a0xx\device\include\core_cmfunc.h **** /** \brief  Get Main Stack Pointer
 150:e:\liteos\liteos\targets\cloud_fm33a0xx\device\include\core_cmfunc.h **** 
 151:e:\liteos\liteos\targets\cloud_fm33a0xx\device\include\core_cmfunc.h ****     This function returns the current value of the Main Stack Pointer (MSP).
 152:e:\liteos\liteos\targets\cloud_fm33a0xx\device\include\core_cmfunc.h **** 
 153:e:\liteos\liteos\targets\cloud_fm33a0xx\device\include\core_cmfunc.h ****     \return               MSP Register value
 154:e:\liteos\liteos\targets\cloud_fm33a0xx\device\include\core_cmfunc.h ****  */
ARM GAS  C:\Users\WANGBI~1\AppData\Local\Temp\ccbZtvog.s 			page 76


 155:e:\liteos\liteos\targets\cloud_fm33a0xx\device\include\core_cmfunc.h **** __STATIC_INLINE uint32_t __get_MSP(void)
 156:e:\liteos\liteos\targets\cloud_fm33a0xx\device\include\core_cmfunc.h **** {
 157:e:\liteos\liteos\targets\cloud_fm33a0xx\device\include\core_cmfunc.h ****   register uint32_t __regMainStackPointer     __ASM("msp");
 158:e:\liteos\liteos\targets\cloud_fm33a0xx\device\include\core_cmfunc.h ****   return(__regMainStackPointer);
 159:e:\liteos\liteos\targets\cloud_fm33a0xx\device\include\core_cmfunc.h **** }
 160:e:\liteos\liteos\targets\cloud_fm33a0xx\device\include\core_cmfunc.h **** 
 161:e:\liteos\liteos\targets\cloud_fm33a0xx\device\include\core_cmfunc.h **** 
 162:e:\liteos\liteos\targets\cloud_fm33a0xx\device\include\core_cmfunc.h **** /** \brief  Set Main Stack Pointer
 163:e:\liteos\liteos\targets\cloud_fm33a0xx\device\include\core_cmfunc.h **** 
 164:e:\liteos\liteos\targets\cloud_fm33a0xx\device\include\core_cmfunc.h ****     This function assigns the given value to the Main Stack Pointer (MSP).
 165:e:\liteos\liteos\targets\cloud_fm33a0xx\device\include\core_cmfunc.h **** 
 166:e:\liteos\liteos\targets\cloud_fm33a0xx\device\include\core_cmfunc.h ****     \param [in]    topOfMainStack  Main Stack Pointer value to set
 167:e:\liteos\liteos\targets\cloud_fm33a0xx\device\include\core_cmfunc.h ****  */
 168:e:\liteos\liteos\targets\cloud_fm33a0xx\device\include\core_cmfunc.h **** __STATIC_INLINE void __set_MSP(uint32_t topOfMainStack)
 169:e:\liteos\liteos\targets\cloud_fm33a0xx\device\include\core_cmfunc.h **** {
 170:e:\liteos\liteos\targets\cloud_fm33a0xx\device\include\core_cmfunc.h ****   register uint32_t __regMainStackPointer     __ASM("msp");
 171:e:\liteos\liteos\targets\cloud_fm33a0xx\device\include\core_cmfunc.h ****   __regMainStackPointer = topOfMainStack;
 172:e:\liteos\liteos\targets\cloud_fm33a0xx\device\include\core_cmfunc.h **** }
 173:e:\liteos\liteos\targets\cloud_fm33a0xx\device\include\core_cmfunc.h **** 
 174:e:\liteos\liteos\targets\cloud_fm33a0xx\device\include\core_cmfunc.h **** 
 175:e:\liteos\liteos\targets\cloud_fm33a0xx\device\include\core_cmfunc.h **** /** \brief  Get Priority Mask
 176:e:\liteos\liteos\targets\cloud_fm33a0xx\device\include\core_cmfunc.h **** 
 177:e:\liteos\liteos\targets\cloud_fm33a0xx\device\include\core_cmfunc.h ****     This function returns the current state of the priority mask bit from the Priority Mask Registe
 178:e:\liteos\liteos\targets\cloud_fm33a0xx\device\include\core_cmfunc.h **** 
 179:e:\liteos\liteos\targets\cloud_fm33a0xx\device\include\core_cmfunc.h ****     \return               Priority Mask value
 180:e:\liteos\liteos\targets\cloud_fm33a0xx\device\include\core_cmfunc.h ****  */
 181:e:\liteos\liteos\targets\cloud_fm33a0xx\device\include\core_cmfunc.h **** __STATIC_INLINE uint32_t __get_PRIMASK(void)
 182:e:\liteos\liteos\targets\cloud_fm33a0xx\device\include\core_cmfunc.h **** {
 183:e:\liteos\liteos\targets\cloud_fm33a0xx\device\include\core_cmfunc.h ****   register uint32_t __regPriMask         __ASM("primask");
 184:e:\liteos\liteos\targets\cloud_fm33a0xx\device\include\core_cmfunc.h ****   return(__regPriMask);
 185:e:\liteos\liteos\targets\cloud_fm33a0xx\device\include\core_cmfunc.h **** }
 186:e:\liteos\liteos\targets\cloud_fm33a0xx\device\include\core_cmfunc.h **** 
 187:e:\liteos\liteos\targets\cloud_fm33a0xx\device\include\core_cmfunc.h **** 
 188:e:\liteos\liteos\targets\cloud_fm33a0xx\device\include\core_cmfunc.h **** /** \brief  Set Priority Mask
 189:e:\liteos\liteos\targets\cloud_fm33a0xx\device\include\core_cmfunc.h **** 
 190:e:\liteos\liteos\targets\cloud_fm33a0xx\device\include\core_cmfunc.h ****     This function assigns the given value to the Priority Mask Register.
 191:e:\liteos\liteos\targets\cloud_fm33a0xx\device\include\core_cmfunc.h **** 
 192:e:\liteos\liteos\targets\cloud_fm33a0xx\device\include\core_cmfunc.h ****     \param [in]    priMask  Priority Mask
 193:e:\liteos\liteos\targets\cloud_fm33a0xx\device\include\core_cmfunc.h ****  */
 194:e:\liteos\liteos\targets\cloud_fm33a0xx\device\include\core_cmfunc.h **** __STATIC_INLINE void __set_PRIMASK(uint32_t priMask)
 195:e:\liteos\liteos\targets\cloud_fm33a0xx\device\include\core_cmfunc.h **** {
 196:e:\liteos\liteos\targets\cloud_fm33a0xx\device\include\core_cmfunc.h ****   register uint32_t __regPriMask         __ASM("primask");
 197:e:\liteos\liteos\targets\cloud_fm33a0xx\device\include\core_cmfunc.h ****   __regPriMask = (priMask);
 198:e:\liteos\liteos\targets\cloud_fm33a0xx\device\include\core_cmfunc.h **** }
 199:e:\liteos\liteos\targets\cloud_fm33a0xx\device\include\core_cmfunc.h **** 
 200:e:\liteos\liteos\targets\cloud_fm33a0xx\device\include\core_cmfunc.h **** 
 201:e:\liteos\liteos\targets\cloud_fm33a0xx\device\include\core_cmfunc.h **** #if       (__CORTEX_M >= 0x03) || (__CORTEX_SC >= 300)
 202:e:\liteos\liteos\targets\cloud_fm33a0xx\device\include\core_cmfunc.h **** 
 203:e:\liteos\liteos\targets\cloud_fm33a0xx\device\include\core_cmfunc.h **** /** \brief  Enable FIQ
 204:e:\liteos\liteos\targets\cloud_fm33a0xx\device\include\core_cmfunc.h **** 
 205:e:\liteos\liteos\targets\cloud_fm33a0xx\device\include\core_cmfunc.h ****     This function enables FIQ interrupts by clearing the F-bit in the CPSR.
 206:e:\liteos\liteos\targets\cloud_fm33a0xx\device\include\core_cmfunc.h ****     Can only be executed in Privileged modes.
 207:e:\liteos\liteos\targets\cloud_fm33a0xx\device\include\core_cmfunc.h ****  */
 208:e:\liteos\liteos\targets\cloud_fm33a0xx\device\include\core_cmfunc.h **** #define __enable_fault_irq                __enable_fiq
 209:e:\liteos\liteos\targets\cloud_fm33a0xx\device\include\core_cmfunc.h **** 
 210:e:\liteos\liteos\targets\cloud_fm33a0xx\device\include\core_cmfunc.h **** 
 211:e:\liteos\liteos\targets\cloud_fm33a0xx\device\include\core_cmfunc.h **** /** \brief  Disable FIQ
ARM GAS  C:\Users\WANGBI~1\AppData\Local\Temp\ccbZtvog.s 			page 77


 212:e:\liteos\liteos\targets\cloud_fm33a0xx\device\include\core_cmfunc.h **** 
 213:e:\liteos\liteos\targets\cloud_fm33a0xx\device\include\core_cmfunc.h ****     This function disables FIQ interrupts by setting the F-bit in the CPSR.
 214:e:\liteos\liteos\targets\cloud_fm33a0xx\device\include\core_cmfunc.h ****     Can only be executed in Privileged modes.
 215:e:\liteos\liteos\targets\cloud_fm33a0xx\device\include\core_cmfunc.h ****  */
 216:e:\liteos\liteos\targets\cloud_fm33a0xx\device\include\core_cmfunc.h **** #define __disable_fault_irq               __disable_fiq
 217:e:\liteos\liteos\targets\cloud_fm33a0xx\device\include\core_cmfunc.h **** 
 218:e:\liteos\liteos\targets\cloud_fm33a0xx\device\include\core_cmfunc.h **** 
 219:e:\liteos\liteos\targets\cloud_fm33a0xx\device\include\core_cmfunc.h **** /** \brief  Get Base Priority
 220:e:\liteos\liteos\targets\cloud_fm33a0xx\device\include\core_cmfunc.h **** 
 221:e:\liteos\liteos\targets\cloud_fm33a0xx\device\include\core_cmfunc.h ****     This function returns the current value of the Base Priority register.
 222:e:\liteos\liteos\targets\cloud_fm33a0xx\device\include\core_cmfunc.h **** 
 223:e:\liteos\liteos\targets\cloud_fm33a0xx\device\include\core_cmfunc.h ****     \return               Base Priority register value
 224:e:\liteos\liteos\targets\cloud_fm33a0xx\device\include\core_cmfunc.h ****  */
 225:e:\liteos\liteos\targets\cloud_fm33a0xx\device\include\core_cmfunc.h **** __STATIC_INLINE uint32_t  __get_BASEPRI(void)
 226:e:\liteos\liteos\targets\cloud_fm33a0xx\device\include\core_cmfunc.h **** {
 227:e:\liteos\liteos\targets\cloud_fm33a0xx\device\include\core_cmfunc.h ****   register uint32_t __regBasePri         __ASM("basepri");
 228:e:\liteos\liteos\targets\cloud_fm33a0xx\device\include\core_cmfunc.h ****   return(__regBasePri);
 229:e:\liteos\liteos\targets\cloud_fm33a0xx\device\include\core_cmfunc.h **** }
 230:e:\liteos\liteos\targets\cloud_fm33a0xx\device\include\core_cmfunc.h **** 
 231:e:\liteos\liteos\targets\cloud_fm33a0xx\device\include\core_cmfunc.h **** 
 232:e:\liteos\liteos\targets\cloud_fm33a0xx\device\include\core_cmfunc.h **** /** \brief  Set Base Priority
 233:e:\liteos\liteos\targets\cloud_fm33a0xx\device\include\core_cmfunc.h **** 
 234:e:\liteos\liteos\targets\cloud_fm33a0xx\device\include\core_cmfunc.h ****     This function assigns the given value to the Base Priority register.
 235:e:\liteos\liteos\targets\cloud_fm33a0xx\device\include\core_cmfunc.h **** 
 236:e:\liteos\liteos\targets\cloud_fm33a0xx\device\include\core_cmfunc.h ****     \param [in]    basePri  Base Priority value to set
 237:e:\liteos\liteos\targets\cloud_fm33a0xx\device\include\core_cmfunc.h ****  */
 238:e:\liteos\liteos\targets\cloud_fm33a0xx\device\include\core_cmfunc.h **** __STATIC_INLINE void __set_BASEPRI(uint32_t basePri)
 239:e:\liteos\liteos\targets\cloud_fm33a0xx\device\include\core_cmfunc.h **** {
 240:e:\liteos\liteos\targets\cloud_fm33a0xx\device\include\core_cmfunc.h ****   register uint32_t __regBasePri         __ASM("basepri");
 241:e:\liteos\liteos\targets\cloud_fm33a0xx\device\include\core_cmfunc.h ****   __regBasePri = (basePri & 0xff);
 242:e:\liteos\liteos\targets\cloud_fm33a0xx\device\include\core_cmfunc.h **** }
 243:e:\liteos\liteos\targets\cloud_fm33a0xx\device\include\core_cmfunc.h **** 
 244:e:\liteos\liteos\targets\cloud_fm33a0xx\device\include\core_cmfunc.h **** 
 245:e:\liteos\liteos\targets\cloud_fm33a0xx\device\include\core_cmfunc.h **** /** \brief  Set Base Priority with condition
 246:e:\liteos\liteos\targets\cloud_fm33a0xx\device\include\core_cmfunc.h **** 
 247:e:\liteos\liteos\targets\cloud_fm33a0xx\device\include\core_cmfunc.h ****     This function assigns the given value to the Base Priority register only if BASEPRI masking is 
 248:e:\liteos\liteos\targets\cloud_fm33a0xx\device\include\core_cmfunc.h ****     or the new value increases the BASEPRI priority level.
 249:e:\liteos\liteos\targets\cloud_fm33a0xx\device\include\core_cmfunc.h **** 
 250:e:\liteos\liteos\targets\cloud_fm33a0xx\device\include\core_cmfunc.h ****     \param [in]    basePri  Base Priority value to set
 251:e:\liteos\liteos\targets\cloud_fm33a0xx\device\include\core_cmfunc.h ****  */
 252:e:\liteos\liteos\targets\cloud_fm33a0xx\device\include\core_cmfunc.h **** __STATIC_INLINE void __set_BASEPRI_MAX(uint32_t basePri)
 253:e:\liteos\liteos\targets\cloud_fm33a0xx\device\include\core_cmfunc.h **** {
 254:e:\liteos\liteos\targets\cloud_fm33a0xx\device\include\core_cmfunc.h ****   register uint32_t __regBasePriMax      __ASM("basepri_max");
 255:e:\liteos\liteos\targets\cloud_fm33a0xx\device\include\core_cmfunc.h ****   __regBasePriMax = (basePri & 0xff);
 256:e:\liteos\liteos\targets\cloud_fm33a0xx\device\include\core_cmfunc.h **** }
 257:e:\liteos\liteos\targets\cloud_fm33a0xx\device\include\core_cmfunc.h **** 
 258:e:\liteos\liteos\targets\cloud_fm33a0xx\device\include\core_cmfunc.h **** 
 259:e:\liteos\liteos\targets\cloud_fm33a0xx\device\include\core_cmfunc.h **** /** \brief  Get Fault Mask
 260:e:\liteos\liteos\targets\cloud_fm33a0xx\device\include\core_cmfunc.h **** 
 261:e:\liteos\liteos\targets\cloud_fm33a0xx\device\include\core_cmfunc.h ****     This function returns the current value of the Fault Mask register.
 262:e:\liteos\liteos\targets\cloud_fm33a0xx\device\include\core_cmfunc.h **** 
 263:e:\liteos\liteos\targets\cloud_fm33a0xx\device\include\core_cmfunc.h ****     \return               Fault Mask register value
 264:e:\liteos\liteos\targets\cloud_fm33a0xx\device\include\core_cmfunc.h ****  */
 265:e:\liteos\liteos\targets\cloud_fm33a0xx\device\include\core_cmfunc.h **** __STATIC_INLINE uint32_t __get_FAULTMASK(void)
 266:e:\liteos\liteos\targets\cloud_fm33a0xx\device\include\core_cmfunc.h **** {
 267:e:\liteos\liteos\targets\cloud_fm33a0xx\device\include\core_cmfunc.h ****   register uint32_t __regFaultMask       __ASM("faultmask");
 268:e:\liteos\liteos\targets\cloud_fm33a0xx\device\include\core_cmfunc.h ****   return(__regFaultMask);
ARM GAS  C:\Users\WANGBI~1\AppData\Local\Temp\ccbZtvog.s 			page 78


 269:e:\liteos\liteos\targets\cloud_fm33a0xx\device\include\core_cmfunc.h **** }
 270:e:\liteos\liteos\targets\cloud_fm33a0xx\device\include\core_cmfunc.h **** 
 271:e:\liteos\liteos\targets\cloud_fm33a0xx\device\include\core_cmfunc.h **** 
 272:e:\liteos\liteos\targets\cloud_fm33a0xx\device\include\core_cmfunc.h **** /** \brief  Set Fault Mask
 273:e:\liteos\liteos\targets\cloud_fm33a0xx\device\include\core_cmfunc.h **** 
 274:e:\liteos\liteos\targets\cloud_fm33a0xx\device\include\core_cmfunc.h ****     This function assigns the given value to the Fault Mask register.
 275:e:\liteos\liteos\targets\cloud_fm33a0xx\device\include\core_cmfunc.h **** 
 276:e:\liteos\liteos\targets\cloud_fm33a0xx\device\include\core_cmfunc.h ****     \param [in]    faultMask  Fault Mask value to set
 277:e:\liteos\liteos\targets\cloud_fm33a0xx\device\include\core_cmfunc.h ****  */
 278:e:\liteos\liteos\targets\cloud_fm33a0xx\device\include\core_cmfunc.h **** __STATIC_INLINE void __set_FAULTMASK(uint32_t faultMask)
 279:e:\liteos\liteos\targets\cloud_fm33a0xx\device\include\core_cmfunc.h **** {
 280:e:\liteos\liteos\targets\cloud_fm33a0xx\device\include\core_cmfunc.h ****   register uint32_t __regFaultMask       __ASM("faultmask");
 281:e:\liteos\liteos\targets\cloud_fm33a0xx\device\include\core_cmfunc.h ****   __regFaultMask = (faultMask & (uint32_t)1);
 282:e:\liteos\liteos\targets\cloud_fm33a0xx\device\include\core_cmfunc.h **** }
 283:e:\liteos\liteos\targets\cloud_fm33a0xx\device\include\core_cmfunc.h **** 
 284:e:\liteos\liteos\targets\cloud_fm33a0xx\device\include\core_cmfunc.h **** #endif /* (__CORTEX_M >= 0x03) || (__CORTEX_SC >= 300) */
 285:e:\liteos\liteos\targets\cloud_fm33a0xx\device\include\core_cmfunc.h **** 
 286:e:\liteos\liteos\targets\cloud_fm33a0xx\device\include\core_cmfunc.h **** 
 287:e:\liteos\liteos\targets\cloud_fm33a0xx\device\include\core_cmfunc.h **** #if       (__CORTEX_M == 0x04) || (__CORTEX_M == 0x07)
 288:e:\liteos\liteos\targets\cloud_fm33a0xx\device\include\core_cmfunc.h **** 
 289:e:\liteos\liteos\targets\cloud_fm33a0xx\device\include\core_cmfunc.h **** /** \brief  Get FPSCR
 290:e:\liteos\liteos\targets\cloud_fm33a0xx\device\include\core_cmfunc.h **** 
 291:e:\liteos\liteos\targets\cloud_fm33a0xx\device\include\core_cmfunc.h ****     This function returns the current value of the Floating Point Status/Control register.
 292:e:\liteos\liteos\targets\cloud_fm33a0xx\device\include\core_cmfunc.h **** 
 293:e:\liteos\liteos\targets\cloud_fm33a0xx\device\include\core_cmfunc.h ****     \return               Floating Point Status/Control register value
 294:e:\liteos\liteos\targets\cloud_fm33a0xx\device\include\core_cmfunc.h ****  */
 295:e:\liteos\liteos\targets\cloud_fm33a0xx\device\include\core_cmfunc.h **** __STATIC_INLINE uint32_t __get_FPSCR(void)
 296:e:\liteos\liteos\targets\cloud_fm33a0xx\device\include\core_cmfunc.h **** {
 297:e:\liteos\liteos\targets\cloud_fm33a0xx\device\include\core_cmfunc.h **** #if (__FPU_PRESENT == 1) && (__FPU_USED == 1)
 298:e:\liteos\liteos\targets\cloud_fm33a0xx\device\include\core_cmfunc.h ****   register uint32_t __regfpscr         __ASM("fpscr");
 299:e:\liteos\liteos\targets\cloud_fm33a0xx\device\include\core_cmfunc.h ****   return(__regfpscr);
 300:e:\liteos\liteos\targets\cloud_fm33a0xx\device\include\core_cmfunc.h **** #else
 301:e:\liteos\liteos\targets\cloud_fm33a0xx\device\include\core_cmfunc.h ****    return(0);
 302:e:\liteos\liteos\targets\cloud_fm33a0xx\device\include\core_cmfunc.h **** #endif
 303:e:\liteos\liteos\targets\cloud_fm33a0xx\device\include\core_cmfunc.h **** }
 304:e:\liteos\liteos\targets\cloud_fm33a0xx\device\include\core_cmfunc.h **** 
 305:e:\liteos\liteos\targets\cloud_fm33a0xx\device\include\core_cmfunc.h **** 
 306:e:\liteos\liteos\targets\cloud_fm33a0xx\device\include\core_cmfunc.h **** /** \brief  Set FPSCR
 307:e:\liteos\liteos\targets\cloud_fm33a0xx\device\include\core_cmfunc.h **** 
 308:e:\liteos\liteos\targets\cloud_fm33a0xx\device\include\core_cmfunc.h ****     This function assigns the given value to the Floating Point Status/Control register.
 309:e:\liteos\liteos\targets\cloud_fm33a0xx\device\include\core_cmfunc.h **** 
 310:e:\liteos\liteos\targets\cloud_fm33a0xx\device\include\core_cmfunc.h ****     \param [in]    fpscr  Floating Point Status/Control value to set
 311:e:\liteos\liteos\targets\cloud_fm33a0xx\device\include\core_cmfunc.h ****  */
 312:e:\liteos\liteos\targets\cloud_fm33a0xx\device\include\core_cmfunc.h **** __STATIC_INLINE void __set_FPSCR(uint32_t fpscr)
 313:e:\liteos\liteos\targets\cloud_fm33a0xx\device\include\core_cmfunc.h **** {
 314:e:\liteos\liteos\targets\cloud_fm33a0xx\device\include\core_cmfunc.h **** #if (__FPU_PRESENT == 1) && (__FPU_USED == 1)
 315:e:\liteos\liteos\targets\cloud_fm33a0xx\device\include\core_cmfunc.h ****   register uint32_t __regfpscr         __ASM("fpscr");
 316:e:\liteos\liteos\targets\cloud_fm33a0xx\device\include\core_cmfunc.h ****   __regfpscr = (fpscr);
 317:e:\liteos\liteos\targets\cloud_fm33a0xx\device\include\core_cmfunc.h **** #endif
 318:e:\liteos\liteos\targets\cloud_fm33a0xx\device\include\core_cmfunc.h **** }
 319:e:\liteos\liteos\targets\cloud_fm33a0xx\device\include\core_cmfunc.h **** 
 320:e:\liteos\liteos\targets\cloud_fm33a0xx\device\include\core_cmfunc.h **** #endif /* (__CORTEX_M == 0x04) || (__CORTEX_M == 0x07) */
 321:e:\liteos\liteos\targets\cloud_fm33a0xx\device\include\core_cmfunc.h **** 
 322:e:\liteos\liteos\targets\cloud_fm33a0xx\device\include\core_cmfunc.h **** 
 323:e:\liteos\liteos\targets\cloud_fm33a0xx\device\include\core_cmfunc.h **** #elif defined ( __GNUC__ ) /*------------------ GNU Compiler ---------------------*/
 324:e:\liteos\liteos\targets\cloud_fm33a0xx\device\include\core_cmfunc.h **** /* GNU gcc specific functions */
 325:e:\liteos\liteos\targets\cloud_fm33a0xx\device\include\core_cmfunc.h **** 
ARM GAS  C:\Users\WANGBI~1\AppData\Local\Temp\ccbZtvog.s 			page 79


 326:e:\liteos\liteos\targets\cloud_fm33a0xx\device\include\core_cmfunc.h **** /** \brief  Enable IRQ Interrupts
 327:e:\liteos\liteos\targets\cloud_fm33a0xx\device\include\core_cmfunc.h **** 
 328:e:\liteos\liteos\targets\cloud_fm33a0xx\device\include\core_cmfunc.h ****   This function enables IRQ interrupts by clearing the I-bit in the CPSR.
 329:e:\liteos\liteos\targets\cloud_fm33a0xx\device\include\core_cmfunc.h ****   Can only be executed in Privileged modes.
 330:e:\liteos\liteos\targets\cloud_fm33a0xx\device\include\core_cmfunc.h ****  */
 331:e:\liteos\liteos\targets\cloud_fm33a0xx\device\include\core_cmfunc.h **** __attribute__( ( always_inline ) ) __STATIC_INLINE void __enable_irq(void)
 332:e:\liteos\liteos\targets\cloud_fm33a0xx\device\include\core_cmfunc.h **** {
 333:e:\liteos\liteos\targets\cloud_fm33a0xx\device\include\core_cmfunc.h ****   __ASM volatile ("cpsie i" : : : "memory");
 334:e:\liteos\liteos\targets\cloud_fm33a0xx\device\include\core_cmfunc.h **** }
 335:e:\liteos\liteos\targets\cloud_fm33a0xx\device\include\core_cmfunc.h **** 
 336:e:\liteos\liteos\targets\cloud_fm33a0xx\device\include\core_cmfunc.h **** 
 337:e:\liteos\liteos\targets\cloud_fm33a0xx\device\include\core_cmfunc.h **** /** \brief  Disable IRQ Interrupts
 338:e:\liteos\liteos\targets\cloud_fm33a0xx\device\include\core_cmfunc.h **** 
 339:e:\liteos\liteos\targets\cloud_fm33a0xx\device\include\core_cmfunc.h ****   This function disables IRQ interrupts by setting the I-bit in the CPSR.
 340:e:\liteos\liteos\targets\cloud_fm33a0xx\device\include\core_cmfunc.h ****   Can only be executed in Privileged modes.
 341:e:\liteos\liteos\targets\cloud_fm33a0xx\device\include\core_cmfunc.h ****  */
 342:e:\liteos\liteos\targets\cloud_fm33a0xx\device\include\core_cmfunc.h **** __attribute__( ( always_inline ) ) __STATIC_INLINE void __disable_irq(void)
 343:e:\liteos\liteos\targets\cloud_fm33a0xx\device\include\core_cmfunc.h **** {
 344:e:\liteos\liteos\targets\cloud_fm33a0xx\device\include\core_cmfunc.h ****   __ASM volatile ("cpsid i" : : : "memory");
 2554              		.loc 3 344 0
 2555              		.syntax divided
 2556              	@ 344 "e:\liteos\liteos\targets\cloud_fm33a0xx\device\include\core_cmfunc.h" 1
 2557 0002 72B6     		cpsid i
 2558              	@ 0 "" 2
 2559              		.thumb
 2560              		.syntax unified
 2561              	.LBE17:
 2562              	.LBE16:
 632:e:/LiteOS/LiteOS/targets/Cloud_FM33A0XX/GCC/../../../targets/Cloud_FM33A0XX/UserCode\user_init.c **** 	/*基础系统配置*/
 633:e:/LiteOS/LiteOS/targets/Cloud_FM33A0XX/GCC/../../../targets/Cloud_FM33A0XX/UserCode\user_init.c ****     __disable_irq();			//关闭全局中断使能
 634:e:/LiteOS/LiteOS/targets/Cloud_FM33A0XX/GCC/../../../targets/Cloud_FM33A0XX/UserCode\user_init.c ****     IWDT_Init();				//系统看门狗设置
 2563              		.loc 1 634 0
 2564 0004 FFF7FEFF 		bl	IWDT_Init
 2565              	.LVL305:
 635:e:/LiteOS/LiteOS/targets/Cloud_FM33A0XX/GCC/../../../targets/Cloud_FM33A0XX/UserCode\user_init.c ****     IWDT_Clr();  				//清系统看门狗	
 2566              		.loc 1 635 0
 2567 0008 FFF7FEFF 		bl	IWDT_Clr
 2568              	.LVL306:
 636:e:/LiteOS/LiteOS/targets/Cloud_FM33A0XX/GCC/../../../targets/Cloud_FM33A0XX/UserCode\user_init.c **** 	
 637:e:/LiteOS/LiteOS/targets/Cloud_FM33A0XX/GCC/../../../targets/Cloud_FM33A0XX/UserCode\user_init.c **** 	Init_SysTick();				//cpu滴答定时器配置(软件延时用)	
 2569              		.loc 1 637 0
 2570 000c FFF7FEFF 		bl	Init_SysTick
 2571              	.LVL307:
 638:e:/LiteOS/LiteOS/targets/Cloud_FM33A0XX/GCC/../../../targets/Cloud_FM33A0XX/UserCode\user_init.c **** 	TicksDelayMs( 10, NULL );	//软件延时,系统上电后不要立刻将时钟切换为非RCHF8M，也不要立刻进休眠否则
 2572              		.loc 1 638 0
 2573 0010 0021     		movs	r1, #0
 2574 0012 0A20     		movs	r0, #10
 2575 0014 FFF7FEFF 		bl	TicksDelayMs
 2576              	.LVL308:
 639:e:/LiteOS/LiteOS/targets/Cloud_FM33A0XX/GCC/../../../targets/Cloud_FM33A0XX/UserCode\user_init.c **** 	
 640:e:/LiteOS/LiteOS/targets/Cloud_FM33A0XX/GCC/../../../targets/Cloud_FM33A0XX/UserCode\user_init.c **** 	Init_SysClk_Gen();			//系统时钟配置
 2577              		.loc 1 640 0
 2578 0018 FFF7FEFF 		bl	Init_SysClk_Gen
 2579              	.LVL309:
 641:e:/LiteOS/LiteOS/targets/Cloud_FM33A0XX/GCC/../../../targets/Cloud_FM33A0XX/UserCode\user_init.c **** 	RCC_Init_RCHF_Trim(clkmode);//RCHF振荡器校准值载入(芯片复位后自动载入8M的校准值)
 2580              		.loc 1 641 0
 2581 001c 0120     		movs	r0, #1
ARM GAS  C:\Users\WANGBI~1\AppData\Local\Temp\ccbZtvog.s 			page 80


 2582 001e FFF7FEFF 		bl	RCC_Init_RCHF_Trim
 2583              	.LVL310:
 642:e:/LiteOS/LiteOS/targets/Cloud_FM33A0XX/GCC/../../../targets/Cloud_FM33A0XX/UserCode\user_init.c **** 	
 643:e:/LiteOS/LiteOS/targets/Cloud_FM33A0XX/GCC/../../../targets/Cloud_FM33A0XX/UserCode\user_init.c **** 	/*外设初始化配置*/
 644:e:/LiteOS/LiteOS/targets/Cloud_FM33A0XX/GCC/../../../targets/Cloud_FM33A0XX/UserCode\user_init.c **** 	Init_Pad_Io();				//IO口输出寄存器初始状态配置
 2584              		.loc 1 644 0
 2585 0022 FFF7FEFF 		bl	Init_Pad_Io
 2586              	.LVL311:
 645:e:/LiteOS/LiteOS/targets/Cloud_FM33A0XX/GCC/../../../targets/Cloud_FM33A0XX/UserCode\user_init.c **** 	Close_None_GPIO_80pin();    //关闭80脚芯片不支持的IO
 2587              		.loc 1 645 0
 2588 0026 FFF7FEFF 		bl	Close_None_GPIO_80pin
 2589              	.LVL312:
 646:e:/LiteOS/LiteOS/targets/Cloud_FM33A0XX/GCC/../../../targets/Cloud_FM33A0XX/UserCode\user_init.c **** 	Close_AllIO_GPIO_80pin();   //关闭全部IO
 2590              		.loc 1 646 0
 2591 002a FFF7FEFF 		bl	Close_AllIO_GPIO_80pin
 2592              	.LVL313:
 647:e:/LiteOS/LiteOS/targets/Cloud_FM33A0XX/GCC/../../../targets/Cloud_FM33A0XX/UserCode\user_init.c **** 	
 648:e:/LiteOS/LiteOS/targets/Cloud_FM33A0XX/GCC/../../../targets/Cloud_FM33A0XX/UserCode\user_init.c **** 	/*用户初始化代码*/
 649:e:/LiteOS/LiteOS/targets/Cloud_FM33A0XX/GCC/../../../targets/Cloud_FM33A0XX/UserCode\user_init.c **** 	Init_IO();
 2593              		.loc 1 649 0
 2594 002e FFF7FEFF 		bl	Init_IO
 2595              	.LVL314:
 650:e:/LiteOS/LiteOS/targets/Cloud_FM33A0XX/GCC/../../../targets/Cloud_FM33A0XX/UserCode\user_init.c **** 	
 651:e:/LiteOS/LiteOS/targets/Cloud_FM33A0XX/GCC/../../../targets/Cloud_FM33A0XX/UserCode\user_init.c **** 	/*准备进入主循环*/
 652:e:/LiteOS/LiteOS/targets/Cloud_FM33A0XX/GCC/../../../targets/Cloud_FM33A0XX/UserCode\user_init.c **** 	TicksDelayMs( 100, NULL );	//软件延时
 2596              		.loc 1 652 0
 2597 0032 0021     		movs	r1, #0
 2598 0034 6420     		movs	r0, #100
 2599 0036 FFF7FEFF 		bl	TicksDelayMs
 2600              	.LVL315:
 653:e:/LiteOS/LiteOS/targets/Cloud_FM33A0XX/GCC/../../../targets/Cloud_FM33A0XX/UserCode\user_init.c **** 	
 654:e:/LiteOS/LiteOS/targets/Cloud_FM33A0XX/GCC/../../../targets/Cloud_FM33A0XX/UserCode\user_init.c **** 	LED0_Flash(5);				//软件延时，闪灯五次
 2601              		.loc 1 654 0
 2602 003a 0520     		movs	r0, #5
 2603 003c FFF7FEFF 		bl	LED0_Flash
 2604              	.LVL316:
 2605              	.LBB18:
 2606              	.LBB19:
 333:e:\liteos\liteos\targets\cloud_fm33a0xx\device\include\core_cmfunc.h **** }
 2607              		.loc 3 333 0
 2608              		.syntax divided
 2609              	@ 333 "e:\liteos\liteos\targets\cloud_fm33a0xx\device\include\core_cmfunc.h" 1
 2610 0040 62B6     		cpsie i
 2611              	@ 0 "" 2
 2612              		.thumb
 2613              		.syntax unified
 2614              	.LBE19:
 2615              	.LBE18:
 655:e:/LiteOS/LiteOS/targets/Cloud_FM33A0XX/GCC/../../../targets/Cloud_FM33A0XX/UserCode\user_init.c **** 	
 656:e:/LiteOS/LiteOS/targets/Cloud_FM33A0XX/GCC/../../../targets/Cloud_FM33A0XX/UserCode\user_init.c **** 	__enable_irq();				//打开全局中断使能
 657:e:/LiteOS/LiteOS/targets/Cloud_FM33A0XX/GCC/../../../targets/Cloud_FM33A0XX/UserCode\user_init.c **** }
 2616              		.loc 1 657 0
 2617              		@ sp needed
 2618 0042 10BD     		pop	{r4, pc}
 2619              		.cfi_endproc
 2620              	.LFE69:
 2622              		.text
ARM GAS  C:\Users\WANGBI~1\AppData\Local\Temp\ccbZtvog.s 			page 81


 2623              	.Letext0:
 2624              		.file 4 "e:\\liteos\\liteos\\targets\\cloud_fm33a0xx\\device\\include\\fm33a0xx.h"
 2625              		.file 5 "d:\\gnu tools arm embedded\\5.4 2016q3\\arm-none-eabi\\include\\machine\\_default_types.h
 2626              		.file 6 "d:\\gnu tools arm embedded\\5.4 2016q3\\arm-none-eabi\\include\\sys\\_stdint.h"
 2627              		.file 7 "e:\\liteos\\liteos\\targets\\cloud_fm33a0xx\\drivers\\fm33a0xx_gpio.h"
 2628              		.file 8 "e:\\liteos\\liteos\\targets\\cloud_fm33a0xx\\drivers\\fm33a0xx_rcc.h"
 2629              		.file 9 "e:\\liteos\\liteos\\targets\\cloud_fm33a0xx\\usercode\\user_init.h"
 2630              		.file 10 "e:\\liteos\\liteos\\targets\\cloud_fm33a0xx\\drivers\\fm33a0xx_scu.h"
 2631              		.file 11 "e:\\liteos\\liteos\\targets\\cloud_fm33a0xx\\drivers\\fm33a0xx_flash.h"
 2632              		.file 12 "e:\\liteos\\liteos\\targets\\cloud_fm33a0xx\\drivers\\fm33a0xx_anac.h"
 2633              		.file 13 "e:\\liteos\\liteos\\targets\\cloud_fm33a0xx\\drivers\\fm33a0xx_iwdt.h"
ARM GAS  C:\Users\WANGBI~1\AppData\Local\Temp\ccbZtvog.s 			page 82


DEFINED SYMBOLS
                            *ABS*:00000000 user_init.c
C:\Users\WANGBI~1\AppData\Local\Temp\ccbZtvog.s:20     .text.Init_SysTick:00000000 $t
C:\Users\WANGBI~1\AppData\Local\Temp\ccbZtvog.s:25     .text.Init_SysTick:00000000 Init_SysTick
C:\Users\WANGBI~1\AppData\Local\Temp\ccbZtvog.s:74     .text.Init_SysTick:00000024 $d
C:\Users\WANGBI~1\AppData\Local\Temp\ccbZtvog.s:81     .text.TicksDelay:00000000 $t
C:\Users\WANGBI~1\AppData\Local\Temp\ccbZtvog.s:86     .text.TicksDelay:00000000 TicksDelay
C:\Users\WANGBI~1\AppData\Local\Temp\ccbZtvog.s:121    .text.TicksDelay:00000020 $d
C:\Users\WANGBI~1\AppData\Local\Temp\ccbZtvog.s:126    .text.TicksDelayMs:00000000 $t
C:\Users\WANGBI~1\AppData\Local\Temp\ccbZtvog.s:131    .text.TicksDelayMs:00000000 TicksDelayMs
C:\Users\WANGBI~1\AppData\Local\Temp\ccbZtvog.s:183    .text.TicksDelayUs:00000000 $t
C:\Users\WANGBI~1\AppData\Local\Temp\ccbZtvog.s:188    .text.TicksDelayUs:00000000 TicksDelayUs
C:\Users\WANGBI~1\AppData\Local\Temp\ccbZtvog.s:220    .text.TicksDelayUs:00000014 $d
C:\Users\WANGBI~1\AppData\Local\Temp\ccbZtvog.s:225    .text.CheckSysReg:00000000 $t
C:\Users\WANGBI~1\AppData\Local\Temp\ccbZtvog.s:230    .text.CheckSysReg:00000000 CheckSysReg
C:\Users\WANGBI~1\AppData\Local\Temp\ccbZtvog.s:261    .text.CheckNvicIrqEn:00000000 $t
C:\Users\WANGBI~1\AppData\Local\Temp\ccbZtvog.s:266    .text.CheckNvicIrqEn:00000000 CheckNvicIrqEn
C:\Users\WANGBI~1\AppData\Local\Temp\ccbZtvog.s:296    .text.CheckNvicIrqEn:00000018 $d
C:\Users\WANGBI~1\AppData\Local\Temp\ccbZtvog.s:301    .text.AnalogIO:00000000 $t
C:\Users\WANGBI~1\AppData\Local\Temp\ccbZtvog.s:306    .text.AnalogIO:00000000 AnalogIO
C:\Users\WANGBI~1\AppData\Local\Temp\ccbZtvog.s:368    .text.InputtIO:00000000 $t
C:\Users\WANGBI~1\AppData\Local\Temp\ccbZtvog.s:373    .text.InputtIO:00000000 InputtIO
C:\Users\WANGBI~1\AppData\Local\Temp\ccbZtvog.s:473    .text.InputtIO:0000006c $d
C:\Users\WANGBI~1\AppData\Local\Temp\ccbZtvog.s:479    .text.OutputIO:00000000 $t
C:\Users\WANGBI~1\AppData\Local\Temp\ccbZtvog.s:484    .text.OutputIO:00000000 OutputIO
C:\Users\WANGBI~1\AppData\Local\Temp\ccbZtvog.s:583    .text.OutputIO:0000006c $d
C:\Users\WANGBI~1\AppData\Local\Temp\ccbZtvog.s:588    .text.AltFunIO:00000000 $t
C:\Users\WANGBI~1\AppData\Local\Temp\ccbZtvog.s:593    .text.AltFunIO:00000000 AltFunIO
C:\Users\WANGBI~1\AppData\Local\Temp\ccbZtvog.s:725    .text.CloseeIO:00000000 $t
C:\Users\WANGBI~1\AppData\Local\Temp\ccbZtvog.s:730    .text.CloseeIO:00000000 CloseeIO
C:\Users\WANGBI~1\AppData\Local\Temp\ccbZtvog.s:792    .text.Init_Pad_Io:00000000 $t
C:\Users\WANGBI~1\AppData\Local\Temp\ccbZtvog.s:797    .text.Init_Pad_Io:00000000 Init_Pad_Io
C:\Users\WANGBI~1\AppData\Local\Temp\ccbZtvog.s:849    .text.Init_Pad_Io:0000003c $d
C:\Users\WANGBI~1\AppData\Local\Temp\ccbZtvog.s:860    .text.Close_None_GPIO_80pin:00000000 $t
C:\Users\WANGBI~1\AppData\Local\Temp\ccbZtvog.s:865    .text.Close_None_GPIO_80pin:00000000 Close_None_GPIO_80pin
C:\Users\WANGBI~1\AppData\Local\Temp\ccbZtvog.s:1112   .text.Close_None_GPIO_80pin:00000178 $d
C:\Users\WANGBI~1\AppData\Local\Temp\ccbZtvog.s:1121   .text.Close_AllIOEXTI:00000000 $t
C:\Users\WANGBI~1\AppData\Local\Temp\ccbZtvog.s:1126   .text.Close_AllIOEXTI:00000000 Close_AllIOEXTI
C:\Users\WANGBI~1\AppData\Local\Temp\ccbZtvog.s:1159   .text.Close_AllIOEXTI:00000020 $d
C:\Users\WANGBI~1\AppData\Local\Temp\ccbZtvog.s:1167   .text.IO_AnalogFunSet:00000000 $t
C:\Users\WANGBI~1\AppData\Local\Temp\ccbZtvog.s:1172   .text.IO_AnalogFunSet:00000000 IO_AnalogFunSet
C:\Users\WANGBI~1\AppData\Local\Temp\ccbZtvog.s:1214   .text.IO_DFFunSet:00000000 $t
C:\Users\WANGBI~1\AppData\Local\Temp\ccbZtvog.s:1219   .text.IO_DFFunSet:00000000 IO_DFFunSet
C:\Users\WANGBI~1\AppData\Local\Temp\ccbZtvog.s:1373   .text.IO_WKENFunSet:00000000 $t
C:\Users\WANGBI~1\AppData\Local\Temp\ccbZtvog.s:1378   .text.IO_WKENFunSet:00000000 IO_WKENFunSet
C:\Users\WANGBI~1\AppData\Local\Temp\ccbZtvog.s:1436   .text.Close_AllIO_GPIO_80pin:00000000 $t
C:\Users\WANGBI~1\AppData\Local\Temp\ccbZtvog.s:1441   .text.Close_AllIO_GPIO_80pin:00000000 Close_AllIO_GPIO_80pin
C:\Users\WANGBI~1\AppData\Local\Temp\ccbZtvog.s:1880   .text.Close_AllIO_GPIO_80pin:000002ac $d
C:\Users\WANGBI~1\AppData\Local\Temp\ccbZtvog.s:1891   .text.Init_RCC_PERIPH_clk:00000000 $t
C:\Users\WANGBI~1\AppData\Local\Temp\ccbZtvog.s:1896   .text.Init_RCC_PERIPH_clk:00000000 Init_RCC_PERIPH_clk
C:\Users\WANGBI~1\AppData\Local\Temp\ccbZtvog.s:2117   .text.Init_RCC_PERIPH_clk:0000014c $d
C:\Users\WANGBI~1\AppData\Local\Temp\ccbZtvog.s:2157   .text.Init_PLL:00000000 $t
C:\Users\WANGBI~1\AppData\Local\Temp\ccbZtvog.s:2162   .text.Init_PLL:00000000 Init_PLL
C:\Users\WANGBI~1\AppData\Local\Temp\ccbZtvog.s:2203   .text.Init_SysClk:00000000 $t
C:\Users\WANGBI~1\AppData\Local\Temp\ccbZtvog.s:2208   .text.Init_SysClk:00000000 Init_SysClk
C:\Users\WANGBI~1\AppData\Local\Temp\ccbZtvog.s:2257   .text.SCU_Init:00000000 $t
C:\Users\WANGBI~1\AppData\Local\Temp\ccbZtvog.s:2262   .text.SCU_Init:00000000 SCU_Init
ARM GAS  C:\Users\WANGBI~1\AppData\Local\Temp\ccbZtvog.s 			page 83


C:\Users\WANGBI~1\AppData\Local\Temp\ccbZtvog.s:2328   .text.Init_SysClk_Gen:00000000 $t
C:\Users\WANGBI~1\AppData\Local\Temp\ccbZtvog.s:2333   .text.Init_SysClk_Gen:00000000 Init_SysClk_Gen
C:\Users\WANGBI~1\AppData\Local\Temp\ccbZtvog.s:2380   .text.IWDT_Init:00000000 $t
C:\Users\WANGBI~1\AppData\Local\Temp\ccbZtvog.s:2385   .text.IWDT_Init:00000000 IWDT_Init
C:\Users\WANGBI~1\AppData\Local\Temp\ccbZtvog.s:2418   .text.IWDT_Init:0000001c $d
C:\Users\WANGBI~1\AppData\Local\Temp\ccbZtvog.s:2423   .text.Init_IO:00000000 $t
C:\Users\WANGBI~1\AppData\Local\Temp\ccbZtvog.s:2428   .text.Init_IO:00000000 Init_IO
C:\Users\WANGBI~1\AppData\Local\Temp\ccbZtvog.s:2457   .text.Init_IO:00000018 $d
C:\Users\WANGBI~1\AppData\Local\Temp\ccbZtvog.s:2462   .text.LED0_Flash:00000000 $t
C:\Users\WANGBI~1\AppData\Local\Temp\ccbZtvog.s:2467   .text.LED0_Flash:00000000 LED0_Flash
C:\Users\WANGBI~1\AppData\Local\Temp\ccbZtvog.s:2530   .text.LED0_Flash:0000003c $d
C:\Users\WANGBI~1\AppData\Local\Temp\ccbZtvog.s:2535   .text.Init_System:00000000 $t
C:\Users\WANGBI~1\AppData\Local\Temp\ccbZtvog.s:2540   .text.Init_System:00000000 Init_System
                     .debug_frame:00000010 $d

UNDEFINED SYMBOLS
GPIO_Get_InitPara
GPIO_Init
GPIO_SetBits
GPIOx_DO_Write
GPIO_ANASEL_PE4ANS_Set
GPIO_ANASEL_PE3ANS_Set
GPIO_ANASEL_PC15ANS_Set
GPIO_ANASEL_PC14ANS_Set
GPIO_ANASEL_PC13ANS_Set
GPIO_ANASEL_PC12ANS_Set
GPIO_IODF_SetableEx
GPIO_PINWKEN_SetableEx
GPIO_HDSEL_PE2HDEN_Setable
GPIO_HDSEL_PG6HDEN_Setable
GPIO_FOUTSEL_FOUTSEL_Set
RCC_PERCLK_SetableEx
RCC_PLL_Init
RCC_PLLCON_PLLEN_Setable
RCC_RCHF_Init
RCC_SysClk_Init
SCU_MCUDBGCR_DBG_WWDT_STOP_Setable
SCU_MCUDBGCR_DBG_IWDT_STOP_Setable
SCU_MCUDBGCR_DBG_ET4_STOP_Setable
SCU_MCUDBGCR_DBG_ET3_STOP_Setable
SCU_MCUDBGCR_DBG_ET2_STOP_Setable
SCU_MCUDBGCR_DBG_ET1_STOP_Setable
SCU_MCUDBGCR_DBG_BT2_STOP_Setable
SCU_MCUDBGCR_DBG_BT1_STOP_Setable
FLASH_FLSRDCON_WAIT_Set
RCC_MPRIL_MPRIL_Set
ANAC_PDRCON_PDRCFG_Set
ANAC_PDRCON_PDREN_Setable
IWDT_Clr
IWDT_IWDTCFG_IWDTOVP_Set
IWDT_IWDTCFG_IWDTSLP4096S_Setable
GPIO_ResetBits
RCC_Init_RCHF_Trim
